Disassembly of section .init:

08048498 <_init>:
 8048498:	53                   	push   ebx
 8048499:	83 ec 08             	sub    esp,0x8
 804849c:	e8 ef 03 00 00       	call   8048890
 80484a1:	81 c3 5f db 00 00    	add    ebx,0xdb5f
 80484a7:	8b 83 fc ff ff ff    	mov    eax,DWORD PTR [ebx-0x4]
 80484ad:	85 c0                	test   eax,eax
 80484af:	74 05                	je     80484b6
 80484b1:	e8 5a 00 00 00       	call   8048510
 80484b6:	83 c4 08             	add    esp,0x8
 80484b9:	5b                   	pop    ebx
 80484ba:	c3                   	ret

Disassembly of section .plt:
 80484c0:	ff 35 04 60 05 08    	push   DWORD PTR ds:0x8056004
 80484c6:	ff 25 08 60 05 08    	jmp    DWORD PTR ds:0x8056008
 80484cc:	00 00                	add    BYTE PTR [eax],al
 80484ce:	00 00                	add    BYTE PTR [eax],al
 80484d0:	ff 25 0c 60 05 08    	jmp    DWORD PTR ds:0x805600c
 80484d6:	68 00 00 00 00       	push   0x0
 80484db:	e9 e0 ff ff ff       	jmp    80484c0
 80484e0:	ff 25 10 60 05 08    	jmp    DWORD PTR ds:0x8056010
 80484e6:	68 08 00 00 00       	push   0x8
 80484eb:	e9 d0 ff ff ff       	jmp    80484c0
 80484f0:	ff 25 14 60 05 08    	jmp    DWORD PTR ds:0x8056014
 80484f6:	68 10 00 00 00       	push   0x10
 80484fb:	e9 c0 ff ff ff       	jmp    80484c0
 8048500:	ff 25 18 60 05 08    	jmp    DWORD PTR ds:0x8056018
 8048506:	68 18 00 00 00       	push   0x18
 804850b:	e9 b0 ff ff ff       	jmp    80484c0
 8048510:	ff 25 1c 60 05 08    	jmp    DWORD PTR ds:0x805601c
 8048516:	68 20 00 00 00       	push   0x20
 804851b:	e9 a0 ff ff ff       	jmp    80484c0
 8048520:	ff 25 20 60 05 08    	jmp    DWORD PTR ds:0x8056020
 8048526:	68 28 00 00 00       	push   0x28
 804852b:	e9 90 ff ff ff       	jmp    80484c0
 8048530:	ff 25 24 60 05 08    	jmp    DWORD PTR ds:0x8056024
 8048536:	68 30 00 00 00       	push   0x30
 804853b:	e9 80 ff ff ff       	jmp    80484c0
 8048540:	ff 25 28 60 05 08    	jmp    DWORD PTR ds:0x8056028
 8048546:	68 38 00 00 00       	push   0x38
 804854b:	e9 70 ff ff ff       	jmp    80484c0
 8048550:	ff 25 2c 60 05 08    	jmp    DWORD PTR ds:0x805602c
 8048556:	68 40 00 00 00       	push   0x40
 804855b:	e9 60 ff ff ff       	jmp    80484c0
 8048560:	ff 25 30 60 05 08    	jmp    DWORD PTR ds:0x8056030
 8048566:	68 48 00 00 00       	push   0x48
 804856b:	e9 50 ff ff ff       	jmp    80484c0
 8048570:	ff 25 34 60 05 08    	jmp    DWORD PTR ds:0x8056034
 8048576:	68 50 00 00 00       	push   0x50
 804857b:	e9 40 ff ff ff       	jmp    80484c0
 8048580:	ff 25 38 60 05 08    	jmp    DWORD PTR ds:0x8056038
 8048586:	68 58 00 00 00       	push   0x58
 804858b:	e9 30 ff ff ff       	jmp    80484c0
 8048590:	ff 25 3c 60 05 08    	jmp    DWORD PTR ds:0x805603c
 8048596:	68 60 00 00 00       	push   0x60
 804859b:	e9 20 ff ff ff       	jmp    80484c0
 80485a0:	ff 25 40 60 05 08    	jmp    DWORD PTR ds:0x8056040
 80485a6:	68 68 00 00 00       	push   0x68
 80485ab:	e9 10 ff ff ff       	jmp    80484c0

Disassembly of section .text:

080485c0 <checkPowerOfTwo.part.0>:
 80485c0:	83 ec 1c             	sub    esp,0x1c
 80485c3:	c7 44 24 0c 8d 39 05 	mov    DWORD PTR [esp+0xc],0x805398d
 80485ca:	08 
 80485cb:	c7 44 24 08 28 00 00 	mov    DWORD PTR [esp+0x8],0x28
 80485d2:	00 
 80485d3:	c7 44 24 04 e0 38 05 	mov    DWORD PTR [esp+0x4],0x80538e0
 80485da:	08 
 80485db:	c7 04 24 84 39 05 08 	mov    DWORD PTR [esp],0x8053984
 80485e2:	e8 a9 ff ff ff       	call   8048590
 80485e7:	66 90                	xchg   ax,ax
 80485e9:	66 90                	xchg   ax,ax
 80485eb:	66 90                	xchg   ax,ax
 80485ed:	66 90                	xchg   ax,ax
 80485ef:	90                   	nop

080485f0 <main>:
 80485f0:	55                   	push   ebp
 80485f1:	89 e5                	mov    ebp,esp
 80485f3:	57                   	push   edi
 80485f4:	56                   	push   esi
 80485f5:	31 f6                	xor    esi,esi
 80485f7:	53                   	push   ebx
 80485f8:	31 db                	xor    ebx,ebx
 80485fa:	83 e4 f0             	and    esp,0xf0
 80485fd:	83 ec 20             	sub    esp,0x20
 8048600:	c7 44 24 0c 9d 39 05 	mov    DWORD PTR [esp+0xc],0x805399d
 8048607:	08 
 8048608:	c7 44 24 08 ae 39 05 	mov    DWORD PTR [esp+0x8],0x80539ae
 804860f:	08 
 8048610:	c7 44 24 04 c0 39 05 	mov    DWORD PTR [esp+0x4],0x80539c0
 8048617:	08 
 8048618:	c7 04 24 01 00 00 00 	mov    DWORD PTR [esp],0x1
 804861f:	e8 3c ff ff ff       	call   8048560
 8048624:	e8 07 b1 00 00       	call   8053730
 8048629:	c7 44 24 04 00 00 00 	mov    DWORD PTR [esp+0x4],0x0
 8048630:	00 
 8048631:	c7 04 24 40 62 07 08 	mov    DWORD PTR [esp],0x8076240
 8048638:	a3 30 62 05 08       	mov    ds:0x8056230,eax
 804863d:	89 15 34 62 05 08    	mov    DWORD PTR ds:0x8056234,edx
 8048643:	e8 a8 fe ff ff       	call   80484f0
 8048648:	e8 33 ff ff ff       	call   8048580
 804864d:	83 c3 01             	add    ebx,0x1
 8048650:	81 fb 00 00 02 00    	cmp    ebx,0x20000
 8048656:	88 86 40 62 05 08    	mov    BYTE PTR [esi+0x8056240],al
 804865c:	89 de                	mov    esi,ebx
 804865e:	75 e8                	jne    8048648
 8048660:	bb 0a 00 00 00       	mov    ebx,0xa
 8048665:	8d 76 00             	lea    esi,[esi]
 8048668:	31 f6                	xor    esi,esi
 804866a:	8d b6 00 00 00 00    	lea    esi,[esi]
 8048670:	e8 bb b0 00 00       	call   8053730
 8048675:	89 04 f5 80 61 05 08 	mov    DWORD PTR [esi*8+0x8056180],eax
 804867c:	89 14 f5 84 61 05 08 	mov    DWORD PTR [esi*8+0x8056184],edx
 8048683:	83 c6 01             	add    esi,0x1
 8048686:	83 fe 15             	cmp    esi,0x15
 8048689:	75 e5                	jne    8048670
 804868b:	31 ff                	xor    edi,edi
 804868d:	be 40 62 05 08       	mov    esi,0x8056240
 8048692:	8d b6 00 00 00 00    	lea    esi,[esi]
 8048698:	e8 93 b0 00 00       	call   8053730
 804869d:	89 34 24             	mov    DWORD PTR [esp],esi
 80486a0:	89 04 fd 80 61 05 08 	mov    DWORD PTR [edi*8+0x8056180],eax
 80486a7:	8d 46 40             	lea    eax,[esi+0x40]
 80486aa:	89 44 24 08          	mov    DWORD PTR [esp+0x8],eax
 80486ae:	8d 46 20             	lea    eax,[esi+0x20]
 80486b1:	83 ee 80             	sub    esi,0x80
 80486b4:	89 44 24 04          	mov    DWORD PTR [esp+0x4],eax
 80486b8:	89 14 fd 84 61 05 08 	mov    DWORD PTR [edi*8+0x8056184],edx
 80486bf:	83 c7 01             	add    edi,0x1
 80486c2:	e8 09 75 00 00       	call   804fbd0
 80486c7:	81 fe c0 6c 05 08    	cmp    esi,0x8056cc0
 80486cd:	75 c9                	jne    8048698
 80486cf:	31 f6                	xor    esi,esi
 80486d1:	8d b4 26 00 00 00 00 	lea    esi,[esi]
 80486d8:	83 c6 01             	add    esi,0x1
 80486db:	8b 04 f5 80 61 05 08 	mov    eax,DWORD PTR [esi*8+0x8056180]
 80486e2:	8b 14 f5 84 61 05 08 	mov    edx,DWORD PTR [esi*8+0x8056184]
 80486e9:	2b 04 f5 78 61 05 08 	sub    eax,DWORD PTR [esi*8+0x8056178]
 80486f0:	1b 14 f5 7c 61 05 08 	sbb    edx,DWORD PTR [esi*8+0x805617c]
 80486f7:	c7 44 24 04 c7 39 05 	mov    DWORD PTR [esp+0x4],0x80539c7
 80486fe:	08 
 80486ff:	89 44 24 08          	mov    DWORD PTR [esp+0x8],eax
 8048703:	89 54 24 0c          	mov    DWORD PTR [esp+0xc],edx
 8048707:	c7 04 24 01 00 00 00 	mov    DWORD PTR [esp],0x1
 804870e:	e8 4d fe ff ff       	call   8048560
 8048713:	83 fe 14             	cmp    esi,0x14
 8048716:	75 c0                	jne    80486d8
 8048718:	c7 04 24 0a 00 00 00 	mov    DWORD PTR [esp],0xa
 804871f:	e8 1c fe ff ff       	call   8048540
 8048724:	a1 a0 60 05 08       	mov    eax,ds:0x80560a0
 8048729:	89 04 24             	mov    DWORD PTR [esp],eax
 804872c:	e8 9f fd ff ff       	call   80484d0
 8048731:	31 d2                	xor    edx,edx
 8048733:	31 c0                	xor    eax,eax
 8048735:	8d 76 00             	lea    esi,[esi]
 8048738:	0f b6 8a c0 62 05 08 	movzx  ecx,BYTE PTR [edx+0x80562c0]
 804873f:	83 c0 01             	add    eax,0x1
 8048742:	3d 80 ff 01 00       	cmp    eax,0x1ff80
 8048747:	88 8a 40 62 05 08    	mov    BYTE PTR [edx+0x8056240],cl
 804874d:	89 c2                	mov    edx,eax
 804874f:	75 e7                	jne    8048738
 8048751:	83 eb 01             	sub    ebx,0x1
 8048754:	0f 85 0e ff ff ff    	jne    8048668
 804875a:	e8 d1 af 00 00       	call   8053730
 804875f:	bb 40 42 0f 00       	mov    ebx,0xf4240
 8048764:	c7 44 24 04 00 00 00 	mov    DWORD PTR [esp+0x4],0x0
 804876b:	00 
 804876c:	c7 04 24 60 61 05 08 	mov    DWORD PTR [esp],0x8056160
 8048773:	89 15 2c 62 05 08    	mov    DWORD PTR ds:0x805622c,edx
 8048779:	a3 28 62 05 08       	mov    ds:0x8056228,eax
 804877e:	e8 6d fd ff ff       	call   80484f0
 8048783:	a1 28 62 05 08       	mov    eax,ds:0x8056228
 8048788:	8b 15 2c 62 05 08    	mov    edx,DWORD PTR ds:0x805622c
 804878e:	2b 05 30 62 05 08    	sub    eax,DWORD PTR ds:0x8056230
 8048794:	1b 15 34 62 05 08    	sbb    edx,DWORD PTR ds:0x8056234
 804879a:	c7 44 24 04 ce 39 05 	mov    DWORD PTR [esp+0x4],0x80539ce
 80487a1:	08 
 80487a2:	89 44 24 08          	mov    DWORD PTR [esp+0x8],eax
 80487a6:	89 54 24 0c          	mov    DWORD PTR [esp+0xc],edx
 80487aa:	c7 04 24 01 00 00 00 	mov    DWORD PTR [esp],0x1
 80487b1:	e8 aa fd ff ff       	call   8048560
 80487b6:	a1 60 61 05 08       	mov    eax,ds:0x8056160
 80487bb:	2b 05 40 62 07 08    	sub    eax,DWORD PTR ds:0x8076240
 80487c1:	8b 35 64 61 05 08    	mov    esi,DWORD PTR ds:0x8056164
 80487c7:	2b 35 44 62 07 08    	sub    esi,DWORD PTR ds:0x8076244
 80487cd:	f7 eb                	imul   ebx
 80487cf:	c7 44 24 04 db 39 05 	mov    DWORD PTR [esp+0x4],0x80539db
 80487d6:	08 
 80487d7:	89 f7                	mov    edi,esi
 80487d9:	c1 ff 1f             	sar    edi,0x1f
 80487dc:	01 f0                	add    eax,esi
 80487de:	11 fa                	adc    edx,edi
 80487e0:	89 54 24 0c          	mov    DWORD PTR [esp+0xc],edx
 80487e4:	89 44 24 08          	mov    DWORD PTR [esp+0x8],eax
 80487e8:	c7 04 24 01 00 00 00 	mov    DWORD PTR [esp],0x1
 80487ef:	e8 6c fd ff ff       	call   8048560
 80487f4:	a1 60 61 05 08       	mov    eax,ds:0x8056160
 80487f9:	2b 05 40 62 07 08    	sub    eax,DWORD PTR ds:0x8076240
 80487ff:	8b 35 28 62 05 08    	mov    esi,DWORD PTR ds:0x8056228
 8048805:	8b 3d 2c 62 05 08    	mov    edi,DWORD PTR ds:0x805622c
 804880b:	8b 0d 64 61 05 08    	mov    ecx,DWORD PTR ds:0x8056164
 8048811:	2b 35 30 62 05 08    	sub    esi,DWORD PTR ds:0x8056230
 8048817:	1b 3d 34 62 05 08    	sbb    edi,DWORD PTR ds:0x8056234
 804881d:	f7 eb                	imul   ebx
 804881f:	2b 0d 44 62 07 08    	sub    ecx,DWORD PTR ds:0x8076244
 8048825:	89 74 24 18          	mov    DWORD PTR [esp+0x18],esi
 8048829:	89 7c 24 1c          	mov    DWORD PTR [esp+0x1c],edi
 804882d:	89 cb                	mov    ebx,ecx
 804882f:	df 6c 24 18          	fild   QWORD PTR [esp+0x18]
 8048833:	c1 fb 1f             	sar    ebx,0x1f
 8048836:	01 c8                	add    eax,ecx
 8048838:	11 da                	adc    edx,ebx
 804883a:	89 44 24 18          	mov    DWORD PTR [esp+0x18],eax
 804883e:	89 54 24 1c          	mov    DWORD PTR [esp+0x1c],edx
 8048842:	df 6c 24 18          	fild   QWORD PTR [esp+0x18]
 8048846:	de f9                	fdivp  st(1),st
 8048848:	c7 44 24 04 e7 39 05 	mov    DWORD PTR [esp+0x4],0x80539e7
 804884f:	08 
 8048850:	c7 04 24 01 00 00 00 	mov    DWORD PTR [esp],0x1
 8048857:	dd 5c 24 08          	fstp   QWORD PTR [esp+0x8]
 804885b:	e8 00 fd ff ff       	call   8048560
 8048860:	8d 65 f4             	lea    esp,[ebp-0xc]
 8048863:	31 c0                	xor    eax,eax
 8048865:	5b                   	pop    ebx
 8048866:	5e                   	pop    esi
 8048867:	5f                   	pop    edi
 8048868:	5d                   	pop    ebp
 8048869:	c3                   	ret

0804886a <_start>:
 804886a:	31 ed                	xor    ebp,ebp
 804886c:	5e                   	pop    esi
 804886d:	89 e1                	mov    ecx,esp
 804886f:	83 e4 f0             	and    esp,0xf0
 8048872:	50                   	push   eax
 8048873:	54                   	push   esp
 8048874:	52                   	push   edx
 8048875:	68 b0 37 05 08       	push   0x80537b0
 804887a:	68 40 37 05 08       	push   0x8053740
 804887f:	51                   	push   ecx
 8048880:	56                   	push   esi
 8048881:	68 f0 85 04 08       	push   0x80485f0
 8048886:	e8 a5 fc ff ff       	call   8048530
 804888b:	f4                   	hlt
 804888c:	66 90                	xchg   ax,ax
 804888e:	66 90                	xchg   ax,ax

08048890 <__x86.get_pc_thunk.bx>:
 8048890:	8b 1c 24             	mov    ebx,DWORD PTR [esp]
 8048893:	c3                   	ret
 8048894:	66 90                	xchg   ax,ax
 8048896:	66 90                	xchg   ax,ax
 8048898:	66 90                	xchg   ax,ax
 804889a:	66 90                	xchg   ax,ax
 804889c:	66 90                	xchg   ax,ax
 804889e:	66 90                	xchg   ax,ax

080488a0 <deregister_tm_clones>:
 80488a0:	b8 7b 60 05 08       	mov    eax,0x805607b
 80488a5:	2d 78 60 05 08       	sub    eax,0x8056078
 80488aa:	83 f8 06             	cmp    eax,0x6
 80488ad:	77 01                	ja     80488b0
 80488af:	c3                   	ret
 80488b0:	b8 00 00 00 00       	mov    eax,0x0
 80488b5:	85 c0                	test   eax,eax
 80488b7:	74 f6                	je     80488af
 80488b9:	55                   	push   ebp
 80488ba:	89 e5                	mov    ebp,esp
 80488bc:	83 ec 18             	sub    esp,0x18
 80488bf:	c7 04 24 78 60 05 08 	mov    DWORD PTR [esp],0x8056078
 80488c6:	ff d0                	call   eax
 80488c8:	c9                   	leave
 80488c9:	c3                   	ret
 80488ca:	8d b6 00 00 00 00    	lea    esi,[esi]

080488d0 <register_tm_clones>:
 80488d0:	b8 78 60 05 08       	mov    eax,0x8056078
 80488d5:	2d 78 60 05 08       	sub    eax,0x8056078
 80488da:	c1 f8 02             	sar    eax,0x2
 80488dd:	89 c2                	mov    edx,eax
 80488df:	c1 ea 1f             	shr    edx,0x1f
 80488e2:	01 d0                	add    eax,edx
 80488e4:	d1 f8                	sar    eax,1
 80488e6:	75 01                	jne    80488e9
 80488e8:	c3                   	ret
 80488e9:	ba 00 00 00 00       	mov    edx,0x0
 80488ee:	85 d2                	test   edx,edx
 80488f0:	74 f6                	je     80488e8
 80488f2:	55                   	push   ebp
 80488f3:	89 e5                	mov    ebp,esp
 80488f5:	83 ec 18             	sub    esp,0x18
 80488f8:	89 44 24 04          	mov    DWORD PTR [esp+0x4],eax
 80488fc:	c7 04 24 78 60 05 08 	mov    DWORD PTR [esp],0x8056078
 8048903:	ff d2                	call   edx
 8048905:	c9                   	leave
 8048906:	c3                   	ret
 8048907:	89 f6                	mov    esi,esi
 8048909:	8d bc 27 00 00 00 00 	lea    edi,[edi]

08048910 <__do_global_dtors_aux>:
 8048910:	80 3d a4 60 05 08 00 	cmp    BYTE PTR ds:0x80560a4,0x0
 8048917:	75 13                	jne    804892c
 8048919:	55                   	push   ebp
 804891a:	89 e5                	mov    ebp,esp
 804891c:	83 ec 08             	sub    esp,0x8
 804891f:	e8 7c ff ff ff       	call   80488a0
 8048924:	c6 05 a4 60 05 08 01 	mov    BYTE PTR ds:0x80560a4,0x1
 804892b:	c9                   	leave
 804892c:	f3 c3                	repz   ret
 804892e:	66 90                	xchg   ax,ax

08048930 <frame_dummy>:
 8048930:	a1 10 5f 05 08       	mov    eax,ds:0x8055f10
 8048935:	85 c0                	test   eax,eax
 8048937:	74 1f                	je     8048958
 8048939:	b8 00 00 00 00       	mov    eax,0x0
 804893e:	85 c0                	test   eax,eax
 8048940:	74 16                	je     8048958
 8048942:	55                   	push   ebp
 8048943:	89 e5                	mov    ebp,esp
 8048945:	83 ec 18             	sub    esp,0x18
 8048948:	c7 04 24 10 5f 05 08 	mov    DWORD PTR [esp],0x8055f10
 804894f:	ff d0                	call   eax
 8048951:	c9                   	leave
 8048952:	e9 79 ff ff ff       	jmp    80488d0
 8048957:	90                   	nop
 8048958:	e9 73 ff ff ff       	jmp    80488d0
 804895d:	66 90                	xchg   ax,ax
 804895f:	90                   	nop

08048960 <GenRandLeaf>:
 8048960:	83 ec 0c             	sub    esp,0xc
 8048963:	e8 e8 fb ff ff       	call   8048550
 8048968:	99                   	cdq
 8048969:	f7 3d 2c 61 05 08    	idiv   DWORD PTR ds:0x805612c
 804896f:	83 c4 0c             	add    esp,0xc
 8048972:	89 d0                	mov    eax,edx
 8048974:	c3                   	ret
 8048975:	8d 74 26 00          	lea    esi,[esi]
 8048979:	8d bc 27 00 00 00 00 	lea    edi,[edi]

08048980 <PushBack>:
 8048980:	55                   	push   ebp
 8048981:	57                   	push   edi
 8048982:	56                   	push   esi
 8048983:	53                   	push   ebx
 8048984:	83 ec 1c             	sub    esp,0x1c
 8048987:	8b 5c 24 3c          	mov    ebx,DWORD PTR [esp+0x3c]
 804898b:	8b 44 24 30          	mov    eax,DWORD PTR [esp+0x30]
 804898f:	8b 6c 24 34          	mov    ebp,DWORD PTR [esp+0x34]
 8048993:	8b 74 24 38          	mov    esi,DWORD PTR [esp+0x38]
 8048997:	89 5c 24 04          	mov    DWORD PTR [esp+0x4],ebx
 804899b:	89 04 24             	mov    DWORD PTR [esp],eax
 804899e:	e8 9d 0f 00 00       	call   8049940
 80489a3:	89 5c 24 04          	mov    DWORD PTR [esp+0x4],ebx
 80489a7:	89 2c 24             	mov    DWORD PTR [esp],ebp
 80489aa:	89 c7                	mov    edi,eax
 80489ac:	e8 8f 0f 00 00       	call   8049940
 80489b1:	89 c2                	mov    edx,eax
 80489b3:	31 fa                	xor    edx,edi
 80489b5:	89 d0                	mov    eax,edx
 80489b7:	f7 d8                	neg    eax
 80489b9:	21 d0                	and    eax,edx
 80489bb:	83 e8 01             	sub    eax,0x1
 80489be:	85 db                	test   ebx,ebx
 80489c0:	89 44 24 0c          	mov    DWORD PTR [esp+0xc],eax
 80489c4:	7e 7c                	jle    8048a42
 80489c6:	8b 3d 24 61 05 08    	mov    edi,DWORD PTR ds:0x8056124
 80489cc:	31 c9                	xor    ecx,ecx
 80489ce:	31 c0                	xor    eax,eax
 80489d0:	ba 01 00 00 00       	mov    edx,0x1
 80489d5:	8d 76 00             	lea    esi,[esi]
 80489d8:	89 d5                	mov    ebp,edx
 80489da:	d3 e5                	shl    ebp,cl
 80489dc:	01 c5                	add    ebp,eax
 80489de:	39 3c 8e             	cmp    DWORD PTR [esi+ecx*4],edi
 80489e1:	0f 44 c5             	cmove  eax,ebp
 80489e4:	83 c1 01             	add    ecx,0x1
 80489e7:	39 d9                	cmp    ecx,ebx
 80489e9:	75 ed                	jne    80489d8
 80489eb:	f7 d0                	not    eax
 80489ed:	8b 7c 24 0c          	mov    edi,DWORD PTR [esp+0xc]
 80489f1:	89 5c 24 04          	mov    DWORD PTR [esp+0x4],ebx
 80489f5:	21 f8                	and    eax,edi
 80489f7:	89 04 24             	mov    DWORD PTR [esp],eax
 80489fa:	e8 41 0f 00 00       	call   8049940
 80489ff:	89 5c 24 04          	mov    DWORD PTR [esp+0x4],ebx
 8048a03:	89 c2                	mov    edx,eax
 8048a05:	f7 da                	neg    edx
 8048a07:	21 c2                	and    edx,eax
 8048a09:	89 14 24             	mov    DWORD PTR [esp],edx
 8048a0c:	e8 2f 0f 00 00       	call   8049940
 8048a11:	85 ff                	test   edi,edi
 8048a13:	75 0a                	jne    8048a1f
 8048a15:	8b 3d 24 61 05 08    	mov    edi,DWORD PTR ds:0x8056124
 8048a1b:	39 3e                	cmp    DWORD PTR [esi],edi
 8048a1d:	7c 19                	jl     8048a38
 8048a1f:	85 c0                	test   eax,eax
 8048a21:	74 26                	je     8048a49
 8048a23:	89 44 24 30          	mov    DWORD PTR [esp+0x30],eax
 8048a27:	83 c4 1c             	add    esp,0x1c
 8048a2a:	5b                   	pop    ebx
 8048a2b:	5e                   	pop    esi
 8048a2c:	5f                   	pop    edi
 8048a2d:	5d                   	pop    ebp
 8048a2e:	e9 ed 0e 00 00       	jmp    8049920
 8048a33:	90                   	nop
 8048a34:	8d 74 26 00          	lea    esi,[esi]
 8048a38:	31 c0                	xor    eax,eax
 8048a3a:	83 c4 1c             	add    esp,0x1c
 8048a3d:	5b                   	pop    ebx
 8048a3e:	5e                   	pop    esi
 8048a3f:	5f                   	pop    edi
 8048a40:	5d                   	pop    ebp
 8048a41:	c3                   	ret
 8048a42:	b8 ff ff ff ff       	mov    eax,0xffffffff
 8048a47:	eb a4                	jmp    80489ed
 8048a49:	b8 ff ff ff ff       	mov    eax,0xffffffff
 8048a4e:	eb ea                	jmp    8048a3a

08048a50 <Init_Stash>:
 8048a50:	53                   	push   ebx
 8048a51:	83 ec 18             	sub    esp,0x18
 8048a54:	8b 5c 24 20          	mov    ebx,DWORD PTR [esp+0x20]
 8048a58:	c7 04 24 10 00 00 00 	mov    DWORD PTR [esp],0x10
 8048a5f:	89 5c 24 04          	mov    DWORD PTR [esp+0x4],ebx
 8048a63:	89 1d 3c 61 05 08    	mov    DWORD PTR ds:0x805613c,ebx
 8048a69:	e8 32 fb ff ff       	call   80485a0
 8048a6e:	a3 40 61 05 08       	mov    ds:0x8056140,eax
 8048a73:	a1 20 61 05 08       	mov    eax,ds:0x8056120
 8048a78:	c1 e0 02             	shl    eax,0x2
 8048a7b:	0f af c3             	imul   eax,ebx
 8048a7e:	89 04 24             	mov    DWORD PTR [esp],eax
 8048a81:	e8 7a fa ff ff       	call   8048500
 8048a86:	a3 44 61 05 08       	mov    ds:0x8056144,eax
 8048a8b:	83 c4 18             	add    esp,0x18
 8048a8e:	5b                   	pop    ebx
 8048a8f:	c3                   	ret

08048a90 <Init_PosMap>:
 8048a90:	83 ec 1c             	sub    esp,0x1c
 8048a93:	8b 44 24 20          	mov    eax,DWORD PTR [esp+0x20]
 8048a97:	c7 04 24 02 00 00 00 	mov    DWORD PTR [esp],0x2
 8048a9e:	89 44 24 04          	mov    DWORD PTR [esp+0x4],eax
 8048aa2:	a3 34 61 05 08       	mov    ds:0x8056134,eax
 8048aa7:	e8 f4 fa ff ff       	call   80485a0
 8048aac:	a3 38 61 05 08       	mov    ds:0x8056138,eax
 8048ab1:	83 c4 1c             	add    esp,0x1c
 8048ab4:	c3                   	ret
 8048ab5:	8d 74 26 00          	lea    esi,[esi]
 8048ab9:	8d bc 27 00 00 00 00 	lea    edi,[edi]

08048ac0 <Init_ORAM_Controller>:
 8048ac0:	57                   	push   edi
 8048ac1:	56                   	push   esi
 8048ac2:	53                   	push   ebx
 8048ac3:	bb 01 00 00 00       	mov    ebx,0x1
 8048ac8:	83 ec 10             	sub    esp,0x10
 8048acb:	89 df                	mov    edi,ebx
 8048acd:	8b 44 24 24          	mov    eax,DWORD PTR [esp+0x24]
 8048ad1:	8b 4c 24 28          	mov    ecx,DWORD PTR [esp+0x28]
 8048ad5:	8b 54 24 20          	mov    edx,DWORD PTR [esp+0x20]
 8048ad9:	8b 74 24 30          	mov    esi,DWORD PTR [esp+0x30]
 8048add:	89 0d 20 61 05 08    	mov    DWORD PTR ds:0x8056120,ecx
 8048ae3:	89 c1                	mov    ecx,eax
 8048ae5:	d3 e7                	shl    edi,cl
 8048ae7:	89 f9                	mov    ecx,edi
 8048ae9:	83 e9 01             	sub    ecx,0x1
 8048aec:	89 0d 28 61 05 08    	mov    DWORD PTR ds:0x8056128,ecx
 8048af2:	8d 48 ff             	lea    ecx,[eax-0x1]
 8048af5:	0f af c2             	imul   eax,edx
 8048af8:	03 44 24 2c          	add    eax,DWORD PTR [esp+0x2c]
 8048afc:	d3 e3                	shl    ebx,cl
 8048afe:	89 15 24 61 05 08    	mov    DWORD PTR ds:0x8056124,edx
 8048b04:	89 04 24             	mov    DWORD PTR [esp],eax
 8048b07:	89 1d 2c 61 05 08    	mov    DWORD PTR ds:0x805612c,ebx
 8048b0d:	e8 5e 0e 00 00       	call   8049970
 8048b12:	89 74 24 04          	mov    DWORD PTR [esp+0x4],esi
 8048b16:	c7 04 24 02 00 00 00 	mov    DWORD PTR [esp],0x2
 8048b1d:	89 35 34 61 05 08    	mov    DWORD PTR ds:0x8056134,esi
 8048b23:	89 c3                	mov    ebx,eax
 8048b25:	e8 76 fa ff ff       	call   80485a0
 8048b2a:	89 5c 24 04          	mov    DWORD PTR [esp+0x4],ebx
 8048b2e:	c7 04 24 10 00 00 00 	mov    DWORD PTR [esp],0x10
 8048b35:	89 1d 3c 61 05 08    	mov    DWORD PTR ds:0x805613c,ebx
 8048b3b:	a3 38 61 05 08       	mov    ds:0x8056138,eax
 8048b40:	e8 5b fa ff ff       	call   80485a0
 8048b45:	a3 40 61 05 08       	mov    ds:0x8056140,eax
 8048b4a:	a1 20 61 05 08       	mov    eax,ds:0x8056120
 8048b4f:	c1 e0 02             	shl    eax,0x2
 8048b52:	0f af c3             	imul   eax,ebx
 8048b55:	89 04 24             	mov    DWORD PTR [esp],eax
 8048b58:	e8 a3 f9 ff ff       	call   8048500
 8048b5d:	a3 44 61 05 08       	mov    ds:0x8056144,eax
 8048b62:	83 c4 10             	add    esp,0x10
 8048b65:	5b                   	pop    ebx
 8048b66:	5e                   	pop    esi
 8048b67:	5f                   	pop    edi
 8048b68:	c3                   	ret
 8048b69:	8d b4 26 00 00 00 00 	lea    esi,[esi]

08048b70 <Init_ORAM_Tree>:
 8048b70:	57                   	push   edi
 8048b71:	56                   	push   esi
 8048b72:	53                   	push   ebx
 8048b73:	83 ec 10             	sub    esp,0x10
 8048b76:	8b 74 24 20          	mov    esi,DWORD PTR [esp+0x20]
 8048b7a:	8b 44 24 28          	mov    eax,DWORD PTR [esp+0x28]
 8048b7e:	8b 5c 24 24          	mov    ebx,DWORD PTR [esp+0x24]
 8048b82:	8d 78 03             	lea    edi,[eax+0x3]
 8048b85:	8d 04 b5 00 00 00 00 	lea    eax,[esi*4]
 8048b8c:	89 d9                	mov    ecx,ebx
 8048b8e:	0f af c7             	imul   eax,edi
 8048b91:	89 1d 00 61 05 08    	mov    DWORD PTR ds:0x8056100,ebx
 8048b97:	d3 e0                	shl    eax,cl
 8048b99:	89 04 24             	mov    DWORD PTR [esp],eax
 8048b9c:	e8 5f f9 ff ff       	call   8048500
 8048ba1:	89 d9                	mov    ecx,ebx
 8048ba3:	d3 e6                	shl    esi,cl
 8048ba5:	85 f6                	test   esi,esi
 8048ba7:	a3 04 61 05 08       	mov    ds:0x8056104,eax
 8048bac:	7e 07                	jle    8048bb5
 8048bae:	c7 04 b8 00 00 00 00 	mov    DWORD PTR [eax+edi*4],0x0
 8048bb5:	83 c4 10             	add    esp,0x10
 8048bb8:	5b                   	pop    ebx
 8048bb9:	5e                   	pop    esi
 8048bba:	5f                   	pop    edi
 8048bbb:	c3                   	ret
 8048bbc:	8d 74 26 00          	lea    esi,[esi]

08048bc0 <Init_ORAM>:
 8048bc0:	55                   	push   ebp
 8048bc1:	57                   	push   edi
 8048bc2:	56                   	push   esi
 8048bc3:	53                   	push   ebx
 8048bc4:	83 ec 1c             	sub    esp,0x1c
 8048bc7:	a1 5c 60 05 08       	mov    eax,ds:0x805605c
 8048bcc:	8b 6c 24 34          	mov    ebp,DWORD PTR [esp+0x34]
 8048bd0:	8b 5c 24 30          	mov    ebx,DWORD PTR [esp+0x30]
 8048bd4:	89 04 24             	mov    DWORD PTR [esp],eax
 8048bd7:	e8 44 f9 ff ff       	call   8048520
 8048bdc:	89 2c 24             	mov    DWORD PTR [esp],ebp
 8048bdf:	e8 3c 0d 00 00       	call   8049920
 8048be4:	83 f8 0f             	cmp    eax,0xf
 8048be7:	89 c7                	mov    edi,eax
 8048be9:	0f 8f 2b 01 00 00    	jg     8048d1a
 8048bef:	8b 44 24 38          	mov    eax,DWORD PTR [esp+0x38]
 8048bf3:	89 f9                	mov    ecx,edi
 8048bf5:	89 1d 24 61 05 08    	mov    DWORD PTR ds:0x8056124,ebx
 8048bfb:	a3 20 61 05 08       	mov    ds:0x8056120,eax
 8048c00:	b8 01 00 00 00       	mov    eax,0x1
 8048c05:	89 c2                	mov    edx,eax
 8048c07:	d3 e2                	shl    edx,cl
 8048c09:	89 d1                	mov    ecx,edx
 8048c0b:	83 e9 01             	sub    ecx,0x1
 8048c0e:	89 0d 28 61 05 08    	mov    DWORD PTR ds:0x8056128,ecx
 8048c14:	8d 4f ff             	lea    ecx,[edi-0x1]
 8048c17:	d3 e0                	shl    eax,cl
 8048c19:	a3 2c 61 05 08       	mov    ds:0x805612c,eax
 8048c1e:	89 f8                	mov    eax,edi
 8048c20:	0f af c3             	imul   eax,ebx
 8048c23:	03 44 24 3c          	add    eax,DWORD PTR [esp+0x3c]
 8048c27:	89 04 24             	mov    DWORD PTR [esp],eax
 8048c2a:	e8 41 0d 00 00       	call   8049970
 8048c2f:	89 6c 24 04          	mov    DWORD PTR [esp+0x4],ebp
 8048c33:	c7 04 24 02 00 00 00 	mov    DWORD PTR [esp],0x2
 8048c3a:	89 2d 34 61 05 08    	mov    DWORD PTR ds:0x8056134,ebp
 8048c40:	89 c6                	mov    esi,eax
 8048c42:	e8 59 f9 ff ff       	call   80485a0
 8048c47:	89 74 24 04          	mov    DWORD PTR [esp+0x4],esi
 8048c4b:	c7 04 24 10 00 00 00 	mov    DWORD PTR [esp],0x10
 8048c52:	89 35 3c 61 05 08    	mov    DWORD PTR ds:0x805613c,esi
 8048c58:	a3 38 61 05 08       	mov    ds:0x8056138,eax
 8048c5d:	e8 3e f9 ff ff       	call   80485a0
 8048c62:	a3 40 61 05 08       	mov    ds:0x8056140,eax
 8048c67:	a1 20 61 05 08       	mov    eax,ds:0x8056120
 8048c6c:	c1 e0 02             	shl    eax,0x2
 8048c6f:	0f af c6             	imul   eax,esi
 8048c72:	89 04 24             	mov    DWORD PTR [esp],eax
 8048c75:	e8 86 f8 ff ff       	call   8048500
 8048c7a:	89 f9                	mov    ecx,edi
 8048c7c:	89 3d 00 61 05 08    	mov    DWORD PTR ds:0x8056100,edi
 8048c82:	a3 44 61 05 08       	mov    ds:0x8056144,eax
 8048c87:	8b 44 24 38          	mov    eax,DWORD PTR [esp+0x38]
 8048c8b:	8d 68 03             	lea    ebp,[eax+0x3]
 8048c8e:	89 e8                	mov    eax,ebp
 8048c90:	0f af c3             	imul   eax,ebx
 8048c93:	c1 e0 02             	shl    eax,0x2
 8048c96:	d3 e0                	shl    eax,cl
 8048c98:	89 04 24             	mov    DWORD PTR [esp],eax
 8048c9b:	e8 60 f8 ff ff       	call   8048500
 8048ca0:	89 f9                	mov    ecx,edi
 8048ca2:	d3 e3                	shl    ebx,cl
 8048ca4:	85 db                	test   ebx,ebx
 8048ca6:	a3 04 61 05 08       	mov    ds:0x8056104,eax
 8048cab:	7e 07                	jle    8048cb4
 8048cad:	c7 04 a8 00 00 00 00 	mov    DWORD PTR [eax+ebp*4],0x0
 8048cb4:	a1 24 61 05 08       	mov    eax,ds:0x8056124
 8048cb9:	c1 e0 02             	shl    eax,0x2
 8048cbc:	0f af c7             	imul   eax,edi
 8048cbf:	89 04 24             	mov    DWORD PTR [esp],eax
 8048cc2:	e8 39 f8 ff ff       	call   8048500
 8048cc7:	8d 14 bd 00 00 00 00 	lea    edx,[edi*4]
 8048cce:	89 14 24             	mov    DWORD PTR [esp],edx
 8048cd1:	a3 ac 60 05 08       	mov    ds:0x80560ac,eax
 8048cd6:	e8 25 f8 ff ff       	call   8048500
 8048cdb:	a3 a8 60 05 08       	mov    ds:0x80560a8,eax
 8048ce0:	8b 44 24 40          	mov    eax,DWORD PTR [esp+0x40]
 8048ce4:	85 c0                	test   eax,eax
 8048ce6:	74 20                	je     8048d08
 8048ce8:	83 7c 24 40 01       	cmp    DWORD PTR [esp+0x40],0x1
 8048ced:	75 4f                	jne    8048d3e
 8048cef:	c7 05 08 61 05 08 d0 	mov    DWORD PTR ds:0x8056108,0x804f7d0
 8048cf6:	f7 04 08 
 8048cf9:	83 c4 1c             	add    esp,0x1c
 8048cfc:	5b                   	pop    ebx
 8048cfd:	5e                   	pop    esi
 8048cfe:	5f                   	pop    edi
 8048cff:	5d                   	pop    ebp
 8048d00:	c3                   	ret
 8048d01:	8d b4 26 00 00 00 00 	lea    esi,[esi]
 8048d08:	c7 05 08 61 05 08 10 	mov    DWORD PTR ds:0x8056108,0x804bc10
 8048d0f:	bc 04 08 
 8048d12:	83 c4 1c             	add    esp,0x1c
 8048d15:	5b                   	pop    ebx
 8048d16:	5e                   	pop    esi
 8048d17:	5f                   	pop    edi
 8048d18:	5d                   	pop    ebp
 8048d19:	c3                   	ret
 8048d1a:	c7 44 24 0c d5 38 05 	mov    DWORD PTR [esp+0xc],0x80538d5
 8048d21:	08 
 8048d22:	c7 44 24 08 9f 00 00 	mov    DWORD PTR [esp+0x8],0x9f
 8048d29:	00 
 8048d2a:	c7 44 24 04 e8 37 05 	mov    DWORD PTR [esp+0x4],0x80537e8
 8048d31:	08 
 8048d32:	c7 04 24 90 38 05 08 	mov    DWORD PTR [esp],0x8053890
 8048d39:	e8 52 f8 ff ff       	call   8048590
 8048d3e:	c7 44 24 0c d5 38 05 	mov    DWORD PTR [esp+0xc],0x80538d5
 8048d45:	08 
 8048d46:	c7 44 24 08 ae 00 00 	mov    DWORD PTR [esp+0x8],0xae
 8048d4d:	00 
 8048d4e:	c7 44 24 04 e8 37 05 	mov    DWORD PTR [esp+0x4],0x80537e8
 8048d55:	08 
 8048d56:	c7 04 24 a1 38 05 08 	mov    DWORD PTR [esp],0x80538a1
 8048d5d:	e8 2e f8 ff ff       	call   8048590
 8048d62:	8d b4 26 00 00 00 00 	lea    esi,[esi]
 8048d69:	8d bc 27 00 00 00 00 	lea    edi,[edi]

08048d70 <Free_ORAM>:
 8048d70:	83 ec 1c             	sub    esp,0x1c
 8048d73:	a1 38 61 05 08       	mov    eax,ds:0x8056138
 8048d78:	89 04 24             	mov    DWORD PTR [esp],eax
 8048d7b:	e8 60 f7 ff ff       	call   80484e0
 8048d80:	a1 40 61 05 08       	mov    eax,ds:0x8056140
 8048d85:	89 04 24             	mov    DWORD PTR [esp],eax
 8048d88:	e8 53 f7 ff ff       	call   80484e0
 8048d8d:	a1 44 61 05 08       	mov    eax,ds:0x8056144
 8048d92:	89 04 24             	mov    DWORD PTR [esp],eax
 8048d95:	e8 46 f7 ff ff       	call   80484e0
 8048d9a:	a1 04 61 05 08       	mov    eax,ds:0x8056104
 8048d9f:	89 04 24             	mov    DWORD PTR [esp],eax
 8048da2:	e8 39 f7 ff ff       	call   80484e0
 8048da7:	a1 ac 60 05 08       	mov    eax,ds:0x80560ac
 8048dac:	89 04 24             	mov    DWORD PTR [esp],eax
 8048daf:	e8 2c f7 ff ff       	call   80484e0
 8048db4:	a1 a8 60 05 08       	mov    eax,ds:0x80560a8
 8048db9:	89 04 24             	mov    DWORD PTR [esp],eax
 8048dbc:	e8 1f f7 ff ff       	call   80484e0
 8048dc1:	83 c4 1c             	add    esp,0x1c
 8048dc4:	c3                   	ret
 8048dc5:	8d 74 26 00          	lea    esi,[esi]
 8048dc9:	8d bc 27 00 00 00 00 	lea    edi,[edi]

08048dd0 <Retrieve_LeafLabel>:
 8048dd0:	55                   	push   ebp
 8048dd1:	57                   	push   edi
 8048dd2:	56                   	push   esi
 8048dd3:	53                   	push   ebx
 8048dd4:	83 ec 4c             	sub    esp,0x4c
 8048dd7:	a1 34 61 05 08       	mov    eax,ds:0x8056134
 8048ddc:	85 c0                	test   eax,eax
 8048dde:	0f 8e bb 00 00 00    	jle    8048e9f
 8048de4:	31 f6                	xor    esi,esi
 8048de6:	c7 44 24 2c 00 00 00 	mov    DWORD PTR [esp+0x2c],0x0
 8048ded:	00 
 8048dee:	66 90                	xchg   ax,ax
 8048df0:	a1 38 61 05 08       	mov    eax,ds:0x8056138
 8048df5:	b9 4c 60 05 08       	mov    ecx,0x805604c
 8048dfa:	8d 54 24 3c          	lea    edx,[esp+0x3c]
 8048dfe:	8d 3c 70             	lea    edi,[eax+esi*2]
 8048e01:	a1 50 60 05 08       	mov    eax,ds:0x8056050
 8048e06:	0f b7 2f             	movzx  ebp,WORD PTR [edi]
 8048e09:	21 e8                	and    eax,ebp
 8048e0b:	23 2d 4c 60 05 08    	and    ebp,DWORD PTR ds:0x805604c
 8048e11:	39 74 24 64          	cmp    DWORD PTR [esp+0x64],esi
 8048e15:	89 44 24 38          	mov    DWORD PTR [esp+0x38],eax
 8048e19:	89 6c 24 3c          	mov    DWORD PTR [esp+0x3c],ebp
 8048e1d:	0f 94 c0             	sete   al
 8048e20:	31 db                	xor    ebx,ebx
 8048e22:	85 ed                	test   ebp,ebp
 8048e24:	0f 94 c3             	sete   bl
 8048e27:	88 44 24 10          	mov    BYTE PTR [esp+0x10],al
 8048e2b:	23 5c 24 10          	and    ebx,DWORD PTR [esp+0x10]
 8048e2f:	09 5c 24 2c          	or     DWORD PTR [esp+0x2c],ebx
 8048e33:	8b 02                	mov    eax,DWORD PTR [edx]
 8048e35:	85 db                	test   ebx,ebx
 8048e37:	0f 45 01             	cmovne eax,DWORD PTR [ecx]
 8048e3a:	89 02                	mov    DWORD PTR [edx],eax
 8048e3c:	31 db                	xor    ebx,ebx
 8048e3e:	85 ed                	test   ebp,ebp
 8048e40:	0f b6 6c 24 10       	movzx  ebp,BYTE PTR [esp+0x10]
 8048e45:	0f 95 c3             	setne  bl
 8048e48:	8b 54 24 68          	mov    edx,DWORD PTR [esp+0x68]
 8048e4c:	8d 4c 24 38          	lea    ecx,[esp+0x38]
 8048e50:	21 eb                	and    ebx,ebp
 8048e52:	8b 02                	mov    eax,DWORD PTR [edx]
 8048e54:	85 db                	test   ebx,ebx
 8048e56:	0f 45 01             	cmovne eax,DWORD PTR [ecx]
 8048e59:	89 02                	mov    DWORD PTR [edx],eax
 8048e5b:	89 e8                	mov    eax,ebp
 8048e5d:	8b 4c 24 6c          	mov    ecx,DWORD PTR [esp+0x6c]
 8048e61:	0f b6 d8             	movzx  ebx,al
 8048e64:	8d 54 24 38          	lea    edx,[esp+0x38]
 8048e68:	8b 02                	mov    eax,DWORD PTR [edx]
 8048e6a:	85 db                	test   ebx,ebx
 8048e6c:	0f 45 01             	cmovne eax,DWORD PTR [ecx]
 8048e6f:	89 02                	mov    DWORD PTR [edx],eax
 8048e71:	8b 44 24 38          	mov    eax,DWORD PTR [esp+0x38]
 8048e75:	83 c6 01             	add    esi,0x1
 8048e78:	66 0b 44 24 3c       	or     ax,WORD PTR [esp+0x3c]
 8048e7d:	39 35 34 61 05 08    	cmp    DWORD PTR ds:0x8056134,esi
 8048e83:	66 89 07             	mov    WORD PTR [edi],ax
 8048e86:	0f 8f 64 ff ff ff    	jg     8048df0
 8048e8c:	f6 44 24 2c 01       	test   BYTE PTR [esp+0x2c],0x1
 8048e91:	75 16                	jne    8048ea9
 8048e93:	8b 44 24 2c          	mov    eax,DWORD PTR [esp+0x2c]
 8048e97:	83 c4 4c             	add    esp,0x4c
 8048e9a:	5b                   	pop    ebx
 8048e9b:	5e                   	pop    esi
 8048e9c:	5f                   	pop    edi
 8048e9d:	5d                   	pop    ebp
 8048e9e:	c3                   	ret
 8048e9f:	c7 44 24 2c 00 00 00 	mov    DWORD PTR [esp+0x2c],0x0
 8048ea6:	00 
 8048ea7:	eb ea                	jmp    8048e93
 8048ea9:	83 7c 24 60 01       	cmp    DWORD PTR [esp+0x60],0x1
 8048eae:	75 e3                	jne    8048e93
 8048eb0:	a1 80 60 05 08       	mov    eax,ds:0x8056080
 8048eb5:	c7 44 24 08 44 38 05 	mov    DWORD PTR [esp+0x8],0x8053844
 8048ebc:	08 
 8048ebd:	c7 44 24 04 01 00 00 	mov    DWORD PTR [esp+0x4],0x1
 8048ec4:	00 
 8048ec5:	89 04 24             	mov    DWORD PTR [esp],eax
 8048ec8:	e8 a3 f6 ff ff       	call   8048570
 8048ecd:	c7 44 24 0c c2 38 05 	mov    DWORD PTR [esp+0xc],0x80538c2
 8048ed4:	08 
 8048ed5:	c7 44 24 08 eb 00 00 	mov    DWORD PTR [esp+0x8],0xeb
 8048edc:	00 
 8048edd:	c7 44 24 04 e8 37 05 	mov    DWORD PTR [esp+0x4],0x80537e8
 8048ee4:	08 
 8048ee5:	c7 04 24 a1 38 05 08 	mov    DWORD PTR [esp],0x80538a1
 8048eec:	e8 9f f6 ff ff       	call   8048590
 8048ef1:	eb 0d                	jmp    8048f00
 8048ef3:	90                   	nop
 8048ef4:	90                   	nop
 8048ef5:	90                   	nop
 8048ef6:	90                   	nop
 8048ef7:	90                   	nop
 8048ef8:	90                   	nop
 8048ef9:	90                   	nop
 8048efa:	90                   	nop
 8048efb:	90                   	nop
 8048efc:	90                   	nop
 8048efd:	90                   	nop
 8048efe:	90                   	nop
 8048eff:	90                   	nop

08048f00 <Fetch_Blocks>:
 8048f00:	55                   	push   ebp
 8048f01:	57                   	push   edi
 8048f02:	56                   	push   esi
 8048f03:	53                   	push   ebx
 8048f04:	83 ec 3c             	sub    esp,0x3c
 8048f07:	a1 00 61 05 08       	mov    eax,ds:0x8056100
 8048f0c:	83 e8 01             	sub    eax,0x1
 8048f0f:	89 44 24 04          	mov    DWORD PTR [esp+0x4],eax
 8048f13:	8b 44 24 5c          	mov    eax,DWORD PTR [esp+0x5c]
 8048f17:	89 04 24             	mov    DWORD PTR [esp],eax
 8048f1a:	e8 21 0a 00 00       	call   8049940
 8048f1f:	8b 0d 00 61 05 08    	mov    ecx,DWORD PTR ds:0x8056100
 8048f25:	85 c9                	test   ecx,ecx
 8048f27:	89 44 24 20          	mov    DWORD PTR [esp+0x20],eax
 8048f2b:	0f 8e 08 01 00 00    	jle    8049039
 8048f31:	a1 04 61 05 08       	mov    eax,ds:0x8056104
 8048f36:	8b 2d 24 61 05 08    	mov    ebp,DWORD PTR ds:0x8056124
 8048f3c:	c7 44 24 24 00 00 00 	mov    DWORD PTR [esp+0x24],0x0
 8048f43:	00 
 8048f44:	c7 44 24 14 01 00 00 	mov    DWORD PTR [esp+0x14],0x1
 8048f4b:	00 
 8048f4c:	89 44 24 18          	mov    DWORD PTR [esp+0x18],eax
 8048f50:	a1 40 61 05 08       	mov    eax,ds:0x8056140
 8048f55:	c7 44 24 0c 00 00 00 	mov    DWORD PTR [esp+0xc],0x0
 8048f5c:	00 
 8048f5d:	89 44 24 28          	mov    DWORD PTR [esp+0x28],eax
 8048f61:	a1 44 61 05 08       	mov    eax,ds:0x8056144
 8048f66:	89 44 24 1c          	mov    DWORD PTR [esp+0x1c],eax
 8048f6a:	85 ed                	test   ebp,ebp
 8048f6c:	0f 8e 93 00 00 00    	jle    8049005
 8048f72:	8b 54 24 0c          	mov    edx,DWORD PTR [esp+0xc]
 8048f76:	8b 7c 24 28          	mov    edi,DWORD PTR [esp+0x28]
 8048f7a:	a1 20 61 05 08       	mov    eax,ds:0x8056120
 8048f7f:	c1 e2 04             	shl    edx,0x4
 8048f82:	8d 5c 17 04          	lea    ebx,[edi+edx+0x4]
 8048f86:	31 ff                	xor    edi,edi
 8048f88:	8b 54 24 14          	mov    edx,DWORD PTR [esp+0x14]
 8048f8c:	8d 48 03             	lea    ecx,[eax+0x3]
 8048f8f:	0f af d5             	imul   edx,ebp
 8048f92:	01 fa                	add    edx,edi
 8048f94:	0f af d1             	imul   edx,ecx
 8048f97:	8b 4c 24 18          	mov    ecx,DWORD PTR [esp+0x18]
 8048f9b:	c1 e2 02             	shl    edx,0x2
 8048f9e:	8d 34 11             	lea    esi,[ecx+edx]
 8048fa1:	8d 4c 11 0c          	lea    ecx,[ecx+edx+0xc]
 8048fa5:	8b 54 24 1c          	mov    edx,DWORD PTR [esp+0x1c]
 8048fa9:	89 4c 24 10          	mov    DWORD PTR [esp+0x10],ecx
 8048fad:	8b 4c 24 0c          	mov    ecx,DWORD PTR [esp+0xc]
 8048fb1:	0f af c8             	imul   ecx,eax
 8048fb4:	85 c0                	test   eax,eax
 8048fb6:	8d 0c 8a             	lea    ecx,[edx+ecx*4]
 8048fb9:	8b 16                	mov    edx,DWORD PTR [esi]
 8048fbb:	89 13                	mov    DWORD PTR [ebx],edx
 8048fbd:	8b 56 04             	mov    edx,DWORD PTR [esi+0x4]
 8048fc0:	89 53 04             	mov    DWORD PTR [ebx+0x4],edx
 8048fc3:	8b 56 08             	mov    edx,DWORD PTR [esi+0x8]
 8048fc6:	89 53 08             	mov    DWORD PTR [ebx+0x8],edx
 8048fc9:	c7 06 00 00 00 00    	mov    DWORD PTR [esi],0x0
 8048fcf:	7e 1f                	jle    8048ff0
 8048fd1:	8b 54 24 10          	mov    edx,DWORD PTR [esp+0x10]
 8048fd5:	31 f6                	xor    esi,esi
 8048fd7:	90                   	nop
 8048fd8:	8b 04 b2             	mov    eax,DWORD PTR [edx+esi*4]
 8048fdb:	89 04 b1             	mov    DWORD PTR [ecx+esi*4],eax
 8048fde:	a1 20 61 05 08       	mov    eax,ds:0x8056120
 8048fe3:	83 c6 01             	add    esi,0x1
 8048fe6:	39 f0                	cmp    eax,esi
 8048fe8:	7f ee                	jg     8048fd8
 8048fea:	8b 2d 24 61 05 08    	mov    ebp,DWORD PTR ds:0x8056124
 8048ff0:	83 c7 01             	add    edi,0x1
 8048ff3:	83 c3 10             	add    ebx,0x10
 8048ff6:	83 44 24 0c 01       	add    DWORD PTR [esp+0xc],0x1
 8048ffb:	39 ef                	cmp    edi,ebp
 8048ffd:	7c 89                	jl     8048f88
 8048fff:	8b 0d 00 61 05 08    	mov    ecx,DWORD PTR ds:0x8056100
 8049005:	8b 7c 24 20          	mov    edi,DWORD PTR [esp+0x20]
 8049009:	8b 5c 24 14          	mov    ebx,DWORD PTR [esp+0x14]
 804900d:	83 44 24 24 01       	add    DWORD PTR [esp+0x24],0x1
 8049012:	89 fa                	mov    edx,edi
 8049014:	89 f8                	mov    eax,edi
 8049016:	c1 ea 1f             	shr    edx,0x1f
 8049019:	01 d0                	add    eax,edx
 804901b:	83 e0 01             	and    eax,0x1
 804901e:	01 54 24 20          	add    DWORD PTR [esp+0x20],edx
 8049022:	29 d0                	sub    eax,edx
 8049024:	d1 7c 24 20          	sar    DWORD PTR [esp+0x20],1
 8049028:	39 4c 24 24          	cmp    DWORD PTR [esp+0x24],ecx
 804902c:	8d 04 58             	lea    eax,[eax+ebx*2]
 804902f:	89 44 24 14          	mov    DWORD PTR [esp+0x14],eax
 8049033:	0f 8c 31 ff ff ff    	jl     8048f6a
 8049039:	8b 15 3c 61 05 08    	mov    edx,DWORD PTR ds:0x805613c
 804903f:	85 d2                	test   edx,edx
 8049041:	0f 8e 87 01 00 00    	jle    80491ce
 8049047:	83 7c 24 50 01       	cmp    DWORD PTR [esp+0x50],0x1
 804904c:	8b 7c 24 58          	mov    edi,DWORD PTR [esp+0x58]
 8049050:	c7 44 24 14 00 00 00 	mov    DWORD PTR [esp+0x14],0x0
 8049057:	00 
 8049058:	0f 94 c0             	sete   al
 804905b:	83 7c 24 50 02       	cmp    DWORD PTR [esp+0x50],0x2
 8049060:	0f b6 c0             	movzx  eax,al
 8049063:	89 44 24 28          	mov    DWORD PTR [esp+0x28],eax
 8049067:	c7 44 24 24 00 00 00 	mov    DWORD PTR [esp+0x24],0x0
 804906e:	00 
 804906f:	0f 94 c0             	sete   al
 8049072:	0f b6 c0             	movzx  eax,al
 8049075:	89 44 24 2c          	mov    DWORD PTR [esp+0x2c],eax
 8049079:	8b 54 24 14          	mov    edx,DWORD PTR [esp+0x14]
 804907d:	8b 5c 24 54          	mov    ebx,DWORD PTR [esp+0x54]
 8049081:	89 d0                	mov    eax,edx
 8049083:	c1 e0 04             	shl    eax,0x4
 8049086:	89 44 24 10          	mov    DWORD PTR [esp+0x10],eax
 804908a:	a1 40 61 05 08       	mov    eax,ds:0x8056140
 804908f:	01 44 24 10          	add    DWORD PTR [esp+0x10],eax
 8049093:	0f af 15 20 61 05 08 	imul   edx,DWORD PTR ds:0x8056120
 804909a:	a1 44 61 05 08       	mov    eax,ds:0x8056144
 804909f:	8d 2c 90             	lea    ebp,[eax+edx*4]
 80490a2:	8b 44 24 10          	mov    eax,DWORD PTR [esp+0x10]
 80490a6:	39 58 08             	cmp    DWORD PTR [eax+0x8],ebx
 80490a9:	0f 84 3f 01 00 00    	je     80491ee
 80490af:	c7 44 24 20 00 00 00 	mov    DWORD PTR [esp+0x20],0x0
 80490b6:	00 
 80490b7:	31 db                	xor    ebx,ebx
 80490b9:	c7 44 24 18 00 00 00 	mov    DWORD PTR [esp+0x18],0x0
 80490c0:	00 
 80490c1:	8b 44 24 10          	mov    eax,DWORD PTR [esp+0x10]
 80490c5:	8d 4c 24 60          	lea    ecx,[esp+0x60]
 80490c9:	8d 50 0c             	lea    edx,[eax+0xc]
 80490cc:	89 54 24 1c          	mov    DWORD PTR [esp+0x1c],edx
 80490d0:	8b 02                	mov    eax,DWORD PTR [edx]
 80490d2:	85 db                	test   ebx,ebx
 80490d4:	0f 45 01             	cmovne eax,DWORD PTR [ecx]
 80490d7:	89 02                	mov    DWORD PTR [edx],eax
 80490d9:	a1 20 61 05 08       	mov    eax,ds:0x8056120
 80490de:	31 f6                	xor    esi,esi
 80490e0:	8d 1c 85 00 00 00 00 	lea    ebx,[eax*4]
 80490e7:	85 c0                	test   eax,eax
 80490e9:	89 5c 24 0c          	mov    DWORD PTR [esp+0xc],ebx
 80490ed:	8b 5c 24 18          	mov    ebx,DWORD PTR [esp+0x18]
 80490f1:	7e 4e                	jle    8049141
 80490f3:	90                   	nop
 80490f4:	8d 74 26 00          	lea    esi,[esi]
 80490f8:	8d 0c 2e             	lea    ecx,[esi+ebp]
 80490fb:	8d 14 3e             	lea    edx,[esi+edi]
 80490fe:	8b 02                	mov    eax,DWORD PTR [edx]
 8049100:	85 db                	test   ebx,ebx
 8049102:	0f 45 01             	cmovne eax,DWORD PTR [ecx]
 8049105:	89 02                	mov    DWORD PTR [edx],eax
 8049107:	83 c6 04             	add    esi,0x4
 804910a:	3b 74 24 0c          	cmp    esi,DWORD PTR [esp+0xc]
 804910e:	75 e8                	jne    80490f8
 8049110:	a1 20 61 05 08       	mov    eax,ds:0x8056120
 8049115:	85 c0                	test   eax,eax
 8049117:	7e 28                	jle    8049141
 8049119:	8b 5c 24 20          	mov    ebx,DWORD PTR [esp+0x20]
 804911d:	c1 e0 02             	shl    eax,0x2
 8049120:	31 f6                	xor    esi,esi
 8049122:	89 44 24 0c          	mov    DWORD PTR [esp+0xc],eax
 8049126:	66 90                	xchg   ax,ax
 8049128:	8d 0c 37             	lea    ecx,[edi+esi]
 804912b:	8d 54 35 00          	lea    edx,[ebp+esi]
 804912f:	8b 02                	mov    eax,DWORD PTR [edx]
 8049131:	85 db                	test   ebx,ebx
 8049133:	0f 45 01             	cmovne eax,DWORD PTR [ecx]
 8049136:	89 02                	mov    DWORD PTR [edx],eax
 8049138:	83 c6 04             	add    esi,0x4
 804913b:	3b 74 24 0c          	cmp    esi,DWORD PTR [esp+0xc]
 804913f:	75 e7                	jne    8049128
 8049141:	8b 44 24 64          	mov    eax,DWORD PTR [esp+0x64]
 8049145:	85 c0                	test   eax,eax
 8049147:	0f 85 89 00 00 00    	jne    80491d6
 804914d:	8b 74 24 10          	mov    esi,DWORD PTR [esp+0x10]
 8049151:	31 db                	xor    ebx,ebx
 8049153:	09 5c 24 24          	or     DWORD PTR [esp+0x24],ebx
 8049157:	b9 58 60 05 08       	mov    ecx,0x8056058
 804915c:	8d 56 04             	lea    edx,[esi+0x4]
 804915f:	8b 02                	mov    eax,DWORD PTR [edx]
 8049161:	85 db                	test   ebx,ebx
 8049163:	0f 45 01             	cmovne eax,DWORD PTR [ecx]
 8049166:	89 02                	mov    DWORD PTR [edx],eax
 8049168:	8d 56 08             	lea    edx,[esi+0x8]
 804916b:	8d 4c 24 54          	lea    ecx,[esp+0x54]
 804916f:	8b 02                	mov    eax,DWORD PTR [edx]
 8049171:	85 db                	test   ebx,ebx
 8049173:	0f 45 01             	cmovne eax,DWORD PTR [ecx]
 8049176:	89 02                	mov    DWORD PTR [edx],eax
 8049178:	8d 4c 24 60          	lea    ecx,[esp+0x60]
 804917c:	8b 54 24 1c          	mov    edx,DWORD PTR [esp+0x1c]
 8049180:	8b 02                	mov    eax,DWORD PTR [edx]
 8049182:	85 db                	test   ebx,ebx
 8049184:	0f 45 01             	cmovne eax,DWORD PTR [ecx]
 8049187:	89 02                	mov    DWORD PTR [edx],eax
 8049189:	a1 20 61 05 08       	mov    eax,ds:0x8056120
 804918e:	31 f6                	xor    esi,esi
 8049190:	8d 0c 85 00 00 00 00 	lea    ecx,[eax*4]
 8049197:	85 c0                	test   eax,eax
 8049199:	89 4c 24 0c          	mov    DWORD PTR [esp+0xc],ecx
 804919d:	7e 1a                	jle    80491b9
 804919f:	90                   	nop
 80491a0:	8d 0c 37             	lea    ecx,[edi+esi]
 80491a3:	8d 54 35 00          	lea    edx,[ebp+esi]
 80491a7:	8b 02                	mov    eax,DWORD PTR [edx]
 80491a9:	85 db                	test   ebx,ebx
 80491ab:	0f 45 01             	cmovne eax,DWORD PTR [ecx]
 80491ae:	89 02                	mov    DWORD PTR [edx],eax
 80491b0:	83 c6 04             	add    esi,0x4
 80491b3:	3b 74 24 0c          	cmp    esi,DWORD PTR [esp+0xc]
 80491b7:	75 e7                	jne    80491a0
 80491b9:	83 44 24 14 01       	add    DWORD PTR [esp+0x14],0x1
 80491be:	8b 44 24 14          	mov    eax,DWORD PTR [esp+0x14]
 80491c2:	39 05 3c 61 05 08    	cmp    DWORD PTR ds:0x805613c,eax
 80491c8:	0f 8f ab fe ff ff    	jg     8049079
 80491ce:	83 c4 3c             	add    esp,0x3c
 80491d1:	5b                   	pop    ebx
 80491d2:	5e                   	pop    esi
 80491d3:	5f                   	pop    edi
 80491d4:	5d                   	pop    ebp
 80491d5:	c3                   	ret
 80491d6:	8b 44 24 10          	mov    eax,DWORD PTR [esp+0x10]
 80491da:	8b 5c 24 24          	mov    ebx,DWORD PTR [esp+0x24]
 80491de:	0b 58 04             	or     ebx,DWORD PTR [eax+0x4]
 80491e1:	89 c6                	mov    esi,eax
 80491e3:	0f 94 c3             	sete   bl
 80491e6:	0f b6 db             	movzx  ebx,bl
 80491e9:	e9 65 ff ff ff       	jmp    8049153
 80491ee:	8b 40 04             	mov    eax,DWORD PTR [eax+0x4]
 80491f1:	85 c0                	test   eax,eax
 80491f3:	89 44 24 18          	mov    DWORD PTR [esp+0x18],eax
 80491f7:	74 1a                	je     8049213
 80491f9:	8b 44 24 28          	mov    eax,DWORD PTR [esp+0x28]
 80491fd:	bb 01 00 00 00       	mov    ebx,0x1
 8049202:	89 44 24 18          	mov    DWORD PTR [esp+0x18],eax
 8049206:	8b 44 24 2c          	mov    eax,DWORD PTR [esp+0x2c]
 804920a:	89 44 24 20          	mov    DWORD PTR [esp+0x20],eax
 804920e:	e9 ae fe ff ff       	jmp    80490c1
 8049213:	c7 44 24 20 00 00 00 	mov    DWORD PTR [esp+0x20],0x0
 804921a:	00 
 804921b:	31 db                	xor    ebx,ebx
 804921d:	e9 9f fe ff ff       	jmp    80490c1
 8049222:	8d b4 26 00 00 00 00 	lea    esi,[esi]
 8049229:	8d bc 27 00 00 00 00 	lea    edi,[edi]

08049230 <Store_Blocks>:
 8049230:	55                   	push   ebp
 8049231:	57                   	push   edi
 8049232:	56                   	push   esi
 8049233:	53                   	push   ebx
 8049234:	83 ec 7c             	sub    esp,0x7c
 8049237:	8b 15 00 61 05 08    	mov    edx,DWORD PTR ds:0x8056100
 804923d:	a1 24 61 05 08       	mov    eax,ds:0x8056124
 8049242:	0f af c2             	imul   eax,edx
 8049245:	85 c0                	test   eax,eax
 8049247:	7e 25                	jle    804926e
 8049249:	8b 1d ac 60 05 08    	mov    ebx,DWORD PTR ds:0x80560ac
 804924f:	31 c0                	xor    eax,eax
 8049251:	c7 04 83 ff ff ff ff 	mov    DWORD PTR [ebx+eax*4],0xffffffff
 8049258:	8b 15 00 61 05 08    	mov    edx,DWORD PTR ds:0x8056100
 804925e:	83 c0 01             	add    eax,0x1
 8049261:	8b 0d 24 61 05 08    	mov    ecx,DWORD PTR ds:0x8056124
 8049267:	0f af ca             	imul   ecx,edx
 804926a:	39 c1                	cmp    ecx,eax
 804926c:	7f e3                	jg     8049251
 804926e:	85 d2                	test   edx,edx
 8049270:	7e 1c                	jle    804928e
 8049272:	8b 0d a8 60 05 08    	mov    ecx,DWORD PTR ds:0x80560a8
 8049278:	31 c0                	xor    eax,eax
 804927a:	c7 04 81 00 00 00 00 	mov    DWORD PTR [ecx+eax*4],0x0
 8049281:	8b 15 00 61 05 08    	mov    edx,DWORD PTR ds:0x8056100
 8049287:	83 c0 01             	add    eax,0x1
 804928a:	39 c2                	cmp    edx,eax
 804928c:	7f ec                	jg     804927a
 804928e:	a1 3c 61 05 08       	mov    eax,ds:0x805613c
 8049293:	c7 44 24 5c 00 00 00 	mov    DWORD PTR [esp+0x5c],0x0
 804929a:	00 
 804929b:	85 c0                	test   eax,eax
 804929d:	0f 8e 7b 01 00 00    	jle    804941e
 80492a3:	31 c9                	xor    ecx,ecx
 80492a5:	8d 6c 24 60          	lea    ebp,[esp+0x60]
 80492a9:	89 c8                	mov    eax,ecx
 80492ab:	eb 06                	jmp    80492b3
 80492ad:	8b 15 00 61 05 08    	mov    edx,DWORD PTR ds:0x8056100
 80492b3:	c1 e0 04             	shl    eax,0x4
 80492b6:	03 05 40 61 05 08    	add    eax,DWORD PTR ds:0x8056140
 80492bc:	8b 58 04             	mov    ebx,DWORD PTR [eax+0x4]
 80492bf:	89 54 24 0c          	mov    DWORD PTR [esp+0xc],edx
 80492c3:	8b 15 a8 60 05 08    	mov    edx,DWORD PTR ds:0x80560a8
 80492c9:	89 54 24 08          	mov    DWORD PTR [esp+0x8],edx
 80492cd:	8b 40 0c             	mov    eax,DWORD PTR [eax+0xc]
 80492d0:	89 44 24 04          	mov    DWORD PTR [esp+0x4],eax
 80492d4:	8b 84 24 90 00 00 00 	mov    eax,DWORD PTR [esp+0x90]
 80492db:	89 04 24             	mov    DWORD PTR [esp],eax
 80492de:	e8 9d f6 ff ff       	call   8048980
 80492e3:	89 6c 24 0c          	mov    DWORD PTR [esp+0xc],ebp
 80492e7:	c7 44 24 08 01 00 00 	mov    DWORD PTR [esp+0x8],0x1
 80492ee:	00 
 80492ef:	c7 44 24 60 00 00 00 	mov    DWORD PTR [esp+0x60],0x0
 80492f6:	00 
 80492f7:	89 c7                	mov    edi,eax
 80492f9:	f7 d0                	not    eax
 80492fb:	c1 e8 1f             	shr    eax,0x1f
 80492fe:	85 db                	test   ebx,ebx
 8049300:	0f 95 c3             	setne  bl
 8049303:	89 de                	mov    esi,ebx
 8049305:	21 c6                	and    esi,eax
 8049307:	89 f0                	mov    eax,esi
 8049309:	0f b6 d8             	movzx  ebx,al
 804930c:	a1 00 61 05 08       	mov    eax,ds:0x8056100
 8049311:	89 7c 24 10          	mov    DWORD PTR [esp+0x10],edi
 8049315:	89 44 24 04          	mov    DWORD PTR [esp+0x4],eax
 8049319:	a1 a8 60 05 08       	mov    eax,ds:0x80560a8
 804931e:	89 04 24             	mov    DWORD PTR [esp],eax
 8049321:	e8 fa 04 00 00       	call   8049820
 8049326:	a1 24 61 05 08       	mov    eax,ds:0x8056124
 804932b:	8d 4c 24 5c          	lea    ecx,[esp+0x5c]
 804932f:	c7 44 24 68 00 00 00 	mov    DWORD PTR [esp+0x68],0x0
 8049336:	00 
 8049337:	8d 54 24 68          	lea    edx,[esp+0x68]
 804933b:	0f af c7             	imul   eax,edi
 804933e:	03 44 24 60          	add    eax,DWORD PTR [esp+0x60]
 8049342:	89 44 24 64          	mov    DWORD PTR [esp+0x64],eax
 8049346:	8b 02                	mov    eax,DWORD PTR [edx]
 8049348:	85 db                	test   ebx,ebx
 804934a:	0f 45 01             	cmovne eax,DWORD PTR [ecx]
 804934d:	89 02                	mov    DWORD PTR [edx],eax
 804934f:	8b 44 24 64          	mov    eax,DWORD PTR [esp+0x64]
 8049353:	89 54 24 0c          	mov    DWORD PTR [esp+0xc],edx
 8049357:	c7 44 24 08 01 00 00 	mov    DWORD PTR [esp+0x8],0x1
 804935e:	00 
 804935f:	89 44 24 10          	mov    DWORD PTR [esp+0x10],eax
 8049363:	a1 00 61 05 08       	mov    eax,ds:0x8056100
 8049368:	0f af 05 24 61 05 08 	imul   eax,DWORD PTR ds:0x8056124
 804936f:	89 44 24 04          	mov    DWORD PTR [esp+0x4],eax
 8049373:	a1 ac 60 05 08       	mov    eax,ds:0x80560ac
 8049378:	89 04 24             	mov    DWORD PTR [esp],eax
 804937b:	e8 20 05 00 00       	call   80498a0
 8049380:	8b 44 24 60          	mov    eax,DWORD PTR [esp+0x60]
 8049384:	8d 4c 24 6c          	lea    ecx,[esp+0x6c]
 8049388:	89 ea                	mov    edx,ebp
 804938a:	83 c0 01             	add    eax,0x1
 804938d:	89 44 24 6c          	mov    DWORD PTR [esp+0x6c],eax
 8049391:	8b 02                	mov    eax,DWORD PTR [edx]
 8049393:	85 db                	test   ebx,ebx
 8049395:	0f 45 01             	cmovne eax,DWORD PTR [ecx]
 8049398:	89 02                	mov    DWORD PTR [edx],eax
 804939a:	a1 00 61 05 08       	mov    eax,ds:0x8056100
 804939f:	89 7c 24 10          	mov    DWORD PTR [esp+0x10],edi
 80493a3:	89 6c 24 0c          	mov    DWORD PTR [esp+0xc],ebp
 80493a7:	c7 44 24 08 01 00 00 	mov    DWORD PTR [esp+0x8],0x1
 80493ae:	00 
 80493af:	89 44 24 04          	mov    DWORD PTR [esp+0x4],eax
 80493b3:	a1 a8 60 05 08       	mov    eax,ds:0x80560a8
 80493b8:	89 04 24             	mov    DWORD PTR [esp],eax
 80493bb:	e8 e0 04 00 00       	call   80498a0
 80493c0:	8b 54 24 5c          	mov    edx,DWORD PTR [esp+0x5c]
 80493c4:	8d 4c 24 64          	lea    ecx,[esp+0x64]
 80493c8:	c1 e2 04             	shl    edx,0x4
 80493cb:	03 15 40 61 05 08    	add    edx,DWORD PTR ds:0x8056140
 80493d1:	8b 02                	mov    eax,DWORD PTR [edx]
 80493d3:	85 db                	test   ebx,ebx
 80493d5:	0f 45 01             	cmovne eax,DWORD PTR [ecx]
 80493d8:	89 02                	mov    DWORD PTR [edx],eax
 80493da:	8b 54 24 5c          	mov    edx,DWORD PTR [esp+0x5c]
 80493de:	89 f3                	mov    ebx,esi
 80493e0:	b9 54 60 05 08       	mov    ecx,0x8056054
 80493e5:	83 f3 01             	xor    ebx,0x1
 80493e8:	0f b6 db             	movzx  ebx,bl
 80493eb:	c1 e2 04             	shl    edx,0x4
 80493ee:	03 15 40 61 05 08    	add    edx,DWORD PTR ds:0x8056140
 80493f4:	8b 02                	mov    eax,DWORD PTR [edx]
 80493f6:	85 db                	test   ebx,ebx
 80493f8:	0f 45 01             	cmovne eax,DWORD PTR [ecx]
 80493fb:	89 02                	mov    DWORD PTR [edx],eax
 80493fd:	8b 44 24 5c          	mov    eax,DWORD PTR [esp+0x5c]
 8049401:	8b 15 3c 61 05 08    	mov    edx,DWORD PTR ds:0x805613c
 8049407:	83 c0 01             	add    eax,0x1
 804940a:	39 c2                	cmp    edx,eax
 804940c:	89 44 24 5c          	mov    DWORD PTR [esp+0x5c],eax
 8049410:	0f 8f 97 fe ff ff    	jg     80492ad
 8049416:	89 d0                	mov    eax,edx
 8049418:	8b 15 00 61 05 08    	mov    edx,DWORD PTR ds:0x8056100
 804941e:	8b 35 24 61 05 08    	mov    esi,DWORD PTR ds:0x8056124
 8049424:	c7 44 24 6c 00 00 00 	mov    DWORD PTR [esp+0x6c],0x0
 804942b:	00 
 804942c:	89 f1                	mov    ecx,esi
 804942e:	0f af ca             	imul   ecx,edx
 8049431:	85 c9                	test   ecx,ecx
 8049433:	0f 8e 8c 00 00 00    	jle    80494c5
 8049439:	31 db                	xor    ebx,ebx
 804943b:	8d 4c 24 6c          	lea    ecx,[esp+0x6c]
 804943f:	8b 3d ac 60 05 08    	mov    edi,DWORD PTR ds:0x80560ac
 8049445:	83 3c 9f ff          	cmp    DWORD PTR [edi+ebx*4],0xff
 8049449:	0f 94 44 24 30       	sete   BYTE PTR [esp+0x30]
 804944e:	85 c0                	test   eax,eax
 8049450:	7e 5f                	jle    80494b1
 8049452:	31 ed                	xor    ebp,ebp
 8049454:	31 ff                	xor    edi,edi
 8049456:	31 f6                	xor    esi,esi
 8049458:	8b 15 40 61 05 08    	mov    edx,DWORD PTR ds:0x8056140
 804945e:	01 ea                	add    edx,ebp
 8049460:	f7 c6 01 00 00 00    	test   esi,0x1
 8049466:	0f 85 ec 01 00 00    	jne    8049658
 804946c:	80 7c 24 30 00       	cmp    BYTE PTR [esp+0x30],0x0
 8049471:	0f 84 e1 01 00 00    	je     8049658
 8049477:	8b 42 04             	mov    eax,DWORD PTR [edx+0x4]
 804947a:	bb 01 00 00 00       	mov    ebx,0x1
 804947f:	85 c0                	test   eax,eax
 8049481:	0f 85 d1 01 00 00    	jne    8049658
 8049487:	8b 02                	mov    eax,DWORD PTR [edx]
 8049489:	85 db                	test   ebx,ebx
 804948b:	0f 45 01             	cmovne eax,DWORD PTR [ecx]
 804948e:	89 02                	mov    DWORD PTR [edx],eax
 8049490:	a1 3c 61 05 08       	mov    eax,ds:0x805613c
 8049495:	83 c7 01             	add    edi,0x1
 8049498:	09 de                	or     esi,ebx
 804949a:	83 c5 10             	add    ebp,0x10
 804949d:	39 f8                	cmp    eax,edi
 804949f:	7f b7                	jg     8049458
 80494a1:	8b 15 00 61 05 08    	mov    edx,DWORD PTR ds:0x8056100
 80494a7:	8b 35 24 61 05 08    	mov    esi,DWORD PTR ds:0x8056124
 80494ad:	8b 5c 24 6c          	mov    ebx,DWORD PTR [esp+0x6c]
 80494b1:	89 d7                	mov    edi,edx
 80494b3:	83 c3 01             	add    ebx,0x1
 80494b6:	0f af fe             	imul   edi,esi
 80494b9:	89 5c 24 6c          	mov    DWORD PTR [esp+0x6c],ebx
 80494bd:	39 df                	cmp    edi,ebx
 80494bf:	0f 8f 7a ff ff ff    	jg     804943f
 80494c5:	89 44 24 08          	mov    DWORD PTR [esp+0x8],eax
 80494c9:	a1 44 61 05 08       	mov    eax,ds:0x8056144
 80494ce:	8b 15 20 61 05 08    	mov    edx,DWORD PTR ds:0x8056120
 80494d4:	c7 44 24 1c 04 00 00 	mov    DWORD PTR [esp+0x1c],0x4
 80494db:	00 
 80494dc:	c7 44 24 18 01 00 00 	mov    DWORD PTR [esp+0x18],0x1
 80494e3:	00 
 80494e4:	89 44 24 04          	mov    DWORD PTR [esp+0x4],eax
 80494e8:	a1 40 61 05 08       	mov    eax,ds:0x8056140
 80494ed:	89 54 24 20          	mov    DWORD PTR [esp+0x20],edx
 80494f1:	c7 44 24 14 01 00 00 	mov    DWORD PTR [esp+0x14],0x1
 80494f8:	00 
 80494f9:	c7 44 24 10 01 00 00 	mov    DWORD PTR [esp+0x10],0x1
 8049500:	00 
 8049501:	89 04 24             	mov    DWORD PTR [esp],eax
 8049504:	c7 44 24 0c 00 00 00 	mov    DWORD PTR [esp+0xc],0x0
 804950b:	00 
 804950c:	ff 15 08 61 05 08    	call   DWORD PTR ds:0x8056108
 8049512:	a1 00 61 05 08       	mov    eax,ds:0x8056100
 8049517:	83 e8 01             	sub    eax,0x1
 804951a:	89 44 24 04          	mov    DWORD PTR [esp+0x4],eax
 804951e:	8b 84 24 90 00 00 00 	mov    eax,DWORD PTR [esp+0x90]
 8049525:	89 04 24             	mov    DWORD PTR [esp],eax
 8049528:	e8 13 04 00 00       	call   8049940
 804952d:	8b 0d 00 61 05 08    	mov    ecx,DWORD PTR ds:0x8056100
 8049533:	85 c9                	test   ecx,ecx
 8049535:	89 44 24 44          	mov    DWORD PTR [esp+0x44],eax
 8049539:	0f 8e 0a 01 00 00    	jle    8049649
 804953f:	a1 04 61 05 08       	mov    eax,ds:0x8056104
 8049544:	8b 2d 24 61 05 08    	mov    ebp,DWORD PTR ds:0x8056124
 804954a:	c7 44 24 48 00 00 00 	mov    DWORD PTR [esp+0x48],0x0
 8049551:	00 
 8049552:	c7 44 24 38 01 00 00 	mov    DWORD PTR [esp+0x38],0x1
 8049559:	00 
 804955a:	89 44 24 3c          	mov    DWORD PTR [esp+0x3c],eax
 804955e:	a1 40 61 05 08       	mov    eax,ds:0x8056140
 8049563:	c7 44 24 30 00 00 00 	mov    DWORD PTR [esp+0x30],0x0
 804956a:	00 
 804956b:	89 44 24 4c          	mov    DWORD PTR [esp+0x4c],eax
 804956f:	a1 44 61 05 08       	mov    eax,ds:0x8056144
 8049574:	89 44 24 40          	mov    DWORD PTR [esp+0x40],eax
 8049578:	85 ed                	test   ebp,ebp
 804957a:	0f 8e 95 00 00 00    	jle    8049615
 8049580:	8b 54 24 30          	mov    edx,DWORD PTR [esp+0x30]
 8049584:	8b 74 24 4c          	mov    esi,DWORD PTR [esp+0x4c]
 8049588:	a1 20 61 05 08       	mov    eax,ds:0x8056120
 804958d:	c1 e2 04             	shl    edx,0x4
 8049590:	8d 5c 16 04          	lea    ebx,[esi+edx+0x4]
 8049594:	31 f6                	xor    esi,esi
 8049596:	66 90                	xchg   ax,ax
 8049598:	8b 54 24 38          	mov    edx,DWORD PTR [esp+0x38]
 804959c:	8d 48 03             	lea    ecx,[eax+0x3]
 804959f:	0f af d5             	imul   edx,ebp
 80495a2:	01 f2                	add    edx,esi
 80495a4:	0f af d1             	imul   edx,ecx
 80495a7:	8b 4c 24 3c          	mov    ecx,DWORD PTR [esp+0x3c]
 80495ab:	c1 e2 02             	shl    edx,0x2
 80495ae:	8d 3c 11             	lea    edi,[ecx+edx]
 80495b1:	8d 4c 11 0c          	lea    ecx,[ecx+edx+0xc]
 80495b5:	8b 54 24 40          	mov    edx,DWORD PTR [esp+0x40]
 80495b9:	89 4c 24 34          	mov    DWORD PTR [esp+0x34],ecx
 80495bd:	8b 4c 24 30          	mov    ecx,DWORD PTR [esp+0x30]
 80495c1:	0f af c8             	imul   ecx,eax
 80495c4:	85 c0                	test   eax,eax
 80495c6:	8d 0c 8a             	lea    ecx,[edx+ecx*4]
 80495c9:	8b 13                	mov    edx,DWORD PTR [ebx]
 80495cb:	89 17                	mov    DWORD PTR [edi],edx
 80495cd:	8b 53 04             	mov    edx,DWORD PTR [ebx+0x4]
 80495d0:	89 57 04             	mov    DWORD PTR [edi+0x4],edx
 80495d3:	8b 53 08             	mov    edx,DWORD PTR [ebx+0x8]
 80495d6:	89 57 08             	mov    DWORD PTR [edi+0x8],edx
 80495d9:	c7 03 00 00 00 00    	mov    DWORD PTR [ebx],0x0
 80495df:	7e 1f                	jle    8049600
 80495e1:	8b 54 24 34          	mov    edx,DWORD PTR [esp+0x34]
 80495e5:	31 ff                	xor    edi,edi
 80495e7:	90                   	nop
 80495e8:	8b 04 b9             	mov    eax,DWORD PTR [ecx+edi*4]
 80495eb:	89 04 ba             	mov    DWORD PTR [edx+edi*4],eax
 80495ee:	a1 20 61 05 08       	mov    eax,ds:0x8056120
 80495f3:	83 c7 01             	add    edi,0x1
 80495f6:	39 f8                	cmp    eax,edi
 80495f8:	7f ee                	jg     80495e8
 80495fa:	8b 2d 24 61 05 08    	mov    ebp,DWORD PTR ds:0x8056124
 8049600:	83 c6 01             	add    esi,0x1
 8049603:	83 c3 10             	add    ebx,0x10
 8049606:	83 44 24 30 01       	add    DWORD PTR [esp+0x30],0x1
 804960b:	39 ee                	cmp    esi,ebp
 804960d:	7c 89                	jl     8049598
 804960f:	8b 0d 00 61 05 08    	mov    ecx,DWORD PTR ds:0x8056100
 8049615:	8b 74 24 44          	mov    esi,DWORD PTR [esp+0x44]
 8049619:	8b 5c 24 38          	mov    ebx,DWORD PTR [esp+0x38]
 804961d:	83 44 24 48 01       	add    DWORD PTR [esp+0x48],0x1
 8049622:	89 f2                	mov    edx,esi
 8049624:	89 f0                	mov    eax,esi
 8049626:	c1 ea 1f             	shr    edx,0x1f
 8049629:	01 d0                	add    eax,edx
 804962b:	83 e0 01             	and    eax,0x1
 804962e:	01 54 24 44          	add    DWORD PTR [esp+0x44],edx
 8049632:	29 d0                	sub    eax,edx
 8049634:	d1 7c 24 44          	sar    DWORD PTR [esp+0x44],1
 8049638:	39 4c 24 48          	cmp    DWORD PTR [esp+0x48],ecx
 804963c:	8d 04 58             	lea    eax,[eax+ebx*2]
 804963f:	89 44 24 38          	mov    DWORD PTR [esp+0x38],eax
 8049643:	0f 8c 2f ff ff ff    	jl     8049578
 8049649:	83 c4 7c             	add    esp,0x7c
 804964c:	5b                   	pop    ebx
 804964d:	5e                   	pop    esi
 804964e:	5f                   	pop    edi
 804964f:	5d                   	pop    ebp
 8049650:	c3                   	ret
 8049651:	8d b4 26 00 00 00 00 	lea    esi,[esi]
 8049658:	31 db                	xor    ebx,ebx
 804965a:	e9 28 fe ff ff       	jmp    8049487
 804965f:	90                   	nop

08049660 <Access_ORAM>:
 8049660:	56                   	push   esi
 8049661:	53                   	push   ebx
 8049662:	83 ec 34             	sub    esp,0x34
 8049665:	8b 74 24 40          	mov    esi,DWORD PTR [esp+0x40]
 8049669:	8b 5c 24 44          	mov    ebx,DWORD PTR [esp+0x44]
 804966d:	8d 46 ff             	lea    eax,[esi-0x1]
 8049670:	83 f8 01             	cmp    eax,0x1
 8049673:	0f 87 d0 00 00 00    	ja     8049749
 8049679:	85 db                	test   ebx,ebx
 804967b:	78 7e                	js     80496fb
 804967d:	3b 1d 34 61 05 08    	cmp    ebx,DWORD PTR ds:0x8056134
 8049683:	7d 76                	jge    80496fb
 8049685:	e8 c6 ee ff ff       	call   8048550
 804968a:	99                   	cdq
 804968b:	f7 3d 2c 61 05 08    	idiv   DWORD PTR ds:0x805612c
 8049691:	89 54 24 28          	mov    DWORD PTR [esp+0x28],edx
 8049695:	e8 b6 ee ff ff       	call   8048550
 804969a:	89 5c 24 04          	mov    DWORD PTR [esp+0x4],ebx
 804969e:	89 34 24             	mov    DWORD PTR [esp],esi
 80496a1:	99                   	cdq
 80496a2:	f7 3d 2c 61 05 08    	idiv   DWORD PTR ds:0x805612c
 80496a8:	8d 44 24 2c          	lea    eax,[esp+0x2c]
 80496ac:	89 44 24 0c          	mov    DWORD PTR [esp+0xc],eax
 80496b0:	8d 44 24 28          	lea    eax,[esp+0x28]
 80496b4:	89 44 24 08          	mov    DWORD PTR [esp+0x8],eax
 80496b8:	89 54 24 2c          	mov    DWORD PTR [esp+0x2c],edx
 80496bc:	e8 0f f7 ff ff       	call   8048dd0
 80496c1:	89 5c 24 04          	mov    DWORD PTR [esp+0x4],ebx
 80496c5:	89 34 24             	mov    DWORD PTR [esp],esi
 80496c8:	89 44 24 14          	mov    DWORD PTR [esp+0x14],eax
 80496cc:	8b 44 24 2c          	mov    eax,DWORD PTR [esp+0x2c]
 80496d0:	89 44 24 10          	mov    DWORD PTR [esp+0x10],eax
 80496d4:	8b 44 24 28          	mov    eax,DWORD PTR [esp+0x28]
 80496d8:	89 44 24 0c          	mov    DWORD PTR [esp+0xc],eax
 80496dc:	8b 44 24 48          	mov    eax,DWORD PTR [esp+0x48]
 80496e0:	89 44 24 08          	mov    DWORD PTR [esp+0x8],eax
 80496e4:	e8 17 f8 ff ff       	call   8048f00
 80496e9:	8b 44 24 28          	mov    eax,DWORD PTR [esp+0x28]
 80496ed:	89 04 24             	mov    DWORD PTR [esp],eax
 80496f0:	e8 3b fb ff ff       	call   8049230
 80496f5:	83 c4 34             	add    esp,0x34
 80496f8:	5b                   	pop    ebx
 80496f9:	5e                   	pop    esi
 80496fa:	c3                   	ret
 80496fb:	a1 34 61 05 08       	mov    eax,ds:0x8056134
 8049700:	89 5c 24 0c          	mov    DWORD PTR [esp+0xc],ebx
 8049704:	c7 44 24 08 64 38 05 	mov    DWORD PTR [esp+0x8],0x8053864
 804970b:	08 
 804970c:	c7 44 24 04 01 00 00 	mov    DWORD PTR [esp+0x4],0x1
 8049713:	00 
 8049714:	89 44 24 10          	mov    DWORD PTR [esp+0x10],eax
 8049718:	a1 80 60 05 08       	mov    eax,ds:0x8056080
 804971d:	89 04 24             	mov    DWORD PTR [esp],eax
 8049720:	e8 4b ee ff ff       	call   8048570
 8049725:	c7 44 24 0c b6 38 05 	mov    DWORD PTR [esp+0xc],0x80538b6
 804972c:	08 
 804972d:	c7 44 24 08 a6 01 00 	mov    DWORD PTR [esp+0x8],0x1a6
 8049734:	00 
 8049735:	c7 44 24 04 e8 37 05 	mov    DWORD PTR [esp+0x4],0x80537e8
 804973c:	08 
 804973d:	c7 04 24 a1 38 05 08 	mov    DWORD PTR [esp],0x80538a1
 8049744:	e8 47 ee ff ff       	call   8048590
 8049749:	c7 44 24 0c b6 38 05 	mov    DWORD PTR [esp+0xc],0x80538b6
 8049750:	08 
 8049751:	c7 44 24 08 a3 01 00 	mov    DWORD PTR [esp+0x8],0x1a3
 8049758:	00 
 8049759:	c7 44 24 04 e8 37 05 	mov    DWORD PTR [esp+0x4],0x80537e8
 8049760:	08 
 8049761:	c7 04 24 a3 38 05 08 	mov    DWORD PTR [esp],0x80538a3
 8049768:	e8 23 ee ff ff       	call   8048590
 804976d:	8d 76 00             	lea    esi,[esi]

08049770 <Func_Time_Measure_Begin>:
 8049770:	f3 c3                	repz   ret
 8049772:	8d b4 26 00 00 00 00 	lea    esi,[esi]
 8049779:	8d bc 27 00 00 00 00 	lea    edi,[edi]

08049780 <Print_Func_Time_Stats>:
 8049780:	f3 c3                	repz   ret
 8049782:	8d b4 26 00 00 00 00 	lea    esi,[esi]
 8049789:	8d bc 27 00 00 00 00 	lea    edi,[edi]

08049790 <Print_All>:
 8049790:	f3 c3                	repz   ret
 8049792:	8d b4 26 00 00 00 00 	lea    esi,[esi]
 8049799:	8d bc 27 00 00 00 00 	lea    edi,[edi]

080497a0 <Print_ORAM>:
 80497a0:	f3 c3                	repz   ret
 80497a2:	8d b4 26 00 00 00 00 	lea    esi,[esi]
 80497a9:	8d bc 27 00 00 00 00 	lea    edi,[edi]

080497b0 <Print_Stash>:
 80497b0:	f3 c3                	repz   ret
 80497b2:	8d b4 26 00 00 00 00 	lea    esi,[esi]
 80497b9:	8d bc 27 00 00 00 00 	lea    edi,[edi]

080497c0 <Print_PosMap>:
 80497c0:	f3 c3                	repz   ret
 80497c2:	8d b4 26 00 00 00 00 	lea    esi,[esi]
 80497c9:	8d bc 27 00 00 00 00 	lea    edi,[edi]

080497d0 <Stash_Full>:
 80497d0:	8b 0d 3c 61 05 08    	mov    ecx,DWORD PTR ds:0x805613c
 80497d6:	85 c9                	test   ecx,ecx
 80497d8:	7e 31                	jle    804980b
 80497da:	53                   	push   ebx
 80497db:	8b 1d 40 61 05 08    	mov    ebx,DWORD PTR ds:0x8056140
 80497e1:	8b 43 04             	mov    eax,DWORD PTR [ebx+0x4]
 80497e4:	85 c0                	test   eax,eax
 80497e6:	74 21                	je     8049809
 80497e8:	31 d2                	xor    edx,edx
 80497ea:	eb 11                	jmp    80497fd
 80497ec:	8d 74 26 00          	lea    esi,[esi]
 80497f0:	89 d0                	mov    eax,edx
 80497f2:	c1 e0 04             	shl    eax,0x4
 80497f5:	8b 44 03 04          	mov    eax,DWORD PTR [ebx+eax+0x4]
 80497f9:	85 c0                	test   eax,eax
 80497fb:	74 0c                	je     8049809
 80497fd:	83 c2 01             	add    edx,0x1
 8049800:	39 ca                	cmp    edx,ecx
 8049802:	75 ec                	jne    80497f0
 8049804:	b8 01 00 00 00       	mov    eax,0x1
 8049809:	5b                   	pop    ebx
 804980a:	c3                   	ret
 804980b:	b8 01 00 00 00       	mov    eax,0x1
 8049810:	c3                   	ret
 8049811:	66 90                	xchg   ax,ax
 8049813:	66 90                	xchg   ax,ax
 8049815:	66 90                	xchg   ax,ax
 8049817:	66 90                	xchg   ax,ax
 8049819:	66 90                	xchg   ax,ax
 804981b:	66 90                	xchg   ax,ax
 804981d:	66 90                	xchg   ax,ax
 804981f:	90                   	nop

08049820 <ScanORAM_Read>:
 8049820:	55                   	push   ebp
 8049821:	57                   	push   edi
 8049822:	56                   	push   esi
 8049823:	53                   	push   ebx
 8049824:	83 ec 08             	sub    esp,0x8
 8049827:	8b 44 24 24          	mov    eax,DWORD PTR [esp+0x24]
 804982b:	8b 54 24 20          	mov    edx,DWORD PTR [esp+0x20]
 804982f:	8b 6c 24 28          	mov    ebp,DWORD PTR [esp+0x28]
 8049833:	8b 7c 24 1c          	mov    edi,DWORD PTR [esp+0x1c]
 8049837:	c1 e0 02             	shl    eax,0x2
 804983a:	85 d2                	test   edx,edx
 804983c:	89 04 24             	mov    DWORD PTR [esp],eax
 804983f:	c7 44 24 04 00 00 00 	mov    DWORD PTR [esp+0x4],0x0
 8049846:	00 
 8049847:	7e 49                	jle    8049892
 8049849:	8b 44 24 04          	mov    eax,DWORD PTR [esp+0x4]
 804984d:	8d 76 00             	lea    esi,[esi]
 8049850:	31 db                	xor    ebx,ebx
 8049852:	3b 44 24 2c          	cmp    eax,DWORD PTR [esp+0x2c]
 8049856:	8b 44 24 24          	mov    eax,DWORD PTR [esp+0x24]
 804985a:	0f 94 c3             	sete   bl
 804985d:	31 f6                	xor    esi,esi
 804985f:	85 c0                	test   eax,eax
 8049861:	7e 1d                	jle    8049880
 8049863:	90                   	nop
 8049864:	8d 74 26 00          	lea    esi,[esi]
 8049868:	8d 0c 37             	lea    ecx,[edi+esi]
 804986b:	8d 54 35 00          	lea    edx,[ebp+esi]
 804986f:	8b 02                	mov    eax,DWORD PTR [edx]
 8049871:	85 db                	test   ebx,ebx
 8049873:	0f 45 01             	cmovne eax,DWORD PTR [ecx]
 8049876:	89 02                	mov    DWORD PTR [edx],eax
 8049878:	83 c6 04             	add    esi,0x4
 804987b:	39 34 24             	cmp    DWORD PTR [esp],esi
 804987e:	75 e8                	jne    8049868
 8049880:	83 44 24 04 01       	add    DWORD PTR [esp+0x4],0x1
 8049885:	8b 44 24 04          	mov    eax,DWORD PTR [esp+0x4]
 8049889:	03 3c 24             	add    edi,DWORD PTR [esp]
 804988c:	3b 44 24 20          	cmp    eax,DWORD PTR [esp+0x20]
 8049890:	75 be                	jne    8049850
 8049892:	83 c4 08             	add    esp,0x8
 8049895:	5b                   	pop    ebx
 8049896:	5e                   	pop    esi
 8049897:	5f                   	pop    edi
 8049898:	5d                   	pop    ebp
 8049899:	c3                   	ret
 804989a:	8d b6 00 00 00 00    	lea    esi,[esi]

080498a0 <ScanORAM_Write>:
 80498a0:	55                   	push   ebp
 80498a1:	57                   	push   edi
 80498a2:	56                   	push   esi
 80498a3:	53                   	push   ebx
 80498a4:	83 ec 08             	sub    esp,0x8
 80498a7:	8b 44 24 24          	mov    eax,DWORD PTR [esp+0x24]
 80498ab:	8b 54 24 20          	mov    edx,DWORD PTR [esp+0x20]
 80498af:	8b 6c 24 28          	mov    ebp,DWORD PTR [esp+0x28]
 80498b3:	8b 7c 24 1c          	mov    edi,DWORD PTR [esp+0x1c]
 80498b7:	c1 e0 02             	shl    eax,0x2
 80498ba:	85 d2                	test   edx,edx
 80498bc:	89 04 24             	mov    DWORD PTR [esp],eax
 80498bf:	c7 44 24 04 00 00 00 	mov    DWORD PTR [esp+0x4],0x0
 80498c6:	00 
 80498c7:	7e 49                	jle    8049912
 80498c9:	8b 44 24 04          	mov    eax,DWORD PTR [esp+0x4]
 80498cd:	8d 76 00             	lea    esi,[esi]
 80498d0:	31 db                	xor    ebx,ebx
 80498d2:	3b 44 24 2c          	cmp    eax,DWORD PTR [esp+0x2c]
 80498d6:	8b 44 24 24          	mov    eax,DWORD PTR [esp+0x24]
 80498da:	0f 94 c3             	sete   bl
 80498dd:	31 f6                	xor    esi,esi
 80498df:	85 c0                	test   eax,eax
 80498e1:	7e 1d                	jle    8049900
 80498e3:	90                   	nop
 80498e4:	8d 74 26 00          	lea    esi,[esi]
 80498e8:	8d 4c 35 00          	lea    ecx,[ebp+esi]
 80498ec:	8d 14 37             	lea    edx,[edi+esi]
 80498ef:	8b 02                	mov    eax,DWORD PTR [edx]
 80498f1:	85 db                	test   ebx,ebx
 80498f3:	0f 45 01             	cmovne eax,DWORD PTR [ecx]
 80498f6:	89 02                	mov    DWORD PTR [edx],eax
 80498f8:	83 c6 04             	add    esi,0x4
 80498fb:	39 34 24             	cmp    DWORD PTR [esp],esi
 80498fe:	75 e8                	jne    80498e8
 8049900:	83 44 24 04 01       	add    DWORD PTR [esp+0x4],0x1
 8049905:	8b 44 24 04          	mov    eax,DWORD PTR [esp+0x4]
 8049909:	03 3c 24             	add    edi,DWORD PTR [esp]
 804990c:	3b 44 24 20          	cmp    eax,DWORD PTR [esp+0x20]
 8049910:	75 be                	jne    80498d0
 8049912:	83 c4 08             	add    esp,0x8
 8049915:	5b                   	pop    ebx
 8049916:	5e                   	pop    esi
 8049917:	5f                   	pop    edi
 8049918:	5d                   	pop    ebp
 8049919:	c3                   	ret
 804991a:	66 90                	xchg   ax,ax
 804991c:	66 90                	xchg   ax,ax
 804991e:	66 90                	xchg   ax,ax

08049920 <log_2>:
 8049920:	8b 44 24 04          	mov    eax,DWORD PTR [esp+0x4]
 8049924:	8d 54 00 ff          	lea    edx,[eax+eax-0x1]
 8049928:	31 c0                	xor    eax,eax
 804992a:	d1 ea                	shr    edx,1
 804992c:	74 0b                	je     8049939
 804992e:	66 90                	xchg   ax,ax
 8049930:	83 c0 01             	add    eax,0x1
 8049933:	d1 ea                	shr    edx,1
 8049935:	75 f9                	jne    8049930
 8049937:	f3 c3                	repz   ret
 8049939:	f3 c3                	repz   ret
 804993b:	90                   	nop
 804993c:	8d 74 26 00          	lea    esi,[esi]

08049940 <bitwiseReverse>:
 8049940:	56                   	push   esi
 8049941:	53                   	push   ebx
 8049942:	8b 74 24 10          	mov    esi,DWORD PTR [esp+0x10]
 8049946:	8b 54 24 0c          	mov    edx,DWORD PTR [esp+0xc]
 804994a:	85 f6                	test   esi,esi
 804994c:	7e 1e                	jle    804996c
 804994e:	31 c9                	xor    ecx,ecx
 8049950:	31 c0                	xor    eax,eax
 8049952:	8d b6 00 00 00 00    	lea    esi,[esi]
 8049958:	89 d3                	mov    ebx,edx
 804995a:	83 c1 01             	add    ecx,0x1
 804995d:	83 e3 01             	and    ebx,0x1
 8049960:	d1 ea                	shr    edx,1
 8049962:	39 f1                	cmp    ecx,esi
 8049964:	8d 04 43             	lea    eax,[ebx+eax*2]
 8049967:	75 ef                	jne    8049958
 8049969:	5b                   	pop    ebx
 804996a:	5e                   	pop    esi
 804996b:	c3                   	ret
 804996c:	31 c0                	xor    eax,eax
 804996e:	eb f9                	jmp    8049969

08049970 <roundToPowerOf2>:
 8049970:	8b 44 24 04          	mov    eax,DWORD PTR [esp+0x4]
 8049974:	d1 f8                	sar    eax,1
 8049976:	74 17                	je     804998f
 8049978:	b9 01 00 00 00       	mov    ecx,0x1
 804997d:	8d 76 00             	lea    esi,[esi]
 8049980:	83 c1 01             	add    ecx,0x1
 8049983:	d1 f8                	sar    eax,1
 8049985:	75 f9                	jne    8049980
 8049987:	b8 01 00 00 00       	mov    eax,0x1
 804998c:	d3 e0                	shl    eax,cl
 804998e:	c3                   	ret
 804998f:	b8 02 00 00 00       	mov    eax,0x2
 8049994:	c3                   	ret
 8049995:	66 90                	xchg   ax,ax
 8049997:	66 90                	xchg   ax,ax
 8049999:	66 90                	xchg   ax,ax
 804999b:	66 90                	xchg   ax,ax
 804999d:	66 90                	xchg   ax,ax
 804999f:	90                   	nop

080499a0 <rdtsc>:
 80499a0:	0f 31                	rdtsc
 80499a2:	c3                   	ret
 80499a3:	8d b6 00 00 00 00    	lea    esi,[esi]
 80499a9:	8d bc 27 00 00 00 00 	lea    edi,[edi]

080499b0 <cmov>:
 80499b0:	53                   	push   ebx
 80499b1:	8b 54 24 10          	mov    edx,DWORD PTR [esp+0x10]
 80499b5:	8b 4c 24 0c          	mov    ecx,DWORD PTR [esp+0xc]
 80499b9:	8b 5c 24 08          	mov    ebx,DWORD PTR [esp+0x8]
 80499bd:	8b 02                	mov    eax,DWORD PTR [edx]
 80499bf:	85 db                	test   ebx,ebx
 80499c1:	0f 45 01             	cmovne eax,DWORD PTR [ecx]
 80499c4:	89 02                	mov    DWORD PTR [edx],eax
 80499c6:	5b                   	pop    ebx
 80499c7:	c3                   	ret
 80499c8:	90                   	nop
 80499c9:	8d b4 26 00 00 00 00 	lea    esi,[esi]

080499d0 <cmovn>:
 80499d0:	55                   	push   ebp
 80499d1:	57                   	push   edi
 80499d2:	56                   	push   esi
 80499d3:	31 f6                	xor    esi,esi
 80499d5:	53                   	push   ebx
 80499d6:	83 ec 04             	sub    esp,0x4
 80499d9:	8b 44 24 24          	mov    eax,DWORD PTR [esp+0x24]
 80499dd:	8b 5c 24 18          	mov    ebx,DWORD PTR [esp+0x18]
 80499e1:	8b 7c 24 1c          	mov    edi,DWORD PTR [esp+0x1c]
 80499e5:	8b 6c 24 20          	mov    ebp,DWORD PTR [esp+0x20]
 80499e9:	8d 14 85 00 00 00 00 	lea    edx,[eax*4]
 80499f0:	85 c0                	test   eax,eax
 80499f2:	89 14 24             	mov    DWORD PTR [esp],edx
 80499f5:	7e 19                	jle    8049a10
 80499f7:	90                   	nop
 80499f8:	8d 0c 37             	lea    ecx,[edi+esi]
 80499fb:	8d 54 35 00          	lea    edx,[ebp+esi]
 80499ff:	8b 02                	mov    eax,DWORD PTR [edx]
 8049a01:	85 db                	test   ebx,ebx
 8049a03:	0f 45 01             	cmovne eax,DWORD PTR [ecx]
 8049a06:	89 02                	mov    DWORD PTR [edx],eax
 8049a08:	83 c6 04             	add    esi,0x4
 8049a0b:	3b 34 24             	cmp    esi,DWORD PTR [esp]
 8049a0e:	75 e8                	jne    80499f8
 8049a10:	83 c4 04             	add    esp,0x4
 8049a13:	5b                   	pop    ebx
 8049a14:	5e                   	pop    esi
 8049a15:	5f                   	pop    edi
 8049a16:	5d                   	pop    ebp
 8049a17:	c3                   	ret
 8049a18:	66 90                	xchg   ax,ax
 8049a1a:	66 90                	xchg   ax,ax
 8049a1c:	66 90                	xchg   ax,ax
 8049a1e:	66 90                	xchg   ax,ax

08049a20 <Merge_Block>:
 8049a20:	55                   	push   ebp
 8049a21:	57                   	push   edi
 8049a22:	56                   	push   esi
 8049a23:	89 c6                	mov    esi,eax
 8049a25:	53                   	push   ebx
 8049a26:	89 d3                	mov    ebx,edx
 8049a28:	83 ec 28             	sub    esp,0x28
 8049a2b:	89 44 24 24          	mov    DWORD PTR [esp+0x24],eax
 8049a2f:	89 c8                	mov    eax,ecx
 8049a31:	29 d0                	sub    eax,edx
 8049a33:	89 54 24 10          	mov    DWORD PTR [esp+0x10],edx
 8049a37:	8d 50 01             	lea    edx,[eax+0x1]
 8049a3a:	29 4c 24 3c          	sub    DWORD PTR [esp+0x3c],ecx
 8049a3e:	85 d2                	test   edx,edx
 8049a40:	89 4c 24 14          	mov    DWORD PTR [esp+0x14],ecx
 8049a44:	89 14 24             	mov    DWORD PTR [esp],edx
 8049a47:	7e 5c                	jle    8049aa5
 8049a49:	8b 15 68 60 05 08    	mov    edx,DWORD PTR ds:0x8056068
 8049a4f:	31 ff                	xor    edi,edi
 8049a51:	a1 d8 60 05 08       	mov    eax,ds:0x80560d8
 8049a56:	89 44 24 0c          	mov    DWORD PTR [esp+0xc],eax
 8049a5a:	8d 04 95 00 00 00 00 	lea    eax,[edx*4]
 8049a61:	89 44 24 08          	mov    DWORD PTR [esp+0x8],eax
 8049a65:	89 d8                	mov    eax,ebx
 8049a67:	0f af c2             	imul   eax,edx
 8049a6a:	8d 2c 86             	lea    ebp,[esi+eax*4]
 8049a6d:	31 f6                	xor    esi,esi
 8049a6f:	90                   	nop
 8049a70:	85 d2                	test   edx,edx
 8049a72:	7e 25                	jle    8049a99
 8049a74:	8b 4c 24 0c          	mov    ecx,DWORD PTR [esp+0xc]
 8049a78:	8d 1c 2e             	lea    ebx,[esi+ebp]
 8049a7b:	31 c0                	xor    eax,eax
 8049a7d:	89 74 24 04          	mov    DWORD PTR [esp+0x4],esi
 8049a81:	01 f1                	add    ecx,esi
 8049a83:	90                   	nop
 8049a84:	8d 74 26 00          	lea    esi,[esi]
 8049a88:	8b 34 83             	mov    esi,DWORD PTR [ebx+eax*4]
 8049a8b:	89 34 81             	mov    DWORD PTR [ecx+eax*4],esi
 8049a8e:	83 c0 01             	add    eax,0x1
 8049a91:	39 d0                	cmp    eax,edx
 8049a93:	75 f3                	jne    8049a88
 8049a95:	8b 74 24 04          	mov    esi,DWORD PTR [esp+0x4]
 8049a99:	83 c7 01             	add    edi,0x1
 8049a9c:	03 74 24 08          	add    esi,DWORD PTR [esp+0x8]
 8049aa0:	3b 3c 24             	cmp    edi,DWORD PTR [esp]
 8049aa3:	75 cb                	jne    8049a70
 8049aa5:	8b 7c 24 3c          	mov    edi,DWORD PTR [esp+0x3c]
 8049aa9:	85 ff                	test   edi,edi
 8049aab:	0f 8e 6c 02 00 00    	jle    8049d1d
 8049ab1:	a1 68 60 05 08       	mov    eax,ds:0x8056068
 8049ab6:	31 f6                	xor    esi,esi
 8049ab8:	8b 3d d4 60 05 08    	mov    edi,DWORD PTR ds:0x80560d4
 8049abe:	8b 54 24 14          	mov    edx,DWORD PTR [esp+0x14]
 8049ac2:	89 7c 24 04          	mov    DWORD PTR [esp+0x4],edi
 8049ac6:	8d 3c 85 00 00 00 00 	lea    edi,[eax*4]
 8049acd:	83 c2 01             	add    edx,0x1
 8049ad0:	89 7c 24 0c          	mov    DWORD PTR [esp+0xc],edi
 8049ad4:	0f af d0             	imul   edx,eax
 8049ad7:	8b 7c 24 24          	mov    edi,DWORD PTR [esp+0x24]
 8049adb:	8d 2c 97             	lea    ebp,[edi+edx*4]
 8049ade:	31 ff                	xor    edi,edi
 8049ae0:	85 c0                	test   eax,eax
 8049ae2:	7e 25                	jle    8049b09
 8049ae4:	8b 4c 24 04          	mov    ecx,DWORD PTR [esp+0x4]
 8049ae8:	8d 1c 2e             	lea    ebx,[esi+ebp]
 8049aeb:	31 d2                	xor    edx,edx
 8049aed:	89 74 24 08          	mov    DWORD PTR [esp+0x8],esi
 8049af1:	01 f1                	add    ecx,esi
 8049af3:	90                   	nop
 8049af4:	8d 74 26 00          	lea    esi,[esi]
 8049af8:	8b 34 93             	mov    esi,DWORD PTR [ebx+edx*4]
 8049afb:	89 34 91             	mov    DWORD PTR [ecx+edx*4],esi
 8049afe:	83 c2 01             	add    edx,0x1
 8049b01:	39 c2                	cmp    edx,eax
 8049b03:	75 f3                	jne    8049af8
 8049b05:	8b 74 24 08          	mov    esi,DWORD PTR [esp+0x8]
 8049b09:	83 c7 01             	add    edi,0x1
 8049b0c:	03 74 24 0c          	add    esi,DWORD PTR [esp+0xc]
 8049b10:	3b 7c 24 3c          	cmp    edi,DWORD PTR [esp+0x3c]
 8049b14:	75 ca                	jne    8049ae0
 8049b16:	8b 34 24             	mov    esi,DWORD PTR [esp]
 8049b19:	85 f6                	test   esi,esi
 8049b1b:	0f 8e fc 01 00 00    	jle    8049d1d
 8049b21:	8b 3d d8 60 05 08    	mov    edi,DWORD PTR ds:0x80560d8
 8049b27:	31 ed                	xor    ebp,ebp
 8049b29:	8b 54 24 10          	mov    edx,DWORD PTR [esp+0x10]
 8049b2d:	89 7c 24 14          	mov    DWORD PTR [esp+0x14],edi
 8049b31:	8b 3d bc 60 05 08    	mov    edi,DWORD PTR ds:0x80560bc
 8049b37:	0f af d0             	imul   edx,eax
 8049b3a:	89 7c 24 1c          	mov    DWORD PTR [esp+0x1c],edi
 8049b3e:	8b 3d c8 60 05 08    	mov    edi,DWORD PTR ds:0x80560c8
 8049b44:	89 7c 24 20          	mov    DWORD PTR [esp+0x20],edi
 8049b48:	8b 7c 24 24          	mov    edi,DWORD PTR [esp+0x24]
 8049b4c:	8d 14 97             	lea    edx,[edi+edx*4]
 8049b4f:	31 ff                	xor    edi,edi
 8049b51:	8d b4 26 00 00 00 00 	lea    esi,[esi]
 8049b58:	8b 74 24 1c          	mov    esi,DWORD PTR [esp+0x1c]
 8049b5c:	89 eb                	mov    ebx,ebp
 8049b5e:	0f af d8             	imul   ebx,eax
 8049b61:	89 f1                	mov    ecx,esi
 8049b63:	01 d9                	add    ecx,ebx
 8049b65:	89 5c 24 18          	mov    DWORD PTR [esp+0x18],ebx
 8049b69:	8b 5c 24 14          	mov    ebx,DWORD PTR [esp+0x14]
 8049b6d:	8b 0c 8b             	mov    ecx,DWORD PTR [ebx+ecx*4]
 8049b70:	8b 5c 24 04          	mov    ebx,DWORD PTR [esp+0x4]
 8049b74:	89 4c 24 08          	mov    DWORD PTR [esp+0x8],ecx
 8049b78:	89 f9                	mov    ecx,edi
 8049b7a:	0f af c8             	imul   ecx,eax
 8049b7d:	01 ce                	add    esi,ecx
 8049b7f:	8b 34 b3             	mov    esi,DWORD PTR [ebx+esi*4]
 8049b82:	39 74 24 08          	cmp    DWORD PTR [esp+0x8],esi
 8049b86:	0f 8e 54 01 00 00    	jle    8049ce0
 8049b8c:	8b 5c 24 20          	mov    ebx,DWORD PTR [esp+0x20]
 8049b90:	85 db                	test   ebx,ebx
 8049b92:	0f 85 5d 01 00 00    	jne    8049cf5
 8049b98:	8b 4c 24 18          	mov    ecx,DWORD PTR [esp+0x18]
 8049b9c:	8b 5c 24 14          	mov    ebx,DWORD PTR [esp+0x14]
 8049ba0:	8d 1c 8b             	lea    ebx,[ebx+ecx*4]
 8049ba3:	31 c9                	xor    ecx,ecx
 8049ba5:	85 c0                	test   eax,eax
 8049ba7:	7e 14                	jle    8049bbd
 8049ba9:	8d b4 26 00 00 00 00 	lea    esi,[esi]
 8049bb0:	8b 34 8b             	mov    esi,DWORD PTR [ebx+ecx*4]
 8049bb3:	89 34 8a             	mov    DWORD PTR [edx+ecx*4],esi
 8049bb6:	83 c1 01             	add    ecx,0x1
 8049bb9:	39 c1                	cmp    ecx,eax
 8049bbb:	75 f3                	jne    8049bb0
 8049bbd:	83 c5 01             	add    ebp,0x1
 8049bc0:	83 44 24 10 01       	add    DWORD PTR [esp+0x10],0x1
 8049bc5:	03 54 24 0c          	add    edx,DWORD PTR [esp+0xc]
 8049bc9:	3b 7c 24 3c          	cmp    edi,DWORD PTR [esp+0x3c]
 8049bcd:	7d 05                	jge    8049bd4
 8049bcf:	3b 2c 24             	cmp    ebp,DWORD PTR [esp]
 8049bd2:	7c 84                	jl     8049b58
 8049bd4:	39 2c 24             	cmp    DWORD PTR [esp],ebp
 8049bd7:	0f 8e 88 00 00 00    	jle    8049c65
 8049bdd:	8b 15 68 60 05 08    	mov    edx,DWORD PTR ds:0x8056068
 8049be3:	31 f6                	xor    esi,esi
 8049be5:	89 7c 24 18          	mov    DWORD PTR [esp+0x18],edi
 8049be9:	89 6c 24 14          	mov    DWORD PTR [esp+0x14],ebp
 8049bed:	8d 04 95 00 00 00 00 	lea    eax,[edx*4]
 8049bf4:	89 d1                	mov    ecx,edx
 8049bf6:	0f af cd             	imul   ecx,ebp
 8049bf9:	89 44 24 08          	mov    DWORD PTR [esp+0x8],eax
 8049bfd:	a1 d8 60 05 08       	mov    eax,ds:0x80560d8
 8049c02:	8d 04 88             	lea    eax,[eax+ecx*4]
 8049c05:	8b 4c 24 24          	mov    ecx,DWORD PTR [esp+0x24]
 8049c09:	89 c3                	mov    ebx,eax
 8049c0b:	8b 44 24 10          	mov    eax,DWORD PTR [esp+0x10]
 8049c0f:	89 df                	mov    edi,ebx
 8049c11:	0f af c2             	imul   eax,edx
 8049c14:	8d 04 81             	lea    eax,[ecx+eax*4]
 8049c17:	89 44 24 0c          	mov    DWORD PTR [esp+0xc],eax
 8049c1b:	90                   	nop
 8049c1c:	8d 74 26 00          	lea    esi,[esi]
 8049c20:	85 d2                	test   edx,edx
 8049c22:	7e 25                	jle    8049c49
 8049c24:	8b 44 24 0c          	mov    eax,DWORD PTR [esp+0xc]
 8049c28:	8d 1c 3e             	lea    ebx,[esi+edi]
 8049c2b:	89 74 24 04          	mov    DWORD PTR [esp+0x4],esi
 8049c2f:	8d 0c 06             	lea    ecx,[esi+eax]
 8049c32:	31 c0                	xor    eax,eax
 8049c34:	8d 74 26 00          	lea    esi,[esi]
 8049c38:	8b 34 83             	mov    esi,DWORD PTR [ebx+eax*4]
 8049c3b:	89 34 81             	mov    DWORD PTR [ecx+eax*4],esi
 8049c3e:	83 c0 01             	add    eax,0x1
 8049c41:	39 d0                	cmp    eax,edx
 8049c43:	75 f3                	jne    8049c38
 8049c45:	8b 74 24 04          	mov    esi,DWORD PTR [esp+0x4]
 8049c49:	83 c5 01             	add    ebp,0x1
 8049c4c:	03 74 24 08          	add    esi,DWORD PTR [esp+0x8]
 8049c50:	3b 2c 24             	cmp    ebp,DWORD PTR [esp]
 8049c53:	75 cb                	jne    8049c20
 8049c55:	01 6c 24 10          	add    DWORD PTR [esp+0x10],ebp
 8049c59:	8b 44 24 14          	mov    eax,DWORD PTR [esp+0x14]
 8049c5d:	8b 7c 24 18          	mov    edi,DWORD PTR [esp+0x18]
 8049c61:	29 44 24 10          	sub    DWORD PTR [esp+0x10],eax
 8049c65:	39 7c 24 3c          	cmp    DWORD PTR [esp+0x3c],edi
 8049c69:	7e 6a                	jle    8049cd5
 8049c6b:	8b 15 68 60 05 08    	mov    edx,DWORD PTR ds:0x8056068
 8049c71:	31 f6                	xor    esi,esi
 8049c73:	8b 5c 24 24          	mov    ebx,DWORD PTR [esp+0x24]
 8049c77:	8d 04 95 00 00 00 00 	lea    eax,[edx*4]
 8049c7e:	89 d1                	mov    ecx,edx
 8049c80:	89 44 24 04          	mov    DWORD PTR [esp+0x4],eax
 8049c84:	0f af cf             	imul   ecx,edi
 8049c87:	a1 d4 60 05 08       	mov    eax,ds:0x80560d4
 8049c8c:	8d 2c 88             	lea    ebp,[eax+ecx*4]
 8049c8f:	8b 44 24 10          	mov    eax,DWORD PTR [esp+0x10]
 8049c93:	0f af c2             	imul   eax,edx
 8049c96:	8d 04 83             	lea    eax,[ebx+eax*4]
 8049c99:	89 44 24 08          	mov    DWORD PTR [esp+0x8],eax
 8049c9d:	8d 76 00             	lea    esi,[esi]
 8049ca0:	85 d2                	test   edx,edx
 8049ca2:	7e 24                	jle    8049cc8
 8049ca4:	8b 44 24 08          	mov    eax,DWORD PTR [esp+0x8]
 8049ca8:	8d 1c 2e             	lea    ebx,[esi+ebp]
 8049cab:	89 34 24             	mov    DWORD PTR [esp],esi
 8049cae:	8d 0c 06             	lea    ecx,[esi+eax]
 8049cb1:	31 c0                	xor    eax,eax
 8049cb3:	90                   	nop
 8049cb4:	8d 74 26 00          	lea    esi,[esi]
 8049cb8:	8b 34 83             	mov    esi,DWORD PTR [ebx+eax*4]
 8049cbb:	89 34 81             	mov    DWORD PTR [ecx+eax*4],esi
 8049cbe:	83 c0 01             	add    eax,0x1
 8049cc1:	39 d0                	cmp    eax,edx
 8049cc3:	75 f3                	jne    8049cb8
 8049cc5:	8b 34 24             	mov    esi,DWORD PTR [esp]
 8049cc8:	83 c7 01             	add    edi,0x1
 8049ccb:	03 74 24 04          	add    esi,DWORD PTR [esp+0x4]
 8049ccf:	3b 7c 24 3c          	cmp    edi,DWORD PTR [esp+0x3c]
 8049cd3:	75 cb                	jne    8049ca0
 8049cd5:	83 c4 28             	add    esp,0x28
 8049cd8:	5b                   	pop    ebx
 8049cd9:	5e                   	pop    esi
 8049cda:	5f                   	pop    edi
 8049cdb:	5d                   	pop    ebp
 8049cdc:	c3                   	ret
 8049cdd:	8d 76 00             	lea    esi,[esi]
 8049ce0:	83 7c 24 20 01       	cmp    DWORD PTR [esp+0x20],0x1
 8049ce5:	0f 84 ad fe ff ff    	je     8049b98
 8049ceb:	39 74 24 08          	cmp    DWORD PTR [esp+0x8],esi
 8049cef:	0f 8d 97 fe ff ff    	jge    8049b8c
 8049cf5:	8b 5c 24 04          	mov    ebx,DWORD PTR [esp+0x4]
 8049cf9:	8d 1c 8b             	lea    ebx,[ebx+ecx*4]
 8049cfc:	31 c9                	xor    ecx,ecx
 8049cfe:	85 c0                	test   eax,eax
 8049d00:	7e 13                	jle    8049d15
 8049d02:	8d b6 00 00 00 00    	lea    esi,[esi]
 8049d08:	8b 34 8b             	mov    esi,DWORD PTR [ebx+ecx*4]
 8049d0b:	89 34 8a             	mov    DWORD PTR [edx+ecx*4],esi
 8049d0e:	83 c1 01             	add    ecx,0x1
 8049d11:	39 c1                	cmp    ecx,eax
 8049d13:	75 f3                	jne    8049d08
 8049d15:	83 c7 01             	add    edi,0x1
 8049d18:	e9 a3 fe ff ff       	jmp    8049bc0
 8049d1d:	31 ff                	xor    edi,edi
 8049d1f:	31 ed                	xor    ebp,ebp
 8049d21:	e9 ae fe ff ff       	jmp    8049bd4
 8049d26:	8d 76 00             	lea    esi,[esi]
 8049d29:	8d bc 27 00 00 00 00 	lea    edi,[edi]

08049d30 <Merge_General>:
 8049d30:	55                   	push   ebp
 8049d31:	57                   	push   edi
 8049d32:	56                   	push   esi
 8049d33:	89 c6                	mov    esi,eax
 8049d35:	53                   	push   ebx
 8049d36:	89 d3                	mov    ebx,edx
 8049d38:	83 ec 34             	sub    esp,0x34
 8049d3b:	89 44 24 2c          	mov    DWORD PTR [esp+0x2c],eax
 8049d3f:	89 c8                	mov    eax,ecx
 8049d41:	29 d0                	sub    eax,edx
 8049d43:	89 54 24 1c          	mov    DWORD PTR [esp+0x1c],edx
 8049d47:	8d 50 01             	lea    edx,[eax+0x1]
 8049d4a:	29 4c 24 48          	sub    DWORD PTR [esp+0x48],ecx
 8049d4e:	85 d2                	test   edx,edx
 8049d50:	89 4c 24 10          	mov    DWORD PTR [esp+0x10],ecx
 8049d54:	89 14 24             	mov    DWORD PTR [esp],edx
 8049d57:	7e 5c                	jle    8049db5
 8049d59:	8b 15 68 60 05 08    	mov    edx,DWORD PTR ds:0x8056068
 8049d5f:	31 ff                	xor    edi,edi
 8049d61:	a1 d8 60 05 08       	mov    eax,ds:0x80560d8
 8049d66:	89 44 24 0c          	mov    DWORD PTR [esp+0xc],eax
 8049d6a:	8d 04 95 00 00 00 00 	lea    eax,[edx*4]
 8049d71:	89 44 24 08          	mov    DWORD PTR [esp+0x8],eax
 8049d75:	89 d8                	mov    eax,ebx
 8049d77:	0f af c2             	imul   eax,edx
 8049d7a:	8d 2c 86             	lea    ebp,[esi+eax*4]
 8049d7d:	31 f6                	xor    esi,esi
 8049d7f:	90                   	nop
 8049d80:	85 d2                	test   edx,edx
 8049d82:	7e 25                	jle    8049da9
 8049d84:	8b 4c 24 0c          	mov    ecx,DWORD PTR [esp+0xc]
 8049d88:	8d 1c 2e             	lea    ebx,[esi+ebp]
 8049d8b:	31 c0                	xor    eax,eax
 8049d8d:	89 74 24 04          	mov    DWORD PTR [esp+0x4],esi
 8049d91:	01 f1                	add    ecx,esi
 8049d93:	90                   	nop
 8049d94:	8d 74 26 00          	lea    esi,[esi]
 8049d98:	8b 34 83             	mov    esi,DWORD PTR [ebx+eax*4]
 8049d9b:	89 34 81             	mov    DWORD PTR [ecx+eax*4],esi
 8049d9e:	83 c0 01             	add    eax,0x1
 8049da1:	39 d0                	cmp    eax,edx
 8049da3:	75 f3                	jne    8049d98
 8049da5:	8b 74 24 04          	mov    esi,DWORD PTR [esp+0x4]
 8049da9:	83 c7 01             	add    edi,0x1
 8049dac:	03 74 24 08          	add    esi,DWORD PTR [esp+0x8]
 8049db0:	3b 3c 24             	cmp    edi,DWORD PTR [esp]
 8049db3:	75 cb                	jne    8049d80
 8049db5:	8b 6c 24 48          	mov    ebp,DWORD PTR [esp+0x48]
 8049db9:	85 ed                	test   ebp,ebp
 8049dbb:	0f 8e cf 02 00 00    	jle    804a090
 8049dc1:	a1 68 60 05 08       	mov    eax,ds:0x8056068
 8049dc6:	31 f6                	xor    esi,esi
 8049dc8:	8b 3d d4 60 05 08    	mov    edi,DWORD PTR ds:0x80560d4
 8049dce:	8b 54 24 10          	mov    edx,DWORD PTR [esp+0x10]
 8049dd2:	89 7c 24 04          	mov    DWORD PTR [esp+0x4],edi
 8049dd6:	8d 3c 85 00 00 00 00 	lea    edi,[eax*4]
 8049ddd:	83 c2 01             	add    edx,0x1
 8049de0:	89 7c 24 0c          	mov    DWORD PTR [esp+0xc],edi
 8049de4:	0f af d0             	imul   edx,eax
 8049de7:	8b 7c 24 2c          	mov    edi,DWORD PTR [esp+0x2c]
 8049deb:	8d 2c 97             	lea    ebp,[edi+edx*4]
 8049dee:	31 ff                	xor    edi,edi
 8049df0:	85 c0                	test   eax,eax
 8049df2:	7e 25                	jle    8049e19
 8049df4:	8b 4c 24 04          	mov    ecx,DWORD PTR [esp+0x4]
 8049df8:	8d 1c 2e             	lea    ebx,[esi+ebp]
 8049dfb:	31 d2                	xor    edx,edx
 8049dfd:	89 74 24 08          	mov    DWORD PTR [esp+0x8],esi
 8049e01:	01 f1                	add    ecx,esi
 8049e03:	90                   	nop
 8049e04:	8d 74 26 00          	lea    esi,[esi]
 8049e08:	8b 34 93             	mov    esi,DWORD PTR [ebx+edx*4]
 8049e0b:	89 34 91             	mov    DWORD PTR [ecx+edx*4],esi
 8049e0e:	83 c2 01             	add    edx,0x1
 8049e11:	39 c2                	cmp    edx,eax
 8049e13:	75 f3                	jne    8049e08
 8049e15:	8b 74 24 08          	mov    esi,DWORD PTR [esp+0x8]
 8049e19:	83 c7 01             	add    edi,0x1
 8049e1c:	03 74 24 0c          	add    esi,DWORD PTR [esp+0xc]
 8049e20:	3b 7c 24 48          	cmp    edi,DWORD PTR [esp+0x48]
 8049e24:	75 ca                	jne    8049df0
 8049e26:	8b 3c 24             	mov    edi,DWORD PTR [esp]
 8049e29:	85 ff                	test   edi,edi
 8049e2b:	0f 8e 5f 02 00 00    	jle    804a090
 8049e31:	8b 3d d8 60 05 08    	mov    edi,DWORD PTR ds:0x80560d8
 8049e37:	31 ed                	xor    ebp,ebp
 8049e39:	8b 54 24 1c          	mov    edx,DWORD PTR [esp+0x1c]
 8049e3d:	89 7c 24 18          	mov    DWORD PTR [esp+0x18],edi
 8049e41:	8b 3d b8 60 05 08    	mov    edi,DWORD PTR ds:0x80560b8
 8049e47:	0f af d0             	imul   edx,eax
 8049e4a:	89 7c 24 20          	mov    DWORD PTR [esp+0x20],edi
 8049e4e:	8b 3d c4 60 05 08    	mov    edi,DWORD PTR ds:0x80560c4
 8049e54:	89 7c 24 24          	mov    DWORD PTR [esp+0x24],edi
 8049e58:	8b 3d b4 60 05 08    	mov    edi,DWORD PTR ds:0x80560b4
 8049e5e:	89 7c 24 28          	mov    DWORD PTR [esp+0x28],edi
 8049e62:	8b 3d c0 60 05 08    	mov    edi,DWORD PTR ds:0x80560c0
 8049e68:	89 7c 24 30          	mov    DWORD PTR [esp+0x30],edi
 8049e6c:	8b 7c 24 2c          	mov    edi,DWORD PTR [esp+0x2c]
 8049e70:	8d 14 97             	lea    edx,[edi+edx*4]
 8049e73:	31 ff                	xor    edi,edi
 8049e75:	8d 76 00             	lea    esi,[esi]
 8049e78:	8b 74 24 20          	mov    esi,DWORD PTR [esp+0x20]
 8049e7c:	89 eb                	mov    ebx,ebp
 8049e7e:	0f af d8             	imul   ebx,eax
 8049e81:	89 54 24 14          	mov    DWORD PTR [esp+0x14],edx
 8049e85:	89 44 24 10          	mov    DWORD PTR [esp+0x10],eax
 8049e89:	89 f1                	mov    ecx,esi
 8049e8b:	01 d9                	add    ecx,ebx
 8049e8d:	89 ca                	mov    edx,ecx
 8049e8f:	89 f9                	mov    ecx,edi
 8049e91:	0f af c8             	imul   ecx,eax
 8049e94:	8b 44 24 18          	mov    eax,DWORD PTR [esp+0x18]
 8049e98:	89 5c 24 08          	mov    DWORD PTR [esp+0x8],ebx
 8049e9c:	8d 1c 31             	lea    ebx,[ecx+esi]
 8049e9f:	89 d6                	mov    esi,edx
 8049ea1:	8b 54 24 04          	mov    edx,DWORD PTR [esp+0x4]
 8049ea5:	8b 14 9a             	mov    edx,DWORD PTR [edx+ebx*4]
 8049ea8:	39 14 b0             	cmp    DWORD PTR [eax+esi*4],edx
 8049eab:	8b 44 24 10          	mov    eax,DWORD PTR [esp+0x10]
 8049eaf:	8b 54 24 14          	mov    edx,DWORD PTR [esp+0x14]
 8049eb3:	0f 8d 4f 01 00 00    	jge    804a008
 8049eb9:	83 7c 24 24 01       	cmp    DWORD PTR [esp+0x24],0x1
 8049ebe:	0f 84 52 01 00 00    	je     804a016
 8049ec4:	8b 5c 24 04          	mov    ebx,DWORD PTR [esp+0x4]
 8049ec8:	8d 1c 8b             	lea    ebx,[ebx+ecx*4]
 8049ecb:	31 c9                	xor    ecx,ecx
 8049ecd:	85 c0                	test   eax,eax
 8049ecf:	7e 14                	jle    8049ee5
 8049ed1:	8d b4 26 00 00 00 00 	lea    esi,[esi]
 8049ed8:	8b 34 8b             	mov    esi,DWORD PTR [ebx+ecx*4]
 8049edb:	89 34 8a             	mov    DWORD PTR [edx+ecx*4],esi
 8049ede:	83 c1 01             	add    ecx,0x1
 8049ee1:	39 c1                	cmp    ecx,eax
 8049ee3:	75 f3                	jne    8049ed8
 8049ee5:	83 c7 01             	add    edi,0x1
 8049ee8:	83 44 24 1c 01       	add    DWORD PTR [esp+0x1c],0x1
 8049eed:	03 54 24 0c          	add    edx,DWORD PTR [esp+0xc]
 8049ef1:	3b 7c 24 48          	cmp    edi,DWORD PTR [esp+0x48]
 8049ef5:	7d 09                	jge    8049f00
 8049ef7:	3b 2c 24             	cmp    ebp,DWORD PTR [esp]
 8049efa:	0f 8c 78 ff ff ff    	jl     8049e78
 8049f00:	39 2c 24             	cmp    DWORD PTR [esp],ebp
 8049f03:	0f 8e 84 00 00 00    	jle    8049f8d
 8049f09:	8b 15 68 60 05 08    	mov    edx,DWORD PTR ds:0x8056068
 8049f0f:	31 f6                	xor    esi,esi
 8049f11:	89 7c 24 14          	mov    DWORD PTR [esp+0x14],edi
 8049f15:	89 6c 24 10          	mov    DWORD PTR [esp+0x10],ebp
 8049f19:	8d 04 95 00 00 00 00 	lea    eax,[edx*4]
 8049f20:	89 d1                	mov    ecx,edx
 8049f22:	0f af cd             	imul   ecx,ebp
 8049f25:	89 44 24 08          	mov    DWORD PTR [esp+0x8],eax
 8049f29:	a1 d8 60 05 08       	mov    eax,ds:0x80560d8
 8049f2e:	8d 04 88             	lea    eax,[eax+ecx*4]
 8049f31:	8b 4c 24 2c          	mov    ecx,DWORD PTR [esp+0x2c]
 8049f35:	89 c3                	mov    ebx,eax
 8049f37:	8b 44 24 1c          	mov    eax,DWORD PTR [esp+0x1c]
 8049f3b:	89 df                	mov    edi,ebx
 8049f3d:	0f af c2             	imul   eax,edx
 8049f40:	8d 04 81             	lea    eax,[ecx+eax*4]
 8049f43:	89 44 24 0c          	mov    DWORD PTR [esp+0xc],eax
 8049f47:	90                   	nop
 8049f48:	85 d2                	test   edx,edx
 8049f4a:	7e 25                	jle    8049f71
 8049f4c:	8b 44 24 0c          	mov    eax,DWORD PTR [esp+0xc]
 8049f50:	8d 1c 3e             	lea    ebx,[esi+edi]
 8049f53:	89 74 24 04          	mov    DWORD PTR [esp+0x4],esi
 8049f57:	8d 0c 06             	lea    ecx,[esi+eax]
 8049f5a:	31 c0                	xor    eax,eax
 8049f5c:	8d 74 26 00          	lea    esi,[esi]
 8049f60:	8b 34 83             	mov    esi,DWORD PTR [ebx+eax*4]
 8049f63:	89 34 81             	mov    DWORD PTR [ecx+eax*4],esi
 8049f66:	83 c0 01             	add    eax,0x1
 8049f69:	39 d0                	cmp    eax,edx
 8049f6b:	75 f3                	jne    8049f60
 8049f6d:	8b 74 24 04          	mov    esi,DWORD PTR [esp+0x4]
 8049f71:	83 c5 01             	add    ebp,0x1
 8049f74:	03 74 24 08          	add    esi,DWORD PTR [esp+0x8]
 8049f78:	3b 2c 24             	cmp    ebp,DWORD PTR [esp]
 8049f7b:	75 cb                	jne    8049f48
 8049f7d:	01 6c 24 1c          	add    DWORD PTR [esp+0x1c],ebp
 8049f81:	8b 44 24 10          	mov    eax,DWORD PTR [esp+0x10]
 8049f85:	8b 7c 24 14          	mov    edi,DWORD PTR [esp+0x14]
 8049f89:	29 44 24 1c          	sub    DWORD PTR [esp+0x1c],eax
 8049f8d:	39 7c 24 48          	cmp    DWORD PTR [esp+0x48],edi
 8049f91:	7e 6a                	jle    8049ffd
 8049f93:	8b 15 68 60 05 08    	mov    edx,DWORD PTR ds:0x8056068
 8049f99:	31 f6                	xor    esi,esi
 8049f9b:	8b 5c 24 2c          	mov    ebx,DWORD PTR [esp+0x2c]
 8049f9f:	8d 04 95 00 00 00 00 	lea    eax,[edx*4]
 8049fa6:	89 d1                	mov    ecx,edx
 8049fa8:	89 44 24 04          	mov    DWORD PTR [esp+0x4],eax
 8049fac:	0f af cf             	imul   ecx,edi
 8049faf:	a1 d4 60 05 08       	mov    eax,ds:0x80560d4
 8049fb4:	8d 2c 88             	lea    ebp,[eax+ecx*4]
 8049fb7:	8b 44 24 1c          	mov    eax,DWORD PTR [esp+0x1c]
 8049fbb:	0f af c2             	imul   eax,edx
 8049fbe:	8d 04 83             	lea    eax,[ebx+eax*4]
 8049fc1:	89 44 24 08          	mov    DWORD PTR [esp+0x8],eax
 8049fc5:	8d 76 00             	lea    esi,[esi]
 8049fc8:	85 d2                	test   edx,edx
 8049fca:	7e 24                	jle    8049ff0
 8049fcc:	8b 44 24 08          	mov    eax,DWORD PTR [esp+0x8]
 8049fd0:	8d 1c 2e             	lea    ebx,[esi+ebp]
 8049fd3:	89 34 24             	mov    DWORD PTR [esp],esi
 8049fd6:	8d 0c 06             	lea    ecx,[esi+eax]
 8049fd9:	31 c0                	xor    eax,eax
 8049fdb:	90                   	nop
 8049fdc:	8d 74 26 00          	lea    esi,[esi]
 8049fe0:	8b 34 83             	mov    esi,DWORD PTR [ebx+eax*4]
 8049fe3:	89 34 81             	mov    DWORD PTR [ecx+eax*4],esi
 8049fe6:	83 c0 01             	add    eax,0x1
 8049fe9:	39 d0                	cmp    eax,edx
 8049feb:	75 f3                	jne    8049fe0
 8049fed:	8b 34 24             	mov    esi,DWORD PTR [esp]
 8049ff0:	83 c7 01             	add    edi,0x1
 8049ff3:	03 74 24 04          	add    esi,DWORD PTR [esp+0x4]
 8049ff7:	3b 7c 24 48          	cmp    edi,DWORD PTR [esp+0x48]
 8049ffb:	75 cb                	jne    8049fc8
 8049ffd:	83 c4 34             	add    esp,0x34
 804a000:	5b                   	pop    ebx
 804a001:	5e                   	pop    esi
 804a002:	5f                   	pop    edi
 804a003:	5d                   	pop    ebp
 804a004:	c3                   	ret
 804a005:	8d 76 00             	lea    esi,[esi]
 804a008:	7e 33                	jle    804a03d
 804a00a:	8b 74 24 24          	mov    esi,DWORD PTR [esp+0x24]
 804a00e:	85 f6                	test   esi,esi
 804a010:	0f 85 ae fe ff ff    	jne    8049ec4
 804a016:	8b 4c 24 18          	mov    ecx,DWORD PTR [esp+0x18]
 804a01a:	8b 5c 24 08          	mov    ebx,DWORD PTR [esp+0x8]
 804a01e:	8d 1c 99             	lea    ebx,[ecx+ebx*4]
 804a021:	31 c9                	xor    ecx,ecx
 804a023:	85 c0                	test   eax,eax
 804a025:	7e 0e                	jle    804a035
 804a027:	90                   	nop
 804a028:	8b 34 8b             	mov    esi,DWORD PTR [ebx+ecx*4]
 804a02b:	89 34 8a             	mov    DWORD PTR [edx+ecx*4],esi
 804a02e:	83 c1 01             	add    ecx,0x1
 804a031:	39 c1                	cmp    ecx,eax
 804a033:	75 f3                	jne    804a028
 804a035:	83 c5 01             	add    ebp,0x1
 804a038:	e9 ab fe ff ff       	jmp    8049ee8
 804a03d:	0f 85 81 fe ff ff    	jne    8049ec4
 804a043:	89 44 24 10          	mov    DWORD PTR [esp+0x10],eax
 804a047:	8b 74 24 28          	mov    esi,DWORD PTR [esp+0x28]
 804a04b:	8b 44 24 18          	mov    eax,DWORD PTR [esp+0x18]
 804a04f:	03 74 24 08          	add    esi,DWORD PTR [esp+0x8]
 804a053:	8b 34 b0             	mov    esi,DWORD PTR [eax+esi*4]
 804a056:	8b 44 24 04          	mov    eax,DWORD PTR [esp+0x4]
 804a05a:	89 f3                	mov    ebx,esi
 804a05c:	8b 74 24 28          	mov    esi,DWORD PTR [esp+0x28]
 804a060:	01 ce                	add    esi,ecx
 804a062:	8b 34 b0             	mov    esi,DWORD PTR [eax+esi*4]
 804a065:	8b 44 24 10          	mov    eax,DWORD PTR [esp+0x10]
 804a069:	39 f3                	cmp    ebx,esi
 804a06b:	7e 0d                	jle    804a07a
 804a06d:	8b 5c 24 30          	mov    ebx,DWORD PTR [esp+0x30]
 804a071:	85 db                	test   ebx,ebx
 804a073:	74 a1                	je     804a016
 804a075:	e9 4a fe ff ff       	jmp    8049ec4
 804a07a:	83 7c 24 30 01       	cmp    DWORD PTR [esp+0x30],0x1
 804a07f:	74 95                	je     804a016
 804a081:	39 f3                	cmp    ebx,esi
 804a083:	0f 8c 3b fe ff ff    	jl     8049ec4
 804a089:	eb e2                	jmp    804a06d
 804a08b:	90                   	nop
 804a08c:	8d 74 26 00          	lea    esi,[esi]
 804a090:	31 ff                	xor    edi,edi
 804a092:	31 ed                	xor    ebp,ebp
 804a094:	e9 67 fe ff ff       	jmp    8049f00
 804a099:	8d b4 26 00 00 00 00 	lea    esi,[esi]

0804a0a0 <Merge_TwoArray>:
 804a0a0:	55                   	push   ebp
 804a0a1:	89 d5                	mov    ebp,edx
 804a0a3:	57                   	push   edi
 804a0a4:	89 cf                	mov    edi,ecx
 804a0a6:	56                   	push   esi
 804a0a7:	53                   	push   ebx
 804a0a8:	89 c3                	mov    ebx,eax
 804a0aa:	83 ec 40             	sub    esp,0x40
 804a0ad:	89 44 24 34          	mov    DWORD PTR [esp+0x34],eax
 804a0b1:	8b 44 24 54          	mov    eax,DWORD PTR [esp+0x54]
 804a0b5:	89 54 24 38          	mov    DWORD PTR [esp+0x38],edx
 804a0b9:	89 4c 24 20          	mov    DWORD PTR [esp+0x20],ecx
 804a0bd:	29 c8                	sub    eax,ecx
 804a0bf:	8d 70 01             	lea    esi,[eax+0x1]
 804a0c2:	8b 44 24 54          	mov    eax,DWORD PTR [esp+0x54]
 804a0c6:	29 44 24 58          	sub    DWORD PTR [esp+0x58],eax
 804a0ca:	85 f6                	test   esi,esi
 804a0cc:	89 74 24 08          	mov    DWORD PTR [esp+0x8],esi
 804a0d0:	0f 8e c9 00 00 00    	jle    804a19f
 804a0d6:	a1 d8 60 05 08       	mov    eax,ds:0x80560d8
 804a0db:	31 f6                	xor    esi,esi
 804a0dd:	8b 15 60 60 05 08    	mov    edx,DWORD PTR ds:0x8056060
 804a0e3:	8b 0d 64 60 05 08    	mov    ecx,DWORD PTR ds:0x8056064
 804a0e9:	c7 04 24 00 00 00 00 	mov    DWORD PTR [esp],0x0
 804a0f0:	89 44 24 24          	mov    DWORD PTR [esp+0x24],eax
 804a0f4:	a1 d0 60 05 08       	mov    eax,ds:0x80560d0
 804a0f9:	89 44 24 18          	mov    DWORD PTR [esp+0x18],eax
 804a0fd:	8d 04 95 00 00 00 00 	lea    eax,[edx*4]
 804a104:	89 44 24 0c          	mov    DWORD PTR [esp+0xc],eax
 804a108:	8d 04 8d 00 00 00 00 	lea    eax,[ecx*4]
 804a10f:	89 44 24 10          	mov    DWORD PTR [esp+0x10],eax
 804a113:	89 f8                	mov    eax,edi
 804a115:	0f af c1             	imul   eax,ecx
 804a118:	8d 04 83             	lea    eax,[ebx+eax*4]
 804a11b:	89 44 24 1c          	mov    DWORD PTR [esp+0x1c],eax
 804a11f:	89 f8                	mov    eax,edi
 804a121:	31 ff                	xor    edi,edi
 804a123:	0f af c2             	imul   eax,edx
 804a126:	8d 44 85 00          	lea    eax,[ebp+eax*4]
 804a12a:	89 44 24 14          	mov    DWORD PTR [esp+0x14],eax
 804a12e:	66 90                	xchg   ax,ax
 804a130:	85 c9                	test   ecx,ecx
 804a132:	7e 26                	jle    804a15a
 804a134:	8b 44 24 1c          	mov    eax,DWORD PTR [esp+0x1c]
 804a138:	8b 5c 24 24          	mov    ebx,DWORD PTR [esp+0x24]
 804a13c:	89 54 24 04          	mov    DWORD PTR [esp+0x4],edx
 804a140:	8d 2c 07             	lea    ebp,[edi+eax]
 804a143:	31 c0                	xor    eax,eax
 804a145:	01 fb                	add    ebx,edi
 804a147:	90                   	nop
 804a148:	8b 54 85 00          	mov    edx,DWORD PTR [ebp+eax*4]
 804a14c:	89 14 83             	mov    DWORD PTR [ebx+eax*4],edx
 804a14f:	83 c0 01             	add    eax,0x1
 804a152:	39 c8                	cmp    eax,ecx
 804a154:	75 f2                	jne    804a148
 804a156:	8b 54 24 04          	mov    edx,DWORD PTR [esp+0x4]
 804a15a:	8b 44 24 14          	mov    eax,DWORD PTR [esp+0x14]
 804a15e:	8b 5c 24 18          	mov    ebx,DWORD PTR [esp+0x18]
 804a162:	8d 2c 06             	lea    ebp,[esi+eax]
 804a165:	31 c0                	xor    eax,eax
 804a167:	01 f3                	add    ebx,esi
 804a169:	85 d2                	test   edx,edx
 804a16b:	7e 1d                	jle    804a18a
 804a16d:	89 4c 24 04          	mov    DWORD PTR [esp+0x4],ecx
 804a171:	8d b4 26 00 00 00 00 	lea    esi,[esi]
 804a178:	8b 4c 85 00          	mov    ecx,DWORD PTR [ebp+eax*4]
 804a17c:	89 0c 83             	mov    DWORD PTR [ebx+eax*4],ecx
 804a17f:	83 c0 01             	add    eax,0x1
 804a182:	39 d0                	cmp    eax,edx
 804a184:	75 f2                	jne    804a178
 804a186:	8b 4c 24 04          	mov    ecx,DWORD PTR [esp+0x4]
 804a18a:	83 04 24 01          	add    DWORD PTR [esp],0x1
 804a18e:	8b 44 24 08          	mov    eax,DWORD PTR [esp+0x8]
 804a192:	03 74 24 0c          	add    esi,DWORD PTR [esp+0xc]
 804a196:	03 7c 24 10          	add    edi,DWORD PTR [esp+0x10]
 804a19a:	39 04 24             	cmp    DWORD PTR [esp],eax
 804a19d:	75 91                	jne    804a130
 804a19f:	8b 7c 24 58          	mov    edi,DWORD PTR [esp+0x58]
 804a1a3:	85 ff                	test   edi,edi
 804a1a5:	0f 8e 44 04 00 00    	jle    804a5ef
 804a1ab:	8b 3d d4 60 05 08    	mov    edi,DWORD PTR ds:0x80560d4
 804a1b1:	31 f6                	xor    esi,esi
 804a1b3:	8b 15 60 60 05 08    	mov    edx,DWORD PTR ds:0x8056060
 804a1b9:	a1 64 60 05 08       	mov    eax,ds:0x8056064
 804a1be:	c7 04 24 00 00 00 00 	mov    DWORD PTR [esp],0x0
 804a1c5:	89 7c 24 0c          	mov    DWORD PTR [esp+0xc],edi
 804a1c9:	8b 3d cc 60 05 08    	mov    edi,DWORD PTR ds:0x80560cc
 804a1cf:	89 c3                	mov    ebx,eax
 804a1d1:	89 7c 24 1c          	mov    DWORD PTR [esp+0x1c],edi
 804a1d5:	8d 3c 95 00 00 00 00 	lea    edi,[edx*4]
 804a1dc:	89 7c 24 14          	mov    DWORD PTR [esp+0x14],edi
 804a1e0:	8d 3c 85 00 00 00 00 	lea    edi,[eax*4]
 804a1e7:	89 7c 24 18          	mov    DWORD PTR [esp+0x18],edi
 804a1eb:	8b 7c 24 54          	mov    edi,DWORD PTR [esp+0x54]
 804a1ef:	8d 4f 01             	lea    ecx,[edi+0x1]
 804a1f2:	8b 7c 24 34          	mov    edi,DWORD PTR [esp+0x34]
 804a1f6:	0f af d9             	imul   ebx,ecx
 804a1f9:	0f af ca             	imul   ecx,edx
 804a1fc:	8d 3c 9f             	lea    edi,[edi+ebx*4]
 804a1ff:	89 7c 24 24          	mov    DWORD PTR [esp+0x24],edi
 804a203:	8b 7c 24 38          	mov    edi,DWORD PTR [esp+0x38]
 804a207:	8d 3c 8f             	lea    edi,[edi+ecx*4]
 804a20a:	89 7c 24 10          	mov    DWORD PTR [esp+0x10],edi
 804a20e:	31 ff                	xor    edi,edi
 804a210:	85 c0                	test   eax,eax
 804a212:	7e 26                	jle    804a23a
 804a214:	8b 5c 24 24          	mov    ebx,DWORD PTR [esp+0x24]
 804a218:	31 c9                	xor    ecx,ecx
 804a21a:	89 54 24 04          	mov    DWORD PTR [esp+0x4],edx
 804a21e:	8d 2c 1f             	lea    ebp,[edi+ebx]
 804a221:	8b 5c 24 0c          	mov    ebx,DWORD PTR [esp+0xc]
 804a225:	01 fb                	add    ebx,edi
 804a227:	90                   	nop
 804a228:	8b 54 8d 00          	mov    edx,DWORD PTR [ebp+ecx*4]
 804a22c:	89 14 8b             	mov    DWORD PTR [ebx+ecx*4],edx
 804a22f:	83 c1 01             	add    ecx,0x1
 804a232:	39 c1                	cmp    ecx,eax
 804a234:	75 f2                	jne    804a228
 804a236:	8b 54 24 04          	mov    edx,DWORD PTR [esp+0x4]
 804a23a:	8b 5c 24 10          	mov    ebx,DWORD PTR [esp+0x10]
 804a23e:	31 c9                	xor    ecx,ecx
 804a240:	8d 2c 1e             	lea    ebp,[esi+ebx]
 804a243:	8b 5c 24 1c          	mov    ebx,DWORD PTR [esp+0x1c]
 804a247:	01 f3                	add    ebx,esi
 804a249:	85 d2                	test   edx,edx
 804a24b:	7e 1d                	jle    804a26a
 804a24d:	89 44 24 04          	mov    DWORD PTR [esp+0x4],eax
 804a251:	8d b4 26 00 00 00 00 	lea    esi,[esi]
 804a258:	8b 44 8d 00          	mov    eax,DWORD PTR [ebp+ecx*4]
 804a25c:	89 04 8b             	mov    DWORD PTR [ebx+ecx*4],eax
 804a25f:	83 c1 01             	add    ecx,0x1
 804a262:	39 d1                	cmp    ecx,edx
 804a264:	75 f2                	jne    804a258
 804a266:	8b 44 24 04          	mov    eax,DWORD PTR [esp+0x4]
 804a26a:	83 04 24 01          	add    DWORD PTR [esp],0x1
 804a26e:	8b 1c 24             	mov    ebx,DWORD PTR [esp]
 804a271:	03 74 24 14          	add    esi,DWORD PTR [esp+0x14]
 804a275:	03 7c 24 18          	add    edi,DWORD PTR [esp+0x18]
 804a279:	3b 5c 24 58          	cmp    ebx,DWORD PTR [esp+0x58]
 804a27d:	75 91                	jne    804a210
 804a27f:	8b 74 24 08          	mov    esi,DWORD PTR [esp+0x8]
 804a283:	85 f6                	test   esi,esi
 804a285:	0f 8e 64 03 00 00    	jle    804a5ef
 804a28b:	8b 3d d8 60 05 08    	mov    edi,DWORD PTR ds:0x80560d8
 804a291:	8b 74 24 38          	mov    esi,DWORD PTR [esp+0x38]
 804a295:	c7 04 24 00 00 00 00 	mov    DWORD PTR [esp],0x0
 804a29c:	c7 44 24 04 00 00 00 	mov    DWORD PTR [esp+0x4],0x0
 804a2a3:	00 
 804a2a4:	89 7c 24 24          	mov    DWORD PTR [esp+0x24],edi
 804a2a8:	8b 3d bc 60 05 08    	mov    edi,DWORD PTR ds:0x80560bc
 804a2ae:	89 7c 24 2c          	mov    DWORD PTR [esp+0x2c],edi
 804a2b2:	8b 3d c8 60 05 08    	mov    edi,DWORD PTR ds:0x80560c8
 804a2b8:	89 7c 24 30          	mov    DWORD PTR [esp+0x30],edi
 804a2bc:	8b 3d d0 60 05 08    	mov    edi,DWORD PTR ds:0x80560d0
 804a2c2:	89 7c 24 3c          	mov    DWORD PTR [esp+0x3c],edi
 804a2c6:	8b 7c 24 20          	mov    edi,DWORD PTR [esp+0x20]
 804a2ca:	89 f9                	mov    ecx,edi
 804a2cc:	0f af ca             	imul   ecx,edx
 804a2cf:	8d 2c 8e             	lea    ebp,[esi+ecx*4]
 804a2d2:	89 f9                	mov    ecx,edi
 804a2d4:	8b 7c 24 34          	mov    edi,DWORD PTR [esp+0x34]
 804a2d8:	0f af c8             	imul   ecx,eax
 804a2db:	8d 0c 8f             	lea    ecx,[edi+ecx*4]
 804a2de:	89 d7                	mov    edi,edx
 804a2e0:	8b 5c 24 04          	mov    ebx,DWORD PTR [esp+0x4]
 804a2e4:	8b 74 24 2c          	mov    esi,DWORD PTR [esp+0x2c]
 804a2e8:	0f af d8             	imul   ebx,eax
 804a2eb:	8d 14 33             	lea    edx,[ebx+esi]
 804a2ee:	89 5c 24 28          	mov    DWORD PTR [esp+0x28],ebx
 804a2f2:	8b 5c 24 24          	mov    ebx,DWORD PTR [esp+0x24]
 804a2f6:	8b 14 93             	mov    edx,DWORD PTR [ebx+edx*4]
 804a2f9:	8b 5c 24 0c          	mov    ebx,DWORD PTR [esp+0xc]
 804a2fd:	89 54 24 10          	mov    DWORD PTR [esp+0x10],edx
 804a301:	8b 14 24             	mov    edx,DWORD PTR [esp]
 804a304:	0f af d0             	imul   edx,eax
 804a307:	01 d6                	add    esi,edx
 804a309:	8b 34 b3             	mov    esi,DWORD PTR [ebx+esi*4]
 804a30c:	39 74 24 10          	cmp    DWORD PTR [esp+0x10],esi
 804a310:	0f 8e 7a 02 00 00    	jle    804a590
 804a316:	8b 5c 24 30          	mov    ebx,DWORD PTR [esp+0x30]
 804a31a:	85 db                	test   ebx,ebx
 804a31c:	0f 85 83 02 00 00    	jne    804a5a5
 804a322:	8b 74 24 24          	mov    esi,DWORD PTR [esp+0x24]
 804a326:	31 d2                	xor    edx,edx
 804a328:	85 c0                	test   eax,eax
 804a32a:	8b 5c 24 28          	mov    ebx,DWORD PTR [esp+0x28]
 804a32e:	8d 1c 9e             	lea    ebx,[esi+ebx*4]
 804a331:	7e 12                	jle    804a345
 804a333:	90                   	nop
 804a334:	8d 74 26 00          	lea    esi,[esi]
 804a338:	8b 34 93             	mov    esi,DWORD PTR [ebx+edx*4]
 804a33b:	89 34 91             	mov    DWORD PTR [ecx+edx*4],esi
 804a33e:	83 c2 01             	add    edx,0x1
 804a341:	39 c2                	cmp    edx,eax
 804a343:	75 f3                	jne    804a338
 804a345:	85 ff                	test   edi,edi
 804a347:	7e 25                	jle    804a36e
 804a349:	8b 54 24 04          	mov    edx,DWORD PTR [esp+0x4]
 804a34d:	8b 74 24 3c          	mov    esi,DWORD PTR [esp+0x3c]
 804a351:	0f af d7             	imul   edx,edi
 804a354:	8d 1c 96             	lea    ebx,[esi+edx*4]
 804a357:	31 d2                	xor    edx,edx
 804a359:	8d b4 26 00 00 00 00 	lea    esi,[esi]
 804a360:	8b 34 93             	mov    esi,DWORD PTR [ebx+edx*4]
 804a363:	89 74 95 00          	mov    DWORD PTR [ebp+edx*4],esi
 804a367:	83 c2 01             	add    edx,0x1
 804a36a:	39 fa                	cmp    edx,edi
 804a36c:	75 f2                	jne    804a360
 804a36e:	83 44 24 04 01       	add    DWORD PTR [esp+0x4],0x1
 804a373:	8b 34 24             	mov    esi,DWORD PTR [esp]
 804a376:	83 44 24 20 01       	add    DWORD PTR [esp+0x20],0x1
 804a37b:	03 6c 24 14          	add    ebp,DWORD PTR [esp+0x14]
 804a37f:	03 4c 24 18          	add    ecx,DWORD PTR [esp+0x18]
 804a383:	3b 74 24 58          	cmp    esi,DWORD PTR [esp+0x58]
 804a387:	7d 0e                	jge    804a397
 804a389:	8b 74 24 08          	mov    esi,DWORD PTR [esp+0x8]
 804a38d:	39 74 24 04          	cmp    DWORD PTR [esp+0x4],esi
 804a391:	0f 8c 49 ff ff ff    	jl     804a2e0
 804a397:	8b 44 24 04          	mov    eax,DWORD PTR [esp+0x4]
 804a39b:	39 44 24 08          	cmp    DWORD PTR [esp+0x8],eax
 804a39f:	0f 8e f4 00 00 00    	jle    804a499
 804a3a5:	8b 15 60 60 05 08    	mov    edx,DWORD PTR ds:0x8056060
 804a3ab:	89 c3                	mov    ebx,eax
 804a3ad:	8b 0d 64 60 05 08    	mov    ecx,DWORD PTR ds:0x8056064
 804a3b3:	89 44 24 2c          	mov    DWORD PTR [esp+0x2c],eax
 804a3b7:	8b 74 24 20          	mov    esi,DWORD PTR [esp+0x20]
 804a3bb:	8d 3c 95 00 00 00 00 	lea    edi,[edx*4]
 804a3c2:	89 7c 24 14          	mov    DWORD PTR [esp+0x14],edi
 804a3c6:	8d 3c 8d 00 00 00 00 	lea    edi,[ecx*4]
 804a3cd:	0f af d9             	imul   ebx,ecx
 804a3d0:	89 7c 24 18          	mov    DWORD PTR [esp+0x18],edi
 804a3d4:	89 c7                	mov    edi,eax
 804a3d6:	a1 d8 60 05 08       	mov    eax,ds:0x80560d8
 804a3db:	8d 04 98             	lea    eax,[eax+ebx*4]
 804a3de:	8b 5c 24 34          	mov    ebx,DWORD PTR [esp+0x34]
 804a3e2:	89 44 24 28          	mov    DWORD PTR [esp+0x28],eax
 804a3e6:	89 f0                	mov    eax,esi
 804a3e8:	0f af c1             	imul   eax,ecx
 804a3eb:	8d 04 83             	lea    eax,[ebx+eax*4]
 804a3ee:	89 fb                	mov    ebx,edi
 804a3f0:	8b 7c 24 38          	mov    edi,DWORD PTR [esp+0x38]
 804a3f4:	89 44 24 24          	mov    DWORD PTR [esp+0x24],eax
 804a3f8:	0f af da             	imul   ebx,edx
 804a3fb:	a1 d0 60 05 08       	mov    eax,ds:0x80560d0
 804a400:	8d 04 98             	lea    eax,[eax+ebx*4]
 804a403:	89 44 24 10          	mov    DWORD PTR [esp+0x10],eax
 804a407:	89 f0                	mov    eax,esi
 804a409:	31 f6                	xor    esi,esi
 804a40b:	0f af c2             	imul   eax,edx
 804a40e:	8d 04 87             	lea    eax,[edi+eax*4]
 804a411:	31 ff                	xor    edi,edi
 804a413:	89 44 24 1c          	mov    DWORD PTR [esp+0x1c],eax
 804a417:	90                   	nop
 804a418:	85 c9                	test   ecx,ecx
 804a41a:	7e 26                	jle    804a442
 804a41c:	8b 44 24 28          	mov    eax,DWORD PTR [esp+0x28]
 804a420:	89 54 24 0c          	mov    DWORD PTR [esp+0xc],edx
 804a424:	8d 2c 07             	lea    ebp,[edi+eax]
 804a427:	8b 44 24 24          	mov    eax,DWORD PTR [esp+0x24]
 804a42b:	8d 1c 07             	lea    ebx,[edi+eax]
 804a42e:	31 c0                	xor    eax,eax
 804a430:	8b 54 85 00          	mov    edx,DWORD PTR [ebp+eax*4]
 804a434:	89 14 83             	mov    DWORD PTR [ebx+eax*4],edx
 804a437:	83 c0 01             	add    eax,0x1
 804a43a:	39 c8                	cmp    eax,ecx
 804a43c:	75 f2                	jne    804a430
 804a43e:	8b 54 24 0c          	mov    edx,DWORD PTR [esp+0xc]
 804a442:	8b 44 24 10          	mov    eax,DWORD PTR [esp+0x10]
 804a446:	8d 2c 06             	lea    ebp,[esi+eax]
 804a449:	8b 44 24 1c          	mov    eax,DWORD PTR [esp+0x1c]
 804a44d:	8d 1c 06             	lea    ebx,[esi+eax]
 804a450:	31 c0                	xor    eax,eax
 804a452:	85 d2                	test   edx,edx
 804a454:	7e 1c                	jle    804a472
 804a456:	89 4c 24 0c          	mov    DWORD PTR [esp+0xc],ecx
 804a45a:	8d b6 00 00 00 00    	lea    esi,[esi]
 804a460:	8b 4c 85 00          	mov    ecx,DWORD PTR [ebp+eax*4]
 804a464:	89 0c 83             	mov    DWORD PTR [ebx+eax*4],ecx
 804a467:	83 c0 01             	add    eax,0x1
 804a46a:	39 d0                	cmp    eax,edx
 804a46c:	75 f2                	jne    804a460
 804a46e:	8b 4c 24 0c          	mov    ecx,DWORD PTR [esp+0xc]
 804a472:	83 44 24 04 01       	add    DWORD PTR [esp+0x4],0x1
 804a477:	8b 44 24 08          	mov    eax,DWORD PTR [esp+0x8]
 804a47b:	03 74 24 14          	add    esi,DWORD PTR [esp+0x14]
 804a47f:	03 7c 24 18          	add    edi,DWORD PTR [esp+0x18]
 804a483:	39 44 24 04          	cmp    DWORD PTR [esp+0x4],eax
 804a487:	75 8f                	jne    804a418
 804a489:	8b 44 24 04          	mov    eax,DWORD PTR [esp+0x4]
 804a48d:	01 44 24 20          	add    DWORD PTR [esp+0x20],eax
 804a491:	8b 44 24 2c          	mov    eax,DWORD PTR [esp+0x2c]
 804a495:	29 44 24 20          	sub    DWORD PTR [esp+0x20],eax
 804a499:	8b 04 24             	mov    eax,DWORD PTR [esp]
 804a49c:	39 44 24 58          	cmp    DWORD PTR [esp+0x58],eax
 804a4a0:	0f 8e e1 00 00 00    	jle    804a587
 804a4a6:	8b 15 60 60 05 08    	mov    edx,DWORD PTR ds:0x8056060
 804a4ac:	89 c3                	mov    ebx,eax
 804a4ae:	8b 0d 64 60 05 08    	mov    ecx,DWORD PTR ds:0x8056064
 804a4b4:	8b 74 24 20          	mov    esi,DWORD PTR [esp+0x20]
 804a4b8:	8d 3c 95 00 00 00 00 	lea    edi,[edx*4]
 804a4bf:	89 7c 24 10          	mov    DWORD PTR [esp+0x10],edi
 804a4c3:	8d 3c 8d 00 00 00 00 	lea    edi,[ecx*4]
 804a4ca:	0f af d9             	imul   ebx,ecx
 804a4cd:	89 7c 24 14          	mov    DWORD PTR [esp+0x14],edi
 804a4d1:	89 c7                	mov    edi,eax
 804a4d3:	a1 d4 60 05 08       	mov    eax,ds:0x80560d4
 804a4d8:	8d 04 98             	lea    eax,[eax+ebx*4]
 804a4db:	8b 5c 24 34          	mov    ebx,DWORD PTR [esp+0x34]
 804a4df:	89 44 24 18          	mov    DWORD PTR [esp+0x18],eax
 804a4e3:	89 f0                	mov    eax,esi
 804a4e5:	0f af c1             	imul   eax,ecx
 804a4e8:	8d 04 83             	lea    eax,[ebx+eax*4]
 804a4eb:	89 fb                	mov    ebx,edi
 804a4ed:	8b 7c 24 38          	mov    edi,DWORD PTR [esp+0x38]
 804a4f1:	89 44 24 1c          	mov    DWORD PTR [esp+0x1c],eax
 804a4f5:	0f af da             	imul   ebx,edx
 804a4f8:	a1 cc 60 05 08       	mov    eax,ds:0x80560cc
 804a4fd:	8d 04 98             	lea    eax,[eax+ebx*4]
 804a500:	89 44 24 08          	mov    DWORD PTR [esp+0x8],eax
 804a504:	89 f0                	mov    eax,esi
 804a506:	31 f6                	xor    esi,esi
 804a508:	0f af c2             	imul   eax,edx
 804a50b:	8d 04 87             	lea    eax,[edi+eax*4]
 804a50e:	31 ff                	xor    edi,edi
 804a510:	89 44 24 0c          	mov    DWORD PTR [esp+0xc],eax
 804a514:	8d 74 26 00          	lea    esi,[esi]
 804a518:	85 c9                	test   ecx,ecx
 804a51a:	7e 26                	jle    804a542
 804a51c:	8b 44 24 18          	mov    eax,DWORD PTR [esp+0x18]
 804a520:	89 54 24 04          	mov    DWORD PTR [esp+0x4],edx
 804a524:	8d 2c 07             	lea    ebp,[edi+eax]
 804a527:	8b 44 24 1c          	mov    eax,DWORD PTR [esp+0x1c]
 804a52b:	8d 1c 07             	lea    ebx,[edi+eax]
 804a52e:	31 c0                	xor    eax,eax
 804a530:	8b 54 85 00          	mov    edx,DWORD PTR [ebp+eax*4]
 804a534:	89 14 83             	mov    DWORD PTR [ebx+eax*4],edx
 804a537:	83 c0 01             	add    eax,0x1
 804a53a:	39 c8                	cmp    eax,ecx
 804a53c:	75 f2                	jne    804a530
 804a53e:	8b 54 24 04          	mov    edx,DWORD PTR [esp+0x4]
 804a542:	8b 44 24 08          	mov    eax,DWORD PTR [esp+0x8]
 804a546:	8d 2c 06             	lea    ebp,[esi+eax]
 804a549:	8b 44 24 0c          	mov    eax,DWORD PTR [esp+0xc]
 804a54d:	8d 1c 06             	lea    ebx,[esi+eax]
 804a550:	31 c0                	xor    eax,eax
 804a552:	85 d2                	test   edx,edx
 804a554:	7e 1c                	jle    804a572
 804a556:	89 4c 24 04          	mov    DWORD PTR [esp+0x4],ecx
 804a55a:	8d b6 00 00 00 00    	lea    esi,[esi]
 804a560:	8b 4c 85 00          	mov    ecx,DWORD PTR [ebp+eax*4]
 804a564:	89 0c 83             	mov    DWORD PTR [ebx+eax*4],ecx
 804a567:	83 c0 01             	add    eax,0x1
 804a56a:	39 d0                	cmp    eax,edx
 804a56c:	75 f2                	jne    804a560
 804a56e:	8b 4c 24 04          	mov    ecx,DWORD PTR [esp+0x4]
 804a572:	83 04 24 01          	add    DWORD PTR [esp],0x1
 804a576:	8b 04 24             	mov    eax,DWORD PTR [esp]
 804a579:	03 74 24 10          	add    esi,DWORD PTR [esp+0x10]
 804a57d:	03 7c 24 14          	add    edi,DWORD PTR [esp+0x14]
 804a581:	3b 44 24 58          	cmp    eax,DWORD PTR [esp+0x58]
 804a585:	75 91                	jne    804a518
 804a587:	83 c4 40             	add    esp,0x40
 804a58a:	5b                   	pop    ebx
 804a58b:	5e                   	pop    esi
 804a58c:	5f                   	pop    edi
 804a58d:	5d                   	pop    ebp
 804a58e:	c3                   	ret
 804a58f:	90                   	nop
 804a590:	83 7c 24 30 01       	cmp    DWORD PTR [esp+0x30],0x1
 804a595:	0f 84 87 fd ff ff    	je     804a322
 804a59b:	39 74 24 10          	cmp    DWORD PTR [esp+0x10],esi
 804a59f:	0f 8d 71 fd ff ff    	jge    804a316
 804a5a5:	8b 74 24 0c          	mov    esi,DWORD PTR [esp+0xc]
 804a5a9:	8d 1c 96             	lea    ebx,[esi+edx*4]
 804a5ac:	31 d2                	xor    edx,edx
 804a5ae:	85 c0                	test   eax,eax
 804a5b0:	7e 13                	jle    804a5c5
 804a5b2:	8d b6 00 00 00 00    	lea    esi,[esi]
 804a5b8:	8b 34 93             	mov    esi,DWORD PTR [ebx+edx*4]
 804a5bb:	89 34 91             	mov    DWORD PTR [ecx+edx*4],esi
 804a5be:	83 c2 01             	add    edx,0x1
 804a5c1:	39 c2                	cmp    edx,eax
 804a5c3:	75 f3                	jne    804a5b8
 804a5c5:	85 ff                	test   edi,edi
 804a5c7:	7e 1d                	jle    804a5e6
 804a5c9:	8b 14 24             	mov    edx,DWORD PTR [esp]
 804a5cc:	8b 74 24 1c          	mov    esi,DWORD PTR [esp+0x1c]
 804a5d0:	0f af d7             	imul   edx,edi
 804a5d3:	8d 1c 96             	lea    ebx,[esi+edx*4]
 804a5d6:	31 d2                	xor    edx,edx
 804a5d8:	8b 34 93             	mov    esi,DWORD PTR [ebx+edx*4]
 804a5db:	89 74 95 00          	mov    DWORD PTR [ebp+edx*4],esi
 804a5df:	83 c2 01             	add    edx,0x1
 804a5e2:	39 fa                	cmp    edx,edi
 804a5e4:	75 f2                	jne    804a5d8
 804a5e6:	83 04 24 01          	add    DWORD PTR [esp],0x1
 804a5ea:	e9 84 fd ff ff       	jmp    804a373
 804a5ef:	c7 04 24 00 00 00 00 	mov    DWORD PTR [esp],0x0
 804a5f6:	c7 44 24 04 00 00 00 	mov    DWORD PTR [esp+0x4],0x0
 804a5fd:	00 
 804a5fe:	e9 94 fd ff ff       	jmp    804a397
 804a603:	8d b6 00 00 00 00    	lea    esi,[esi]
 804a609:	8d bc 27 00 00 00 00 	lea    edi,[edi]

0804a610 <Merge_TwoArray_TwoKey>:
 804a610:	55                   	push   ebp
 804a611:	89 d5                	mov    ebp,edx
 804a613:	57                   	push   edi
 804a614:	56                   	push   esi
 804a615:	89 ce                	mov    esi,ecx
 804a617:	53                   	push   ebx
 804a618:	89 c3                	mov    ebx,eax
 804a61a:	83 ec 4c             	sub    esp,0x4c
 804a61d:	89 44 24 40          	mov    DWORD PTR [esp+0x40],eax
 804a621:	8b 44 24 60          	mov    eax,DWORD PTR [esp+0x60]
 804a625:	89 54 24 44          	mov    DWORD PTR [esp+0x44],edx
 804a629:	89 4c 24 2c          	mov    DWORD PTR [esp+0x2c],ecx
 804a62d:	29 c8                	sub    eax,ecx
 804a62f:	8d 78 01             	lea    edi,[eax+0x1]
 804a632:	8b 44 24 60          	mov    eax,DWORD PTR [esp+0x60]
 804a636:	29 44 24 64          	sub    DWORD PTR [esp+0x64],eax
 804a63a:	85 ff                	test   edi,edi
 804a63c:	89 7c 24 08          	mov    DWORD PTR [esp+0x8],edi
 804a640:	0f 8e c9 00 00 00    	jle    804a70f
 804a646:	a1 d8 60 05 08       	mov    eax,ds:0x80560d8
 804a64b:	31 ff                	xor    edi,edi
 804a64d:	8b 15 60 60 05 08    	mov    edx,DWORD PTR ds:0x8056060
 804a653:	8b 0d 64 60 05 08    	mov    ecx,DWORD PTR ds:0x8056064
 804a659:	c7 04 24 00 00 00 00 	mov    DWORD PTR [esp],0x0
 804a660:	89 44 24 20          	mov    DWORD PTR [esp+0x20],eax
 804a664:	a1 d0 60 05 08       	mov    eax,ds:0x80560d0
 804a669:	89 44 24 18          	mov    DWORD PTR [esp+0x18],eax
 804a66d:	8d 04 95 00 00 00 00 	lea    eax,[edx*4]
 804a674:	89 44 24 0c          	mov    DWORD PTR [esp+0xc],eax
 804a678:	8d 04 8d 00 00 00 00 	lea    eax,[ecx*4]
 804a67f:	89 44 24 10          	mov    DWORD PTR [esp+0x10],eax
 804a683:	89 f0                	mov    eax,esi
 804a685:	0f af c1             	imul   eax,ecx
 804a688:	8d 04 83             	lea    eax,[ebx+eax*4]
 804a68b:	89 44 24 1c          	mov    DWORD PTR [esp+0x1c],eax
 804a68f:	89 f0                	mov    eax,esi
 804a691:	31 f6                	xor    esi,esi
 804a693:	0f af c2             	imul   eax,edx
 804a696:	8d 44 85 00          	lea    eax,[ebp+eax*4]
 804a69a:	89 44 24 14          	mov    DWORD PTR [esp+0x14],eax
 804a69e:	66 90                	xchg   ax,ax
 804a6a0:	85 c9                	test   ecx,ecx
 804a6a2:	7e 26                	jle    804a6ca
 804a6a4:	8b 44 24 1c          	mov    eax,DWORD PTR [esp+0x1c]
 804a6a8:	8b 5c 24 20          	mov    ebx,DWORD PTR [esp+0x20]
 804a6ac:	89 54 24 04          	mov    DWORD PTR [esp+0x4],edx
 804a6b0:	8d 2c 07             	lea    ebp,[edi+eax]
 804a6b3:	31 c0                	xor    eax,eax
 804a6b5:	01 fb                	add    ebx,edi
 804a6b7:	90                   	nop
 804a6b8:	8b 54 85 00          	mov    edx,DWORD PTR [ebp+eax*4]
 804a6bc:	89 14 83             	mov    DWORD PTR [ebx+eax*4],edx
 804a6bf:	83 c0 01             	add    eax,0x1
 804a6c2:	39 c8                	cmp    eax,ecx
 804a6c4:	75 f2                	jne    804a6b8
 804a6c6:	8b 54 24 04          	mov    edx,DWORD PTR [esp+0x4]
 804a6ca:	8b 44 24 14          	mov    eax,DWORD PTR [esp+0x14]
 804a6ce:	8b 5c 24 18          	mov    ebx,DWORD PTR [esp+0x18]
 804a6d2:	8d 2c 06             	lea    ebp,[esi+eax]
 804a6d5:	31 c0                	xor    eax,eax
 804a6d7:	01 f3                	add    ebx,esi
 804a6d9:	85 d2                	test   edx,edx
 804a6db:	7e 1d                	jle    804a6fa
 804a6dd:	89 4c 24 04          	mov    DWORD PTR [esp+0x4],ecx
 804a6e1:	8d b4 26 00 00 00 00 	lea    esi,[esi]
 804a6e8:	8b 4c 85 00          	mov    ecx,DWORD PTR [ebp+eax*4]
 804a6ec:	89 0c 83             	mov    DWORD PTR [ebx+eax*4],ecx
 804a6ef:	83 c0 01             	add    eax,0x1
 804a6f2:	39 d0                	cmp    eax,edx
 804a6f4:	75 f2                	jne    804a6e8
 804a6f6:	8b 4c 24 04          	mov    ecx,DWORD PTR [esp+0x4]
 804a6fa:	83 04 24 01          	add    DWORD PTR [esp],0x1
 804a6fe:	8b 44 24 08          	mov    eax,DWORD PTR [esp+0x8]
 804a702:	03 74 24 0c          	add    esi,DWORD PTR [esp+0xc]
 804a706:	03 7c 24 10          	add    edi,DWORD PTR [esp+0x10]
 804a70a:	39 04 24             	cmp    DWORD PTR [esp],eax
 804a70d:	75 91                	jne    804a6a0
 804a70f:	8b 44 24 64          	mov    eax,DWORD PTR [esp+0x64]
 804a713:	85 c0                	test   eax,eax
 804a715:	0f 8e b5 04 00 00    	jle    804abd0
 804a71b:	8b 35 d4 60 05 08    	mov    esi,DWORD PTR ds:0x80560d4
 804a721:	31 ff                	xor    edi,edi
 804a723:	8b 15 60 60 05 08    	mov    edx,DWORD PTR ds:0x8056060
 804a729:	a1 64 60 05 08       	mov    eax,ds:0x8056064
 804a72e:	c7 04 24 00 00 00 00 	mov    DWORD PTR [esp],0x0
 804a735:	89 74 24 0c          	mov    DWORD PTR [esp+0xc],esi
 804a739:	8b 35 cc 60 05 08    	mov    esi,DWORD PTR ds:0x80560cc
 804a73f:	89 c3                	mov    ebx,eax
 804a741:	89 74 24 28          	mov    DWORD PTR [esp+0x28],esi
 804a745:	8d 34 95 00 00 00 00 	lea    esi,[edx*4]
 804a74c:	89 74 24 14          	mov    DWORD PTR [esp+0x14],esi
 804a750:	8d 34 85 00 00 00 00 	lea    esi,[eax*4]
 804a757:	89 74 24 18          	mov    DWORD PTR [esp+0x18],esi
 804a75b:	8b 74 24 60          	mov    esi,DWORD PTR [esp+0x60]
 804a75f:	8d 4e 01             	lea    ecx,[esi+0x1]
 804a762:	8b 74 24 40          	mov    esi,DWORD PTR [esp+0x40]
 804a766:	0f af d9             	imul   ebx,ecx
 804a769:	0f af ca             	imul   ecx,edx
 804a76c:	8d 34 9e             	lea    esi,[esi+ebx*4]
 804a76f:	89 74 24 1c          	mov    DWORD PTR [esp+0x1c],esi
 804a773:	8b 74 24 44          	mov    esi,DWORD PTR [esp+0x44]
 804a777:	8d 34 8e             	lea    esi,[esi+ecx*4]
 804a77a:	89 74 24 10          	mov    DWORD PTR [esp+0x10],esi
 804a77e:	31 f6                	xor    esi,esi
 804a780:	85 c0                	test   eax,eax
 804a782:	7e 26                	jle    804a7aa
 804a784:	8b 5c 24 1c          	mov    ebx,DWORD PTR [esp+0x1c]
 804a788:	31 c9                	xor    ecx,ecx
 804a78a:	89 54 24 04          	mov    DWORD PTR [esp+0x4],edx
 804a78e:	8d 2c 1f             	lea    ebp,[edi+ebx]
 804a791:	8b 5c 24 0c          	mov    ebx,DWORD PTR [esp+0xc]
 804a795:	01 fb                	add    ebx,edi
 804a797:	90                   	nop
 804a798:	8b 54 8d 00          	mov    edx,DWORD PTR [ebp+ecx*4]
 804a79c:	89 14 8b             	mov    DWORD PTR [ebx+ecx*4],edx
 804a79f:	83 c1 01             	add    ecx,0x1
 804a7a2:	39 c1                	cmp    ecx,eax
 804a7a4:	75 f2                	jne    804a798
 804a7a6:	8b 54 24 04          	mov    edx,DWORD PTR [esp+0x4]
 804a7aa:	8b 5c 24 10          	mov    ebx,DWORD PTR [esp+0x10]
 804a7ae:	31 c9                	xor    ecx,ecx
 804a7b0:	8d 2c 1e             	lea    ebp,[esi+ebx]
 804a7b3:	8b 5c 24 28          	mov    ebx,DWORD PTR [esp+0x28]
 804a7b7:	01 f3                	add    ebx,esi
 804a7b9:	85 d2                	test   edx,edx
 804a7bb:	7e 1d                	jle    804a7da
 804a7bd:	89 44 24 04          	mov    DWORD PTR [esp+0x4],eax
 804a7c1:	8d b4 26 00 00 00 00 	lea    esi,[esi]
 804a7c8:	8b 44 8d 00          	mov    eax,DWORD PTR [ebp+ecx*4]
 804a7cc:	89 04 8b             	mov    DWORD PTR [ebx+ecx*4],eax
 804a7cf:	83 c1 01             	add    ecx,0x1
 804a7d2:	39 d1                	cmp    ecx,edx
 804a7d4:	75 f2                	jne    804a7c8
 804a7d6:	8b 44 24 04          	mov    eax,DWORD PTR [esp+0x4]
 804a7da:	83 04 24 01          	add    DWORD PTR [esp],0x1
 804a7de:	8b 1c 24             	mov    ebx,DWORD PTR [esp]
 804a7e1:	03 74 24 14          	add    esi,DWORD PTR [esp+0x14]
 804a7e5:	03 7c 24 18          	add    edi,DWORD PTR [esp+0x18]
 804a7e9:	3b 5c 24 64          	cmp    ebx,DWORD PTR [esp+0x64]
 804a7ed:	75 91                	jne    804a780
 804a7ef:	8b 6c 24 08          	mov    ebp,DWORD PTR [esp+0x8]
 804a7f3:	85 ed                	test   ebp,ebp
 804a7f5:	0f 8e d5 03 00 00    	jle    804abd0
 804a7fb:	8b 35 d8 60 05 08    	mov    esi,DWORD PTR ds:0x80560d8
 804a801:	8b 5c 24 2c          	mov    ebx,DWORD PTR [esp+0x2c]
 804a805:	c7 04 24 00 00 00 00 	mov    DWORD PTR [esp],0x0
 804a80c:	c7 44 24 04 00 00 00 	mov    DWORD PTR [esp+0x4],0x0
 804a813:	00 
 804a814:	89 74 24 24          	mov    DWORD PTR [esp+0x24],esi
 804a818:	8b 35 b8 60 05 08    	mov    esi,DWORD PTR ds:0x80560b8
 804a81e:	89 d9                	mov    ecx,ebx
 804a820:	0f af ca             	imul   ecx,edx
 804a823:	0f af d8             	imul   ebx,eax
 804a826:	89 74 24 30          	mov    DWORD PTR [esp+0x30],esi
 804a82a:	8b 35 c4 60 05 08    	mov    esi,DWORD PTR ds:0x80560c4
 804a830:	89 74 24 34          	mov    DWORD PTR [esp+0x34],esi
 804a834:	8b 35 b4 60 05 08    	mov    esi,DWORD PTR ds:0x80560b4
 804a83a:	89 74 24 3c          	mov    DWORD PTR [esp+0x3c],esi
 804a83e:	8b 35 c0 60 05 08    	mov    esi,DWORD PTR ds:0x80560c0
 804a844:	89 74 24 48          	mov    DWORD PTR [esp+0x48],esi
 804a848:	8b 35 d0 60 05 08    	mov    esi,DWORD PTR ds:0x80560d0
 804a84e:	89 74 24 38          	mov    DWORD PTR [esp+0x38],esi
 804a852:	8b 74 24 44          	mov    esi,DWORD PTR [esp+0x44]
 804a856:	8d 0c 8e             	lea    ecx,[esi+ecx*4]
 804a859:	8b 74 24 40          	mov    esi,DWORD PTR [esp+0x40]
 804a85d:	8d 2c 9e             	lea    ebp,[esi+ebx*4]
 804a860:	8b 7c 24 04          	mov    edi,DWORD PTR [esp+0x4]
 804a864:	8b 74 24 30          	mov    esi,DWORD PTR [esp+0x30]
 804a868:	89 54 24 20          	mov    DWORD PTR [esp+0x20],edx
 804a86c:	89 44 24 1c          	mov    DWORD PTR [esp+0x1c],eax
 804a870:	0f af f8             	imul   edi,eax
 804a873:	8d 1c 37             	lea    ebx,[edi+esi]
 804a876:	89 da                	mov    edx,ebx
 804a878:	8b 1c 24             	mov    ebx,DWORD PTR [esp]
 804a87b:	89 7c 24 10          	mov    DWORD PTR [esp+0x10],edi
 804a87f:	0f af d8             	imul   ebx,eax
 804a882:	8b 44 24 24          	mov    eax,DWORD PTR [esp+0x24]
 804a886:	8d 3c 33             	lea    edi,[ebx+esi]
 804a889:	89 d6                	mov    esi,edx
 804a88b:	8b 54 24 0c          	mov    edx,DWORD PTR [esp+0xc]
 804a88f:	8b 14 ba             	mov    edx,DWORD PTR [edx+edi*4]
 804a892:	39 14 b0             	cmp    DWORD PTR [eax+esi*4],edx
 804a895:	8b 44 24 1c          	mov    eax,DWORD PTR [esp+0x1c]
 804a899:	8b 54 24 20          	mov    edx,DWORD PTR [esp+0x20]
 804a89d:	0f 8d 75 02 00 00    	jge    804ab18
 804a8a3:	83 7c 24 34 01       	cmp    DWORD PTR [esp+0x34],0x1
 804a8a8:	0f 84 78 02 00 00    	je     804ab26
 804a8ae:	8b 74 24 0c          	mov    esi,DWORD PTR [esp+0xc]
 804a8b2:	8d 34 9e             	lea    esi,[esi+ebx*4]
 804a8b5:	31 db                	xor    ebx,ebx
 804a8b7:	85 c0                	test   eax,eax
 804a8b9:	7e 13                	jle    804a8ce
 804a8bb:	90                   	nop
 804a8bc:	8d 74 26 00          	lea    esi,[esi]
 804a8c0:	8b 3c 9e             	mov    edi,DWORD PTR [esi+ebx*4]
 804a8c3:	89 7c 9d 00          	mov    DWORD PTR [ebp+ebx*4],edi
 804a8c7:	83 c3 01             	add    ebx,0x1
 804a8ca:	39 c3                	cmp    ebx,eax
 804a8cc:	75 f2                	jne    804a8c0
 804a8ce:	85 d2                	test   edx,edx
 804a8d0:	7e 23                	jle    804a8f5
 804a8d2:	8b 1c 24             	mov    ebx,DWORD PTR [esp]
 804a8d5:	8b 74 24 28          	mov    esi,DWORD PTR [esp+0x28]
 804a8d9:	0f af da             	imul   ebx,edx
 804a8dc:	8d 34 9e             	lea    esi,[esi+ebx*4]
 804a8df:	31 db                	xor    ebx,ebx
 804a8e1:	8d b4 26 00 00 00 00 	lea    esi,[esi]
 804a8e8:	8b 3c 9e             	mov    edi,DWORD PTR [esi+ebx*4]
 804a8eb:	89 3c 99             	mov    DWORD PTR [ecx+ebx*4],edi
 804a8ee:	83 c3 01             	add    ebx,0x1
 804a8f1:	39 d3                	cmp    ebx,edx
 804a8f3:	75 f3                	jne    804a8e8
 804a8f5:	83 04 24 01          	add    DWORD PTR [esp],0x1
 804a8f9:	8b 34 24             	mov    esi,DWORD PTR [esp]
 804a8fc:	83 44 24 2c 01       	add    DWORD PTR [esp+0x2c],0x1
 804a901:	03 4c 24 14          	add    ecx,DWORD PTR [esp+0x14]
 804a905:	03 6c 24 18          	add    ebp,DWORD PTR [esp+0x18]
 804a909:	3b 74 24 64          	cmp    esi,DWORD PTR [esp+0x64]
 804a90d:	7d 0e                	jge    804a91d
 804a90f:	8b 74 24 08          	mov    esi,DWORD PTR [esp+0x8]
 804a913:	39 74 24 04          	cmp    DWORD PTR [esp+0x4],esi
 804a917:	0f 8c 43 ff ff ff    	jl     804a860
 804a91d:	8b 44 24 04          	mov    eax,DWORD PTR [esp+0x4]
 804a921:	39 44 24 08          	cmp    DWORD PTR [esp+0x8],eax
 804a925:	0f 8e f6 00 00 00    	jle    804aa21
 804a92b:	8b 15 60 60 05 08    	mov    edx,DWORD PTR ds:0x8056060
 804a931:	89 c3                	mov    ebx,eax
 804a933:	8b 0d 64 60 05 08    	mov    ecx,DWORD PTR ds:0x8056064
 804a939:	89 44 24 28          	mov    DWORD PTR [esp+0x28],eax
 804a93d:	8b 7c 24 2c          	mov    edi,DWORD PTR [esp+0x2c]
 804a941:	8d 34 95 00 00 00 00 	lea    esi,[edx*4]
 804a948:	89 74 24 14          	mov    DWORD PTR [esp+0x14],esi
 804a94c:	8d 34 8d 00 00 00 00 	lea    esi,[ecx*4]
 804a953:	0f af d9             	imul   ebx,ecx
 804a956:	89 74 24 18          	mov    DWORD PTR [esp+0x18],esi
 804a95a:	89 c6                	mov    esi,eax
 804a95c:	a1 d8 60 05 08       	mov    eax,ds:0x80560d8
 804a961:	8d 04 98             	lea    eax,[eax+ebx*4]
 804a964:	8b 5c 24 40          	mov    ebx,DWORD PTR [esp+0x40]
 804a968:	89 44 24 20          	mov    DWORD PTR [esp+0x20],eax
 804a96c:	89 f8                	mov    eax,edi
 804a96e:	0f af c1             	imul   eax,ecx
 804a971:	8d 04 83             	lea    eax,[ebx+eax*4]
 804a974:	89 f3                	mov    ebx,esi
 804a976:	8b 74 24 44          	mov    esi,DWORD PTR [esp+0x44]
 804a97a:	89 44 24 24          	mov    DWORD PTR [esp+0x24],eax
 804a97e:	0f af da             	imul   ebx,edx
 804a981:	a1 d0 60 05 08       	mov    eax,ds:0x80560d0
 804a986:	8d 04 98             	lea    eax,[eax+ebx*4]
 804a989:	89 44 24 10          	mov    DWORD PTR [esp+0x10],eax
 804a98d:	89 f8                	mov    eax,edi
 804a98f:	31 ff                	xor    edi,edi
 804a991:	0f af c2             	imul   eax,edx
 804a994:	8d 04 86             	lea    eax,[esi+eax*4]
 804a997:	31 f6                	xor    esi,esi
 804a999:	89 44 24 1c          	mov    DWORD PTR [esp+0x1c],eax
 804a99d:	8d 76 00             	lea    esi,[esi]
 804a9a0:	85 c9                	test   ecx,ecx
 804a9a2:	7e 26                	jle    804a9ca
 804a9a4:	8b 44 24 20          	mov    eax,DWORD PTR [esp+0x20]
 804a9a8:	89 54 24 0c          	mov    DWORD PTR [esp+0xc],edx
 804a9ac:	8d 2c 07             	lea    ebp,[edi+eax]
 804a9af:	8b 44 24 24          	mov    eax,DWORD PTR [esp+0x24]
 804a9b3:	8d 1c 07             	lea    ebx,[edi+eax]
 804a9b6:	31 c0                	xor    eax,eax
 804a9b8:	8b 54 85 00          	mov    edx,DWORD PTR [ebp+eax*4]
 804a9bc:	89 14 83             	mov    DWORD PTR [ebx+eax*4],edx
 804a9bf:	83 c0 01             	add    eax,0x1
 804a9c2:	39 c8                	cmp    eax,ecx
 804a9c4:	75 f2                	jne    804a9b8
 804a9c6:	8b 54 24 0c          	mov    edx,DWORD PTR [esp+0xc]
 804a9ca:	8b 44 24 10          	mov    eax,DWORD PTR [esp+0x10]
 804a9ce:	8d 2c 06             	lea    ebp,[esi+eax]
 804a9d1:	8b 44 24 1c          	mov    eax,DWORD PTR [esp+0x1c]
 804a9d5:	8d 1c 06             	lea    ebx,[esi+eax]
 804a9d8:	31 c0                	xor    eax,eax
 804a9da:	85 d2                	test   edx,edx
 804a9dc:	7e 1c                	jle    804a9fa
 804a9de:	89 4c 24 0c          	mov    DWORD PTR [esp+0xc],ecx
 804a9e2:	8d b6 00 00 00 00    	lea    esi,[esi]
 804a9e8:	8b 4c 85 00          	mov    ecx,DWORD PTR [ebp+eax*4]
 804a9ec:	89 0c 83             	mov    DWORD PTR [ebx+eax*4],ecx
 804a9ef:	83 c0 01             	add    eax,0x1
 804a9f2:	39 d0                	cmp    eax,edx
 804a9f4:	75 f2                	jne    804a9e8
 804a9f6:	8b 4c 24 0c          	mov    ecx,DWORD PTR [esp+0xc]
 804a9fa:	83 44 24 04 01       	add    DWORD PTR [esp+0x4],0x1
 804a9ff:	8b 44 24 08          	mov    eax,DWORD PTR [esp+0x8]
 804aa03:	03 74 24 14          	add    esi,DWORD PTR [esp+0x14]
 804aa07:	03 7c 24 18          	add    edi,DWORD PTR [esp+0x18]
 804aa0b:	39 44 24 04          	cmp    DWORD PTR [esp+0x4],eax
 804aa0f:	75 8f                	jne    804a9a0
 804aa11:	8b 44 24 04          	mov    eax,DWORD PTR [esp+0x4]
 804aa15:	01 44 24 2c          	add    DWORD PTR [esp+0x2c],eax
 804aa19:	8b 44 24 28          	mov    eax,DWORD PTR [esp+0x28]
 804aa1d:	29 44 24 2c          	sub    DWORD PTR [esp+0x2c],eax
 804aa21:	8b 04 24             	mov    eax,DWORD PTR [esp]
 804aa24:	39 44 24 64          	cmp    DWORD PTR [esp+0x64],eax
 804aa28:	0f 8e e1 00 00 00    	jle    804ab0f
 804aa2e:	8b 15 60 60 05 08    	mov    edx,DWORD PTR ds:0x8056060
 804aa34:	89 c3                	mov    ebx,eax
 804aa36:	8b 0d 64 60 05 08    	mov    ecx,DWORD PTR ds:0x8056064
 804aa3c:	8b 7c 24 2c          	mov    edi,DWORD PTR [esp+0x2c]
 804aa40:	8d 34 95 00 00 00 00 	lea    esi,[edx*4]
 804aa47:	89 74 24 10          	mov    DWORD PTR [esp+0x10],esi
 804aa4b:	8d 34 8d 00 00 00 00 	lea    esi,[ecx*4]
 804aa52:	0f af d9             	imul   ebx,ecx
 804aa55:	89 74 24 14          	mov    DWORD PTR [esp+0x14],esi
 804aa59:	89 c6                	mov    esi,eax
 804aa5b:	a1 d4 60 05 08       	mov    eax,ds:0x80560d4
 804aa60:	8d 04 98             	lea    eax,[eax+ebx*4]
 804aa63:	8b 5c 24 40          	mov    ebx,DWORD PTR [esp+0x40]
 804aa67:	89 44 24 18          	mov    DWORD PTR [esp+0x18],eax
 804aa6b:	89 f8                	mov    eax,edi
 804aa6d:	0f af c1             	imul   eax,ecx
 804aa70:	8d 04 83             	lea    eax,[ebx+eax*4]
 804aa73:	89 f3                	mov    ebx,esi
 804aa75:	8b 74 24 44          	mov    esi,DWORD PTR [esp+0x44]
 804aa79:	89 44 24 1c          	mov    DWORD PTR [esp+0x1c],eax
 804aa7d:	0f af da             	imul   ebx,edx
 804aa80:	a1 cc 60 05 08       	mov    eax,ds:0x80560cc
 804aa85:	8d 04 98             	lea    eax,[eax+ebx*4]
 804aa88:	89 44 24 08          	mov    DWORD PTR [esp+0x8],eax
 804aa8c:	89 f8                	mov    eax,edi
 804aa8e:	31 ff                	xor    edi,edi
 804aa90:	0f af c2             	imul   eax,edx
 804aa93:	8d 04 86             	lea    eax,[esi+eax*4]
 804aa96:	31 f6                	xor    esi,esi
 804aa98:	89 44 24 0c          	mov    DWORD PTR [esp+0xc],eax
 804aa9c:	8d 74 26 00          	lea    esi,[esi]
 804aaa0:	85 c9                	test   ecx,ecx
 804aaa2:	7e 26                	jle    804aaca
 804aaa4:	8b 44 24 18          	mov    eax,DWORD PTR [esp+0x18]
 804aaa8:	89 54 24 04          	mov    DWORD PTR [esp+0x4],edx
 804aaac:	8d 2c 07             	lea    ebp,[edi+eax]
 804aaaf:	8b 44 24 1c          	mov    eax,DWORD PTR [esp+0x1c]
 804aab3:	8d 1c 07             	lea    ebx,[edi+eax]
 804aab6:	31 c0                	xor    eax,eax
 804aab8:	8b 54 85 00          	mov    edx,DWORD PTR [ebp+eax*4]
 804aabc:	89 14 83             	mov    DWORD PTR [ebx+eax*4],edx
 804aabf:	83 c0 01             	add    eax,0x1
 804aac2:	39 c8                	cmp    eax,ecx
 804aac4:	75 f2                	jne    804aab8
 804aac6:	8b 54 24 04          	mov    edx,DWORD PTR [esp+0x4]
 804aaca:	8b 44 24 08          	mov    eax,DWORD PTR [esp+0x8]
 804aace:	8d 2c 06             	lea    ebp,[esi+eax]
 804aad1:	8b 44 24 0c          	mov    eax,DWORD PTR [esp+0xc]
 804aad5:	8d 1c 06             	lea    ebx,[esi+eax]
 804aad8:	31 c0                	xor    eax,eax
 804aada:	85 d2                	test   edx,edx
 804aadc:	7e 1c                	jle    804aafa
 804aade:	89 4c 24 04          	mov    DWORD PTR [esp+0x4],ecx
 804aae2:	8d b6 00 00 00 00    	lea    esi,[esi]
 804aae8:	8b 4c 85 00          	mov    ecx,DWORD PTR [ebp+eax*4]
 804aaec:	89 0c 83             	mov    DWORD PTR [ebx+eax*4],ecx
 804aaef:	83 c0 01             	add    eax,0x1
 804aaf2:	39 d0                	cmp    eax,edx
 804aaf4:	75 f2                	jne    804aae8
 804aaf6:	8b 4c 24 04          	mov    ecx,DWORD PTR [esp+0x4]
 804aafa:	83 04 24 01          	add    DWORD PTR [esp],0x1
 804aafe:	8b 04 24             	mov    eax,DWORD PTR [esp]
 804ab01:	03 74 24 10          	add    esi,DWORD PTR [esp+0x10]
 804ab05:	03 7c 24 14          	add    edi,DWORD PTR [esp+0x14]
 804ab09:	3b 44 24 64          	cmp    eax,DWORD PTR [esp+0x64]
 804ab0d:	75 91                	jne    804aaa0
 804ab0f:	83 c4 4c             	add    esp,0x4c
 804ab12:	5b                   	pop    ebx
 804ab13:	5e                   	pop    esi
 804ab14:	5f                   	pop    edi
 804ab15:	5d                   	pop    ebp
 804ab16:	c3                   	ret
 804ab17:	90                   	nop
 804ab18:	7e 5d                	jle    804ab77
 804ab1a:	8b 7c 24 34          	mov    edi,DWORD PTR [esp+0x34]
 804ab1e:	85 ff                	test   edi,edi
 804ab20:	0f 85 88 fd ff ff    	jne    804a8ae
 804ab26:	8b 74 24 24          	mov    esi,DWORD PTR [esp+0x24]
 804ab2a:	31 db                	xor    ebx,ebx
 804ab2c:	85 c0                	test   eax,eax
 804ab2e:	8b 7c 24 10          	mov    edi,DWORD PTR [esp+0x10]
 804ab32:	8d 34 be             	lea    esi,[esi+edi*4]
 804ab35:	7e 0f                	jle    804ab46
 804ab37:	90                   	nop
 804ab38:	8b 3c 9e             	mov    edi,DWORD PTR [esi+ebx*4]
 804ab3b:	89 7c 9d 00          	mov    DWORD PTR [ebp+ebx*4],edi
 804ab3f:	83 c3 01             	add    ebx,0x1
 804ab42:	39 c3                	cmp    ebx,eax
 804ab44:	75 f2                	jne    804ab38
 804ab46:	85 d2                	test   edx,edx
 804ab48:	7e 23                	jle    804ab6d
 804ab4a:	8b 5c 24 04          	mov    ebx,DWORD PTR [esp+0x4]
 804ab4e:	8b 74 24 38          	mov    esi,DWORD PTR [esp+0x38]
 804ab52:	0f af da             	imul   ebx,edx
 804ab55:	8d 34 9e             	lea    esi,[esi+ebx*4]
 804ab58:	31 db                	xor    ebx,ebx
 804ab5a:	8d b6 00 00 00 00    	lea    esi,[esi]
 804ab60:	8b 3c 9e             	mov    edi,DWORD PTR [esi+ebx*4]
 804ab63:	89 3c 99             	mov    DWORD PTR [ecx+ebx*4],edi
 804ab66:	83 c3 01             	add    ebx,0x1
 804ab69:	39 d3                	cmp    ebx,edx
 804ab6b:	75 f3                	jne    804ab60
 804ab6d:	83 44 24 04 01       	add    DWORD PTR [esp+0x4],0x1
 804ab72:	e9 82 fd ff ff       	jmp    804a8f9
 804ab77:	0f 85 31 fd ff ff    	jne    804a8ae
 804ab7d:	89 44 24 1c          	mov    DWORD PTR [esp+0x1c],eax
 804ab81:	8b 74 24 3c          	mov    esi,DWORD PTR [esp+0x3c]
 804ab85:	8b 44 24 24          	mov    eax,DWORD PTR [esp+0x24]
 804ab89:	03 74 24 10          	add    esi,DWORD PTR [esp+0x10]
 804ab8d:	8b 34 b0             	mov    esi,DWORD PTR [eax+esi*4]
 804ab90:	8b 44 24 0c          	mov    eax,DWORD PTR [esp+0xc]
 804ab94:	89 f7                	mov    edi,esi
 804ab96:	8b 74 24 3c          	mov    esi,DWORD PTR [esp+0x3c]
 804ab9a:	01 de                	add    esi,ebx
 804ab9c:	8b 34 b0             	mov    esi,DWORD PTR [eax+esi*4]
 804ab9f:	8b 44 24 1c          	mov    eax,DWORD PTR [esp+0x1c]
 804aba3:	39 f7                	cmp    edi,esi
 804aba5:	7e 11                	jle    804abb8
 804aba7:	8b 74 24 48          	mov    esi,DWORD PTR [esp+0x48]
 804abab:	85 f6                	test   esi,esi
 804abad:	0f 84 73 ff ff ff    	je     804ab26
 804abb3:	e9 f6 fc ff ff       	jmp    804a8ae
 804abb8:	83 7c 24 48 01       	cmp    DWORD PTR [esp+0x48],0x1
 804abbd:	0f 84 63 ff ff ff    	je     804ab26
 804abc3:	39 f7                	cmp    edi,esi
 804abc5:	0f 8c e3 fc ff ff    	jl     804a8ae
 804abcb:	eb da                	jmp    804aba7
 804abcd:	8d 76 00             	lea    esi,[esi]
 804abd0:	c7 04 24 00 00 00 00 	mov    DWORD PTR [esp],0x0
 804abd7:	c7 44 24 04 00 00 00 	mov    DWORD PTR [esp+0x4],0x0
 804abde:	00 
 804abdf:	e9 39 fd ff ff       	jmp    804a91d
 804abe4:	8d b6 00 00 00 00    	lea    esi,[esi]
 804abea:	8d bf 00 00 00 00    	lea    edi,[edi]

0804abf0 <MergeSubSort_Int>:
 804abf0:	55                   	push   ebp
 804abf1:	57                   	push   edi
 804abf2:	89 cf                	mov    edi,ecx
 804abf4:	56                   	push   esi
 804abf5:	89 d6                	mov    esi,edx
 804abf7:	53                   	push   ebx
 804abf8:	83 ec 1c             	sub    esp,0x1c
 804abfb:	39 ca                	cmp    edx,ecx
 804abfd:	89 04 24             	mov    DWORD PTR [esp],eax
 804ac00:	7c 0e                	jl     804ac10
 804ac02:	83 c4 1c             	add    esp,0x1c
 804ac05:	5b                   	pop    ebx
 804ac06:	5e                   	pop    esi
 804ac07:	5f                   	pop    edi
 804ac08:	5d                   	pop    ebp
 804ac09:	c3                   	ret
 804ac0a:	8d b6 00 00 00 00    	lea    esi,[esi]
 804ac10:	89 c8                	mov    eax,ecx
 804ac12:	29 d0                	sub    eax,edx
 804ac14:	89 c5                	mov    ebp,eax
 804ac16:	c1 ed 1f             	shr    ebp,0x1f
 804ac19:	01 c5                	add    ebp,eax
 804ac1b:	8b 04 24             	mov    eax,DWORD PTR [esp]
 804ac1e:	d1 fd                	sar    ebp,1
 804ac20:	8d 5c 15 00          	lea    ebx,[ebp+edx]
 804ac24:	83 c5 01             	add    ebp,0x1
 804ac27:	89 d9                	mov    ecx,ebx
 804ac29:	e8 c2 ff ff ff       	call   804abf0
 804ac2e:	8b 04 24             	mov    eax,DWORD PTR [esp]
 804ac31:	8d 53 01             	lea    edx,[ebx+0x1]
 804ac34:	89 f9                	mov    ecx,edi
 804ac36:	e8 b5 ff ff ff       	call   804abf0
 804ac3b:	89 fa                	mov    edx,edi
 804ac3d:	29 da                	sub    edx,ebx
 804ac3f:	85 ed                	test   ebp,ebp
 804ac41:	7e 26                	jle    804ac69
 804ac43:	8b 04 24             	mov    eax,DWORD PTR [esp]
 804ac46:	8b 3d d8 60 05 08    	mov    edi,DWORD PTR ds:0x80560d8
 804ac4c:	89 54 24 04          	mov    DWORD PTR [esp+0x4],edx
 804ac50:	8d 0c b0             	lea    ecx,[eax+esi*4]
 804ac53:	31 c0                	xor    eax,eax
 804ac55:	8d 76 00             	lea    esi,[esi]
 804ac58:	8b 14 81             	mov    edx,DWORD PTR [ecx+eax*4]
 804ac5b:	89 14 87             	mov    DWORD PTR [edi+eax*4],edx
 804ac5e:	83 c0 01             	add    eax,0x1
 804ac61:	39 e8                	cmp    eax,ebp
 804ac63:	75 f3                	jne    804ac58
 804ac65:	8b 54 24 04          	mov    edx,DWORD PTR [esp+0x4]
 804ac69:	85 d2                	test   edx,edx
 804ac6b:	0f 8e 5e 01 00 00    	jle    804adcf
 804ac71:	8b 04 24             	mov    eax,DWORD PTR [esp]
 804ac74:	8b 3d d4 60 05 08    	mov    edi,DWORD PTR ds:0x80560d4
 804ac7a:	8d 0c 98             	lea    ecx,[eax+ebx*4]
 804ac7d:	31 c0                	xor    eax,eax
 804ac7f:	90                   	nop
 804ac80:	8b 5c 81 04          	mov    ebx,DWORD PTR [ecx+eax*4+0x4]
 804ac84:	89 1c 87             	mov    DWORD PTR [edi+eax*4],ebx
 804ac87:	83 c0 01             	add    eax,0x1
 804ac8a:	39 d0                	cmp    eax,edx
 804ac8c:	75 f2                	jne    804ac80
 804ac8e:	85 ed                	test   ebp,ebp
 804ac90:	0f 8e 39 01 00 00    	jle    804adcf
 804ac96:	a1 d8 60 05 08       	mov    eax,ds:0x80560d8
 804ac9b:	89 44 24 04          	mov    DWORD PTR [esp+0x4],eax
 804ac9f:	a1 c8 60 05 08       	mov    eax,ds:0x80560c8
 804aca4:	85 c0                	test   eax,eax
 804aca6:	75 50                	jne    804acf8
 804aca8:	89 54 24 08          	mov    DWORD PTR [esp+0x8],edx
 804acac:	31 c0                	xor    eax,eax
 804acae:	31 db                	xor    ebx,ebx
 804acb0:	89 fa                	mov    edx,edi
 804acb2:	eb 1c                	jmp    804acd0
 804acb4:	8d 74 26 00          	lea    esi,[esi]
 804acb8:	7e 24                	jle    804acde
 804acba:	8b 3c 24             	mov    edi,DWORD PTR [esp]
 804acbd:	83 c0 01             	add    eax,0x1
 804acc0:	89 0c b7             	mov    DWORD PTR [edi+esi*4],ecx
 804acc3:	83 c6 01             	add    esi,0x1
 804acc6:	39 dd                	cmp    ebp,ebx
 804acc8:	7e 26                	jle    804acf0
 804acca:	39 44 24 08          	cmp    DWORD PTR [esp+0x8],eax
 804acce:	7e 20                	jle    804acf0
 804acd0:	8b 7c 24 04          	mov    edi,DWORD PTR [esp+0x4]
 804acd4:	8b 0c 82             	mov    ecx,DWORD PTR [edx+eax*4]
 804acd7:	8b 3c 9f             	mov    edi,DWORD PTR [edi+ebx*4]
 804acda:	39 f9                	cmp    ecx,edi
 804acdc:	7d da                	jge    804acb8
 804acde:	8b 0c 24             	mov    ecx,DWORD PTR [esp]
 804ace1:	83 c3 01             	add    ebx,0x1
 804ace4:	89 3c b1             	mov    DWORD PTR [ecx+esi*4],edi
 804ace7:	83 c6 01             	add    esi,0x1
 804acea:	39 dd                	cmp    ebp,ebx
 804acec:	7f dc                	jg     804acca
 804acee:	66 90                	xchg   ax,ax
 804acf0:	8b 54 24 08          	mov    edx,DWORD PTR [esp+0x8]
 804acf4:	eb 2c                	jmp    804ad22
 804acf6:	66 90                	xchg   ax,ax
 804acf8:	83 f8 01             	cmp    eax,0x1
 804acfb:	b8 00 00 00 00       	mov    eax,0x0
 804ad00:	0f 84 8a 00 00 00    	je     804ad90
 804ad06:	8b 1c 24             	mov    ebx,DWORD PTR [esp]
 804ad09:	8d b4 26 00 00 00 00 	lea    esi,[esi]
 804ad10:	8b 0c 87             	mov    ecx,DWORD PTR [edi+eax*4]
 804ad13:	83 c0 01             	add    eax,0x1
 804ad16:	89 0c b3             	mov    DWORD PTR [ebx+esi*4],ecx
 804ad19:	83 c6 01             	add    esi,0x1
 804ad1c:	39 c2                	cmp    edx,eax
 804ad1e:	7f f0                	jg     804ad10
 804ad20:	31 db                	xor    ebx,ebx
 804ad22:	39 dd                	cmp    ebp,ebx
 804ad24:	7e 39                	jle    804ad5f
 804ad26:	8b 3d d8 60 05 08    	mov    edi,DWORD PTR ds:0x80560d8
 804ad2c:	89 f1                	mov    ecx,esi
 804ad2e:	29 d9                	sub    ecx,ebx
 804ad30:	89 5c 24 04          	mov    DWORD PTR [esp+0x4],ebx
 804ad34:	89 44 24 0c          	mov    DWORD PTR [esp+0xc],eax
 804ad38:	89 7c 24 08          	mov    DWORD PTR [esp+0x8],edi
 804ad3c:	8b 3c 24             	mov    edi,DWORD PTR [esp]
 804ad3f:	8d 0c 8f             	lea    ecx,[edi+ecx*4]
 804ad42:	8b 7c 24 08          	mov    edi,DWORD PTR [esp+0x8]
 804ad46:	66 90                	xchg   ax,ax
 804ad48:	8b 04 9f             	mov    eax,DWORD PTR [edi+ebx*4]
 804ad4b:	89 04 99             	mov    DWORD PTR [ecx+ebx*4],eax
 804ad4e:	83 c3 01             	add    ebx,0x1
 804ad51:	39 eb                	cmp    ebx,ebp
 804ad53:	75 f3                	jne    804ad48
 804ad55:	8b 44 24 0c          	mov    eax,DWORD PTR [esp+0xc]
 804ad59:	01 de                	add    esi,ebx
 804ad5b:	2b 74 24 04          	sub    esi,DWORD PTR [esp+0x4]
 804ad5f:	39 c2                	cmp    edx,eax
 804ad61:	0f 8e 9b fe ff ff    	jle    804ac02
 804ad67:	8b 0c 24             	mov    ecx,DWORD PTR [esp]
 804ad6a:	29 c6                	sub    esi,eax
 804ad6c:	8b 3d d4 60 05 08    	mov    edi,DWORD PTR ds:0x80560d4
 804ad72:	8d 1c b1             	lea    ebx,[ecx+esi*4]
 804ad75:	8d 76 00             	lea    esi,[esi]
 804ad78:	8b 0c 87             	mov    ecx,DWORD PTR [edi+eax*4]
 804ad7b:	89 0c 83             	mov    DWORD PTR [ebx+eax*4],ecx
 804ad7e:	83 c0 01             	add    eax,0x1
 804ad81:	39 d0                	cmp    eax,edx
 804ad83:	75 f3                	jne    804ad78
 804ad85:	83 c4 1c             	add    esp,0x1c
 804ad88:	5b                   	pop    ebx
 804ad89:	5e                   	pop    esi
 804ad8a:	5f                   	pop    edi
 804ad8b:	5d                   	pop    ebp
 804ad8c:	c3                   	ret
 804ad8d:	8d 76 00             	lea    esi,[esi]
 804ad90:	31 db                	xor    ebx,ebx
 804ad92:	89 54 24 08          	mov    DWORD PTR [esp+0x8],edx
 804ad96:	eb 1e                	jmp    804adb6
 804ad98:	8b 14 24             	mov    edx,DWORD PTR [esp]
 804ad9b:	83 c3 01             	add    ebx,0x1
 804ad9e:	89 0c b2             	mov    DWORD PTR [edx+esi*4],ecx
 804ada1:	83 c6 01             	add    esi,0x1
 804ada4:	39 dd                	cmp    ebp,ebx
 804ada6:	0f 8e 44 ff ff ff    	jle    804acf0
 804adac:	39 44 24 08          	cmp    DWORD PTR [esp+0x8],eax
 804adb0:	0f 8e 3a ff ff ff    	jle    804acf0
 804adb6:	8b 54 24 04          	mov    edx,DWORD PTR [esp+0x4]
 804adba:	8b 0c 9a             	mov    ecx,DWORD PTR [edx+ebx*4]
 804adbd:	8b 14 87             	mov    edx,DWORD PTR [edi+eax*4]
 804adc0:	39 d1                	cmp    ecx,edx
 804adc2:	7e d4                	jle    804ad98
 804adc4:	8b 0c 24             	mov    ecx,DWORD PTR [esp]
 804adc7:	83 c0 01             	add    eax,0x1
 804adca:	89 14 b1             	mov    DWORD PTR [ecx+esi*4],edx
 804adcd:	eb d2                	jmp    804ada1
 804adcf:	31 c0                	xor    eax,eax
 804add1:	31 db                	xor    ebx,ebx
 804add3:	e9 4a ff ff ff       	jmp    804ad22
 804add8:	90                   	nop
 804add9:	8d b4 26 00 00 00 00 	lea    esi,[esi]

0804ade0 <MergeSubSort_Block>:
 804ade0:	55                   	push   ebp
 804ade1:	57                   	push   edi
 804ade2:	56                   	push   esi
 804ade3:	89 ce                	mov    esi,ecx
 804ade5:	53                   	push   ebx
 804ade6:	89 d3                	mov    ebx,edx
 804ade8:	83 ec 2c             	sub    esp,0x2c
 804adeb:	39 ca                	cmp    edx,ecx
 804aded:	7c 09                	jl     804adf8
 804adef:	83 c4 2c             	add    esp,0x2c
 804adf2:	5b                   	pop    ebx
 804adf3:	5e                   	pop    esi
 804adf4:	5f                   	pop    edi
 804adf5:	5d                   	pop    ebp
 804adf6:	c3                   	ret
 804adf7:	90                   	nop
 804adf8:	89 c7                	mov    edi,eax
 804adfa:	89 c8                	mov    eax,ecx
 804adfc:	29 d0                	sub    eax,edx
 804adfe:	89 c5                	mov    ebp,eax
 804ae00:	c1 ed 1f             	shr    ebp,0x1f
 804ae03:	01 e8                	add    eax,ebp
 804ae05:	d1 f8                	sar    eax,1
 804ae07:	8d 0c 10             	lea    ecx,[eax+edx]
 804ae0a:	39 ca                	cmp    edx,ecx
 804ae0c:	89 4c 24 10          	mov    DWORD PTR [esp+0x10],ecx
 804ae10:	7c 2e                	jl     804ae40
 804ae12:	8b 44 24 10          	mov    eax,DWORD PTR [esp+0x10]
 804ae16:	8d 68 01             	lea    ebp,[eax+0x1]
 804ae19:	39 ee                	cmp    esi,ebp
 804ae1b:	0f 8f e2 00 00 00    	jg     804af03
 804ae21:	8b 4c 24 10          	mov    ecx,DWORD PTR [esp+0x10]
 804ae25:	89 da                	mov    edx,ebx
 804ae27:	89 f8                	mov    eax,edi
 804ae29:	89 34 24             	mov    DWORD PTR [esp],esi
 804ae2c:	e8 ef eb ff ff       	call   8049a20
 804ae31:	83 c4 2c             	add    esp,0x2c
 804ae34:	5b                   	pop    ebx
 804ae35:	5e                   	pop    esi
 804ae36:	5f                   	pop    edi
 804ae37:	5d                   	pop    ebp
 804ae38:	c3                   	ret
 804ae39:	8d b4 26 00 00 00 00 	lea    esi,[esi]
 804ae40:	89 c5                	mov    ebp,eax
 804ae42:	c1 ed 1f             	shr    ebp,0x1f
 804ae45:	01 e8                	add    eax,ebp
 804ae47:	d1 f8                	sar    eax,1
 804ae49:	8d 14 02             	lea    edx,[edx+eax]
 804ae4c:	39 d3                	cmp    ebx,edx
 804ae4e:	89 54 24 14          	mov    DWORD PTR [esp+0x14],edx
 804ae52:	7d 37                	jge    804ae8b
 804ae54:	89 c5                	mov    ebp,eax
 804ae56:	89 da                	mov    edx,ebx
 804ae58:	c1 ed 1f             	shr    ebp,0x1f
 804ae5b:	01 e8                	add    eax,ebp
 804ae5d:	d1 f8                	sar    eax,1
 804ae5f:	8d 2c 03             	lea    ebp,[ebx+eax]
 804ae62:	89 f8                	mov    eax,edi
 804ae64:	89 e9                	mov    ecx,ebp
 804ae66:	e8 75 ff ff ff       	call   804ade0
 804ae6b:	8b 4c 24 14          	mov    ecx,DWORD PTR [esp+0x14]
 804ae6f:	8d 55 01             	lea    edx,[ebp+0x1]
 804ae72:	89 f8                	mov    eax,edi
 804ae74:	e8 67 ff ff ff       	call   804ade0
 804ae79:	8b 44 24 14          	mov    eax,DWORD PTR [esp+0x14]
 804ae7d:	89 e9                	mov    ecx,ebp
 804ae7f:	89 da                	mov    edx,ebx
 804ae81:	89 04 24             	mov    DWORD PTR [esp],eax
 804ae84:	89 f8                	mov    eax,edi
 804ae86:	e8 95 eb ff ff       	call   8049a20
 804ae8b:	8b 44 24 14          	mov    eax,DWORD PTR [esp+0x14]
 804ae8f:	8d 68 01             	lea    ebp,[eax+0x1]
 804ae92:	39 6c 24 10          	cmp    DWORD PTR [esp+0x10],ebp
 804ae96:	7e 48                	jle    804aee0
 804ae98:	8b 44 24 10          	mov    eax,DWORD PTR [esp+0x10]
 804ae9c:	29 e8                	sub    eax,ebp
 804ae9e:	89 c2                	mov    edx,eax
 804aea0:	c1 ea 1f             	shr    edx,0x1f
 804aea3:	01 d0                	add    eax,edx
 804aea5:	d1 f8                	sar    eax,1
 804aea7:	8d 54 05 00          	lea    edx,[ebp+eax]
 804aeab:	89 f8                	mov    eax,edi
 804aead:	89 d1                	mov    ecx,edx
 804aeaf:	89 54 24 18          	mov    DWORD PTR [esp+0x18],edx
 804aeb3:	89 ea                	mov    edx,ebp
 804aeb5:	e8 26 ff ff ff       	call   804ade0
 804aeba:	8b 54 24 18          	mov    edx,DWORD PTR [esp+0x18]
 804aebe:	89 f8                	mov    eax,edi
 804aec0:	8b 4c 24 10          	mov    ecx,DWORD PTR [esp+0x10]
 804aec4:	83 c2 01             	add    edx,0x1
 804aec7:	e8 14 ff ff ff       	call   804ade0
 804aecc:	8b 44 24 10          	mov    eax,DWORD PTR [esp+0x10]
 804aed0:	89 ea                	mov    edx,ebp
 804aed2:	8b 4c 24 18          	mov    ecx,DWORD PTR [esp+0x18]
 804aed6:	89 04 24             	mov    DWORD PTR [esp],eax
 804aed9:	89 f8                	mov    eax,edi
 804aedb:	e8 40 eb ff ff       	call   8049a20
 804aee0:	8b 44 24 10          	mov    eax,DWORD PTR [esp+0x10]
 804aee4:	89 da                	mov    edx,ebx
 804aee6:	8b 4c 24 14          	mov    ecx,DWORD PTR [esp+0x14]
 804aeea:	89 04 24             	mov    DWORD PTR [esp],eax
 804aeed:	89 f8                	mov    eax,edi
 804aeef:	e8 2c eb ff ff       	call   8049a20
 804aef4:	8b 44 24 10          	mov    eax,DWORD PTR [esp+0x10]
 804aef8:	8d 68 01             	lea    ebp,[eax+0x1]
 804aefb:	39 ee                	cmp    esi,ebp
 804aefd:	0f 8e 1e ff ff ff    	jle    804ae21
 804af03:	89 f0                	mov    eax,esi
 804af05:	29 e8                	sub    eax,ebp
 804af07:	89 c2                	mov    edx,eax
 804af09:	c1 ea 1f             	shr    edx,0x1f
 804af0c:	01 d0                	add    eax,edx
 804af0e:	d1 f8                	sar    eax,1
 804af10:	8d 4c 05 00          	lea    ecx,[ebp+eax]
 804af14:	39 cd                	cmp    ebp,ecx
 804af16:	89 4c 24 14          	mov    DWORD PTR [esp+0x14],ecx
 804af1a:	7d 40                	jge    804af5c
 804af1c:	89 c2                	mov    edx,eax
 804af1e:	c1 ea 1f             	shr    edx,0x1f
 804af21:	01 d0                	add    eax,edx
 804af23:	89 ea                	mov    edx,ebp
 804af25:	d1 f8                	sar    eax,1
 804af27:	01 e8                	add    eax,ebp
 804af29:	89 c1                	mov    ecx,eax
 804af2b:	89 44 24 18          	mov    DWORD PTR [esp+0x18],eax
 804af2f:	89 f8                	mov    eax,edi
 804af31:	e8 aa fe ff ff       	call   804ade0
 804af36:	8b 44 24 18          	mov    eax,DWORD PTR [esp+0x18]
 804af3a:	8b 4c 24 14          	mov    ecx,DWORD PTR [esp+0x14]
 804af3e:	8d 50 01             	lea    edx,[eax+0x1]
 804af41:	89 f8                	mov    eax,edi
 804af43:	e8 98 fe ff ff       	call   804ade0
 804af48:	8b 54 24 14          	mov    edx,DWORD PTR [esp+0x14]
 804af4c:	89 f8                	mov    eax,edi
 804af4e:	8b 4c 24 18          	mov    ecx,DWORD PTR [esp+0x18]
 804af52:	89 14 24             	mov    DWORD PTR [esp],edx
 804af55:	89 ea                	mov    edx,ebp
 804af57:	e8 c4 ea ff ff       	call   8049a20
 804af5c:	8b 44 24 14          	mov    eax,DWORD PTR [esp+0x14]
 804af60:	83 c0 01             	add    eax,0x1
 804af63:	39 c6                	cmp    esi,eax
 804af65:	89 44 24 18          	mov    DWORD PTR [esp+0x18],eax
 804af69:	7e 42                	jle    804afad
 804af6b:	89 c1                	mov    ecx,eax
 804af6d:	89 f0                	mov    eax,esi
 804af6f:	29 c8                	sub    eax,ecx
 804af71:	89 c2                	mov    edx,eax
 804af73:	c1 ea 1f             	shr    edx,0x1f
 804af76:	01 d0                	add    eax,edx
 804af78:	89 ca                	mov    edx,ecx
 804af7a:	d1 f8                	sar    eax,1
 804af7c:	01 c8                	add    eax,ecx
 804af7e:	89 c1                	mov    ecx,eax
 804af80:	89 44 24 1c          	mov    DWORD PTR [esp+0x1c],eax
 804af84:	89 f8                	mov    eax,edi
 804af86:	e8 55 fe ff ff       	call   804ade0
 804af8b:	8b 44 24 1c          	mov    eax,DWORD PTR [esp+0x1c]
 804af8f:	89 f1                	mov    ecx,esi
 804af91:	8d 50 01             	lea    edx,[eax+0x1]
 804af94:	89 f8                	mov    eax,edi
 804af96:	e8 45 fe ff ff       	call   804ade0
 804af9b:	8b 4c 24 1c          	mov    ecx,DWORD PTR [esp+0x1c]
 804af9f:	89 f8                	mov    eax,edi
 804afa1:	8b 54 24 18          	mov    edx,DWORD PTR [esp+0x18]
 804afa5:	89 34 24             	mov    DWORD PTR [esp],esi
 804afa8:	e8 73 ea ff ff       	call   8049a20
 804afad:	8b 4c 24 14          	mov    ecx,DWORD PTR [esp+0x14]
 804afb1:	89 ea                	mov    edx,ebp
 804afb3:	89 f8                	mov    eax,edi
 804afb5:	89 34 24             	mov    DWORD PTR [esp],esi
 804afb8:	e8 63 ea ff ff       	call   8049a20
 804afbd:	e9 5f fe ff ff       	jmp    804ae21
 804afc2:	8d b4 26 00 00 00 00 	lea    esi,[esi]
 804afc9:	8d bc 27 00 00 00 00 	lea    edi,[edi]

0804afd0 <MergeSubSort_General>:
 804afd0:	55                   	push   ebp
 804afd1:	57                   	push   edi
 804afd2:	56                   	push   esi
 804afd3:	89 ce                	mov    esi,ecx
 804afd5:	53                   	push   ebx
 804afd6:	89 d3                	mov    ebx,edx
 804afd8:	83 ec 2c             	sub    esp,0x2c
 804afdb:	39 ca                	cmp    edx,ecx
 804afdd:	7c 09                	jl     804afe8
 804afdf:	83 c4 2c             	add    esp,0x2c
 804afe2:	5b                   	pop    ebx
 804afe3:	5e                   	pop    esi
 804afe4:	5f                   	pop    edi
 804afe5:	5d                   	pop    ebp
 804afe6:	c3                   	ret
 804afe7:	90                   	nop
 804afe8:	89 c7                	mov    edi,eax
 804afea:	89 c8                	mov    eax,ecx
 804afec:	29 d0                	sub    eax,edx
 804afee:	89 c5                	mov    ebp,eax
 804aff0:	c1 ed 1f             	shr    ebp,0x1f
 804aff3:	01 e8                	add    eax,ebp
 804aff5:	d1 f8                	sar    eax,1
 804aff7:	8d 0c 10             	lea    ecx,[eax+edx]
 804affa:	39 ca                	cmp    edx,ecx
 804affc:	89 4c 24 10          	mov    DWORD PTR [esp+0x10],ecx
 804b000:	7c 2e                	jl     804b030
 804b002:	8b 44 24 10          	mov    eax,DWORD PTR [esp+0x10]
 804b006:	8d 68 01             	lea    ebp,[eax+0x1]
 804b009:	39 ee                	cmp    esi,ebp
 804b00b:	0f 8f e2 00 00 00    	jg     804b0f3
 804b011:	8b 4c 24 10          	mov    ecx,DWORD PTR [esp+0x10]
 804b015:	89 da                	mov    edx,ebx
 804b017:	89 f8                	mov    eax,edi
 804b019:	89 34 24             	mov    DWORD PTR [esp],esi
 804b01c:	e8 0f ed ff ff       	call   8049d30
 804b021:	83 c4 2c             	add    esp,0x2c
 804b024:	5b                   	pop    ebx
 804b025:	5e                   	pop    esi
 804b026:	5f                   	pop    edi
 804b027:	5d                   	pop    ebp
 804b028:	c3                   	ret
 804b029:	8d b4 26 00 00 00 00 	lea    esi,[esi]
 804b030:	89 c5                	mov    ebp,eax
 804b032:	c1 ed 1f             	shr    ebp,0x1f
 804b035:	01 e8                	add    eax,ebp
 804b037:	d1 f8                	sar    eax,1
 804b039:	8d 14 02             	lea    edx,[edx+eax]
 804b03c:	39 d3                	cmp    ebx,edx
 804b03e:	89 54 24 14          	mov    DWORD PTR [esp+0x14],edx
 804b042:	7d 37                	jge    804b07b
 804b044:	89 c5                	mov    ebp,eax
 804b046:	89 da                	mov    edx,ebx
 804b048:	c1 ed 1f             	shr    ebp,0x1f
 804b04b:	01 e8                	add    eax,ebp
 804b04d:	d1 f8                	sar    eax,1
 804b04f:	8d 2c 03             	lea    ebp,[ebx+eax]
 804b052:	89 f8                	mov    eax,edi
 804b054:	89 e9                	mov    ecx,ebp
 804b056:	e8 75 ff ff ff       	call   804afd0
 804b05b:	8b 4c 24 14          	mov    ecx,DWORD PTR [esp+0x14]
 804b05f:	8d 55 01             	lea    edx,[ebp+0x1]
 804b062:	89 f8                	mov    eax,edi
 804b064:	e8 67 ff ff ff       	call   804afd0
 804b069:	8b 44 24 14          	mov    eax,DWORD PTR [esp+0x14]
 804b06d:	89 e9                	mov    ecx,ebp
 804b06f:	89 da                	mov    edx,ebx
 804b071:	89 04 24             	mov    DWORD PTR [esp],eax
 804b074:	89 f8                	mov    eax,edi
 804b076:	e8 b5 ec ff ff       	call   8049d30
 804b07b:	8b 44 24 14          	mov    eax,DWORD PTR [esp+0x14]
 804b07f:	8d 68 01             	lea    ebp,[eax+0x1]
 804b082:	39 6c 24 10          	cmp    DWORD PTR [esp+0x10],ebp
 804b086:	7e 48                	jle    804b0d0
 804b088:	8b 44 24 10          	mov    eax,DWORD PTR [esp+0x10]
 804b08c:	29 e8                	sub    eax,ebp
 804b08e:	89 c2                	mov    edx,eax
 804b090:	c1 ea 1f             	shr    edx,0x1f
 804b093:	01 d0                	add    eax,edx
 804b095:	d1 f8                	sar    eax,1
 804b097:	8d 54 05 00          	lea    edx,[ebp+eax]
 804b09b:	89 f8                	mov    eax,edi
 804b09d:	89 d1                	mov    ecx,edx
 804b09f:	89 54 24 18          	mov    DWORD PTR [esp+0x18],edx
 804b0a3:	89 ea                	mov    edx,ebp
 804b0a5:	e8 26 ff ff ff       	call   804afd0
 804b0aa:	8b 54 24 18          	mov    edx,DWORD PTR [esp+0x18]
 804b0ae:	89 f8                	mov    eax,edi
 804b0b0:	8b 4c 24 10          	mov    ecx,DWORD PTR [esp+0x10]
 804b0b4:	83 c2 01             	add    edx,0x1
 804b0b7:	e8 14 ff ff ff       	call   804afd0
 804b0bc:	8b 44 24 10          	mov    eax,DWORD PTR [esp+0x10]
 804b0c0:	89 ea                	mov    edx,ebp
 804b0c2:	8b 4c 24 18          	mov    ecx,DWORD PTR [esp+0x18]
 804b0c6:	89 04 24             	mov    DWORD PTR [esp],eax
 804b0c9:	89 f8                	mov    eax,edi
 804b0cb:	e8 60 ec ff ff       	call   8049d30
 804b0d0:	8b 44 24 10          	mov    eax,DWORD PTR [esp+0x10]
 804b0d4:	89 da                	mov    edx,ebx
 804b0d6:	8b 4c 24 14          	mov    ecx,DWORD PTR [esp+0x14]
 804b0da:	89 04 24             	mov    DWORD PTR [esp],eax
 804b0dd:	89 f8                	mov    eax,edi
 804b0df:	e8 4c ec ff ff       	call   8049d30
 804b0e4:	8b 44 24 10          	mov    eax,DWORD PTR [esp+0x10]
 804b0e8:	8d 68 01             	lea    ebp,[eax+0x1]
 804b0eb:	39 ee                	cmp    esi,ebp
 804b0ed:	0f 8e 1e ff ff ff    	jle    804b011
 804b0f3:	89 f0                	mov    eax,esi
 804b0f5:	29 e8                	sub    eax,ebp
 804b0f7:	89 c2                	mov    edx,eax
 804b0f9:	c1 ea 1f             	shr    edx,0x1f
 804b0fc:	01 d0                	add    eax,edx
 804b0fe:	d1 f8                	sar    eax,1
 804b100:	8d 4c 05 00          	lea    ecx,[ebp+eax]
 804b104:	39 cd                	cmp    ebp,ecx
 804b106:	89 4c 24 14          	mov    DWORD PTR [esp+0x14],ecx
 804b10a:	7d 40                	jge    804b14c
 804b10c:	89 c2                	mov    edx,eax
 804b10e:	c1 ea 1f             	shr    edx,0x1f
 804b111:	01 d0                	add    eax,edx
 804b113:	89 ea                	mov    edx,ebp
 804b115:	d1 f8                	sar    eax,1
 804b117:	01 e8                	add    eax,ebp
 804b119:	89 c1                	mov    ecx,eax
 804b11b:	89 44 24 18          	mov    DWORD PTR [esp+0x18],eax
 804b11f:	89 f8                	mov    eax,edi
 804b121:	e8 aa fe ff ff       	call   804afd0
 804b126:	8b 44 24 18          	mov    eax,DWORD PTR [esp+0x18]
 804b12a:	8b 4c 24 14          	mov    ecx,DWORD PTR [esp+0x14]
 804b12e:	8d 50 01             	lea    edx,[eax+0x1]
 804b131:	89 f8                	mov    eax,edi
 804b133:	e8 98 fe ff ff       	call   804afd0
 804b138:	8b 54 24 14          	mov    edx,DWORD PTR [esp+0x14]
 804b13c:	89 f8                	mov    eax,edi
 804b13e:	8b 4c 24 18          	mov    ecx,DWORD PTR [esp+0x18]
 804b142:	89 14 24             	mov    DWORD PTR [esp],edx
 804b145:	89 ea                	mov    edx,ebp
 804b147:	e8 e4 eb ff ff       	call   8049d30
 804b14c:	8b 44 24 14          	mov    eax,DWORD PTR [esp+0x14]
 804b150:	83 c0 01             	add    eax,0x1
 804b153:	39 c6                	cmp    esi,eax
 804b155:	89 44 24 18          	mov    DWORD PTR [esp+0x18],eax
 804b159:	7e 42                	jle    804b19d
 804b15b:	89 c1                	mov    ecx,eax
 804b15d:	89 f0                	mov    eax,esi
 804b15f:	29 c8                	sub    eax,ecx
 804b161:	89 c2                	mov    edx,eax
 804b163:	c1 ea 1f             	shr    edx,0x1f
 804b166:	01 d0                	add    eax,edx
 804b168:	89 ca                	mov    edx,ecx
 804b16a:	d1 f8                	sar    eax,1
 804b16c:	01 c8                	add    eax,ecx
 804b16e:	89 c1                	mov    ecx,eax
 804b170:	89 44 24 1c          	mov    DWORD PTR [esp+0x1c],eax
 804b174:	89 f8                	mov    eax,edi
 804b176:	e8 55 fe ff ff       	call   804afd0
 804b17b:	8b 44 24 1c          	mov    eax,DWORD PTR [esp+0x1c]
 804b17f:	89 f1                	mov    ecx,esi
 804b181:	8d 50 01             	lea    edx,[eax+0x1]
 804b184:	89 f8                	mov    eax,edi
 804b186:	e8 45 fe ff ff       	call   804afd0
 804b18b:	8b 4c 24 1c          	mov    ecx,DWORD PTR [esp+0x1c]
 804b18f:	89 f8                	mov    eax,edi
 804b191:	8b 54 24 18          	mov    edx,DWORD PTR [esp+0x18]
 804b195:	89 34 24             	mov    DWORD PTR [esp],esi
 804b198:	e8 93 eb ff ff       	call   8049d30
 804b19d:	8b 4c 24 14          	mov    ecx,DWORD PTR [esp+0x14]
 804b1a1:	89 ea                	mov    edx,ebp
 804b1a3:	89 f8                	mov    eax,edi
 804b1a5:	89 34 24             	mov    DWORD PTR [esp],esi
 804b1a8:	e8 83 eb ff ff       	call   8049d30
 804b1ad:	e9 5f fe ff ff       	jmp    804b011
 804b1b2:	8d b4 26 00 00 00 00 	lea    esi,[esi]
 804b1b9:	8d bc 27 00 00 00 00 	lea    edi,[edi]

0804b1c0 <MergeSubSort_TwoArray_TwoKey>:
 804b1c0:	55                   	push   ebp
 804b1c1:	57                   	push   edi
 804b1c2:	56                   	push   esi
 804b1c3:	53                   	push   ebx
 804b1c4:	89 cb                	mov    ebx,ecx
 804b1c6:	83 ec 2c             	sub    esp,0x2c
 804b1c9:	3b 4c 24 40          	cmp    ecx,DWORD PTR [esp+0x40]
 804b1cd:	7c 09                	jl     804b1d8
 804b1cf:	83 c4 2c             	add    esp,0x2c
 804b1d2:	5b                   	pop    ebx
 804b1d3:	5e                   	pop    esi
 804b1d4:	5f                   	pop    edi
 804b1d5:	5d                   	pop    ebp
 804b1d6:	c3                   	ret
 804b1d7:	90                   	nop
 804b1d8:	89 c6                	mov    esi,eax
 804b1da:	8b 44 24 40          	mov    eax,DWORD PTR [esp+0x40]
 804b1de:	89 d7                	mov    edi,edx
 804b1e0:	29 c8                	sub    eax,ecx
 804b1e2:	89 c5                	mov    ebp,eax
 804b1e4:	c1 ed 1f             	shr    ebp,0x1f
 804b1e7:	01 e8                	add    eax,ebp
 804b1e9:	d1 f8                	sar    eax,1
 804b1eb:	8d 0c 08             	lea    ecx,[eax+ecx]
 804b1ee:	39 cb                	cmp    ebx,ecx
 804b1f0:	89 4c 24 10          	mov    DWORD PTR [esp+0x10],ecx
 804b1f4:	7c 3a                	jl     804b230
 804b1f6:	8b 44 24 10          	mov    eax,DWORD PTR [esp+0x10]
 804b1fa:	8d 68 01             	lea    ebp,[eax+0x1]
 804b1fd:	39 6c 24 40          	cmp    DWORD PTR [esp+0x40],ebp
 804b201:	0f 8f 0e 01 00 00    	jg     804b315
 804b207:	8b 44 24 40          	mov    eax,DWORD PTR [esp+0x40]
 804b20b:	89 d9                	mov    ecx,ebx
 804b20d:	89 fa                	mov    edx,edi
 804b20f:	89 44 24 04          	mov    DWORD PTR [esp+0x4],eax
 804b213:	8b 44 24 10          	mov    eax,DWORD PTR [esp+0x10]
 804b217:	89 04 24             	mov    DWORD PTR [esp],eax
 804b21a:	89 f0                	mov    eax,esi
 804b21c:	e8 ef f3 ff ff       	call   804a610
 804b221:	83 c4 2c             	add    esp,0x2c
 804b224:	5b                   	pop    ebx
 804b225:	5e                   	pop    esi
 804b226:	5f                   	pop    edi
 804b227:	5d                   	pop    ebp
 804b228:	c3                   	ret
 804b229:	8d b4 26 00 00 00 00 	lea    esi,[esi]
 804b230:	89 c5                	mov    ebp,eax
 804b232:	c1 ed 1f             	shr    ebp,0x1f
 804b235:	01 e8                	add    eax,ebp
 804b237:	d1 f8                	sar    eax,1
 804b239:	8d 14 03             	lea    edx,[ebx+eax]
 804b23c:	39 d3                	cmp    ebx,edx
 804b23e:	89 54 24 14          	mov    DWORD PTR [esp+0x14],edx
 804b242:	7d 43                	jge    804b287
 804b244:	89 c5                	mov    ebp,eax
 804b246:	89 d9                	mov    ecx,ebx
 804b248:	c1 ed 1f             	shr    ebp,0x1f
 804b24b:	89 fa                	mov    edx,edi
 804b24d:	01 e8                	add    eax,ebp
 804b24f:	d1 f8                	sar    eax,1
 804b251:	8d 2c 03             	lea    ebp,[ebx+eax]
 804b254:	89 f0                	mov    eax,esi
 804b256:	89 2c 24             	mov    DWORD PTR [esp],ebp
 804b259:	e8 62 ff ff ff       	call   804b1c0
 804b25e:	8b 44 24 14          	mov    eax,DWORD PTR [esp+0x14]
 804b262:	8d 4d 01             	lea    ecx,[ebp+0x1]
 804b265:	89 fa                	mov    edx,edi
 804b267:	89 04 24             	mov    DWORD PTR [esp],eax
 804b26a:	89 f0                	mov    eax,esi
 804b26c:	e8 4f ff ff ff       	call   804b1c0
 804b271:	8b 44 24 14          	mov    eax,DWORD PTR [esp+0x14]
 804b275:	89 d9                	mov    ecx,ebx
 804b277:	89 2c 24             	mov    DWORD PTR [esp],ebp
 804b27a:	89 fa                	mov    edx,edi
 804b27c:	89 44 24 04          	mov    DWORD PTR [esp+0x4],eax
 804b280:	89 f0                	mov    eax,esi
 804b282:	e8 89 f3 ff ff       	call   804a610
 804b287:	8b 44 24 14          	mov    eax,DWORD PTR [esp+0x14]
 804b28b:	8d 68 01             	lea    ebp,[eax+0x1]
 804b28e:	39 6c 24 10          	cmp    DWORD PTR [esp+0x10],ebp
 804b292:	7e 56                	jle    804b2ea
 804b294:	8b 44 24 10          	mov    eax,DWORD PTR [esp+0x10]
 804b298:	89 e9                	mov    ecx,ebp
 804b29a:	29 e8                	sub    eax,ebp
 804b29c:	89 c2                	mov    edx,eax
 804b29e:	c1 ea 1f             	shr    edx,0x1f
 804b2a1:	01 d0                	add    eax,edx
 804b2a3:	d1 f8                	sar    eax,1
 804b2a5:	8d 54 05 00          	lea    edx,[ebp+eax]
 804b2a9:	89 f0                	mov    eax,esi
 804b2ab:	89 54 24 18          	mov    DWORD PTR [esp+0x18],edx
 804b2af:	89 14 24             	mov    DWORD PTR [esp],edx
 804b2b2:	89 fa                	mov    edx,edi
 804b2b4:	e8 07 ff ff ff       	call   804b1c0
 804b2b9:	8b 54 24 18          	mov    edx,DWORD PTR [esp+0x18]
 804b2bd:	8b 44 24 10          	mov    eax,DWORD PTR [esp+0x10]
 804b2c1:	8d 4a 01             	lea    ecx,[edx+0x1]
 804b2c4:	89 fa                	mov    edx,edi
 804b2c6:	89 04 24             	mov    DWORD PTR [esp],eax
 804b2c9:	89 f0                	mov    eax,esi
 804b2cb:	e8 f0 fe ff ff       	call   804b1c0
 804b2d0:	8b 44 24 10          	mov    eax,DWORD PTR [esp+0x10]
 804b2d4:	89 e9                	mov    ecx,ebp
 804b2d6:	8b 54 24 18          	mov    edx,DWORD PTR [esp+0x18]
 804b2da:	89 44 24 04          	mov    DWORD PTR [esp+0x4],eax
 804b2de:	89 f0                	mov    eax,esi
 804b2e0:	89 14 24             	mov    DWORD PTR [esp],edx
 804b2e3:	89 fa                	mov    edx,edi
 804b2e5:	e8 26 f3 ff ff       	call   804a610
 804b2ea:	8b 44 24 10          	mov    eax,DWORD PTR [esp+0x10]
 804b2ee:	89 d9                	mov    ecx,ebx
 804b2f0:	89 fa                	mov    edx,edi
 804b2f2:	89 44 24 04          	mov    DWORD PTR [esp+0x4],eax
 804b2f6:	8b 44 24 14          	mov    eax,DWORD PTR [esp+0x14]
 804b2fa:	89 04 24             	mov    DWORD PTR [esp],eax
 804b2fd:	89 f0                	mov    eax,esi
 804b2ff:	e8 0c f3 ff ff       	call   804a610
 804b304:	8b 44 24 10          	mov    eax,DWORD PTR [esp+0x10]
 804b308:	8d 68 01             	lea    ebp,[eax+0x1]
 804b30b:	39 6c 24 40          	cmp    DWORD PTR [esp+0x40],ebp
 804b30f:	0f 8e f2 fe ff ff    	jle    804b207
 804b315:	8b 44 24 40          	mov    eax,DWORD PTR [esp+0x40]
 804b319:	29 e8                	sub    eax,ebp
 804b31b:	89 c2                	mov    edx,eax
 804b31d:	c1 ea 1f             	shr    edx,0x1f
 804b320:	01 d0                	add    eax,edx
 804b322:	d1 f8                	sar    eax,1
 804b324:	8d 54 05 00          	lea    edx,[ebp+eax]
 804b328:	39 d5                	cmp    ebp,edx
 804b32a:	89 54 24 14          	mov    DWORD PTR [esp+0x14],edx
 804b32e:	7d 4e                	jge    804b37e
 804b330:	89 c2                	mov    edx,eax
 804b332:	89 e9                	mov    ecx,ebp
 804b334:	c1 ea 1f             	shr    edx,0x1f
 804b337:	01 d0                	add    eax,edx
 804b339:	89 fa                	mov    edx,edi
 804b33b:	d1 f8                	sar    eax,1
 804b33d:	01 e8                	add    eax,ebp
 804b33f:	89 44 24 18          	mov    DWORD PTR [esp+0x18],eax
 804b343:	89 04 24             	mov    DWORD PTR [esp],eax
 804b346:	89 f0                	mov    eax,esi
 804b348:	e8 73 fe ff ff       	call   804b1c0
 804b34d:	8b 44 24 18          	mov    eax,DWORD PTR [esp+0x18]
 804b351:	8b 54 24 14          	mov    edx,DWORD PTR [esp+0x14]
 804b355:	8d 48 01             	lea    ecx,[eax+0x1]
 804b358:	89 f0                	mov    eax,esi
 804b35a:	89 14 24             	mov    DWORD PTR [esp],edx
 804b35d:	89 fa                	mov    edx,edi
 804b35f:	e8 5c fe ff ff       	call   804b1c0
 804b364:	8b 54 24 14          	mov    edx,DWORD PTR [esp+0x14]
 804b368:	89 e9                	mov    ecx,ebp
 804b36a:	8b 44 24 18          	mov    eax,DWORD PTR [esp+0x18]
 804b36e:	89 54 24 04          	mov    DWORD PTR [esp+0x4],edx
 804b372:	89 fa                	mov    edx,edi
 804b374:	89 04 24             	mov    DWORD PTR [esp],eax
 804b377:	89 f0                	mov    eax,esi
 804b379:	e8 92 f2 ff ff       	call   804a610
 804b37e:	8b 44 24 14          	mov    eax,DWORD PTR [esp+0x14]
 804b382:	83 c0 01             	add    eax,0x1
 804b385:	39 44 24 40          	cmp    DWORD PTR [esp+0x40],eax
 804b389:	89 44 24 18          	mov    DWORD PTR [esp+0x18],eax
 804b38d:	7e 56                	jle    804b3e5
 804b38f:	89 c1                	mov    ecx,eax
 804b391:	8b 44 24 40          	mov    eax,DWORD PTR [esp+0x40]
 804b395:	29 c8                	sub    eax,ecx
 804b397:	89 c2                	mov    edx,eax
 804b399:	c1 ea 1f             	shr    edx,0x1f
 804b39c:	01 d0                	add    eax,edx
 804b39e:	89 fa                	mov    edx,edi
 804b3a0:	d1 f8                	sar    eax,1
 804b3a2:	01 c8                	add    eax,ecx
 804b3a4:	89 44 24 1c          	mov    DWORD PTR [esp+0x1c],eax
 804b3a8:	89 04 24             	mov    DWORD PTR [esp],eax
 804b3ab:	89 f0                	mov    eax,esi
 804b3ad:	e8 0e fe ff ff       	call   804b1c0
 804b3b2:	8b 44 24 1c          	mov    eax,DWORD PTR [esp+0x1c]
 804b3b6:	8b 54 24 40          	mov    edx,DWORD PTR [esp+0x40]
 804b3ba:	8d 48 01             	lea    ecx,[eax+0x1]
 804b3bd:	89 f0                	mov    eax,esi
 804b3bf:	89 14 24             	mov    DWORD PTR [esp],edx
 804b3c2:	89 fa                	mov    edx,edi
 804b3c4:	e8 f7 fd ff ff       	call   804b1c0
 804b3c9:	8b 54 24 40          	mov    edx,DWORD PTR [esp+0x40]
 804b3cd:	8b 44 24 1c          	mov    eax,DWORD PTR [esp+0x1c]
 804b3d1:	8b 4c 24 18          	mov    ecx,DWORD PTR [esp+0x18]
 804b3d5:	89 54 24 04          	mov    DWORD PTR [esp+0x4],edx
 804b3d9:	89 fa                	mov    edx,edi
 804b3db:	89 04 24             	mov    DWORD PTR [esp],eax
 804b3de:	89 f0                	mov    eax,esi
 804b3e0:	e8 2b f2 ff ff       	call   804a610
 804b3e5:	8b 44 24 40          	mov    eax,DWORD PTR [esp+0x40]
 804b3e9:	89 e9                	mov    ecx,ebp
 804b3eb:	89 fa                	mov    edx,edi
 804b3ed:	89 44 24 04          	mov    DWORD PTR [esp+0x4],eax
 804b3f1:	8b 44 24 14          	mov    eax,DWORD PTR [esp+0x14]
 804b3f5:	89 04 24             	mov    DWORD PTR [esp],eax
 804b3f8:	89 f0                	mov    eax,esi
 804b3fa:	e8 11 f2 ff ff       	call   804a610
 804b3ff:	e9 03 fe ff ff       	jmp    804b207
 804b404:	8d b6 00 00 00 00    	lea    esi,[esi]
 804b40a:	8d bf 00 00 00 00    	lea    edi,[edi]

0804b410 <MergeSubSort_TwoArray>:
 804b410:	55                   	push   ebp
 804b411:	57                   	push   edi
 804b412:	56                   	push   esi
 804b413:	53                   	push   ebx
 804b414:	89 cb                	mov    ebx,ecx
 804b416:	83 ec 2c             	sub    esp,0x2c
 804b419:	3b 4c 24 40          	cmp    ecx,DWORD PTR [esp+0x40]
 804b41d:	7c 09                	jl     804b428
 804b41f:	83 c4 2c             	add    esp,0x2c
 804b422:	5b                   	pop    ebx
 804b423:	5e                   	pop    esi
 804b424:	5f                   	pop    edi
 804b425:	5d                   	pop    ebp
 804b426:	c3                   	ret
 804b427:	90                   	nop
 804b428:	89 c6                	mov    esi,eax
 804b42a:	8b 44 24 40          	mov    eax,DWORD PTR [esp+0x40]
 804b42e:	89 d7                	mov    edi,edx
 804b430:	29 c8                	sub    eax,ecx
 804b432:	89 c5                	mov    ebp,eax
 804b434:	c1 ed 1f             	shr    ebp,0x1f
 804b437:	01 e8                	add    eax,ebp
 804b439:	d1 f8                	sar    eax,1
 804b43b:	8d 0c 08             	lea    ecx,[eax+ecx]
 804b43e:	39 cb                	cmp    ebx,ecx
 804b440:	89 4c 24 10          	mov    DWORD PTR [esp+0x10],ecx
 804b444:	7c 3a                	jl     804b480
 804b446:	8b 44 24 10          	mov    eax,DWORD PTR [esp+0x10]
 804b44a:	8d 68 01             	lea    ebp,[eax+0x1]
 804b44d:	39 6c 24 40          	cmp    DWORD PTR [esp+0x40],ebp
 804b451:	0f 8f 0e 01 00 00    	jg     804b565
 804b457:	8b 44 24 40          	mov    eax,DWORD PTR [esp+0x40]
 804b45b:	89 d9                	mov    ecx,ebx
 804b45d:	89 fa                	mov    edx,edi
 804b45f:	89 44 24 04          	mov    DWORD PTR [esp+0x4],eax
 804b463:	8b 44 24 10          	mov    eax,DWORD PTR [esp+0x10]
 804b467:	89 04 24             	mov    DWORD PTR [esp],eax
 804b46a:	89 f0                	mov    eax,esi
 804b46c:	e8 2f ec ff ff       	call   804a0a0
 804b471:	83 c4 2c             	add    esp,0x2c
 804b474:	5b                   	pop    ebx
 804b475:	5e                   	pop    esi
 804b476:	5f                   	pop    edi
 804b477:	5d                   	pop    ebp
 804b478:	c3                   	ret
 804b479:	8d b4 26 00 00 00 00 	lea    esi,[esi]
 804b480:	89 c5                	mov    ebp,eax
 804b482:	c1 ed 1f             	shr    ebp,0x1f
 804b485:	01 e8                	add    eax,ebp
 804b487:	d1 f8                	sar    eax,1
 804b489:	8d 14 03             	lea    edx,[ebx+eax]
 804b48c:	39 d3                	cmp    ebx,edx
 804b48e:	89 54 24 14          	mov    DWORD PTR [esp+0x14],edx
 804b492:	7d 43                	jge    804b4d7
 804b494:	89 c5                	mov    ebp,eax
 804b496:	89 d9                	mov    ecx,ebx
 804b498:	c1 ed 1f             	shr    ebp,0x1f
 804b49b:	89 fa                	mov    edx,edi
 804b49d:	01 e8                	add    eax,ebp
 804b49f:	d1 f8                	sar    eax,1
 804b4a1:	8d 2c 03             	lea    ebp,[ebx+eax]
 804b4a4:	89 f0                	mov    eax,esi
 804b4a6:	89 2c 24             	mov    DWORD PTR [esp],ebp
 804b4a9:	e8 62 ff ff ff       	call   804b410
 804b4ae:	8b 44 24 14          	mov    eax,DWORD PTR [esp+0x14]
 804b4b2:	8d 4d 01             	lea    ecx,[ebp+0x1]
 804b4b5:	89 fa                	mov    edx,edi
 804b4b7:	89 04 24             	mov    DWORD PTR [esp],eax
 804b4ba:	89 f0                	mov    eax,esi
 804b4bc:	e8 4f ff ff ff       	call   804b410
 804b4c1:	8b 44 24 14          	mov    eax,DWORD PTR [esp+0x14]
 804b4c5:	89 d9                	mov    ecx,ebx
 804b4c7:	89 2c 24             	mov    DWORD PTR [esp],ebp
 804b4ca:	89 fa                	mov    edx,edi
 804b4cc:	89 44 24 04          	mov    DWORD PTR [esp+0x4],eax
 804b4d0:	89 f0                	mov    eax,esi
 804b4d2:	e8 c9 eb ff ff       	call   804a0a0
 804b4d7:	8b 44 24 14          	mov    eax,DWORD PTR [esp+0x14]
 804b4db:	8d 68 01             	lea    ebp,[eax+0x1]
 804b4de:	39 6c 24 10          	cmp    DWORD PTR [esp+0x10],ebp
 804b4e2:	7e 56                	jle    804b53a
 804b4e4:	8b 44 24 10          	mov    eax,DWORD PTR [esp+0x10]
 804b4e8:	89 e9                	mov    ecx,ebp
 804b4ea:	29 e8                	sub    eax,ebp
 804b4ec:	89 c2                	mov    edx,eax
 804b4ee:	c1 ea 1f             	shr    edx,0x1f
 804b4f1:	01 d0                	add    eax,edx
 804b4f3:	d1 f8                	sar    eax,1
 804b4f5:	8d 54 05 00          	lea    edx,[ebp+eax]
 804b4f9:	89 f0                	mov    eax,esi
 804b4fb:	89 54 24 18          	mov    DWORD PTR [esp+0x18],edx
 804b4ff:	89 14 24             	mov    DWORD PTR [esp],edx
 804b502:	89 fa                	mov    edx,edi
 804b504:	e8 07 ff ff ff       	call   804b410
 804b509:	8b 54 24 18          	mov    edx,DWORD PTR [esp+0x18]
 804b50d:	8b 44 24 10          	mov    eax,DWORD PTR [esp+0x10]
 804b511:	8d 4a 01             	lea    ecx,[edx+0x1]
 804b514:	89 fa                	mov    edx,edi
 804b516:	89 04 24             	mov    DWORD PTR [esp],eax
 804b519:	89 f0                	mov    eax,esi
 804b51b:	e8 f0 fe ff ff       	call   804b410
 804b520:	8b 44 24 10          	mov    eax,DWORD PTR [esp+0x10]
 804b524:	89 e9                	mov    ecx,ebp
 804b526:	8b 54 24 18          	mov    edx,DWORD PTR [esp+0x18]
 804b52a:	89 44 24 04          	mov    DWORD PTR [esp+0x4],eax
 804b52e:	89 f0                	mov    eax,esi
 804b530:	89 14 24             	mov    DWORD PTR [esp],edx
 804b533:	89 fa                	mov    edx,edi
 804b535:	e8 66 eb ff ff       	call   804a0a0
 804b53a:	8b 44 24 10          	mov    eax,DWORD PTR [esp+0x10]
 804b53e:	89 d9                	mov    ecx,ebx
 804b540:	89 fa                	mov    edx,edi
 804b542:	89 44 24 04          	mov    DWORD PTR [esp+0x4],eax
 804b546:	8b 44 24 14          	mov    eax,DWORD PTR [esp+0x14]
 804b54a:	89 04 24             	mov    DWORD PTR [esp],eax
 804b54d:	89 f0                	mov    eax,esi
 804b54f:	e8 4c eb ff ff       	call   804a0a0
 804b554:	8b 44 24 10          	mov    eax,DWORD PTR [esp+0x10]
 804b558:	8d 68 01             	lea    ebp,[eax+0x1]
 804b55b:	39 6c 24 40          	cmp    DWORD PTR [esp+0x40],ebp
 804b55f:	0f 8e f2 fe ff ff    	jle    804b457
 804b565:	8b 44 24 40          	mov    eax,DWORD PTR [esp+0x40]
 804b569:	29 e8                	sub    eax,ebp
 804b56b:	89 c2                	mov    edx,eax
 804b56d:	c1 ea 1f             	shr    edx,0x1f
 804b570:	01 d0                	add    eax,edx
 804b572:	d1 f8                	sar    eax,1
 804b574:	8d 54 05 00          	lea    edx,[ebp+eax]
 804b578:	39 d5                	cmp    ebp,edx
 804b57a:	89 54 24 14          	mov    DWORD PTR [esp+0x14],edx
 804b57e:	7d 4e                	jge    804b5ce
 804b580:	89 c2                	mov    edx,eax
 804b582:	89 e9                	mov    ecx,ebp
 804b584:	c1 ea 1f             	shr    edx,0x1f
 804b587:	01 d0                	add    eax,edx
 804b589:	89 fa                	mov    edx,edi
 804b58b:	d1 f8                	sar    eax,1
 804b58d:	01 e8                	add    eax,ebp
 804b58f:	89 44 24 18          	mov    DWORD PTR [esp+0x18],eax
 804b593:	89 04 24             	mov    DWORD PTR [esp],eax
 804b596:	89 f0                	mov    eax,esi
 804b598:	e8 73 fe ff ff       	call   804b410
 804b59d:	8b 44 24 18          	mov    eax,DWORD PTR [esp+0x18]
 804b5a1:	8b 54 24 14          	mov    edx,DWORD PTR [esp+0x14]
 804b5a5:	8d 48 01             	lea    ecx,[eax+0x1]
 804b5a8:	89 f0                	mov    eax,esi
 804b5aa:	89 14 24             	mov    DWORD PTR [esp],edx
 804b5ad:	89 fa                	mov    edx,edi
 804b5af:	e8 5c fe ff ff       	call   804b410
 804b5b4:	8b 54 24 14          	mov    edx,DWORD PTR [esp+0x14]
 804b5b8:	89 e9                	mov    ecx,ebp
 804b5ba:	8b 44 24 18          	mov    eax,DWORD PTR [esp+0x18]
 804b5be:	89 54 24 04          	mov    DWORD PTR [esp+0x4],edx
 804b5c2:	89 fa                	mov    edx,edi
 804b5c4:	89 04 24             	mov    DWORD PTR [esp],eax
 804b5c7:	89 f0                	mov    eax,esi
 804b5c9:	e8 d2 ea ff ff       	call   804a0a0
 804b5ce:	8b 44 24 14          	mov    eax,DWORD PTR [esp+0x14]
 804b5d2:	83 c0 01             	add    eax,0x1
 804b5d5:	39 44 24 40          	cmp    DWORD PTR [esp+0x40],eax
 804b5d9:	89 44 24 18          	mov    DWORD PTR [esp+0x18],eax
 804b5dd:	7e 56                	jle    804b635
 804b5df:	89 c1                	mov    ecx,eax
 804b5e1:	8b 44 24 40          	mov    eax,DWORD PTR [esp+0x40]
 804b5e5:	29 c8                	sub    eax,ecx
 804b5e7:	89 c2                	mov    edx,eax
 804b5e9:	c1 ea 1f             	shr    edx,0x1f
 804b5ec:	01 d0                	add    eax,edx
 804b5ee:	89 fa                	mov    edx,edi
 804b5f0:	d1 f8                	sar    eax,1
 804b5f2:	01 c8                	add    eax,ecx
 804b5f4:	89 44 24 1c          	mov    DWORD PTR [esp+0x1c],eax
 804b5f8:	89 04 24             	mov    DWORD PTR [esp],eax
 804b5fb:	89 f0                	mov    eax,esi
 804b5fd:	e8 0e fe ff ff       	call   804b410
 804b602:	8b 44 24 1c          	mov    eax,DWORD PTR [esp+0x1c]
 804b606:	8b 54 24 40          	mov    edx,DWORD PTR [esp+0x40]
 804b60a:	8d 48 01             	lea    ecx,[eax+0x1]
 804b60d:	89 f0                	mov    eax,esi
 804b60f:	89 14 24             	mov    DWORD PTR [esp],edx
 804b612:	89 fa                	mov    edx,edi
 804b614:	e8 f7 fd ff ff       	call   804b410
 804b619:	8b 54 24 40          	mov    edx,DWORD PTR [esp+0x40]
 804b61d:	8b 44 24 1c          	mov    eax,DWORD PTR [esp+0x1c]
 804b621:	8b 4c 24 18          	mov    ecx,DWORD PTR [esp+0x18]
 804b625:	89 54 24 04          	mov    DWORD PTR [esp+0x4],edx
 804b629:	89 fa                	mov    edx,edi
 804b62b:	89 04 24             	mov    DWORD PTR [esp],eax
 804b62e:	89 f0                	mov    eax,esi
 804b630:	e8 6b ea ff ff       	call   804a0a0
 804b635:	8b 44 24 40          	mov    eax,DWORD PTR [esp+0x40]
 804b639:	89 e9                	mov    ecx,ebp
 804b63b:	89 fa                	mov    edx,edi
 804b63d:	89 44 24 04          	mov    DWORD PTR [esp+0x4],eax
 804b641:	8b 44 24 14          	mov    eax,DWORD PTR [esp+0x14]
 804b645:	89 04 24             	mov    DWORD PTR [esp],eax
 804b648:	89 f0                	mov    eax,esi
 804b64a:	e8 51 ea ff ff       	call   804a0a0
 804b64f:	e9 03 fe ff ff       	jmp    804b457
 804b654:	8d b6 00 00 00 00    	lea    esi,[esi]
 804b65a:	8d bf 00 00 00 00    	lea    edi,[edi]

0804b660 <MergeSort_Int>:
 804b660:	55                   	push   ebp
 804b661:	57                   	push   edi
 804b662:	56                   	push   esi
 804b663:	53                   	push   ebx
 804b664:	83 ec 1c             	sub    esp,0x1c
 804b667:	8b 7c 24 34          	mov    edi,DWORD PTR [esp+0x34]
 804b66b:	8b 44 24 38          	mov    eax,DWORD PTR [esp+0x38]
 804b66f:	8b 6c 24 30          	mov    ebp,DWORD PTR [esp+0x30]
 804b673:	8d 1c bd 00 00 00 00 	lea    ebx,[edi*4]
 804b67a:	89 1c 24             	mov    DWORD PTR [esp],ebx
 804b67d:	a3 c8 60 05 08       	mov    ds:0x80560c8,eax
 804b682:	e8 79 ce ff ff       	call   8048500
 804b687:	89 1c 24             	mov    DWORD PTR [esp],ebx
 804b68a:	89 c6                	mov    esi,eax
 804b68c:	a3 d8 60 05 08       	mov    ds:0x80560d8,eax
 804b691:	e8 6a ce ff ff       	call   8048500
 804b696:	8d 4f ff             	lea    ecx,[edi-0x1]
 804b699:	31 d2                	xor    edx,edx
 804b69b:	89 c3                	mov    ebx,eax
 804b69d:	a3 d4 60 05 08       	mov    ds:0x80560d4,eax
 804b6a2:	89 e8                	mov    eax,ebp
 804b6a4:	e8 47 f5 ff ff       	call   804abf0
 804b6a9:	89 34 24             	mov    DWORD PTR [esp],esi
 804b6ac:	e8 2f ce ff ff       	call   80484e0
 804b6b1:	89 5c 24 30          	mov    DWORD PTR [esp+0x30],ebx
 804b6b5:	83 c4 1c             	add    esp,0x1c
 804b6b8:	5b                   	pop    ebx
 804b6b9:	5e                   	pop    esi
 804b6ba:	5f                   	pop    edi
 804b6bb:	5d                   	pop    ebp
 804b6bc:	e9 1f ce ff ff       	jmp    80484e0
 804b6c1:	eb 0d                	jmp    804b6d0
 804b6c3:	90                   	nop
 804b6c4:	90                   	nop
 804b6c5:	90                   	nop
 804b6c6:	90                   	nop
 804b6c7:	90                   	nop
 804b6c8:	90                   	nop
 804b6c9:	90                   	nop
 804b6ca:	90                   	nop
 804b6cb:	90                   	nop
 804b6cc:	90                   	nop
 804b6cd:	90                   	nop
 804b6ce:	90                   	nop
 804b6cf:	90                   	nop

0804b6d0 <MergeSort_Block>:
 804b6d0:	55                   	push   ebp
 804b6d1:	57                   	push   edi
 804b6d2:	56                   	push   esi
 804b6d3:	53                   	push   ebx
 804b6d4:	83 ec 2c             	sub    esp,0x2c
 804b6d7:	8b 5c 24 44          	mov    ebx,DWORD PTR [esp+0x44]
 804b6db:	8b 44 24 50          	mov    eax,DWORD PTR [esp+0x50]
 804b6df:	8b 54 24 4c          	mov    edx,DWORD PTR [esp+0x4c]
 804b6e3:	8b 6c 24 40          	mov    ebp,DWORD PTR [esp+0x40]
 804b6e7:	8d 34 9d 00 00 00 00 	lea    esi,[ebx*4]
 804b6ee:	83 eb 01             	sub    ebx,0x1
 804b6f1:	0f af f0             	imul   esi,eax
 804b6f4:	89 15 c8 60 05 08    	mov    DWORD PTR ds:0x80560c8,edx
 804b6fa:	8b 54 24 48          	mov    edx,DWORD PTR [esp+0x48]
 804b6fe:	a3 68 60 05 08       	mov    ds:0x8056068,eax
 804b703:	89 34 24             	mov    DWORD PTR [esp],esi
 804b706:	89 15 bc 60 05 08    	mov    DWORD PTR ds:0x80560bc,edx
 804b70c:	e8 ef cd ff ff       	call   8048500
 804b711:	89 34 24             	mov    DWORD PTR [esp],esi
 804b714:	89 c7                	mov    edi,eax
 804b716:	a3 d8 60 05 08       	mov    ds:0x80560d8,eax
 804b71b:	e8 e0 cd ff ff       	call   8048500
 804b720:	85 db                	test   ebx,ebx
 804b722:	89 c6                	mov    esi,eax
 804b724:	a3 d4 60 05 08       	mov    ds:0x80560d4,eax
 804b729:	7f 1d                	jg     804b748
 804b72b:	89 3c 24             	mov    DWORD PTR [esp],edi
 804b72e:	e8 ad cd ff ff       	call   80484e0
 804b733:	89 74 24 40          	mov    DWORD PTR [esp+0x40],esi
 804b737:	83 c4 2c             	add    esp,0x2c
 804b73a:	5b                   	pop    ebx
 804b73b:	5e                   	pop    esi
 804b73c:	5f                   	pop    edi
 804b73d:	5d                   	pop    ebp
 804b73e:	e9 9d cd ff ff       	jmp    80484e0
 804b743:	90                   	nop
 804b744:	8d 74 26 00          	lea    esi,[esi]
 804b748:	89 d8                	mov    eax,ebx
 804b74a:	d1 f8                	sar    eax,1
 804b74c:	89 44 24 0c          	mov    DWORD PTR [esp+0xc],eax
 804b750:	75 16                	jne    804b768
 804b752:	8b 4c 24 0c          	mov    ecx,DWORD PTR [esp+0xc]
 804b756:	31 d2                	xor    edx,edx
 804b758:	89 e8                	mov    eax,ebp
 804b75a:	89 1c 24             	mov    DWORD PTR [esp],ebx
 804b75d:	e8 be e2 ff ff       	call   8049a20
 804b762:	eb c7                	jmp    804b72b
 804b764:	8d 74 26 00          	lea    esi,[esi]
 804b768:	89 d8                	mov    eax,ebx
 804b76a:	c1 f8 02             	sar    eax,0x2
 804b76d:	85 c0                	test   eax,eax
 804b76f:	89 44 24 10          	mov    DWORD PTR [esp+0x10],eax
 804b773:	0f 85 e7 00 00 00    	jne    804b860
 804b779:	8b 44 24 0c          	mov    eax,DWORD PTR [esp+0xc]
 804b77d:	31 d2                	xor    edx,edx
 804b77f:	8b 4c 24 10          	mov    ecx,DWORD PTR [esp+0x10]
 804b783:	89 04 24             	mov    DWORD PTR [esp],eax
 804b786:	89 e8                	mov    eax,ebp
 804b788:	e8 93 e2 ff ff       	call   8049a20
 804b78d:	8b 44 24 0c          	mov    eax,DWORD PTR [esp+0xc]
 804b791:	83 c0 01             	add    eax,0x1
 804b794:	39 c3                	cmp    ebx,eax
 804b796:	89 c1                	mov    ecx,eax
 804b798:	89 44 24 14          	mov    DWORD PTR [esp+0x14],eax
 804b79c:	7e b4                	jle    804b752
 804b79e:	89 d8                	mov    eax,ebx
 804b7a0:	29 c8                	sub    eax,ecx
 804b7a2:	89 c2                	mov    edx,eax
 804b7a4:	c1 ea 1f             	shr    edx,0x1f
 804b7a7:	01 d0                	add    eax,edx
 804b7a9:	d1 f8                	sar    eax,1
 804b7ab:	8d 14 01             	lea    edx,[ecx+eax]
 804b7ae:	39 d1                	cmp    ecx,edx
 804b7b0:	89 54 24 10          	mov    DWORD PTR [esp+0x10],edx
 804b7b4:	7d 42                	jge    804b7f8
 804b7b6:	89 c2                	mov    edx,eax
 804b7b8:	c1 ea 1f             	shr    edx,0x1f
 804b7bb:	01 d0                	add    eax,edx
 804b7bd:	89 ca                	mov    edx,ecx
 804b7bf:	d1 f8                	sar    eax,1
 804b7c1:	01 c8                	add    eax,ecx
 804b7c3:	89 c1                	mov    ecx,eax
 804b7c5:	89 44 24 18          	mov    DWORD PTR [esp+0x18],eax
 804b7c9:	89 e8                	mov    eax,ebp
 804b7cb:	e8 10 f6 ff ff       	call   804ade0
 804b7d0:	8b 44 24 18          	mov    eax,DWORD PTR [esp+0x18]
 804b7d4:	8b 4c 24 10          	mov    ecx,DWORD PTR [esp+0x10]
 804b7d8:	8d 50 01             	lea    edx,[eax+0x1]
 804b7db:	89 e8                	mov    eax,ebp
 804b7dd:	e8 fe f5 ff ff       	call   804ade0
 804b7e2:	8b 4c 24 10          	mov    ecx,DWORD PTR [esp+0x10]
 804b7e6:	89 e8                	mov    eax,ebp
 804b7e8:	8b 54 24 14          	mov    edx,DWORD PTR [esp+0x14]
 804b7ec:	89 0c 24             	mov    DWORD PTR [esp],ecx
 804b7ef:	8b 4c 24 18          	mov    ecx,DWORD PTR [esp+0x18]
 804b7f3:	e8 28 e2 ff ff       	call   8049a20
 804b7f8:	8b 44 24 10          	mov    eax,DWORD PTR [esp+0x10]
 804b7fc:	83 c0 01             	add    eax,0x1
 804b7ff:	39 c3                	cmp    ebx,eax
 804b801:	89 44 24 18          	mov    DWORD PTR [esp+0x18],eax
 804b805:	7e 42                	jle    804b849
 804b807:	89 c1                	mov    ecx,eax
 804b809:	89 d8                	mov    eax,ebx
 804b80b:	29 c8                	sub    eax,ecx
 804b80d:	89 c2                	mov    edx,eax
 804b80f:	c1 ea 1f             	shr    edx,0x1f
 804b812:	01 d0                	add    eax,edx
 804b814:	89 ca                	mov    edx,ecx
 804b816:	d1 f8                	sar    eax,1
 804b818:	01 c8                	add    eax,ecx
 804b81a:	89 c1                	mov    ecx,eax
 804b81c:	89 44 24 1c          	mov    DWORD PTR [esp+0x1c],eax
 804b820:	89 e8                	mov    eax,ebp
 804b822:	e8 b9 f5 ff ff       	call   804ade0
 804b827:	8b 44 24 1c          	mov    eax,DWORD PTR [esp+0x1c]
 804b82b:	89 d9                	mov    ecx,ebx
 804b82d:	8d 50 01             	lea    edx,[eax+0x1]
 804b830:	89 e8                	mov    eax,ebp
 804b832:	e8 a9 f5 ff ff       	call   804ade0
 804b837:	8b 4c 24 1c          	mov    ecx,DWORD PTR [esp+0x1c]
 804b83b:	89 e8                	mov    eax,ebp
 804b83d:	8b 54 24 18          	mov    edx,DWORD PTR [esp+0x18]
 804b841:	89 1c 24             	mov    DWORD PTR [esp],ebx
 804b844:	e8 d7 e1 ff ff       	call   8049a20
 804b849:	8b 4c 24 10          	mov    ecx,DWORD PTR [esp+0x10]
 804b84d:	89 e8                	mov    eax,ebp
 804b84f:	8b 54 24 14          	mov    edx,DWORD PTR [esp+0x14]
 804b853:	89 1c 24             	mov    DWORD PTR [esp],ebx
 804b856:	e8 c5 e1 ff ff       	call   8049a20
 804b85b:	e9 f2 fe ff ff       	jmp    804b752
 804b860:	89 d8                	mov    eax,ebx
 804b862:	31 d2                	xor    edx,edx
 804b864:	c1 f8 03             	sar    eax,0x3
 804b867:	89 c1                	mov    ecx,eax
 804b869:	89 44 24 14          	mov    DWORD PTR [esp+0x14],eax
 804b86d:	89 e8                	mov    eax,ebp
 804b86f:	e8 6c f5 ff ff       	call   804ade0
 804b874:	8b 44 24 14          	mov    eax,DWORD PTR [esp+0x14]
 804b878:	8b 4c 24 10          	mov    ecx,DWORD PTR [esp+0x10]
 804b87c:	8d 50 01             	lea    edx,[eax+0x1]
 804b87f:	89 e8                	mov    eax,ebp
 804b881:	e8 5a f5 ff ff       	call   804ade0
 804b886:	8b 54 24 10          	mov    edx,DWORD PTR [esp+0x10]
 804b88a:	89 e8                	mov    eax,ebp
 804b88c:	8b 4c 24 14          	mov    ecx,DWORD PTR [esp+0x14]
 804b890:	89 14 24             	mov    DWORD PTR [esp],edx
 804b893:	31 d2                	xor    edx,edx
 804b895:	e8 86 e1 ff ff       	call   8049a20
 804b89a:	8b 54 24 10          	mov    edx,DWORD PTR [esp+0x10]
 804b89e:	8d 42 01             	lea    eax,[edx+0x1]
 804b8a1:	8b 54 24 0c          	mov    edx,DWORD PTR [esp+0xc]
 804b8a5:	89 c1                	mov    ecx,eax
 804b8a7:	39 c2                	cmp    edx,eax
 804b8a9:	0f 8e ca fe ff ff    	jle    804b779
 804b8af:	89 d0                	mov    eax,edx
 804b8b1:	29 c8                	sub    eax,ecx
 804b8b3:	89 c2                	mov    edx,eax
 804b8b5:	c1 ea 1f             	shr    edx,0x1f
 804b8b8:	01 d0                	add    eax,edx
 804b8ba:	89 ca                	mov    edx,ecx
 804b8bc:	d1 f8                	sar    eax,1
 804b8be:	01 c8                	add    eax,ecx
 804b8c0:	89 c1                	mov    ecx,eax
 804b8c2:	89 44 24 14          	mov    DWORD PTR [esp+0x14],eax
 804b8c6:	89 e8                	mov    eax,ebp
 804b8c8:	89 54 24 18          	mov    DWORD PTR [esp+0x18],edx
 804b8cc:	e8 0f f5 ff ff       	call   804ade0
 804b8d1:	8b 4c 24 14          	mov    ecx,DWORD PTR [esp+0x14]
 804b8d5:	89 e8                	mov    eax,ebp
 804b8d7:	8d 51 01             	lea    edx,[ecx+0x1]
 804b8da:	8b 4c 24 0c          	mov    ecx,DWORD PTR [esp+0xc]
 804b8de:	e8 fd f4 ff ff       	call   804ade0
 804b8e3:	8b 44 24 0c          	mov    eax,DWORD PTR [esp+0xc]
 804b8e7:	8b 4c 24 14          	mov    ecx,DWORD PTR [esp+0x14]
 804b8eb:	8b 54 24 18          	mov    edx,DWORD PTR [esp+0x18]
 804b8ef:	89 04 24             	mov    DWORD PTR [esp],eax
 804b8f2:	89 e8                	mov    eax,ebp
 804b8f4:	e8 27 e1 ff ff       	call   8049a20
 804b8f9:	e9 7b fe ff ff       	jmp    804b779
 804b8fe:	66 90                	xchg   ax,ax

0804b900 <MergeSort_General>:
 804b900:	55                   	push   ebp
 804b901:	57                   	push   edi
 804b902:	56                   	push   esi
 804b903:	53                   	push   ebx
 804b904:	83 ec 2c             	sub    esp,0x2c
 804b907:	8b 54 24 50          	mov    edx,DWORD PTR [esp+0x50]
 804b90b:	8b 5c 24 44          	mov    ebx,DWORD PTR [esp+0x44]
 804b90f:	8b 44 24 48          	mov    eax,DWORD PTR [esp+0x48]
 804b913:	8b 6c 24 40          	mov    ebp,DWORD PTR [esp+0x40]
 804b917:	89 15 c4 60 05 08    	mov    DWORD PTR ds:0x80560c4,edx
 804b91d:	8b 54 24 58          	mov    edx,DWORD PTR [esp+0x58]
 804b921:	8d 34 9d 00 00 00 00 	lea    esi,[ebx*4]
 804b928:	83 eb 01             	sub    ebx,0x1
 804b92b:	0f af f0             	imul   esi,eax
 804b92e:	a3 68 60 05 08       	mov    ds:0x8056068,eax
 804b933:	89 15 c0 60 05 08    	mov    DWORD PTR ds:0x80560c0,edx
 804b939:	8b 54 24 4c          	mov    edx,DWORD PTR [esp+0x4c]
 804b93d:	89 34 24             	mov    DWORD PTR [esp],esi
 804b940:	89 15 b8 60 05 08    	mov    DWORD PTR ds:0x80560b8,edx
 804b946:	8b 54 24 54          	mov    edx,DWORD PTR [esp+0x54]
 804b94a:	89 15 b4 60 05 08    	mov    DWORD PTR ds:0x80560b4,edx
 804b950:	e8 ab cb ff ff       	call   8048500
 804b955:	89 34 24             	mov    DWORD PTR [esp],esi
 804b958:	89 c7                	mov    edi,eax
 804b95a:	a3 d8 60 05 08       	mov    ds:0x80560d8,eax
 804b95f:	e8 9c cb ff ff       	call   8048500
 804b964:	85 db                	test   ebx,ebx
 804b966:	89 c6                	mov    esi,eax
 804b968:	a3 d4 60 05 08       	mov    ds:0x80560d4,eax
 804b96d:	7f 19                	jg     804b988
 804b96f:	89 3c 24             	mov    DWORD PTR [esp],edi
 804b972:	e8 69 cb ff ff       	call   80484e0
 804b977:	89 74 24 40          	mov    DWORD PTR [esp+0x40],esi
 804b97b:	83 c4 2c             	add    esp,0x2c
 804b97e:	5b                   	pop    ebx
 804b97f:	5e                   	pop    esi
 804b980:	5f                   	pop    edi
 804b981:	5d                   	pop    ebp
 804b982:	e9 59 cb ff ff       	jmp    80484e0
 804b987:	90                   	nop
 804b988:	89 d8                	mov    eax,ebx
 804b98a:	d1 f8                	sar    eax,1
 804b98c:	89 44 24 0c          	mov    DWORD PTR [esp+0xc],eax
 804b990:	75 16                	jne    804b9a8
 804b992:	8b 4c 24 0c          	mov    ecx,DWORD PTR [esp+0xc]
 804b996:	31 d2                	xor    edx,edx
 804b998:	89 e8                	mov    eax,ebp
 804b99a:	89 1c 24             	mov    DWORD PTR [esp],ebx
 804b99d:	e8 8e e3 ff ff       	call   8049d30
 804b9a2:	eb cb                	jmp    804b96f
 804b9a4:	8d 74 26 00          	lea    esi,[esi]
 804b9a8:	89 d8                	mov    eax,ebx
 804b9aa:	c1 f8 02             	sar    eax,0x2
 804b9ad:	85 c0                	test   eax,eax
 804b9af:	89 44 24 10          	mov    DWORD PTR [esp+0x10],eax
 804b9b3:	0f 85 e7 00 00 00    	jne    804baa0
 804b9b9:	8b 44 24 0c          	mov    eax,DWORD PTR [esp+0xc]
 804b9bd:	31 d2                	xor    edx,edx
 804b9bf:	8b 4c 24 10          	mov    ecx,DWORD PTR [esp+0x10]
 804b9c3:	89 04 24             	mov    DWORD PTR [esp],eax
 804b9c6:	89 e8                	mov    eax,ebp
 804b9c8:	e8 63 e3 ff ff       	call   8049d30
 804b9cd:	8b 44 24 0c          	mov    eax,DWORD PTR [esp+0xc]
 804b9d1:	83 c0 01             	add    eax,0x1
 804b9d4:	39 c3                	cmp    ebx,eax
 804b9d6:	89 c1                	mov    ecx,eax
 804b9d8:	89 44 24 14          	mov    DWORD PTR [esp+0x14],eax
 804b9dc:	7e b4                	jle    804b992
 804b9de:	89 d8                	mov    eax,ebx
 804b9e0:	29 c8                	sub    eax,ecx
 804b9e2:	89 c2                	mov    edx,eax
 804b9e4:	c1 ea 1f             	shr    edx,0x1f
 804b9e7:	01 d0                	add    eax,edx
 804b9e9:	d1 f8                	sar    eax,1
 804b9eb:	8d 14 01             	lea    edx,[ecx+eax]
 804b9ee:	39 d1                	cmp    ecx,edx
 804b9f0:	89 54 24 10          	mov    DWORD PTR [esp+0x10],edx
 804b9f4:	7d 42                	jge    804ba38
 804b9f6:	89 c2                	mov    edx,eax
 804b9f8:	c1 ea 1f             	shr    edx,0x1f
 804b9fb:	01 d0                	add    eax,edx
 804b9fd:	89 ca                	mov    edx,ecx
 804b9ff:	d1 f8                	sar    eax,1
 804ba01:	01 c8                	add    eax,ecx
 804ba03:	89 c1                	mov    ecx,eax
 804ba05:	89 44 24 18          	mov    DWORD PTR [esp+0x18],eax
 804ba09:	89 e8                	mov    eax,ebp
 804ba0b:	e8 c0 f5 ff ff       	call   804afd0
 804ba10:	8b 44 24 18          	mov    eax,DWORD PTR [esp+0x18]
 804ba14:	8b 4c 24 10          	mov    ecx,DWORD PTR [esp+0x10]
 804ba18:	8d 50 01             	lea    edx,[eax+0x1]
 804ba1b:	89 e8                	mov    eax,ebp
 804ba1d:	e8 ae f5 ff ff       	call   804afd0
 804ba22:	8b 4c 24 10          	mov    ecx,DWORD PTR [esp+0x10]
 804ba26:	89 e8                	mov    eax,ebp
 804ba28:	8b 54 24 14          	mov    edx,DWORD PTR [esp+0x14]
 804ba2c:	89 0c 24             	mov    DWORD PTR [esp],ecx
 804ba2f:	8b 4c 24 18          	mov    ecx,DWORD PTR [esp+0x18]
 804ba33:	e8 f8 e2 ff ff       	call   8049d30
 804ba38:	8b 44 24 10          	mov    eax,DWORD PTR [esp+0x10]
 804ba3c:	83 c0 01             	add    eax,0x1
 804ba3f:	39 c3                	cmp    ebx,eax
 804ba41:	89 44 24 18          	mov    DWORD PTR [esp+0x18],eax
 804ba45:	7e 42                	jle    804ba89
 804ba47:	89 c1                	mov    ecx,eax
 804ba49:	89 d8                	mov    eax,ebx
 804ba4b:	29 c8                	sub    eax,ecx
 804ba4d:	89 c2                	mov    edx,eax
 804ba4f:	c1 ea 1f             	shr    edx,0x1f
 804ba52:	01 d0                	add    eax,edx
 804ba54:	89 ca                	mov    edx,ecx
 804ba56:	d1 f8                	sar    eax,1
 804ba58:	01 c8                	add    eax,ecx
 804ba5a:	89 c1                	mov    ecx,eax
 804ba5c:	89 44 24 1c          	mov    DWORD PTR [esp+0x1c],eax
 804ba60:	89 e8                	mov    eax,ebp
 804ba62:	e8 69 f5 ff ff       	call   804afd0
 804ba67:	8b 44 24 1c          	mov    eax,DWORD PTR [esp+0x1c]
 804ba6b:	89 d9                	mov    ecx,ebx
 804ba6d:	8d 50 01             	lea    edx,[eax+0x1]
 804ba70:	89 e8                	mov    eax,ebp
 804ba72:	e8 59 f5 ff ff       	call   804afd0
 804ba77:	8b 4c 24 1c          	mov    ecx,DWORD PTR [esp+0x1c]
 804ba7b:	89 e8                	mov    eax,ebp
 804ba7d:	8b 54 24 18          	mov    edx,DWORD PTR [esp+0x18]
 804ba81:	89 1c 24             	mov    DWORD PTR [esp],ebx
 804ba84:	e8 a7 e2 ff ff       	call   8049d30
 804ba89:	8b 4c 24 10          	mov    ecx,DWORD PTR [esp+0x10]
 804ba8d:	89 e8                	mov    eax,ebp
 804ba8f:	8b 54 24 14          	mov    edx,DWORD PTR [esp+0x14]
 804ba93:	89 1c 24             	mov    DWORD PTR [esp],ebx
 804ba96:	e8 95 e2 ff ff       	call   8049d30
 804ba9b:	e9 f2 fe ff ff       	jmp    804b992
 804baa0:	89 d8                	mov    eax,ebx
 804baa2:	31 d2                	xor    edx,edx
 804baa4:	c1 f8 03             	sar    eax,0x3
 804baa7:	89 c1                	mov    ecx,eax
 804baa9:	89 44 24 14          	mov    DWORD PTR [esp+0x14],eax
 804baad:	89 e8                	mov    eax,ebp
 804baaf:	e8 1c f5 ff ff       	call   804afd0
 804bab4:	8b 44 24 14          	mov    eax,DWORD PTR [esp+0x14]
 804bab8:	8b 4c 24 10          	mov    ecx,DWORD PTR [esp+0x10]
 804babc:	8d 50 01             	lea    edx,[eax+0x1]
 804babf:	89 e8                	mov    eax,ebp
 804bac1:	e8 0a f5 ff ff       	call   804afd0
 804bac6:	8b 54 24 10          	mov    edx,DWORD PTR [esp+0x10]
 804baca:	89 e8                	mov    eax,ebp
 804bacc:	8b 4c 24 14          	mov    ecx,DWORD PTR [esp+0x14]
 804bad0:	89 14 24             	mov    DWORD PTR [esp],edx
 804bad3:	31 d2                	xor    edx,edx
 804bad5:	e8 56 e2 ff ff       	call   8049d30
 804bada:	8b 54 24 10          	mov    edx,DWORD PTR [esp+0x10]
 804bade:	8d 42 01             	lea    eax,[edx+0x1]
 804bae1:	8b 54 24 0c          	mov    edx,DWORD PTR [esp+0xc]
 804bae5:	89 c1                	mov    ecx,eax
 804bae7:	39 c2                	cmp    edx,eax
 804bae9:	0f 8e ca fe ff ff    	jle    804b9b9
 804baef:	89 d0                	mov    eax,edx
 804baf1:	29 c8                	sub    eax,ecx
 804baf3:	89 c2                	mov    edx,eax
 804baf5:	c1 ea 1f             	shr    edx,0x1f
 804baf8:	01 d0                	add    eax,edx
 804bafa:	89 ca                	mov    edx,ecx
 804bafc:	d1 f8                	sar    eax,1
 804bafe:	01 c8                	add    eax,ecx
 804bb00:	89 c1                	mov    ecx,eax
 804bb02:	89 44 24 14          	mov    DWORD PTR [esp+0x14],eax
 804bb06:	89 e8                	mov    eax,ebp
 804bb08:	89 54 24 18          	mov    DWORD PTR [esp+0x18],edx
 804bb0c:	e8 bf f4 ff ff       	call   804afd0
 804bb11:	8b 4c 24 14          	mov    ecx,DWORD PTR [esp+0x14]
 804bb15:	89 e8                	mov    eax,ebp
 804bb17:	8d 51 01             	lea    edx,[ecx+0x1]
 804bb1a:	8b 4c 24 0c          	mov    ecx,DWORD PTR [esp+0xc]
 804bb1e:	e8 ad f4 ff ff       	call   804afd0
 804bb23:	8b 44 24 0c          	mov    eax,DWORD PTR [esp+0xc]
 804bb27:	8b 4c 24 14          	mov    ecx,DWORD PTR [esp+0x14]
 804bb2b:	8b 54 24 18          	mov    edx,DWORD PTR [esp+0x18]
 804bb2f:	89 04 24             	mov    DWORD PTR [esp],eax
 804bb32:	89 e8                	mov    eax,ebp
 804bb34:	e8 f7 e1 ff ff       	call   8049d30
 804bb39:	e9 7b fe ff ff       	jmp    804b9b9
 804bb3e:	66 90                	xchg   ax,ax

0804bb40 <MergeSort_TwoArray>:
 804bb40:	55                   	push   ebp
 804bb41:	57                   	push   edi
 804bb42:	56                   	push   esi
 804bb43:	53                   	push   ebx
 804bb44:	83 ec 1c             	sub    esp,0x1c
 804bb47:	8b 44 24 30          	mov    eax,DWORD PTR [esp+0x30]
 804bb4b:	8b 4c 24 38          	mov    ecx,DWORD PTR [esp+0x38]
 804bb4f:	8b 7c 24 44          	mov    edi,DWORD PTR [esp+0x44]
 804bb53:	8b 54 24 34          	mov    edx,DWORD PTR [esp+0x34]
 804bb57:	89 44 24 04          	mov    DWORD PTR [esp+0x4],eax
 804bb5b:	8b 44 24 40          	mov    eax,DWORD PTR [esp+0x40]
 804bb5f:	8d 1c 8d 00 00 00 00 	lea    ebx,[ecx*4]
 804bb66:	8b 74 24 48          	mov    esi,DWORD PTR [esp+0x48]
 804bb6a:	89 3d 64 60 05 08    	mov    DWORD PTR ds:0x8056064,edi
 804bb70:	0f af fb             	imul   edi,ebx
 804bb73:	89 54 24 0c          	mov    DWORD PTR [esp+0xc],edx
 804bb77:	a3 c8 60 05 08       	mov    ds:0x80560c8,eax
 804bb7c:	8b 44 24 3c          	mov    eax,DWORD PTR [esp+0x3c]
 804bb80:	89 4c 24 08          	mov    DWORD PTR [esp+0x8],ecx
 804bb84:	0f af de             	imul   ebx,esi
 804bb87:	89 3c 24             	mov    DWORD PTR [esp],edi
 804bb8a:	89 35 60 60 05 08    	mov    DWORD PTR ds:0x8056060,esi
 804bb90:	a3 bc 60 05 08       	mov    ds:0x80560bc,eax
 804bb95:	e8 66 c9 ff ff       	call   8048500
 804bb9a:	89 3c 24             	mov    DWORD PTR [esp],edi
 804bb9d:	89 c5                	mov    ebp,eax
 804bb9f:	a3 d8 60 05 08       	mov    ds:0x80560d8,eax
 804bba4:	e8 57 c9 ff ff       	call   8048500
 804bba9:	89 1c 24             	mov    DWORD PTR [esp],ebx
 804bbac:	89 c7                	mov    edi,eax
 804bbae:	a3 d4 60 05 08       	mov    ds:0x80560d4,eax
 804bbb3:	e8 48 c9 ff ff       	call   8048500
 804bbb8:	89 1c 24             	mov    DWORD PTR [esp],ebx
 804bbbb:	89 c6                	mov    esi,eax
 804bbbd:	a3 d0 60 05 08       	mov    ds:0x80560d0,eax
 804bbc2:	e8 39 c9 ff ff       	call   8048500
 804bbc7:	8b 4c 24 08          	mov    ecx,DWORD PTR [esp+0x8]
 804bbcb:	8b 54 24 0c          	mov    edx,DWORD PTR [esp+0xc]
 804bbcf:	83 e9 01             	sub    ecx,0x1
 804bbd2:	89 0c 24             	mov    DWORD PTR [esp],ecx
 804bbd5:	31 c9                	xor    ecx,ecx
 804bbd7:	89 c3                	mov    ebx,eax
 804bbd9:	a3 cc 60 05 08       	mov    ds:0x80560cc,eax
 804bbde:	8b 44 24 04          	mov    eax,DWORD PTR [esp+0x4]
 804bbe2:	e8 29 f8 ff ff       	call   804b410
 804bbe7:	89 2c 24             	mov    DWORD PTR [esp],ebp
 804bbea:	e8 f1 c8 ff ff       	call   80484e0
 804bbef:	89 3c 24             	mov    DWORD PTR [esp],edi
 804bbf2:	e8 e9 c8 ff ff       	call   80484e0
 804bbf7:	89 34 24             	mov    DWORD PTR [esp],esi
 804bbfa:	e8 e1 c8 ff ff       	call   80484e0
 804bbff:	89 5c 24 30          	mov    DWORD PTR [esp+0x30],ebx
 804bc03:	83 c4 1c             	add    esp,0x1c
 804bc06:	5b                   	pop    ebx
 804bc07:	5e                   	pop    esi
 804bc08:	5f                   	pop    edi
 804bc09:	5d                   	pop    ebp
 804bc0a:	e9 d1 c8 ff ff       	jmp    80484e0
 804bc0f:	90                   	nop

0804bc10 <MergeSort_TwoArray_TwoKey>:
 804bc10:	55                   	push   ebp
 804bc11:	57                   	push   edi
 804bc12:	56                   	push   esi
 804bc13:	53                   	push   ebx
 804bc14:	83 ec 1c             	sub    esp,0x1c
 804bc17:	8b 44 24 30          	mov    eax,DWORD PTR [esp+0x30]
 804bc1b:	8b 4c 24 38          	mov    ecx,DWORD PTR [esp+0x38]
 804bc1f:	8b 7c 24 4c          	mov    edi,DWORD PTR [esp+0x4c]
 804bc23:	8b 54 24 34          	mov    edx,DWORD PTR [esp+0x34]
 804bc27:	89 44 24 04          	mov    DWORD PTR [esp+0x4],eax
 804bc2b:	8b 44 24 40          	mov    eax,DWORD PTR [esp+0x40]
 804bc2f:	8d 1c 8d 00 00 00 00 	lea    ebx,[ecx*4]
 804bc36:	8b 74 24 50          	mov    esi,DWORD PTR [esp+0x50]
 804bc3a:	89 3d 64 60 05 08    	mov    DWORD PTR ds:0x8056064,edi
 804bc40:	0f af fb             	imul   edi,ebx
 804bc43:	89 54 24 0c          	mov    DWORD PTR [esp+0xc],edx
 804bc47:	a3 c4 60 05 08       	mov    ds:0x80560c4,eax
 804bc4c:	8b 44 24 48          	mov    eax,DWORD PTR [esp+0x48]
 804bc50:	89 4c 24 08          	mov    DWORD PTR [esp+0x8],ecx
 804bc54:	0f af de             	imul   ebx,esi
 804bc57:	89 3c 24             	mov    DWORD PTR [esp],edi
 804bc5a:	89 35 60 60 05 08    	mov    DWORD PTR ds:0x8056060,esi
 804bc60:	a3 c0 60 05 08       	mov    ds:0x80560c0,eax
 804bc65:	8b 44 24 3c          	mov    eax,DWORD PTR [esp+0x3c]
 804bc69:	a3 b8 60 05 08       	mov    ds:0x80560b8,eax
 804bc6e:	8b 44 24 44          	mov    eax,DWORD PTR [esp+0x44]
 804bc72:	a3 b4 60 05 08       	mov    ds:0x80560b4,eax
 804bc77:	e8 84 c8 ff ff       	call   8048500
 804bc7c:	89 3c 24             	mov    DWORD PTR [esp],edi
 804bc7f:	89 c5                	mov    ebp,eax
 804bc81:	a3 d8 60 05 08       	mov    ds:0x80560d8,eax
 804bc86:	e8 75 c8 ff ff       	call   8048500
 804bc8b:	89 1c 24             	mov    DWORD PTR [esp],ebx
 804bc8e:	89 c7                	mov    edi,eax
 804bc90:	a3 d4 60 05 08       	mov    ds:0x80560d4,eax
 804bc95:	e8 66 c8 ff ff       	call   8048500
 804bc9a:	89 1c 24             	mov    DWORD PTR [esp],ebx
 804bc9d:	89 c6                	mov    esi,eax
 804bc9f:	a3 d0 60 05 08       	mov    ds:0x80560d0,eax
 804bca4:	e8 57 c8 ff ff       	call   8048500
 804bca9:	8b 4c 24 08          	mov    ecx,DWORD PTR [esp+0x8]
 804bcad:	8b 54 24 0c          	mov    edx,DWORD PTR [esp+0xc]
 804bcb1:	83 e9 01             	sub    ecx,0x1
 804bcb4:	89 0c 24             	mov    DWORD PTR [esp],ecx
 804bcb7:	31 c9                	xor    ecx,ecx
 804bcb9:	89 c3                	mov    ebx,eax
 804bcbb:	a3 cc 60 05 08       	mov    ds:0x80560cc,eax
 804bcc0:	8b 44 24 04          	mov    eax,DWORD PTR [esp+0x4]
 804bcc4:	e8 f7 f4 ff ff       	call   804b1c0
 804bcc9:	89 2c 24             	mov    DWORD PTR [esp],ebp
 804bccc:	e8 0f c8 ff ff       	call   80484e0
 804bcd1:	89 3c 24             	mov    DWORD PTR [esp],edi
 804bcd4:	e8 07 c8 ff ff       	call   80484e0
 804bcd9:	89 34 24             	mov    DWORD PTR [esp],esi
 804bcdc:	e8 ff c7 ff ff       	call   80484e0
 804bce1:	89 5c 24 30          	mov    DWORD PTR [esp+0x30],ebx
 804bce5:	83 c4 1c             	add    esp,0x1c
 804bce8:	5b                   	pop    ebx
 804bce9:	5e                   	pop    esi
 804bcea:	5f                   	pop    edi
 804bceb:	5d                   	pop    ebp
 804bcec:	e9 ef c7 ff ff       	jmp    80484e0
 804bcf1:	66 90                	xchg   ax,ax
 804bcf3:	66 90                	xchg   ax,ax
 804bcf5:	66 90                	xchg   ax,ax
 804bcf7:	66 90                	xchg   ax,ax
 804bcf9:	66 90                	xchg   ax,ax
 804bcfb:	66 90                	xchg   ax,ax
 804bcfd:	66 90                	xchg   ax,ax
 804bcff:	90                   	nop

0804bd00 <BitonicMerge_Block>:
 804bd00:	55                   	push   ebp
 804bd01:	57                   	push   edi
 804bd02:	56                   	push   esi
 804bd03:	53                   	push   ebx
 804bd04:	83 ec 2c             	sub    esp,0x2c
 804bd07:	83 f9 01             	cmp    ecx,0x1
 804bd0a:	89 54 24 1c          	mov    DWORD PTR [esp+0x1c],edx
 804bd0e:	89 4c 24 14          	mov    DWORD PTR [esp+0x14],ecx
 804bd12:	0f 8e e0 00 00 00    	jle    804bdf8
 804bd18:	8b 5c 24 1c          	mov    ebx,DWORD PTR [esp+0x1c]
 804bd1c:	89 c5                	mov    ebp,eax
 804bd1e:	d1 7c 24 14          	sar    DWORD PTR [esp+0x14],1
 804bd22:	8b 44 24 14          	mov    eax,DWORD PTR [esp+0x14]
 804bd26:	89 5c 24 08          	mov    DWORD PTR [esp+0x8],ebx
 804bd2a:	01 d8                	add    eax,ebx
 804bd2c:	89 c7                	mov    edi,eax
 804bd2e:	39 df                	cmp    edi,ebx
 804bd30:	89 44 24 18          	mov    DWORD PTR [esp+0x18],eax
 804bd34:	a1 74 60 05 08       	mov    eax,ds:0x8056074
 804bd39:	0f 8e 8d 00 00 00    	jle    804bdcc
 804bd3f:	90                   	nop
 804bd40:	8b 4c 24 08          	mov    ecx,DWORD PTR [esp+0x8]
 804bd44:	8b 5c 24 14          	mov    ebx,DWORD PTR [esp+0x14]
 804bd48:	8b 15 e4 60 05 08    	mov    edx,DWORD PTR ds:0x80560e4
 804bd4e:	01 cb                	add    ebx,ecx
 804bd50:	89 de                	mov    esi,ebx
 804bd52:	0f af c8             	imul   ecx,eax
 804bd55:	0f af f0             	imul   esi,eax
 804bd58:	89 5c 24 10          	mov    DWORD PTR [esp+0x10],ebx
 804bd5c:	01 d1                	add    ecx,edx
 804bd5e:	01 f2                	add    edx,esi
 804bd60:	8b 5c 95 00          	mov    ebx,DWORD PTR [ebp+edx*4]
 804bd64:	31 d2                	xor    edx,edx
 804bd66:	39 5c 8d 00          	cmp    DWORD PTR [ebp+ecx*4],ebx
 804bd6a:	0f 9f c2             	setg   dl
 804bd6d:	31 db                	xor    ebx,ebx
 804bd6f:	39 54 24 40          	cmp    DWORD PTR [esp+0x40],edx
 804bd73:	0f 94 c3             	sete   bl
 804bd76:	85 c0                	test   eax,eax
 804bd78:	89 5c 24 0c          	mov    DWORD PTR [esp+0xc],ebx
 804bd7c:	7e 3b                	jle    804bdb9
 804bd7e:	31 d2                	xor    edx,edx
 804bd80:	8b 4c 24 08          	mov    ecx,DWORD PTR [esp+0x8]
 804bd84:	0f af c8             	imul   ecx,eax
 804bd87:	0f af 44 24 10       	imul   eax,DWORD PTR [esp+0x10]
 804bd8c:	01 d1                	add    ecx,edx
 804bd8e:	01 d0                	add    eax,edx
 804bd90:	8d 74 8d 00          	lea    esi,[ebp+ecx*4]
 804bd94:	8d 7c 85 00          	lea    edi,[ebp+eax*4]
 804bd98:	8b 06                	mov    eax,DWORD PTR [esi]
 804bd9a:	8b 1f                	mov    ebx,DWORD PTR [edi]
 804bd9c:	89 c1                	mov    ecx,eax
 804bd9e:	83 7c 24 0c 00       	cmp    DWORD PTR [esp+0xc],0x0
 804bda3:	0f 45 c3             	cmovne eax,ebx
 804bda6:	0f 45 d9             	cmovne ebx,ecx
 804bda9:	89 06                	mov    DWORD PTR [esi],eax
 804bdab:	89 1f                	mov    DWORD PTR [edi],ebx
 804bdad:	a1 74 60 05 08       	mov    eax,ds:0x8056074
 804bdb2:	83 c2 01             	add    edx,0x1
 804bdb5:	39 d0                	cmp    eax,edx
 804bdb7:	7f c7                	jg     804bd80
 804bdb9:	83 44 24 08 01       	add    DWORD PTR [esp+0x8],0x1
 804bdbe:	8b 5c 24 18          	mov    ebx,DWORD PTR [esp+0x18]
 804bdc2:	39 5c 24 08          	cmp    DWORD PTR [esp+0x8],ebx
 804bdc6:	0f 85 74 ff ff ff    	jne    804bd40
 804bdcc:	8b 44 24 40          	mov    eax,DWORD PTR [esp+0x40]
 804bdd0:	8b 5c 24 14          	mov    ebx,DWORD PTR [esp+0x14]
 804bdd4:	8b 54 24 1c          	mov    edx,DWORD PTR [esp+0x1c]
 804bdd8:	89 04 24             	mov    DWORD PTR [esp],eax
 804bddb:	89 e8                	mov    eax,ebp
 804bddd:	89 d9                	mov    ecx,ebx
 804bddf:	e8 1c ff ff ff       	call   804bd00
 804bde4:	83 fb 01             	cmp    ebx,0x1
 804bde7:	7e 0f                	jle    804bdf8
 804bde9:	8b 44 24 18          	mov    eax,DWORD PTR [esp+0x18]
 804bded:	89 44 24 1c          	mov    DWORD PTR [esp+0x1c],eax
 804bdf1:	89 c3                	mov    ebx,eax
 804bdf3:	e9 26 ff ff ff       	jmp    804bd1e
 804bdf8:	83 c4 2c             	add    esp,0x2c
 804bdfb:	5b                   	pop    ebx
 804bdfc:	5e                   	pop    esi
 804bdfd:	5f                   	pop    edi
 804bdfe:	5d                   	pop    ebp
 804bdff:	c3                   	ret

0804be00 <BitonicMerge_General>:
 804be00:	55                   	push   ebp
 804be01:	57                   	push   edi
 804be02:	56                   	push   esi
 804be03:	53                   	push   ebx
 804be04:	83 ec 2c             	sub    esp,0x2c
 804be07:	83 f9 01             	cmp    ecx,0x1
 804be0a:	89 54 24 1c          	mov    DWORD PTR [esp+0x1c],edx
 804be0e:	89 4c 24 14          	mov    DWORD PTR [esp+0x14],ecx
 804be12:	0f 8e 31 01 00 00    	jle    804bf49
 804be18:	8b 4c 24 1c          	mov    ecx,DWORD PTR [esp+0x1c]
 804be1c:	89 c5                	mov    ebp,eax
 804be1e:	d1 7c 24 14          	sar    DWORD PTR [esp+0x14],1
 804be22:	8b 44 24 14          	mov    eax,DWORD PTR [esp+0x14]
 804be26:	8b 1d 74 60 05 08    	mov    ebx,DWORD PTR ds:0x8056074
 804be2c:	89 4c 24 08          	mov    DWORD PTR [esp+0x8],ecx
 804be30:	01 c8                	add    eax,ecx
 804be32:	39 c8                	cmp    eax,ecx
 804be34:	89 df                	mov    edi,ebx
 804be36:	89 44 24 18          	mov    DWORD PTR [esp+0x18],eax
 804be3a:	0f 8e d5 00 00 00    	jle    804bf15
 804be40:	8b 5c 24 08          	mov    ebx,DWORD PTR [esp+0x8]
 804be44:	8b 44 24 14          	mov    eax,DWORD PTR [esp+0x14]
 804be48:	01 d8                	add    eax,ebx
 804be4a:	89 c1                	mov    ecx,eax
 804be4c:	0f af df             	imul   ebx,edi
 804be4f:	0f af cf             	imul   ecx,edi
 804be52:	89 44 24 10          	mov    DWORD PTR [esp+0x10],eax
 804be56:	a1 e0 60 05 08       	mov    eax,ds:0x80560e0
 804be5b:	8d 14 03             	lea    edx,[ebx+eax]
 804be5e:	01 c8                	add    eax,ecx
 804be60:	8b 44 85 00          	mov    eax,DWORD PTR [ebp+eax*4]
 804be64:	8b 54 95 00          	mov    edx,DWORD PTR [ebp+edx*4]
 804be68:	89 44 24 0c          	mov    DWORD PTR [esp+0xc],eax
 804be6c:	39 c2                	cmp    edx,eax
 804be6e:	0f 94 c0             	sete   al
 804be71:	89 c6                	mov    esi,eax
 804be73:	31 c0                	xor    eax,eax
 804be75:	03 1d dc 60 05 08    	add    ebx,DWORD PTR ds:0x80560dc
 804be7b:	03 0d dc 60 05 08    	add    ecx,DWORD PTR ds:0x80560dc
 804be81:	3b 54 24 0c          	cmp    edx,DWORD PTR [esp+0xc]
 804be85:	8b 5c 9d 00          	mov    ebx,DWORD PTR [ebp+ebx*4]
 804be89:	8b 4c 8d 00          	mov    ecx,DWORD PTR [ebp+ecx*4]
 804be8d:	0f 9f c0             	setg   al
 804be90:	39 44 24 40          	cmp    DWORD PTR [esp+0x40],eax
 804be94:	75 0e                	jne    804bea4
 804be96:	89 f0                	mov    eax,esi
 804be98:	84 c0                	test   al,al
 804be9a:	c7 44 24 0c 01 00 00 	mov    DWORD PTR [esp+0xc],0x1
 804bea1:	00 
 804bea2:	74 19                	je     804bebd
 804bea4:	31 c0                	xor    eax,eax
 804bea6:	39 cb                	cmp    ebx,ecx
 804bea8:	0f 9f c0             	setg   al
 804beab:	39 44 24 44          	cmp    DWORD PTR [esp+0x44],eax
 804beaf:	0f 94 c0             	sete   al
 804beb2:	0f b6 c0             	movzx  eax,al
 804beb5:	89 44 24 0c          	mov    DWORD PTR [esp+0xc],eax
 804beb9:	21 74 24 0c          	and    DWORD PTR [esp+0xc],esi
 804bebd:	85 ff                	test   edi,edi
 804bebf:	7e 41                	jle    804bf02
 804bec1:	31 d2                	xor    edx,edx
 804bec3:	90                   	nop
 804bec4:	8d 74 26 00          	lea    esi,[esi]
 804bec8:	8b 44 24 08          	mov    eax,DWORD PTR [esp+0x8]
 804becc:	0f af c7             	imul   eax,edi
 804becf:	0f af 7c 24 10       	imul   edi,DWORD PTR [esp+0x10]
 804bed4:	01 d0                	add    eax,edx
 804bed6:	01 d7                	add    edi,edx
 804bed8:	8d 74 85 00          	lea    esi,[ebp+eax*4]
 804bedc:	8d 7c bd 00          	lea    edi,[ebp+edi*4]
 804bee0:	8b 06                	mov    eax,DWORD PTR [esi]
 804bee2:	8b 1f                	mov    ebx,DWORD PTR [edi]
 804bee4:	89 c1                	mov    ecx,eax
 804bee6:	83 7c 24 0c 00       	cmp    DWORD PTR [esp+0xc],0x0
 804beeb:	0f 45 c3             	cmovne eax,ebx
 804beee:	0f 45 d9             	cmovne ebx,ecx
 804bef1:	89 06                	mov    DWORD PTR [esi],eax
 804bef3:	89 1f                	mov    DWORD PTR [edi],ebx
 804bef5:	8b 3d 74 60 05 08    	mov    edi,DWORD PTR ds:0x8056074
 804befb:	83 c2 01             	add    edx,0x1
 804befe:	39 d7                	cmp    edi,edx
 804bf00:	7f c6                	jg     804bec8
 804bf02:	83 44 24 08 01       	add    DWORD PTR [esp+0x8],0x1
 804bf07:	8b 44 24 18          	mov    eax,DWORD PTR [esp+0x18]
 804bf0b:	39 44 24 08          	cmp    DWORD PTR [esp+0x8],eax
 804bf0f:	0f 85 2b ff ff ff    	jne    804be40
 804bf15:	8b 44 24 44          	mov    eax,DWORD PTR [esp+0x44]
 804bf19:	8b 5c 24 14          	mov    ebx,DWORD PTR [esp+0x14]
 804bf1d:	8b 54 24 1c          	mov    edx,DWORD PTR [esp+0x1c]
 804bf21:	89 44 24 04          	mov    DWORD PTR [esp+0x4],eax
 804bf25:	8b 44 24 40          	mov    eax,DWORD PTR [esp+0x40]
 804bf29:	89 d9                	mov    ecx,ebx
 804bf2b:	89 04 24             	mov    DWORD PTR [esp],eax
 804bf2e:	89 e8                	mov    eax,ebp
 804bf30:	e8 cb fe ff ff       	call   804be00
 804bf35:	83 fb 01             	cmp    ebx,0x1
 804bf38:	7e 0f                	jle    804bf49
 804bf3a:	8b 44 24 18          	mov    eax,DWORD PTR [esp+0x18]
 804bf3e:	89 44 24 1c          	mov    DWORD PTR [esp+0x1c],eax
 804bf42:	89 c1                	mov    ecx,eax
 804bf44:	e9 d5 fe ff ff       	jmp    804be1e
 804bf49:	83 c4 2c             	add    esp,0x2c
 804bf4c:	5b                   	pop    ebx
 804bf4d:	5e                   	pop    esi
 804bf4e:	5f                   	pop    edi
 804bf4f:	5d                   	pop    ebp
 804bf50:	c3                   	ret
 804bf51:	eb 0d                	jmp    804bf60
 804bf53:	90                   	nop
 804bf54:	90                   	nop
 804bf55:	90                   	nop
 804bf56:	90                   	nop
 804bf57:	90                   	nop
 804bf58:	90                   	nop
 804bf59:	90                   	nop
 804bf5a:	90                   	nop
 804bf5b:	90                   	nop
 804bf5c:	90                   	nop
 804bf5d:	90                   	nop
 804bf5e:	90                   	nop
 804bf5f:	90                   	nop

0804bf60 <BitonicMerge_TwoArray>:
 804bf60:	55                   	push   ebp
 804bf61:	57                   	push   edi
 804bf62:	56                   	push   esi
 804bf63:	53                   	push   ebx
 804bf64:	83 ec 3c             	sub    esp,0x3c
 804bf67:	83 7c 24 50 01       	cmp    DWORD PTR [esp+0x50],0x1
 804bf6c:	89 54 24 28          	mov    DWORD PTR [esp+0x28],edx
 804bf70:	89 4c 24 2c          	mov    DWORD PTR [esp+0x2c],ecx
 804bf74:	0f 8e 42 01 00 00    	jle    804c0bc
 804bf7a:	8b 5c 24 2c          	mov    ebx,DWORD PTR [esp+0x2c]
 804bf7e:	89 c6                	mov    esi,eax
 804bf80:	d1 7c 24 50          	sar    DWORD PTR [esp+0x50],1
 804bf84:	8b 44 24 50          	mov    eax,DWORD PTR [esp+0x50]
 804bf88:	89 5c 24 14          	mov    DWORD PTR [esp+0x14],ebx
 804bf8c:	01 d8                	add    eax,ebx
 804bf8e:	39 d8                	cmp    eax,ebx
 804bf90:	89 44 24 24          	mov    DWORD PTR [esp+0x24],eax
 804bf94:	0f 8e ee 00 00 00    	jle    804c088
 804bf9a:	8d b6 00 00 00 00    	lea    esi,[esi]
 804bfa0:	8b 54 24 14          	mov    edx,DWORD PTR [esp+0x14]
 804bfa4:	8b 44 24 50          	mov    eax,DWORD PTR [esp+0x50]
 804bfa8:	8b 3d e4 60 05 08    	mov    edi,DWORD PTR ds:0x80560e4
 804bfae:	01 d0                	add    eax,edx
 804bfb0:	89 c1                	mov    ecx,eax
 804bfb2:	89 44 24 1c          	mov    DWORD PTR [esp+0x1c],eax
 804bfb6:	a1 70 60 05 08       	mov    eax,ds:0x8056070
 804bfbb:	0f af c8             	imul   ecx,eax
 804bfbe:	0f af d0             	imul   edx,eax
 804bfc1:	01 f9                	add    ecx,edi
 804bfc3:	01 fa                	add    edx,edi
 804bfc5:	8b 1c 8e             	mov    ebx,DWORD PTR [esi+ecx*4]
 804bfc8:	39 1c 96             	cmp    DWORD PTR [esi+edx*4],ebx
 804bfcb:	0f 9f c2             	setg   dl
 804bfce:	31 db                	xor    ebx,ebx
 804bfd0:	0f b6 d2             	movzx  edx,dl
 804bfd3:	39 54 24 54          	cmp    DWORD PTR [esp+0x54],edx
 804bfd7:	0f 94 c3             	sete   bl
 804bfda:	31 d2                	xor    edx,edx
 804bfdc:	85 c0                	test   eax,eax
 804bfde:	89 5c 24 18          	mov    DWORD PTR [esp+0x18],ebx
 804bfe2:	7e 3d                	jle    804c021
 804bfe4:	8d 74 26 00          	lea    esi,[esi]
 804bfe8:	8b 4c 24 14          	mov    ecx,DWORD PTR [esp+0x14]
 804bfec:	0f af c8             	imul   ecx,eax
 804bfef:	0f af 44 24 1c       	imul   eax,DWORD PTR [esp+0x1c]
 804bff4:	01 d1                	add    ecx,edx
 804bff6:	01 d0                	add    eax,edx
 804bff8:	8d 3c 8e             	lea    edi,[esi+ecx*4]
 804bffb:	8d 2c 86             	lea    ebp,[esi+eax*4]
 804bffe:	8b 07                	mov    eax,DWORD PTR [edi]
 804c000:	8b 5d 00             	mov    ebx,DWORD PTR [ebp]
 804c003:	89 c1                	mov    ecx,eax
 804c005:	83 7c 24 18 00       	cmp    DWORD PTR [esp+0x18],0x0
 804c00a:	0f 45 c3             	cmovne eax,ebx
 804c00d:	0f 45 d9             	cmovne ebx,ecx
 804c010:	89 07                	mov    DWORD PTR [edi],eax
 804c012:	89 5d 00             	mov    DWORD PTR [ebp],ebx
 804c015:	a1 70 60 05 08       	mov    eax,ds:0x8056070
 804c01a:	83 c2 01             	add    edx,0x1
 804c01d:	39 d0                	cmp    eax,edx
 804c01f:	7f c7                	jg     804bfe8
 804c021:	a1 6c 60 05 08       	mov    eax,ds:0x805606c
 804c026:	31 d2                	xor    edx,edx
 804c028:	85 c0                	test   eax,eax
 804c02a:	7e 49                	jle    804c075
 804c02c:	89 74 24 20          	mov    DWORD PTR [esp+0x20],esi
 804c030:	8b 74 24 28          	mov    esi,DWORD PTR [esp+0x28]
 804c034:	8d 74 26 00          	lea    esi,[esi]
 804c038:	8b 4c 24 14          	mov    ecx,DWORD PTR [esp+0x14]
 804c03c:	0f af c8             	imul   ecx,eax
 804c03f:	0f af 44 24 1c       	imul   eax,DWORD PTR [esp+0x1c]
 804c044:	01 d1                	add    ecx,edx
 804c046:	01 d0                	add    eax,edx
 804c048:	8d 3c 8e             	lea    edi,[esi+ecx*4]
 804c04b:	8d 2c 86             	lea    ebp,[esi+eax*4]
 804c04e:	8b 07                	mov    eax,DWORD PTR [edi]
 804c050:	8b 5d 00             	mov    ebx,DWORD PTR [ebp]
 804c053:	89 c1                	mov    ecx,eax
 804c055:	83 7c 24 18 00       	cmp    DWORD PTR [esp+0x18],0x0
 804c05a:	0f 45 c3             	cmovne eax,ebx
 804c05d:	0f 45 d9             	cmovne ebx,ecx
 804c060:	89 07                	mov    DWORD PTR [edi],eax
 804c062:	89 5d 00             	mov    DWORD PTR [ebp],ebx
 804c065:	a1 6c 60 05 08       	mov    eax,ds:0x805606c
 804c06a:	83 c2 01             	add    edx,0x1
 804c06d:	39 d0                	cmp    eax,edx
 804c06f:	7f c7                	jg     804c038
 804c071:	8b 74 24 20          	mov    esi,DWORD PTR [esp+0x20]
 804c075:	83 44 24 14 01       	add    DWORD PTR [esp+0x14],0x1
 804c07a:	8b 44 24 24          	mov    eax,DWORD PTR [esp+0x24]
 804c07e:	39 44 24 14          	cmp    DWORD PTR [esp+0x14],eax
 804c082:	0f 85 18 ff ff ff    	jne    804bfa0
 804c088:	8b 44 24 54          	mov    eax,DWORD PTR [esp+0x54]
 804c08c:	8b 4c 24 2c          	mov    ecx,DWORD PTR [esp+0x2c]
 804c090:	8b 54 24 28          	mov    edx,DWORD PTR [esp+0x28]
 804c094:	89 44 24 04          	mov    DWORD PTR [esp+0x4],eax
 804c098:	8b 44 24 50          	mov    eax,DWORD PTR [esp+0x50]
 804c09c:	89 04 24             	mov    DWORD PTR [esp],eax
 804c09f:	89 f0                	mov    eax,esi
 804c0a1:	e8 ba fe ff ff       	call   804bf60
 804c0a6:	83 7c 24 50 01       	cmp    DWORD PTR [esp+0x50],0x1
 804c0ab:	7e 0f                	jle    804c0bc
 804c0ad:	8b 44 24 24          	mov    eax,DWORD PTR [esp+0x24]
 804c0b1:	89 44 24 2c          	mov    DWORD PTR [esp+0x2c],eax
 804c0b5:	89 c3                	mov    ebx,eax
 804c0b7:	e9 c4 fe ff ff       	jmp    804bf80
 804c0bc:	83 c4 3c             	add    esp,0x3c
 804c0bf:	5b                   	pop    ebx
 804c0c0:	5e                   	pop    esi
 804c0c1:	5f                   	pop    edi
 804c0c2:	5d                   	pop    ebp
 804c0c3:	c3                   	ret
 804c0c4:	8d b6 00 00 00 00    	lea    esi,[esi]
 804c0ca:	8d bf 00 00 00 00    	lea    edi,[edi]

0804c0d0 <BitonicMerge_TwoArray_TwoKey>:
 804c0d0:	55                   	push   ebp
 804c0d1:	57                   	push   edi
 804c0d2:	56                   	push   esi
 804c0d3:	53                   	push   ebx
 804c0d4:	83 ec 4c             	sub    esp,0x4c
 804c0d7:	83 7c 24 60 01       	cmp    DWORD PTR [esp+0x60],0x1
 804c0dc:	89 54 24 38          	mov    DWORD PTR [esp+0x38],edx
 804c0e0:	89 4c 24 3c          	mov    DWORD PTR [esp+0x3c],ecx
 804c0e4:	0f 8e 8a 01 00 00    	jle    804c274
 804c0ea:	8b 5c 24 3c          	mov    ebx,DWORD PTR [esp+0x3c]
 804c0ee:	89 c6                	mov    esi,eax
 804c0f0:	d1 7c 24 60          	sar    DWORD PTR [esp+0x60],1
 804c0f4:	8b 44 24 60          	mov    eax,DWORD PTR [esp+0x60]
 804c0f8:	89 5c 24 18          	mov    DWORD PTR [esp+0x18],ebx
 804c0fc:	01 d8                	add    eax,ebx
 804c0fe:	39 d8                	cmp    eax,ebx
 804c100:	89 44 24 34          	mov    DWORD PTR [esp+0x34],eax
 804c104:	0f 8e 2e 01 00 00    	jle    804c238
 804c10a:	8d b6 00 00 00 00    	lea    esi,[esi]
 804c110:	8b 5c 24 18          	mov    ebx,DWORD PTR [esp+0x18]
 804c114:	8b 44 24 60          	mov    eax,DWORD PTR [esp+0x60]
 804c118:	8b 3d e0 60 05 08    	mov    edi,DWORD PTR ds:0x80560e0
 804c11e:	01 d8                	add    eax,ebx
 804c120:	89 c1                	mov    ecx,eax
 804c122:	89 44 24 30          	mov    DWORD PTR [esp+0x30],eax
 804c126:	a1 70 60 05 08       	mov    eax,ds:0x8056070
 804c12b:	0f af d8             	imul   ebx,eax
 804c12e:	0f af c8             	imul   ecx,eax
 804c131:	8d 14 3b             	lea    edx,[ebx+edi]
 804c134:	8b 2c 96             	mov    ebp,DWORD PTR [esi+edx*4]
 804c137:	8d 14 0f             	lea    edx,[edi+ecx]
 804c13a:	8b 14 96             	mov    edx,DWORD PTR [esi+edx*4]
 804c13d:	8b 3d dc 60 05 08    	mov    edi,DWORD PTR ds:0x80560dc
 804c143:	39 d5                	cmp    ebp,edx
 804c145:	0f 94 44 24 20       	sete   BYTE PTR [esp+0x20]
 804c14a:	01 fb                	add    ebx,edi
 804c14c:	01 f9                	add    ecx,edi
 804c14e:	39 d5                	cmp    ebp,edx
 804c150:	8b 1c 9e             	mov    ebx,DWORD PTR [esi+ebx*4]
 804c153:	0f 9f c2             	setg   dl
 804c156:	8b 0c 8e             	mov    ecx,DWORD PTR [esi+ecx*4]
 804c159:	0f b6 d2             	movzx  edx,dl
 804c15c:	39 54 24 64          	cmp    DWORD PTR [esp+0x64],edx
 804c160:	75 0f                	jne    804c171
 804c162:	80 7c 24 20 00       	cmp    BYTE PTR [esp+0x20],0x0
 804c167:	c7 44 24 1c 01 00 00 	mov    DWORD PTR [esp+0x1c],0x1
 804c16e:	00 
 804c16f:	74 1c                	je     804c18d
 804c171:	31 d2                	xor    edx,edx
 804c173:	39 cb                	cmp    ebx,ecx
 804c175:	0f 9f c2             	setg   dl
 804c178:	31 db                	xor    ebx,ebx
 804c17a:	39 54 24 68          	cmp    DWORD PTR [esp+0x68],edx
 804c17e:	0f 94 c3             	sete   bl
 804c181:	89 5c 24 1c          	mov    DWORD PTR [esp+0x1c],ebx
 804c185:	8b 5c 24 20          	mov    ebx,DWORD PTR [esp+0x20]
 804c189:	21 5c 24 1c          	and    DWORD PTR [esp+0x1c],ebx
 804c18d:	31 d2                	xor    edx,edx
 804c18f:	85 c0                	test   eax,eax
 804c191:	7e 3e                	jle    804c1d1
 804c193:	90                   	nop
 804c194:	8d 74 26 00          	lea    esi,[esi]
 804c198:	8b 4c 24 18          	mov    ecx,DWORD PTR [esp+0x18]
 804c19c:	0f af c8             	imul   ecx,eax
 804c19f:	0f af 44 24 30       	imul   eax,DWORD PTR [esp+0x30]
 804c1a4:	01 d1                	add    ecx,edx
 804c1a6:	01 d0                	add    eax,edx
 804c1a8:	8d 3c 8e             	lea    edi,[esi+ecx*4]
 804c1ab:	8d 2c 86             	lea    ebp,[esi+eax*4]
 804c1ae:	8b 07                	mov    eax,DWORD PTR [edi]
 804c1b0:	8b 5d 00             	mov    ebx,DWORD PTR [ebp]
 804c1b3:	89 c1                	mov    ecx,eax
 804c1b5:	83 7c 24 1c 00       	cmp    DWORD PTR [esp+0x1c],0x0
 804c1ba:	0f 45 c3             	cmovne eax,ebx
 804c1bd:	0f 45 d9             	cmovne ebx,ecx
 804c1c0:	89 07                	mov    DWORD PTR [edi],eax
 804c1c2:	89 5d 00             	mov    DWORD PTR [ebp],ebx
 804c1c5:	a1 70 60 05 08       	mov    eax,ds:0x8056070
 804c1ca:	83 c2 01             	add    edx,0x1
 804c1cd:	39 d0                	cmp    eax,edx
 804c1cf:	7f c7                	jg     804c198
 804c1d1:	a1 6c 60 05 08       	mov    eax,ds:0x805606c
 804c1d6:	31 d2                	xor    edx,edx
 804c1d8:	85 c0                	test   eax,eax
 804c1da:	7e 49                	jle    804c225
 804c1dc:	89 74 24 20          	mov    DWORD PTR [esp+0x20],esi
 804c1e0:	8b 74 24 38          	mov    esi,DWORD PTR [esp+0x38]
 804c1e4:	8d 74 26 00          	lea    esi,[esi]
 804c1e8:	8b 4c 24 18          	mov    ecx,DWORD PTR [esp+0x18]
 804c1ec:	0f af c8             	imul   ecx,eax
 804c1ef:	0f af 44 24 30       	imul   eax,DWORD PTR [esp+0x30]
 804c1f4:	01 d1                	add    ecx,edx
 804c1f6:	01 d0                	add    eax,edx
 804c1f8:	8d 3c 8e             	lea    edi,[esi+ecx*4]
 804c1fb:	8d 2c 86             	lea    ebp,[esi+eax*4]
 804c1fe:	8b 07                	mov    eax,DWORD PTR [edi]
 804c200:	8b 5d 00             	mov    ebx,DWORD PTR [ebp]
 804c203:	89 c1                	mov    ecx,eax
 804c205:	83 7c 24 1c 00       	cmp    DWORD PTR [esp+0x1c],0x0
 804c20a:	0f 45 c3             	cmovne eax,ebx
 804c20d:	0f 45 d9             	cmovne ebx,ecx
 804c210:	89 07                	mov    DWORD PTR [edi],eax
 804c212:	89 5d 00             	mov    DWORD PTR [ebp],ebx
 804c215:	a1 6c 60 05 08       	mov    eax,ds:0x805606c
 804c21a:	83 c2 01             	add    edx,0x1
 804c21d:	39 d0                	cmp    eax,edx
 804c21f:	7f c7                	jg     804c1e8
 804c221:	8b 74 24 20          	mov    esi,DWORD PTR [esp+0x20]
 804c225:	83 44 24 18 01       	add    DWORD PTR [esp+0x18],0x1
 804c22a:	8b 44 24 34          	mov    eax,DWORD PTR [esp+0x34]
 804c22e:	39 44 24 18          	cmp    DWORD PTR [esp+0x18],eax
 804c232:	0f 85 d8 fe ff ff    	jne    804c110
 804c238:	8b 44 24 68          	mov    eax,DWORD PTR [esp+0x68]
 804c23c:	8b 4c 24 3c          	mov    ecx,DWORD PTR [esp+0x3c]
 804c240:	8b 54 24 38          	mov    edx,DWORD PTR [esp+0x38]
 804c244:	89 44 24 08          	mov    DWORD PTR [esp+0x8],eax
 804c248:	8b 44 24 64          	mov    eax,DWORD PTR [esp+0x64]
 804c24c:	89 44 24 04          	mov    DWORD PTR [esp+0x4],eax
 804c250:	8b 44 24 60          	mov    eax,DWORD PTR [esp+0x60]
 804c254:	89 04 24             	mov    DWORD PTR [esp],eax
 804c257:	89 f0                	mov    eax,esi
 804c259:	e8 72 fe ff ff       	call   804c0d0
 804c25e:	83 7c 24 60 01       	cmp    DWORD PTR [esp+0x60],0x1
 804c263:	7e 0f                	jle    804c274
 804c265:	8b 44 24 34          	mov    eax,DWORD PTR [esp+0x34]
 804c269:	89 44 24 3c          	mov    DWORD PTR [esp+0x3c],eax
 804c26d:	89 c3                	mov    ebx,eax
 804c26f:	e9 7c fe ff ff       	jmp    804c0f0
 804c274:	83 c4 4c             	add    esp,0x4c
 804c277:	5b                   	pop    ebx
 804c278:	5e                   	pop    esi
 804c279:	5f                   	pop    edi
 804c27a:	5d                   	pop    ebp
 804c27b:	c3                   	ret
 804c27c:	8d 74 26 00          	lea    esi,[esi]

0804c280 <BitonicSubSort_Block>:
 804c280:	55                   	push   ebp
 804c281:	89 cd                	mov    ebp,ecx
 804c283:	57                   	push   edi
 804c284:	56                   	push   esi
 804c285:	53                   	push   ebx
 804c286:	89 c3                	mov    ebx,eax
 804c288:	83 ec 3c             	sub    esp,0x3c
 804c28b:	83 f9 01             	cmp    ecx,0x1
 804c28e:	8b 44 24 50          	mov    eax,DWORD PTR [esp+0x50]
 804c292:	89 54 24 10          	mov    DWORD PTR [esp+0x10],edx
 804c296:	89 44 24 20          	mov    DWORD PTR [esp+0x20],eax
 804c29a:	0f 8e f0 05 00 00    	jle    804c890
 804c2a0:	89 c8                	mov    eax,ecx
 804c2a2:	d1 f8                	sar    eax,1
 804c2a4:	83 f8 01             	cmp    eax,0x1
 804c2a7:	89 44 24 24          	mov    DWORD PTR [esp+0x24],eax
 804c2ab:	0f 84 c1 05 00 00    	je     804c872
 804c2b1:	89 c8                	mov    eax,ecx
 804c2b3:	c1 f8 02             	sar    eax,0x2
 804c2b6:	83 f8 01             	cmp    eax,0x1
 804c2b9:	89 44 24 14          	mov    DWORD PTR [esp+0x14],eax
 804c2bd:	0f 84 45 06 00 00    	je     804c908
 804c2c3:	89 ce                	mov    esi,ecx
 804c2c5:	c1 fe 03             	sar    esi,0x3
 804c2c8:	83 fe 01             	cmp    esi,0x1
 804c2cb:	89 74 24 18          	mov    DWORD PTR [esp+0x18],esi
 804c2cf:	0f 84 c3 05 00 00    	je     804c898
 804c2d5:	89 c8                	mov    eax,ecx
 804c2d7:	c1 f8 04             	sar    eax,0x4
 804c2da:	83 f8 01             	cmp    eax,0x1
 804c2dd:	89 44 24 0c          	mov    DWORD PTR [esp+0xc],eax
 804c2e1:	0f 84 c1 06 00 00    	je     804c9a8
 804c2e7:	89 cf                	mov    edi,ecx
 804c2e9:	89 d8                	mov    eax,ebx
 804c2eb:	c1 ff 05             	sar    edi,0x5
 804c2ee:	89 fe                	mov    esi,edi
 804c2f0:	89 f9                	mov    ecx,edi
 804c2f2:	c7 04 24 01 00 00 00 	mov    DWORD PTR [esp],0x1
 804c2f9:	89 d7                	mov    edi,edx
 804c2fb:	e8 80 ff ff ff       	call   804c280
 804c300:	8d 14 37             	lea    edx,[edi+esi]
 804c303:	89 f1                	mov    ecx,esi
 804c305:	89 d8                	mov    eax,ebx
 804c307:	c7 04 24 00 00 00 00 	mov    DWORD PTR [esp],0x0
 804c30e:	e8 6d ff ff ff       	call   804c280
 804c313:	8b 4c 24 0c          	mov    ecx,DWORD PTR [esp+0xc]
 804c317:	89 fa                	mov    edx,edi
 804c319:	89 d8                	mov    eax,ebx
 804c31b:	c7 04 24 01 00 00 00 	mov    DWORD PTR [esp],0x1
 804c322:	e8 d9 f9 ff ff       	call   804bd00
 804c327:	89 f1                	mov    ecx,esi
 804c329:	89 d8                	mov    eax,ebx
 804c32b:	89 7c 24 10          	mov    DWORD PTR [esp+0x10],edi
 804c32f:	03 7c 24 0c          	add    edi,DWORD PTR [esp+0xc]
 804c333:	c7 04 24 01 00 00 00 	mov    DWORD PTR [esp],0x1
 804c33a:	89 fa                	mov    edx,edi
 804c33c:	e8 3f ff ff ff       	call   804c280
 804c341:	8d 14 3e             	lea    edx,[esi+edi]
 804c344:	89 f1                	mov    ecx,esi
 804c346:	89 d8                	mov    eax,ebx
 804c348:	c7 04 24 00 00 00 00 	mov    DWORD PTR [esp],0x0
 804c34f:	e8 2c ff ff ff       	call   804c280
 804c354:	8b 4c 24 0c          	mov    ecx,DWORD PTR [esp+0xc]
 804c358:	89 fa                	mov    edx,edi
 804c35a:	89 d8                	mov    eax,ebx
 804c35c:	c7 04 24 00 00 00 00 	mov    DWORD PTR [esp],0x0
 804c363:	e8 98 f9 ff ff       	call   804bd00
 804c368:	8b 7c 24 10          	mov    edi,DWORD PTR [esp+0x10]
 804c36c:	89 d8                	mov    eax,ebx
 804c36e:	8b 4c 24 18          	mov    ecx,DWORD PTR [esp+0x18]
 804c372:	c7 04 24 01 00 00 00 	mov    DWORD PTR [esp],0x1
 804c379:	89 fa                	mov    edx,edi
 804c37b:	e8 80 f9 ff ff       	call   804bd00
 804c380:	89 f1                	mov    ecx,esi
 804c382:	89 d8                	mov    eax,ebx
 804c384:	89 7c 24 10          	mov    DWORD PTR [esp+0x10],edi
 804c388:	03 7c 24 18          	add    edi,DWORD PTR [esp+0x18]
 804c38c:	c7 04 24 01 00 00 00 	mov    DWORD PTR [esp],0x1
 804c393:	89 fa                	mov    edx,edi
 804c395:	e8 e6 fe ff ff       	call   804c280
 804c39a:	8d 14 3e             	lea    edx,[esi+edi]
 804c39d:	89 f1                	mov    ecx,esi
 804c39f:	89 d8                	mov    eax,ebx
 804c3a1:	c7 04 24 00 00 00 00 	mov    DWORD PTR [esp],0x0
 804c3a8:	e8 d3 fe ff ff       	call   804c280
 804c3ad:	8b 4c 24 0c          	mov    ecx,DWORD PTR [esp+0xc]
 804c3b1:	89 fa                	mov    edx,edi
 804c3b3:	89 d8                	mov    eax,ebx
 804c3b5:	c7 04 24 01 00 00 00 	mov    DWORD PTR [esp],0x1
 804c3bc:	e8 3f f9 ff ff       	call   804bd00
 804c3c1:	8b 4c 24 0c          	mov    ecx,DWORD PTR [esp+0xc]
 804c3c5:	89 d8                	mov    eax,ebx
 804c3c7:	c7 04 24 01 00 00 00 	mov    DWORD PTR [esp],0x1
 804c3ce:	8d 14 39             	lea    edx,[ecx+edi]
 804c3d1:	89 f1                	mov    ecx,esi
 804c3d3:	89 54 24 1c          	mov    DWORD PTR [esp+0x1c],edx
 804c3d7:	e8 a4 fe ff ff       	call   804c280
 804c3dc:	8b 54 24 1c          	mov    edx,DWORD PTR [esp+0x1c]
 804c3e0:	89 f1                	mov    ecx,esi
 804c3e2:	89 d8                	mov    eax,ebx
 804c3e4:	c7 04 24 00 00 00 00 	mov    DWORD PTR [esp],0x0
 804c3eb:	01 f2                	add    edx,esi
 804c3ed:	e8 8e fe ff ff       	call   804c280
 804c3f2:	8b 4c 24 0c          	mov    ecx,DWORD PTR [esp+0xc]
 804c3f6:	89 d8                	mov    eax,ebx
 804c3f8:	8b 54 24 1c          	mov    edx,DWORD PTR [esp+0x1c]
 804c3fc:	c7 04 24 00 00 00 00 	mov    DWORD PTR [esp],0x0
 804c403:	e8 f8 f8 ff ff       	call   804bd00
 804c408:	8b 4c 24 18          	mov    ecx,DWORD PTR [esp+0x18]
 804c40c:	89 fa                	mov    edx,edi
 804c40e:	89 d8                	mov    eax,ebx
 804c410:	c7 04 24 00 00 00 00 	mov    DWORD PTR [esp],0x0
 804c417:	e8 e4 f8 ff ff       	call   804bd00
 804c41c:	8b 7c 24 10          	mov    edi,DWORD PTR [esp+0x10]
 804c420:	89 d8                	mov    eax,ebx
 804c422:	8b 4c 24 14          	mov    ecx,DWORD PTR [esp+0x14]
 804c426:	c7 04 24 01 00 00 00 	mov    DWORD PTR [esp],0x1
 804c42d:	89 fa                	mov    edx,edi
 804c42f:	e8 cc f8 ff ff       	call   804bd00
 804c434:	89 f1                	mov    ecx,esi
 804c436:	89 d8                	mov    eax,ebx
 804c438:	03 7c 24 14          	add    edi,DWORD PTR [esp+0x14]
 804c43c:	c7 04 24 01 00 00 00 	mov    DWORD PTR [esp],0x1
 804c443:	89 fa                	mov    edx,edi
 804c445:	89 7c 24 1c          	mov    DWORD PTR [esp+0x1c],edi
 804c449:	e8 32 fe ff ff       	call   804c280
 804c44e:	8d 14 3e             	lea    edx,[esi+edi]
 804c451:	89 f1                	mov    ecx,esi
 804c453:	89 d8                	mov    eax,ebx
 804c455:	c7 04 24 00 00 00 00 	mov    DWORD PTR [esp],0x0
 804c45c:	e8 1f fe ff ff       	call   804c280
 804c461:	8b 4c 24 0c          	mov    ecx,DWORD PTR [esp+0xc]
 804c465:	89 fa                	mov    edx,edi
 804c467:	89 d8                	mov    eax,ebx
 804c469:	c7 04 24 01 00 00 00 	mov    DWORD PTR [esp],0x1
 804c470:	e8 8b f8 ff ff       	call   804bd00
 804c475:	8b 44 24 0c          	mov    eax,DWORD PTR [esp+0xc]
 804c479:	89 f1                	mov    ecx,esi
 804c47b:	89 7c 24 1c          	mov    DWORD PTR [esp+0x1c],edi
 804c47f:	c7 04 24 01 00 00 00 	mov    DWORD PTR [esp],0x1
 804c486:	01 f8                	add    eax,edi
 804c488:	89 c7                	mov    edi,eax
 804c48a:	89 c2                	mov    edx,eax
 804c48c:	89 d8                	mov    eax,ebx
 804c48e:	e8 ed fd ff ff       	call   804c280
 804c493:	8d 14 3e             	lea    edx,[esi+edi]
 804c496:	89 f1                	mov    ecx,esi
 804c498:	89 d8                	mov    eax,ebx
 804c49a:	c7 04 24 00 00 00 00 	mov    DWORD PTR [esp],0x0
 804c4a1:	e8 da fd ff ff       	call   804c280
 804c4a6:	8b 4c 24 0c          	mov    ecx,DWORD PTR [esp+0xc]
 804c4aa:	89 fa                	mov    edx,edi
 804c4ac:	89 d8                	mov    eax,ebx
 804c4ae:	c7 04 24 00 00 00 00 	mov    DWORD PTR [esp],0x0
 804c4b5:	e8 46 f8 ff ff       	call   804bd00
 804c4ba:	8b 7c 24 1c          	mov    edi,DWORD PTR [esp+0x1c]
 804c4be:	89 d8                	mov    eax,ebx
 804c4c0:	8b 4c 24 18          	mov    ecx,DWORD PTR [esp+0x18]
 804c4c4:	c7 04 24 01 00 00 00 	mov    DWORD PTR [esp],0x1
 804c4cb:	89 fa                	mov    edx,edi
 804c4cd:	e8 2e f8 ff ff       	call   804bd00
 804c4d2:	8b 54 24 18          	mov    edx,DWORD PTR [esp+0x18]
 804c4d6:	89 f1                	mov    ecx,esi
 804c4d8:	89 d8                	mov    eax,ebx
 804c4da:	c7 04 24 01 00 00 00 	mov    DWORD PTR [esp],0x1
 804c4e1:	01 fa                	add    edx,edi
 804c4e3:	89 d7                	mov    edi,edx
 804c4e5:	e8 96 fd ff ff       	call   804c280
 804c4ea:	8d 14 3e             	lea    edx,[esi+edi]
 804c4ed:	89 f1                	mov    ecx,esi
 804c4ef:	89 d8                	mov    eax,ebx
 804c4f1:	c7 04 24 00 00 00 00 	mov    DWORD PTR [esp],0x0
 804c4f8:	e8 83 fd ff ff       	call   804c280
 804c4fd:	8b 4c 24 0c          	mov    ecx,DWORD PTR [esp+0xc]
 804c501:	89 fa                	mov    edx,edi
 804c503:	89 d8                	mov    eax,ebx
 804c505:	c7 04 24 01 00 00 00 	mov    DWORD PTR [esp],0x1
 804c50c:	e8 ef f7 ff ff       	call   804bd00
 804c511:	8b 44 24 0c          	mov    eax,DWORD PTR [esp+0xc]
 804c515:	89 f1                	mov    ecx,esi
 804c517:	c7 04 24 01 00 00 00 	mov    DWORD PTR [esp],0x1
 804c51e:	8d 14 38             	lea    edx,[eax+edi]
 804c521:	89 d8                	mov    eax,ebx
 804c523:	89 54 24 28          	mov    DWORD PTR [esp+0x28],edx
 804c527:	e8 54 fd ff ff       	call   804c280
 804c52c:	8b 54 24 28          	mov    edx,DWORD PTR [esp+0x28]
 804c530:	89 f1                	mov    ecx,esi
 804c532:	89 d8                	mov    eax,ebx
 804c534:	c7 04 24 00 00 00 00 	mov    DWORD PTR [esp],0x0
 804c53b:	01 f2                	add    edx,esi
 804c53d:	e8 3e fd ff ff       	call   804c280
 804c542:	8b 4c 24 0c          	mov    ecx,DWORD PTR [esp+0xc]
 804c546:	89 d8                	mov    eax,ebx
 804c548:	8b 54 24 28          	mov    edx,DWORD PTR [esp+0x28]
 804c54c:	c7 04 24 00 00 00 00 	mov    DWORD PTR [esp],0x0
 804c553:	e8 a8 f7 ff ff       	call   804bd00
 804c558:	8b 4c 24 18          	mov    ecx,DWORD PTR [esp+0x18]
 804c55c:	89 fa                	mov    edx,edi
 804c55e:	89 d8                	mov    eax,ebx
 804c560:	c7 04 24 00 00 00 00 	mov    DWORD PTR [esp],0x0
 804c567:	e8 94 f7 ff ff       	call   804bd00
 804c56c:	8b 4c 24 14          	mov    ecx,DWORD PTR [esp+0x14]
 804c570:	89 d8                	mov    eax,ebx
 804c572:	8b 54 24 1c          	mov    edx,DWORD PTR [esp+0x1c]
 804c576:	c7 04 24 00 00 00 00 	mov    DWORD PTR [esp],0x0
 804c57d:	e8 7e f7 ff ff       	call   804bd00
 804c582:	8b 7c 24 24          	mov    edi,DWORD PTR [esp+0x24]
 804c586:	89 d8                	mov    eax,ebx
 804c588:	8b 74 24 10          	mov    esi,DWORD PTR [esp+0x10]
 804c58c:	c7 04 24 01 00 00 00 	mov    DWORD PTR [esp],0x1
 804c593:	89 f9                	mov    ecx,edi
 804c595:	89 f2                	mov    edx,esi
 804c597:	e8 64 f7 ff ff       	call   804bd00
 804c59c:	89 f0                	mov    eax,esi
 804c59e:	01 f8                	add    eax,edi
 804c5a0:	8b 7c 24 0c          	mov    edi,DWORD PTR [esp+0xc]
 804c5a4:	89 44 24 1c          	mov    DWORD PTR [esp+0x1c],eax
 804c5a8:	83 ff 01             	cmp    edi,0x1
 804c5ab:	0f 84 87 03 00 00    	je     804c938
 804c5b1:	89 fe                	mov    esi,edi
 804c5b3:	89 c2                	mov    edx,eax
 804c5b5:	d1 fe                	sar    esi,1
 804c5b7:	89 d8                	mov    eax,ebx
 804c5b9:	89 f1                	mov    ecx,esi
 804c5bb:	c7 04 24 01 00 00 00 	mov    DWORD PTR [esp],0x1
 804c5c2:	e8 b9 fc ff ff       	call   804c280
 804c5c7:	8b 44 24 1c          	mov    eax,DWORD PTR [esp+0x1c]
 804c5cb:	89 f1                	mov    ecx,esi
 804c5cd:	c7 04 24 00 00 00 00 	mov    DWORD PTR [esp],0x0
 804c5d4:	8d 14 30             	lea    edx,[eax+esi]
 804c5d7:	89 d8                	mov    eax,ebx
 804c5d9:	e8 a2 fc ff ff       	call   804c280
 804c5de:	8b 54 24 1c          	mov    edx,DWORD PTR [esp+0x1c]
 804c5e2:	89 f9                	mov    ecx,edi
 804c5e4:	89 d8                	mov    eax,ebx
 804c5e6:	c7 04 24 01 00 00 00 	mov    DWORD PTR [esp],0x1
 804c5ed:	e8 0e f7 ff ff       	call   804bd00
 804c5f2:	89 f1                	mov    ecx,esi
 804c5f4:	89 d8                	mov    eax,ebx
 804c5f6:	89 7c 24 0c          	mov    DWORD PTR [esp+0xc],edi
 804c5fa:	03 7c 24 1c          	add    edi,DWORD PTR [esp+0x1c]
 804c5fe:	c7 04 24 01 00 00 00 	mov    DWORD PTR [esp],0x1
 804c605:	89 fa                	mov    edx,edi
 804c607:	e8 74 fc ff ff       	call   804c280
 804c60c:	8d 14 3e             	lea    edx,[esi+edi]
 804c60f:	89 f1                	mov    ecx,esi
 804c611:	89 d8                	mov    eax,ebx
 804c613:	c7 04 24 00 00 00 00 	mov    DWORD PTR [esp],0x0
 804c61a:	e8 61 fc ff ff       	call   804c280
 804c61f:	8b 4c 24 0c          	mov    ecx,DWORD PTR [esp+0xc]
 804c623:	89 fa                	mov    edx,edi
 804c625:	89 d8                	mov    eax,ebx
 804c627:	c7 04 24 00 00 00 00 	mov    DWORD PTR [esp],0x0
 804c62e:	e8 cd f6 ff ff       	call   804bd00
 804c633:	8b 7c 24 1c          	mov    edi,DWORD PTR [esp+0x1c]
 804c637:	89 d8                	mov    eax,ebx
 804c639:	8b 4c 24 18          	mov    ecx,DWORD PTR [esp+0x18]
 804c63d:	c7 04 24 01 00 00 00 	mov    DWORD PTR [esp],0x1
 804c644:	89 fa                	mov    edx,edi
 804c646:	e8 b5 f6 ff ff       	call   804bd00
 804c64b:	8b 54 24 18          	mov    edx,DWORD PTR [esp+0x18]
 804c64f:	89 f1                	mov    ecx,esi
 804c651:	89 7c 24 1c          	mov    DWORD PTR [esp+0x1c],edi
 804c655:	89 d8                	mov    eax,ebx
 804c657:	c7 04 24 01 00 00 00 	mov    DWORD PTR [esp],0x1
 804c65e:	01 fa                	add    edx,edi
 804c660:	89 d7                	mov    edi,edx
 804c662:	e8 19 fc ff ff       	call   804c280
 804c667:	8d 14 3e             	lea    edx,[esi+edi]
 804c66a:	89 f1                	mov    ecx,esi
 804c66c:	89 d8                	mov    eax,ebx
 804c66e:	c7 04 24 00 00 00 00 	mov    DWORD PTR [esp],0x0
 804c675:	e8 06 fc ff ff       	call   804c280
 804c67a:	8b 4c 24 0c          	mov    ecx,DWORD PTR [esp+0xc]
 804c67e:	89 fa                	mov    edx,edi
 804c680:	89 d8                	mov    eax,ebx
 804c682:	c7 04 24 01 00 00 00 	mov    DWORD PTR [esp],0x1
 804c689:	e8 72 f6 ff ff       	call   804bd00
 804c68e:	8b 44 24 0c          	mov    eax,DWORD PTR [esp+0xc]
 804c692:	c7 04 24 01 00 00 00 	mov    DWORD PTR [esp],0x1
 804c699:	8d 0c 38             	lea    ecx,[eax+edi]
 804c69c:	89 c8                	mov    eax,ecx
 804c69e:	89 f1                	mov    ecx,esi
 804c6a0:	89 c2                	mov    edx,eax
 804c6a2:	89 44 24 28          	mov    DWORD PTR [esp+0x28],eax
 804c6a6:	89 d8                	mov    eax,ebx
 804c6a8:	e8 d3 fb ff ff       	call   804c280
 804c6ad:	8b 4c 24 28          	mov    ecx,DWORD PTR [esp+0x28]
 804c6b1:	89 d8                	mov    eax,ebx
 804c6b3:	c7 04 24 00 00 00 00 	mov    DWORD PTR [esp],0x0
 804c6ba:	8d 14 0e             	lea    edx,[esi+ecx]
 804c6bd:	89 f1                	mov    ecx,esi
 804c6bf:	e8 bc fb ff ff       	call   804c280
 804c6c4:	8b 4c 24 0c          	mov    ecx,DWORD PTR [esp+0xc]
 804c6c8:	89 d8                	mov    eax,ebx
 804c6ca:	8b 54 24 28          	mov    edx,DWORD PTR [esp+0x28]
 804c6ce:	c7 04 24 00 00 00 00 	mov    DWORD PTR [esp],0x0
 804c6d5:	e8 26 f6 ff ff       	call   804bd00
 804c6da:	8b 4c 24 18          	mov    ecx,DWORD PTR [esp+0x18]
 804c6de:	89 fa                	mov    edx,edi
 804c6e0:	89 d8                	mov    eax,ebx
 804c6e2:	c7 04 24 00 00 00 00 	mov    DWORD PTR [esp],0x0
 804c6e9:	e8 12 f6 ff ff       	call   804bd00
 804c6ee:	8b 7c 24 1c          	mov    edi,DWORD PTR [esp+0x1c]
 804c6f2:	89 d8                	mov    eax,ebx
 804c6f4:	8b 4c 24 14          	mov    ecx,DWORD PTR [esp+0x14]
 804c6f8:	c7 04 24 01 00 00 00 	mov    DWORD PTR [esp],0x1
 804c6ff:	89 fa                	mov    edx,edi
 804c701:	e8 fa f5 ff ff       	call   804bd00
 804c706:	8b 4c 24 14          	mov    ecx,DWORD PTR [esp+0x14]
 804c70a:	89 d8                	mov    eax,ebx
 804c70c:	c7 04 24 01 00 00 00 	mov    DWORD PTR [esp],0x1
 804c713:	01 f9                	add    ecx,edi
 804c715:	89 cf                	mov    edi,ecx
 804c717:	89 fa                	mov    edx,edi
 804c719:	89 4c 24 28          	mov    DWORD PTR [esp+0x28],ecx
 804c71d:	89 f1                	mov    ecx,esi
 804c71f:	e8 5c fb ff ff       	call   804c280
 804c724:	8d 14 37             	lea    edx,[edi+esi]
 804c727:	89 f1                	mov    ecx,esi
 804c729:	89 d8                	mov    eax,ebx
 804c72b:	c7 04 24 00 00 00 00 	mov    DWORD PTR [esp],0x0
 804c732:	89 7c 24 28          	mov    DWORD PTR [esp+0x28],edi
 804c736:	e8 45 fb ff ff       	call   804c280
 804c73b:	8b 7c 24 0c          	mov    edi,DWORD PTR [esp+0xc]
 804c73f:	89 d8                	mov    eax,ebx
 804c741:	8b 54 24 28          	mov    edx,DWORD PTR [esp+0x28]
 804c745:	c7 04 24 01 00 00 00 	mov    DWORD PTR [esp],0x1
 804c74c:	89 f9                	mov    ecx,edi
 804c74e:	e8 ad f5 ff ff       	call   804bd00
 804c753:	89 f1                	mov    ecx,esi
 804c755:	89 d8                	mov    eax,ebx
 804c757:	89 7c 24 0c          	mov    DWORD PTR [esp+0xc],edi
 804c75b:	03 7c 24 28          	add    edi,DWORD PTR [esp+0x28]
 804c75f:	c7 04 24 01 00 00 00 	mov    DWORD PTR [esp],0x1
 804c766:	89 fa                	mov    edx,edi
 804c768:	e8 13 fb ff ff       	call   804c280
 804c76d:	8d 14 3e             	lea    edx,[esi+edi]
 804c770:	89 f1                	mov    ecx,esi
 804c772:	89 d8                	mov    eax,ebx
 804c774:	c7 04 24 00 00 00 00 	mov    DWORD PTR [esp],0x0
 804c77b:	e8 00 fb ff ff       	call   804c280
 804c780:	8b 4c 24 0c          	mov    ecx,DWORD PTR [esp+0xc]
 804c784:	89 fa                	mov    edx,edi
 804c786:	89 d8                	mov    eax,ebx
 804c788:	c7 04 24 00 00 00 00 	mov    DWORD PTR [esp],0x0
 804c78f:	e8 6c f5 ff ff       	call   804bd00
 804c794:	8b 7c 24 28          	mov    edi,DWORD PTR [esp+0x28]
 804c798:	89 d8                	mov    eax,ebx
 804c79a:	8b 4c 24 18          	mov    ecx,DWORD PTR [esp+0x18]
 804c79e:	c7 04 24 01 00 00 00 	mov    DWORD PTR [esp],0x1
 804c7a5:	89 fa                	mov    edx,edi
 804c7a7:	e8 54 f5 ff ff       	call   804bd00
 804c7ac:	8b 54 24 18          	mov    edx,DWORD PTR [esp+0x18]
 804c7b0:	89 f1                	mov    ecx,esi
 804c7b2:	89 d8                	mov    eax,ebx
 804c7b4:	c7 04 24 01 00 00 00 	mov    DWORD PTR [esp],0x1
 804c7bb:	01 fa                	add    edx,edi
 804c7bd:	89 d7                	mov    edi,edx
 804c7bf:	e8 bc fa ff ff       	call   804c280
 804c7c4:	8d 14 3e             	lea    edx,[esi+edi]
 804c7c7:	89 f1                	mov    ecx,esi
 804c7c9:	89 d8                	mov    eax,ebx
 804c7cb:	c7 04 24 00 00 00 00 	mov    DWORD PTR [esp],0x0
 804c7d2:	e8 a9 fa ff ff       	call   804c280
 804c7d7:	8b 4c 24 0c          	mov    ecx,DWORD PTR [esp+0xc]
 804c7db:	89 fa                	mov    edx,edi
 804c7dd:	89 d8                	mov    eax,ebx
 804c7df:	c7 04 24 01 00 00 00 	mov    DWORD PTR [esp],0x1
 804c7e6:	e8 15 f5 ff ff       	call   804bd00
 804c7eb:	8b 44 24 0c          	mov    eax,DWORD PTR [esp+0xc]
 804c7ef:	89 f1                	mov    ecx,esi
 804c7f1:	c7 04 24 01 00 00 00 	mov    DWORD PTR [esp],0x1
 804c7f8:	8d 14 38             	lea    edx,[eax+edi]
 804c7fb:	89 d8                	mov    eax,ebx
 804c7fd:	89 54 24 2c          	mov    DWORD PTR [esp+0x2c],edx
 804c801:	e8 7a fa ff ff       	call   804c280
 804c806:	8b 54 24 2c          	mov    edx,DWORD PTR [esp+0x2c]
 804c80a:	89 f1                	mov    ecx,esi
 804c80c:	89 d8                	mov    eax,ebx
 804c80e:	c7 04 24 00 00 00 00 	mov    DWORD PTR [esp],0x0
 804c815:	01 f2                	add    edx,esi
 804c817:	e8 64 fa ff ff       	call   804c280
 804c81c:	8b 4c 24 0c          	mov    ecx,DWORD PTR [esp+0xc]
 804c820:	89 d8                	mov    eax,ebx
 804c822:	8b 54 24 2c          	mov    edx,DWORD PTR [esp+0x2c]
 804c826:	c7 04 24 00 00 00 00 	mov    DWORD PTR [esp],0x0
 804c82d:	e8 ce f4 ff ff       	call   804bd00
 804c832:	8b 4c 24 18          	mov    ecx,DWORD PTR [esp+0x18]
 804c836:	89 fa                	mov    edx,edi
 804c838:	89 d8                	mov    eax,ebx
 804c83a:	c7 04 24 00 00 00 00 	mov    DWORD PTR [esp],0x0
 804c841:	e8 ba f4 ff ff       	call   804bd00
 804c846:	8b 54 24 28          	mov    edx,DWORD PTR [esp+0x28]
 804c84a:	8b 4c 24 14          	mov    ecx,DWORD PTR [esp+0x14]
 804c84e:	89 d8                	mov    eax,ebx
 804c850:	c7 04 24 00 00 00 00 	mov    DWORD PTR [esp],0x0
 804c857:	e8 a4 f4 ff ff       	call   804bd00
 804c85c:	8b 54 24 1c          	mov    edx,DWORD PTR [esp+0x1c]
 804c860:	8b 4c 24 24          	mov    ecx,DWORD PTR [esp+0x24]
 804c864:	89 d8                	mov    eax,ebx
 804c866:	c7 04 24 00 00 00 00 	mov    DWORD PTR [esp],0x0
 804c86d:	e8 8e f4 ff ff       	call   804bd00
 804c872:	8b 44 24 20          	mov    eax,DWORD PTR [esp+0x20]
 804c876:	89 e9                	mov    ecx,ebp
 804c878:	8b 54 24 10          	mov    edx,DWORD PTR [esp+0x10]
 804c87c:	89 44 24 50          	mov    DWORD PTR [esp+0x50],eax
 804c880:	83 c4 3c             	add    esp,0x3c
 804c883:	89 d8                	mov    eax,ebx
 804c885:	5b                   	pop    ebx
 804c886:	5e                   	pop    esi
 804c887:	5f                   	pop    edi
 804c888:	5d                   	pop    ebp
 804c889:	e9 72 f4 ff ff       	jmp    804bd00
 804c88e:	66 90                	xchg   ax,ax
 804c890:	83 c4 3c             	add    esp,0x3c
 804c893:	5b                   	pop    ebx
 804c894:	5e                   	pop    esi
 804c895:	5f                   	pop    edi
 804c896:	5d                   	pop    ebp
 804c897:	c3                   	ret
 804c898:	8b 7c 24 14          	mov    edi,DWORD PTR [esp+0x14]
 804c89c:	89 d8                	mov    eax,ebx
 804c89e:	8b 74 24 10          	mov    esi,DWORD PTR [esp+0x10]
 804c8a2:	c7 04 24 01 00 00 00 	mov    DWORD PTR [esp],0x1
 804c8a9:	89 f9                	mov    ecx,edi
 804c8ab:	89 f2                	mov    edx,esi
 804c8ad:	e8 4e f4 ff ff       	call   804bd00
 804c8b2:	89 f2                	mov    edx,esi
 804c8b4:	89 f9                	mov    ecx,edi
 804c8b6:	01 fa                	add    edx,edi
 804c8b8:	89 d8                	mov    eax,ebx
 804c8ba:	c7 04 24 00 00 00 00 	mov    DWORD PTR [esp],0x0
 804c8c1:	e8 3a f4 ff ff       	call   804bd00
 804c8c6:	8b 4c 24 24          	mov    ecx,DWORD PTR [esp+0x24]
 804c8ca:	89 f2                	mov    edx,esi
 804c8cc:	89 d8                	mov    eax,ebx
 804c8ce:	c7 04 24 01 00 00 00 	mov    DWORD PTR [esp],0x1
 804c8d5:	e8 26 f4 ff ff       	call   804bd00
 804c8da:	8b 54 24 24          	mov    edx,DWORD PTR [esp+0x24]
 804c8de:	89 d8                	mov    eax,ebx
 804c8e0:	c7 04 24 01 00 00 00 	mov    DWORD PTR [esp],0x1
 804c8e7:	89 f9                	mov    ecx,edi
 804c8e9:	01 f2                	add    edx,esi
 804c8eb:	89 d6                	mov    esi,edx
 804c8ed:	89 54 24 1c          	mov    DWORD PTR [esp+0x1c],edx
 804c8f1:	e8 0a f4 ff ff       	call   804bd00
 804c8f6:	89 f8                	mov    eax,edi
 804c8f8:	01 f0                	add    eax,esi
 804c8fa:	89 44 24 28          	mov    DWORD PTR [esp+0x28],eax
 804c8fe:	89 c2                	mov    edx,eax
 804c900:	e9 45 ff ff ff       	jmp    804c84a
 804c905:	8d 76 00             	lea    esi,[esi]
 804c908:	8b 7c 24 24          	mov    edi,DWORD PTR [esp+0x24]
 804c90c:	89 d8                	mov    eax,ebx
 804c90e:	8b 74 24 10          	mov    esi,DWORD PTR [esp+0x10]
 804c912:	c7 04 24 01 00 00 00 	mov    DWORD PTR [esp],0x1
 804c919:	89 f9                	mov    ecx,edi
 804c91b:	89 f2                	mov    edx,esi
 804c91d:	e8 de f3 ff ff       	call   804bd00
 804c922:	89 f0                	mov    eax,esi
 804c924:	01 f8                	add    eax,edi
 804c926:	89 44 24 1c          	mov    DWORD PTR [esp+0x1c],eax
 804c92a:	89 c2                	mov    edx,eax
 804c92c:	e9 2f ff ff ff       	jmp    804c860
 804c931:	8d b4 26 00 00 00 00 	lea    esi,[esi]
 804c938:	8b 7c 24 18          	mov    edi,DWORD PTR [esp+0x18]
 804c93c:	89 c6                	mov    esi,eax
 804c93e:	89 c2                	mov    edx,eax
 804c940:	c7 04 24 01 00 00 00 	mov    DWORD PTR [esp],0x1
 804c947:	89 d8                	mov    eax,ebx
 804c949:	89 f9                	mov    ecx,edi
 804c94b:	e8 b0 f3 ff ff       	call   804bd00
 804c950:	89 fa                	mov    edx,edi
 804c952:	89 f9                	mov    ecx,edi
 804c954:	01 f2                	add    edx,esi
 804c956:	89 d8                	mov    eax,ebx
 804c958:	c7 04 24 00 00 00 00 	mov    DWORD PTR [esp],0x0
 804c95f:	89 74 24 1c          	mov    DWORD PTR [esp+0x1c],esi
 804c963:	e8 98 f3 ff ff       	call   804bd00
 804c968:	8b 74 24 14          	mov    esi,DWORD PTR [esp+0x14]
 804c96c:	89 d8                	mov    eax,ebx
 804c96e:	8b 54 24 1c          	mov    edx,DWORD PTR [esp+0x1c]
 804c972:	c7 04 24 01 00 00 00 	mov    DWORD PTR [esp],0x1
 804c979:	89 f1                	mov    ecx,esi
 804c97b:	e8 80 f3 ff ff       	call   804bd00
 804c980:	8b 44 24 1c          	mov    eax,DWORD PTR [esp+0x1c]
 804c984:	89 f9                	mov    ecx,edi
 804c986:	c7 04 24 01 00 00 00 	mov    DWORD PTR [esp],0x1
 804c98d:	01 f0                	add    eax,esi
 804c98f:	89 c6                	mov    esi,eax
 804c991:	89 c2                	mov    edx,eax
 804c993:	89 44 24 28          	mov    DWORD PTR [esp+0x28],eax
 804c997:	89 d8                	mov    eax,ebx
 804c999:	01 f7                	add    edi,esi
 804c99b:	e8 60 f3 ff ff       	call   804bd00
 804c9a0:	e9 8d fe ff ff       	jmp    804c832
 804c9a5:	8d 76 00             	lea    esi,[esi]
 804c9a8:	8b 7c 24 18          	mov    edi,DWORD PTR [esp+0x18]
 804c9ac:	89 d8                	mov    eax,ebx
 804c9ae:	8b 74 24 10          	mov    esi,DWORD PTR [esp+0x10]
 804c9b2:	c7 04 24 01 00 00 00 	mov    DWORD PTR [esp],0x1
 804c9b9:	89 f9                	mov    ecx,edi
 804c9bb:	89 f2                	mov    edx,esi
 804c9bd:	e8 3e f3 ff ff       	call   804bd00
 804c9c2:	89 f2                	mov    edx,esi
 804c9c4:	89 f9                	mov    ecx,edi
 804c9c6:	01 fa                	add    edx,edi
 804c9c8:	89 d8                	mov    eax,ebx
 804c9ca:	c7 04 24 00 00 00 00 	mov    DWORD PTR [esp],0x0
 804c9d1:	e8 2a f3 ff ff       	call   804bd00
 804c9d6:	8b 4c 24 14          	mov    ecx,DWORD PTR [esp+0x14]
 804c9da:	89 f2                	mov    edx,esi
 804c9dc:	89 d8                	mov    eax,ebx
 804c9de:	c7 04 24 01 00 00 00 	mov    DWORD PTR [esp],0x1
 804c9e5:	e8 16 f3 ff ff       	call   804bd00
 804c9ea:	8b 54 24 14          	mov    edx,DWORD PTR [esp+0x14]
 804c9ee:	89 f9                	mov    ecx,edi
 804c9f0:	c7 04 24 01 00 00 00 	mov    DWORD PTR [esp],0x1
 804c9f7:	89 d8                	mov    eax,ebx
 804c9f9:	01 f2                	add    edx,esi
 804c9fb:	89 d6                	mov    esi,edx
 804c9fd:	89 54 24 1c          	mov    DWORD PTR [esp+0x1c],edx
 804ca01:	01 f7                	add    edi,esi
 804ca03:	e8 f8 f2 ff ff       	call   804bd00
 804ca08:	e9 4b fb ff ff       	jmp    804c558
 804ca0d:	8d 76 00             	lea    esi,[esi]

0804ca10 <BitonicSubSort_TwoArray>:
 804ca10:	55                   	push   ebp
 804ca11:	57                   	push   edi
 804ca12:	56                   	push   esi
 804ca13:	53                   	push   ebx
 804ca14:	89 c3                	mov    ebx,eax
 804ca16:	83 ec 3c             	sub    esp,0x3c
 804ca19:	8b 6c 24 50          	mov    ebp,DWORD PTR [esp+0x50]
 804ca1d:	8b 44 24 54          	mov    eax,DWORD PTR [esp+0x54]
 804ca21:	89 4c 24 0c          	mov    DWORD PTR [esp+0xc],ecx
 804ca25:	83 fd 01             	cmp    ebp,0x1
 804ca28:	89 44 24 20          	mov    DWORD PTR [esp+0x20],eax
 804ca2c:	0f 8e 96 06 00 00    	jle    804d0c8
 804ca32:	89 e8                	mov    eax,ebp
 804ca34:	89 d6                	mov    esi,edx
 804ca36:	d1 f8                	sar    eax,1
 804ca38:	83 f8 01             	cmp    eax,0x1
 804ca3b:	89 44 24 1c          	mov    DWORD PTR [esp+0x1c],eax
 804ca3f:	0f 84 63 06 00 00    	je     804d0a8
 804ca45:	89 e8                	mov    eax,ebp
 804ca47:	c1 f8 02             	sar    eax,0x2
 804ca4a:	83 f8 01             	cmp    eax,0x1
 804ca4d:	89 44 24 10          	mov    DWORD PTR [esp+0x10],eax
 804ca51:	0f 84 01 07 00 00    	je     804d158
 804ca57:	89 e8                	mov    eax,ebp
 804ca59:	c1 f8 03             	sar    eax,0x3
 804ca5c:	83 f8 01             	cmp    eax,0x1
 804ca5f:	89 44 24 14          	mov    DWORD PTR [esp+0x14],eax
 804ca63:	0f 84 67 06 00 00    	je     804d0d0
 804ca69:	89 e8                	mov    eax,ebp
 804ca6b:	c1 f8 04             	sar    eax,0x4
 804ca6e:	83 f8 01             	cmp    eax,0x1
 804ca71:	89 44 24 08          	mov    DWORD PTR [esp+0x8],eax
 804ca75:	0f 84 d5 07 00 00    	je     804d250
 804ca7b:	89 ef                	mov    edi,ebp
 804ca7d:	89 d8                	mov    eax,ebx
 804ca7f:	c1 ff 05             	sar    edi,0x5
 804ca82:	c7 44 24 04 01 00 00 	mov    DWORD PTR [esp+0x4],0x1
 804ca89:	00 
 804ca8a:	89 3c 24             	mov    DWORD PTR [esp],edi
 804ca8d:	e8 7e ff ff ff       	call   804ca10
 804ca92:	8b 44 24 0c          	mov    eax,DWORD PTR [esp+0xc]
 804ca96:	89 f2                	mov    edx,esi
 804ca98:	c7 44 24 04 00 00 00 	mov    DWORD PTR [esp+0x4],0x0
 804ca9f:	00 
 804caa0:	89 3c 24             	mov    DWORD PTR [esp],edi
 804caa3:	8d 0c 38             	lea    ecx,[eax+edi]
 804caa6:	89 d8                	mov    eax,ebx
 804caa8:	e8 63 ff ff ff       	call   804ca10
 804caad:	8b 54 24 08          	mov    edx,DWORD PTR [esp+0x8]
 804cab1:	89 d8                	mov    eax,ebx
 804cab3:	8b 4c 24 0c          	mov    ecx,DWORD PTR [esp+0xc]
 804cab7:	c7 44 24 04 01 00 00 	mov    DWORD PTR [esp+0x4],0x1
 804cabe:	00 
 804cabf:	89 14 24             	mov    DWORD PTR [esp],edx
 804cac2:	89 f2                	mov    edx,esi
 804cac4:	e8 97 f4 ff ff       	call   804bf60
 804cac9:	8b 54 24 0c          	mov    edx,DWORD PTR [esp+0xc]
 804cacd:	89 d8                	mov    eax,ebx
 804cacf:	03 54 24 08          	add    edx,DWORD PTR [esp+0x8]
 804cad3:	c7 44 24 04 01 00 00 	mov    DWORD PTR [esp+0x4],0x1
 804cada:	00 
 804cadb:	89 3c 24             	mov    DWORD PTR [esp],edi
 804cade:	89 d1                	mov    ecx,edx
 804cae0:	89 54 24 18          	mov    DWORD PTR [esp+0x18],edx
 804cae4:	89 f2                	mov    edx,esi
 804cae6:	e8 25 ff ff ff       	call   804ca10
 804caeb:	8b 4c 24 18          	mov    ecx,DWORD PTR [esp+0x18]
 804caef:	89 f2                	mov    edx,esi
 804caf1:	89 d8                	mov    eax,ebx
 804caf3:	c7 44 24 04 00 00 00 	mov    DWORD PTR [esp+0x4],0x0
 804cafa:	00 
 804cafb:	89 3c 24             	mov    DWORD PTR [esp],edi
 804cafe:	01 f9                	add    ecx,edi
 804cb00:	e8 0b ff ff ff       	call   804ca10
 804cb05:	8b 44 24 08          	mov    eax,DWORD PTR [esp+0x8]
 804cb09:	89 f2                	mov    edx,esi
 804cb0b:	8b 4c 24 18          	mov    ecx,DWORD PTR [esp+0x18]
 804cb0f:	c7 44 24 04 00 00 00 	mov    DWORD PTR [esp+0x4],0x0
 804cb16:	00 
 804cb17:	89 04 24             	mov    DWORD PTR [esp],eax
 804cb1a:	89 d8                	mov    eax,ebx
 804cb1c:	e8 3f f4 ff ff       	call   804bf60
 804cb21:	8b 4c 24 14          	mov    ecx,DWORD PTR [esp+0x14]
 804cb25:	89 f2                	mov    edx,esi
 804cb27:	89 d8                	mov    eax,ebx
 804cb29:	c7 44 24 04 01 00 00 	mov    DWORD PTR [esp+0x4],0x1
 804cb30:	00 
 804cb31:	89 0c 24             	mov    DWORD PTR [esp],ecx
 804cb34:	8b 4c 24 0c          	mov    ecx,DWORD PTR [esp+0xc]
 804cb38:	e8 23 f4 ff ff       	call   804bf60
 804cb3d:	8b 54 24 08          	mov    edx,DWORD PTR [esp+0x8]
 804cb41:	89 d8                	mov    eax,ebx
 804cb43:	8b 4c 24 0c          	mov    ecx,DWORD PTR [esp+0xc]
 804cb47:	03 4c 24 14          	add    ecx,DWORD PTR [esp+0x14]
 804cb4b:	c7 44 24 04 01 00 00 	mov    DWORD PTR [esp+0x4],0x1
 804cb52:	00 
 804cb53:	89 14 24             	mov    DWORD PTR [esp],edx
 804cb56:	89 f2                	mov    edx,esi
 804cb58:	89 4c 24 18          	mov    DWORD PTR [esp+0x18],ecx
 804cb5c:	e8 af fe ff ff       	call   804ca10
 804cb61:	8b 44 24 08          	mov    eax,DWORD PTR [esp+0x8]
 804cb65:	8b 54 24 18          	mov    edx,DWORD PTR [esp+0x18]
 804cb69:	c7 44 24 04 00 00 00 	mov    DWORD PTR [esp+0x4],0x0
 804cb70:	00 
 804cb71:	89 04 24             	mov    DWORD PTR [esp],eax
 804cb74:	01 c2                	add    edx,eax
 804cb76:	89 d8                	mov    eax,ebx
 804cb78:	89 d1                	mov    ecx,edx
 804cb7a:	89 f2                	mov    edx,esi
 804cb7c:	e8 8f fe ff ff       	call   804ca10
 804cb81:	8b 44 24 14          	mov    eax,DWORD PTR [esp+0x14]
 804cb85:	89 f2                	mov    edx,esi
 804cb87:	8b 4c 24 18          	mov    ecx,DWORD PTR [esp+0x18]
 804cb8b:	c7 44 24 04 00 00 00 	mov    DWORD PTR [esp+0x4],0x0
 804cb92:	00 
 804cb93:	89 04 24             	mov    DWORD PTR [esp],eax
 804cb96:	89 d8                	mov    eax,ebx
 804cb98:	e8 c3 f3 ff ff       	call   804bf60
 804cb9d:	8b 44 24 10          	mov    eax,DWORD PTR [esp+0x10]
 804cba1:	89 f2                	mov    edx,esi
 804cba3:	8b 4c 24 0c          	mov    ecx,DWORD PTR [esp+0xc]
 804cba7:	c7 44 24 04 01 00 00 	mov    DWORD PTR [esp+0x4],0x1
 804cbae:	00 
 804cbaf:	89 04 24             	mov    DWORD PTR [esp],eax
 804cbb2:	89 d8                	mov    eax,ebx
 804cbb4:	e8 a7 f3 ff ff       	call   804bf60
 804cbb9:	8b 4c 24 0c          	mov    ecx,DWORD PTR [esp+0xc]
 804cbbd:	89 f2                	mov    edx,esi
 804cbbf:	03 4c 24 10          	add    ecx,DWORD PTR [esp+0x10]
 804cbc3:	89 d8                	mov    eax,ebx
 804cbc5:	c7 44 24 04 01 00 00 	mov    DWORD PTR [esp+0x4],0x1
 804cbcc:	00 
 804cbcd:	89 3c 24             	mov    DWORD PTR [esp],edi
 804cbd0:	89 4c 24 18          	mov    DWORD PTR [esp+0x18],ecx
 804cbd4:	e8 37 fe ff ff       	call   804ca10
 804cbd9:	8b 4c 24 18          	mov    ecx,DWORD PTR [esp+0x18]
 804cbdd:	89 f2                	mov    edx,esi
 804cbdf:	89 d8                	mov    eax,ebx
 804cbe1:	c7 44 24 04 00 00 00 	mov    DWORD PTR [esp+0x4],0x0
 804cbe8:	00 
 804cbe9:	89 3c 24             	mov    DWORD PTR [esp],edi
 804cbec:	01 f9                	add    ecx,edi
 804cbee:	e8 1d fe ff ff       	call   804ca10
 804cbf3:	8b 54 24 08          	mov    edx,DWORD PTR [esp+0x8]
 804cbf7:	89 d8                	mov    eax,ebx
 804cbf9:	8b 4c 24 18          	mov    ecx,DWORD PTR [esp+0x18]
 804cbfd:	c7 44 24 04 01 00 00 	mov    DWORD PTR [esp+0x4],0x1
 804cc04:	00 
 804cc05:	89 14 24             	mov    DWORD PTR [esp],edx
 804cc08:	89 f2                	mov    edx,esi
 804cc0a:	e8 51 f3 ff ff       	call   804bf60
 804cc0f:	8b 44 24 08          	mov    eax,DWORD PTR [esp+0x8]
 804cc13:	89 f2                	mov    edx,esi
 804cc15:	03 44 24 18          	add    eax,DWORD PTR [esp+0x18]
 804cc19:	c7 44 24 04 01 00 00 	mov    DWORD PTR [esp+0x4],0x1
 804cc20:	00 
 804cc21:	89 3c 24             	mov    DWORD PTR [esp],edi
 804cc24:	89 c1                	mov    ecx,eax
 804cc26:	89 44 24 24          	mov    DWORD PTR [esp+0x24],eax
 804cc2a:	89 d8                	mov    eax,ebx
 804cc2c:	e8 df fd ff ff       	call   804ca10
 804cc31:	8b 4c 24 24          	mov    ecx,DWORD PTR [esp+0x24]
 804cc35:	89 f2                	mov    edx,esi
 804cc37:	89 d8                	mov    eax,ebx
 804cc39:	c7 44 24 04 00 00 00 	mov    DWORD PTR [esp+0x4],0x0
 804cc40:	00 
 804cc41:	89 3c 24             	mov    DWORD PTR [esp],edi
 804cc44:	01 f9                	add    ecx,edi
 804cc46:	e8 c5 fd ff ff       	call   804ca10
 804cc4b:	8b 54 24 08          	mov    edx,DWORD PTR [esp+0x8]
 804cc4f:	89 d8                	mov    eax,ebx
 804cc51:	8b 4c 24 24          	mov    ecx,DWORD PTR [esp+0x24]
 804cc55:	c7 44 24 04 00 00 00 	mov    DWORD PTR [esp+0x4],0x0
 804cc5c:	00 
 804cc5d:	89 14 24             	mov    DWORD PTR [esp],edx
 804cc60:	89 f2                	mov    edx,esi
 804cc62:	e8 f9 f2 ff ff       	call   804bf60
 804cc67:	8b 4c 24 14          	mov    ecx,DWORD PTR [esp+0x14]
 804cc6b:	89 f2                	mov    edx,esi
 804cc6d:	89 d8                	mov    eax,ebx
 804cc6f:	c7 44 24 04 01 00 00 	mov    DWORD PTR [esp+0x4],0x1
 804cc76:	00 
 804cc77:	89 0c 24             	mov    DWORD PTR [esp],ecx
 804cc7a:	8b 4c 24 18          	mov    ecx,DWORD PTR [esp+0x18]
 804cc7e:	e8 dd f2 ff ff       	call   804bf60
 804cc83:	8b 4c 24 14          	mov    ecx,DWORD PTR [esp+0x14]
 804cc87:	89 f2                	mov    edx,esi
 804cc89:	03 4c 24 18          	add    ecx,DWORD PTR [esp+0x18]
 804cc8d:	89 d8                	mov    eax,ebx
 804cc8f:	c7 44 24 04 01 00 00 	mov    DWORD PTR [esp+0x4],0x1
 804cc96:	00 
 804cc97:	89 3c 24             	mov    DWORD PTR [esp],edi
 804cc9a:	89 4c 24 24          	mov    DWORD PTR [esp+0x24],ecx
 804cc9e:	e8 6d fd ff ff       	call   804ca10
 804cca3:	8b 4c 24 24          	mov    ecx,DWORD PTR [esp+0x24]
 804cca7:	89 f2                	mov    edx,esi
 804cca9:	89 d8                	mov    eax,ebx
 804ccab:	c7 44 24 04 00 00 00 	mov    DWORD PTR [esp+0x4],0x0
 804ccb2:	00 
 804ccb3:	89 3c 24             	mov    DWORD PTR [esp],edi
 804ccb6:	01 f9                	add    ecx,edi
 804ccb8:	e8 53 fd ff ff       	call   804ca10
 804ccbd:	8b 54 24 08          	mov    edx,DWORD PTR [esp+0x8]
 804ccc1:	89 d8                	mov    eax,ebx
 804ccc3:	8b 4c 24 24          	mov    ecx,DWORD PTR [esp+0x24]
 804ccc7:	c7 44 24 04 01 00 00 	mov    DWORD PTR [esp+0x4],0x1
 804ccce:	00 
 804cccf:	89 14 24             	mov    DWORD PTR [esp],edx
 804ccd2:	89 f2                	mov    edx,esi
 804ccd4:	e8 87 f2 ff ff       	call   804bf60
 804ccd9:	8b 4c 24 08          	mov    ecx,DWORD PTR [esp+0x8]
 804ccdd:	89 f2                	mov    edx,esi
 804ccdf:	03 4c 24 24          	add    ecx,DWORD PTR [esp+0x24]
 804cce3:	89 d8                	mov    eax,ebx
 804cce5:	c7 44 24 04 01 00 00 	mov    DWORD PTR [esp+0x4],0x1
 804ccec:	00 
 804cced:	89 3c 24             	mov    DWORD PTR [esp],edi
 804ccf0:	89 4c 24 28          	mov    DWORD PTR [esp+0x28],ecx
 804ccf4:	e8 17 fd ff ff       	call   804ca10
 804ccf9:	8b 44 24 28          	mov    eax,DWORD PTR [esp+0x28]
 804ccfd:	89 f2                	mov    edx,esi
 804ccff:	c7 44 24 04 00 00 00 	mov    DWORD PTR [esp+0x4],0x0
 804cd06:	00 
 804cd07:	89 3c 24             	mov    DWORD PTR [esp],edi
 804cd0a:	8d 0c 07             	lea    ecx,[edi+eax]
 804cd0d:	89 d8                	mov    eax,ebx
 804cd0f:	e8 fc fc ff ff       	call   804ca10
 804cd14:	8b 54 24 08          	mov    edx,DWORD PTR [esp+0x8]
 804cd18:	89 d8                	mov    eax,ebx
 804cd1a:	8b 4c 24 28          	mov    ecx,DWORD PTR [esp+0x28]
 804cd1e:	c7 44 24 04 00 00 00 	mov    DWORD PTR [esp+0x4],0x0
 804cd25:	00 
 804cd26:	89 14 24             	mov    DWORD PTR [esp],edx
 804cd29:	89 f2                	mov    edx,esi
 804cd2b:	e8 30 f2 ff ff       	call   804bf60
 804cd30:	8b 4c 24 24          	mov    ecx,DWORD PTR [esp+0x24]
 804cd34:	8b 44 24 14          	mov    eax,DWORD PTR [esp+0x14]
 804cd38:	89 f2                	mov    edx,esi
 804cd3a:	c7 44 24 04 00 00 00 	mov    DWORD PTR [esp+0x4],0x0
 804cd41:	00 
 804cd42:	89 04 24             	mov    DWORD PTR [esp],eax
 804cd45:	89 d8                	mov    eax,ebx
 804cd47:	e8 14 f2 ff ff       	call   804bf60
 804cd4c:	8b 7c 24 10          	mov    edi,DWORD PTR [esp+0x10]
 804cd50:	89 f2                	mov    edx,esi
 804cd52:	8b 4c 24 18          	mov    ecx,DWORD PTR [esp+0x18]
 804cd56:	89 d8                	mov    eax,ebx
 804cd58:	c7 44 24 04 00 00 00 	mov    DWORD PTR [esp+0x4],0x0
 804cd5f:	00 
 804cd60:	89 3c 24             	mov    DWORD PTR [esp],edi
 804cd63:	e8 f8 f1 ff ff       	call   804bf60
 804cd68:	8b 4c 24 1c          	mov    ecx,DWORD PTR [esp+0x1c]
 804cd6c:	89 f2                	mov    edx,esi
 804cd6e:	8b 7c 24 0c          	mov    edi,DWORD PTR [esp+0xc]
 804cd72:	89 d8                	mov    eax,ebx
 804cd74:	c7 44 24 04 01 00 00 	mov    DWORD PTR [esp+0x4],0x1
 804cd7b:	00 
 804cd7c:	89 0c 24             	mov    DWORD PTR [esp],ecx
 804cd7f:	89 f9                	mov    ecx,edi
 804cd81:	e8 da f1 ff ff       	call   804bf60
 804cd86:	03 7c 24 1c          	add    edi,DWORD PTR [esp+0x1c]
 804cd8a:	89 fa                	mov    edx,edi
 804cd8c:	89 7c 24 18          	mov    DWORD PTR [esp+0x18],edi
 804cd90:	8b 7c 24 08          	mov    edi,DWORD PTR [esp+0x8]
 804cd94:	83 ff 01             	cmp    edi,0x1
 804cd97:	0f 84 eb 03 00 00    	je     804d188
 804cd9d:	d1 ff                	sar    edi,1
 804cd9f:	89 d1                	mov    ecx,edx
 804cda1:	89 d8                	mov    eax,ebx
 804cda3:	89 f2                	mov    edx,esi
 804cda5:	c7 44 24 04 01 00 00 	mov    DWORD PTR [esp+0x4],0x1
 804cdac:	00 
 804cdad:	89 3c 24             	mov    DWORD PTR [esp],edi
 804cdb0:	e8 5b fc ff ff       	call   804ca10
 804cdb5:	8b 54 24 18          	mov    edx,DWORD PTR [esp+0x18]
 804cdb9:	89 d8                	mov    eax,ebx
 804cdbb:	c7 44 24 04 00 00 00 	mov    DWORD PTR [esp+0x4],0x0
 804cdc2:	00 
 804cdc3:	89 3c 24             	mov    DWORD PTR [esp],edi
 804cdc6:	8d 0c 3a             	lea    ecx,[edx+edi]
 804cdc9:	89 f2                	mov    edx,esi
 804cdcb:	e8 40 fc ff ff       	call   804ca10
 804cdd0:	8b 44 24 08          	mov    eax,DWORD PTR [esp+0x8]
 804cdd4:	89 f2                	mov    edx,esi
 804cdd6:	8b 4c 24 18          	mov    ecx,DWORD PTR [esp+0x18]
 804cdda:	c7 44 24 04 01 00 00 	mov    DWORD PTR [esp+0x4],0x1
 804cde1:	00 
 804cde2:	89 04 24             	mov    DWORD PTR [esp],eax
 804cde5:	89 d8                	mov    eax,ebx
 804cde7:	e8 74 f1 ff ff       	call   804bf60
 804cdec:	8b 54 24 08          	mov    edx,DWORD PTR [esp+0x8]
 804cdf0:	89 d8                	mov    eax,ebx
 804cdf2:	03 54 24 18          	add    edx,DWORD PTR [esp+0x18]
 804cdf6:	c7 44 24 04 01 00 00 	mov    DWORD PTR [esp+0x4],0x1
 804cdfd:	00 
 804cdfe:	89 3c 24             	mov    DWORD PTR [esp],edi
 804ce01:	89 d1                	mov    ecx,edx
 804ce03:	89 54 24 24          	mov    DWORD PTR [esp+0x24],edx
 804ce07:	89 f2                	mov    edx,esi
 804ce09:	e8 02 fc ff ff       	call   804ca10
 804ce0e:	8b 4c 24 24          	mov    ecx,DWORD PTR [esp+0x24]
 804ce12:	89 f2                	mov    edx,esi
 804ce14:	89 d8                	mov    eax,ebx
 804ce16:	c7 44 24 04 00 00 00 	mov    DWORD PTR [esp+0x4],0x0
 804ce1d:	00 
 804ce1e:	89 3c 24             	mov    DWORD PTR [esp],edi
 804ce21:	01 f9                	add    ecx,edi
 804ce23:	e8 e8 fb ff ff       	call   804ca10
 804ce28:	8b 44 24 08          	mov    eax,DWORD PTR [esp+0x8]
 804ce2c:	89 f2                	mov    edx,esi
 804ce2e:	8b 4c 24 24          	mov    ecx,DWORD PTR [esp+0x24]
 804ce32:	c7 44 24 04 00 00 00 	mov    DWORD PTR [esp+0x4],0x0
 804ce39:	00 
 804ce3a:	89 04 24             	mov    DWORD PTR [esp],eax
 804ce3d:	89 d8                	mov    eax,ebx
 804ce3f:	e8 1c f1 ff ff       	call   804bf60
 804ce44:	8b 4c 24 14          	mov    ecx,DWORD PTR [esp+0x14]
 804ce48:	89 f2                	mov    edx,esi
 804ce4a:	89 d8                	mov    eax,ebx
 804ce4c:	c7 44 24 04 01 00 00 	mov    DWORD PTR [esp+0x4],0x1
 804ce53:	00 
 804ce54:	89 0c 24             	mov    DWORD PTR [esp],ecx
 804ce57:	8b 4c 24 18          	mov    ecx,DWORD PTR [esp+0x18]
 804ce5b:	e8 00 f1 ff ff       	call   804bf60
 804ce60:	8b 44 24 08          	mov    eax,DWORD PTR [esp+0x8]
 804ce64:	89 f2                	mov    edx,esi
 804ce66:	8b 4c 24 14          	mov    ecx,DWORD PTR [esp+0x14]
 804ce6a:	03 4c 24 18          	add    ecx,DWORD PTR [esp+0x18]
 804ce6e:	c7 44 24 04 01 00 00 	mov    DWORD PTR [esp+0x4],0x1
 804ce75:	00 
 804ce76:	89 04 24             	mov    DWORD PTR [esp],eax
 804ce79:	89 d8                	mov    eax,ebx
 804ce7b:	89 4c 24 24          	mov    DWORD PTR [esp+0x24],ecx
 804ce7f:	e8 8c fb ff ff       	call   804ca10
 804ce84:	8b 44 24 08          	mov    eax,DWORD PTR [esp+0x8]
 804ce88:	89 f2                	mov    edx,esi
 804ce8a:	8b 4c 24 24          	mov    ecx,DWORD PTR [esp+0x24]
 804ce8e:	c7 44 24 04 00 00 00 	mov    DWORD PTR [esp+0x4],0x0
 804ce95:	00 
 804ce96:	89 04 24             	mov    DWORD PTR [esp],eax
 804ce99:	01 c1                	add    ecx,eax
 804ce9b:	89 d8                	mov    eax,ebx
 804ce9d:	e8 6e fb ff ff       	call   804ca10
 804cea2:	8b 54 24 14          	mov    edx,DWORD PTR [esp+0x14]
 804cea6:	89 d8                	mov    eax,ebx
 804cea8:	8b 4c 24 24          	mov    ecx,DWORD PTR [esp+0x24]
 804ceac:	c7 44 24 04 00 00 00 	mov    DWORD PTR [esp+0x4],0x0
 804ceb3:	00 
 804ceb4:	89 14 24             	mov    DWORD PTR [esp],edx
 804ceb7:	89 f2                	mov    edx,esi
 804ceb9:	e8 a2 f0 ff ff       	call   804bf60
 804cebe:	8b 54 24 10          	mov    edx,DWORD PTR [esp+0x10]
 804cec2:	89 d8                	mov    eax,ebx
 804cec4:	8b 4c 24 18          	mov    ecx,DWORD PTR [esp+0x18]
 804cec8:	c7 44 24 04 01 00 00 	mov    DWORD PTR [esp+0x4],0x1
 804cecf:	00 
 804ced0:	89 14 24             	mov    DWORD PTR [esp],edx
 804ced3:	89 f2                	mov    edx,esi
 804ced5:	e8 86 f0 ff ff       	call   804bf60
 804ceda:	8b 54 24 10          	mov    edx,DWORD PTR [esp+0x10]
 804cede:	89 d8                	mov    eax,ebx
 804cee0:	03 54 24 18          	add    edx,DWORD PTR [esp+0x18]
 804cee4:	c7 44 24 04 01 00 00 	mov    DWORD PTR [esp+0x4],0x1
 804ceeb:	00 
 804ceec:	89 3c 24             	mov    DWORD PTR [esp],edi
 804ceef:	89 d1                	mov    ecx,edx
 804cef1:	89 54 24 24          	mov    DWORD PTR [esp+0x24],edx
 804cef5:	89 f2                	mov    edx,esi
 804cef7:	e8 14 fb ff ff       	call   804ca10
 804cefc:	8b 54 24 24          	mov    edx,DWORD PTR [esp+0x24]
 804cf00:	89 d8                	mov    eax,ebx
 804cf02:	c7 44 24 04 00 00 00 	mov    DWORD PTR [esp+0x4],0x0
 804cf09:	00 
 804cf0a:	89 3c 24             	mov    DWORD PTR [esp],edi
 804cf0d:	8d 0c 17             	lea    ecx,[edi+edx]
 804cf10:	89 f2                	mov    edx,esi
 804cf12:	e8 f9 fa ff ff       	call   804ca10
 804cf17:	8b 44 24 08          	mov    eax,DWORD PTR [esp+0x8]
 804cf1b:	89 f2                	mov    edx,esi
 804cf1d:	8b 4c 24 24          	mov    ecx,DWORD PTR [esp+0x24]
 804cf21:	c7 44 24 04 01 00 00 	mov    DWORD PTR [esp+0x4],0x1
 804cf28:	00 
 804cf29:	89 04 24             	mov    DWORD PTR [esp],eax
 804cf2c:	89 d8                	mov    eax,ebx
 804cf2e:	e8 2d f0 ff ff       	call   804bf60
 804cf33:	8b 54 24 08          	mov    edx,DWORD PTR [esp+0x8]
 804cf37:	89 d8                	mov    eax,ebx
 804cf39:	03 54 24 24          	add    edx,DWORD PTR [esp+0x24]
 804cf3d:	c7 44 24 04 01 00 00 	mov    DWORD PTR [esp+0x4],0x1
 804cf44:	00 
 804cf45:	89 3c 24             	mov    DWORD PTR [esp],edi
 804cf48:	89 d1                	mov    ecx,edx
 804cf4a:	89 54 24 28          	mov    DWORD PTR [esp+0x28],edx
 804cf4e:	89 f2                	mov    edx,esi
 804cf50:	e8 bb fa ff ff       	call   804ca10
 804cf55:	8b 4c 24 28          	mov    ecx,DWORD PTR [esp+0x28]
 804cf59:	89 f2                	mov    edx,esi
 804cf5b:	89 d8                	mov    eax,ebx
 804cf5d:	c7 44 24 04 00 00 00 	mov    DWORD PTR [esp+0x4],0x0
 804cf64:	00 
 804cf65:	89 3c 24             	mov    DWORD PTR [esp],edi
 804cf68:	01 f9                	add    ecx,edi
 804cf6a:	e8 a1 fa ff ff       	call   804ca10
 804cf6f:	8b 44 24 08          	mov    eax,DWORD PTR [esp+0x8]
 804cf73:	89 f2                	mov    edx,esi
 804cf75:	8b 4c 24 28          	mov    ecx,DWORD PTR [esp+0x28]
 804cf79:	c7 44 24 04 00 00 00 	mov    DWORD PTR [esp+0x4],0x0
 804cf80:	00 
 804cf81:	89 04 24             	mov    DWORD PTR [esp],eax
 804cf84:	89 d8                	mov    eax,ebx
 804cf86:	e8 d5 ef ff ff       	call   804bf60
 804cf8b:	8b 4c 24 14          	mov    ecx,DWORD PTR [esp+0x14]
 804cf8f:	89 f2                	mov    edx,esi
 804cf91:	89 d8                	mov    eax,ebx
 804cf93:	c7 44 24 04 01 00 00 	mov    DWORD PTR [esp+0x4],0x1
 804cf9a:	00 
 804cf9b:	89 0c 24             	mov    DWORD PTR [esp],ecx
 804cf9e:	8b 4c 24 24          	mov    ecx,DWORD PTR [esp+0x24]
 804cfa2:	e8 b9 ef ff ff       	call   804bf60
 804cfa7:	8b 4c 24 14          	mov    ecx,DWORD PTR [esp+0x14]
 804cfab:	89 f2                	mov    edx,esi
 804cfad:	03 4c 24 24          	add    ecx,DWORD PTR [esp+0x24]
 804cfb1:	89 d8                	mov    eax,ebx
 804cfb3:	c7 44 24 04 01 00 00 	mov    DWORD PTR [esp+0x4],0x1
 804cfba:	00 
 804cfbb:	89 3c 24             	mov    DWORD PTR [esp],edi
 804cfbe:	89 4c 24 28          	mov    DWORD PTR [esp+0x28],ecx
 804cfc2:	e8 49 fa ff ff       	call   804ca10
 804cfc7:	8b 4c 24 28          	mov    ecx,DWORD PTR [esp+0x28]
 804cfcb:	89 f2                	mov    edx,esi
 804cfcd:	89 d8                	mov    eax,ebx
 804cfcf:	c7 44 24 04 00 00 00 	mov    DWORD PTR [esp+0x4],0x0
 804cfd6:	00 
 804cfd7:	89 3c 24             	mov    DWORD PTR [esp],edi
 804cfda:	01 f9                	add    ecx,edi
 804cfdc:	e8 2f fa ff ff       	call   804ca10
 804cfe1:	8b 44 24 08          	mov    eax,DWORD PTR [esp+0x8]
 804cfe5:	89 f2                	mov    edx,esi
 804cfe7:	8b 4c 24 28          	mov    ecx,DWORD PTR [esp+0x28]
 804cfeb:	c7 44 24 04 01 00 00 	mov    DWORD PTR [esp+0x4],0x1
 804cff2:	00 
 804cff3:	89 04 24             	mov    DWORD PTR [esp],eax
 804cff6:	89 d8                	mov    eax,ebx
 804cff8:	e8 63 ef ff ff       	call   804bf60
 804cffd:	8b 4c 24 08          	mov    ecx,DWORD PTR [esp+0x8]
 804d001:	89 f2                	mov    edx,esi
 804d003:	03 4c 24 28          	add    ecx,DWORD PTR [esp+0x28]
 804d007:	89 d8                	mov    eax,ebx
 804d009:	c7 44 24 04 01 00 00 	mov    DWORD PTR [esp+0x4],0x1
 804d010:	00 
 804d011:	89 3c 24             	mov    DWORD PTR [esp],edi
 804d014:	89 4c 24 2c          	mov    DWORD PTR [esp+0x2c],ecx
 804d018:	e8 f3 f9 ff ff       	call   804ca10
 804d01d:	8b 54 24 2c          	mov    edx,DWORD PTR [esp+0x2c]
 804d021:	89 d8                	mov    eax,ebx
 804d023:	c7 44 24 04 00 00 00 	mov    DWORD PTR [esp+0x4],0x0
 804d02a:	00 
 804d02b:	89 3c 24             	mov    DWORD PTR [esp],edi
 804d02e:	8d 0c 17             	lea    ecx,[edi+edx]
 804d031:	89 f2                	mov    edx,esi
 804d033:	e8 d8 f9 ff ff       	call   804ca10
 804d038:	8b 44 24 08          	mov    eax,DWORD PTR [esp+0x8]
 804d03c:	89 f2                	mov    edx,esi
 804d03e:	8b 4c 24 2c          	mov    ecx,DWORD PTR [esp+0x2c]
 804d042:	c7 44 24 04 00 00 00 	mov    DWORD PTR [esp+0x4],0x0
 804d049:	00 
 804d04a:	89 04 24             	mov    DWORD PTR [esp],eax
 804d04d:	89 d8                	mov    eax,ebx
 804d04f:	e8 0c ef ff ff       	call   804bf60
 804d054:	8b 4c 24 28          	mov    ecx,DWORD PTR [esp+0x28]
 804d058:	8b 44 24 14          	mov    eax,DWORD PTR [esp+0x14]
 804d05c:	89 f2                	mov    edx,esi
 804d05e:	c7 44 24 04 00 00 00 	mov    DWORD PTR [esp+0x4],0x0
 804d065:	00 
 804d066:	89 04 24             	mov    DWORD PTR [esp],eax
 804d069:	89 d8                	mov    eax,ebx
 804d06b:	e8 f0 ee ff ff       	call   804bf60
 804d070:	8b 4c 24 24          	mov    ecx,DWORD PTR [esp+0x24]
 804d074:	8b 44 24 10          	mov    eax,DWORD PTR [esp+0x10]
 804d078:	89 f2                	mov    edx,esi
 804d07a:	c7 44 24 04 00 00 00 	mov    DWORD PTR [esp+0x4],0x0
 804d081:	00 
 804d082:	89 04 24             	mov    DWORD PTR [esp],eax
 804d085:	89 d8                	mov    eax,ebx
 804d087:	e8 d4 ee ff ff       	call   804bf60
 804d08c:	8b 4c 24 18          	mov    ecx,DWORD PTR [esp+0x18]
 804d090:	8b 44 24 1c          	mov    eax,DWORD PTR [esp+0x1c]
 804d094:	89 f2                	mov    edx,esi
 804d096:	c7 44 24 04 00 00 00 	mov    DWORD PTR [esp+0x4],0x0
 804d09d:	00 
 804d09e:	89 04 24             	mov    DWORD PTR [esp],eax
 804d0a1:	89 d8                	mov    eax,ebx
 804d0a3:	e8 b8 ee ff ff       	call   804bf60
 804d0a8:	8b 44 24 20          	mov    eax,DWORD PTR [esp+0x20]
 804d0ac:	89 f2                	mov    edx,esi
 804d0ae:	89 6c 24 50          	mov    DWORD PTR [esp+0x50],ebp
 804d0b2:	8b 4c 24 0c          	mov    ecx,DWORD PTR [esp+0xc]
 804d0b6:	89 44 24 54          	mov    DWORD PTR [esp+0x54],eax
 804d0ba:	83 c4 3c             	add    esp,0x3c
 804d0bd:	89 d8                	mov    eax,ebx
 804d0bf:	5b                   	pop    ebx
 804d0c0:	5e                   	pop    esi
 804d0c1:	5f                   	pop    edi
 804d0c2:	5d                   	pop    ebp
 804d0c3:	e9 98 ee ff ff       	jmp    804bf60
 804d0c8:	83 c4 3c             	add    esp,0x3c
 804d0cb:	5b                   	pop    ebx
 804d0cc:	5e                   	pop    esi
 804d0cd:	5f                   	pop    edi
 804d0ce:	5d                   	pop    ebp
 804d0cf:	c3                   	ret
 804d0d0:	8b 7c 24 0c          	mov    edi,DWORD PTR [esp+0xc]
 804d0d4:	8b 44 24 10          	mov    eax,DWORD PTR [esp+0x10]
 804d0d8:	c7 44 24 04 01 00 00 	mov    DWORD PTR [esp+0x4],0x1
 804d0df:	00 
 804d0e0:	89 f9                	mov    ecx,edi
 804d0e2:	89 04 24             	mov    DWORD PTR [esp],eax
 804d0e5:	89 d8                	mov    eax,ebx
 804d0e7:	e8 74 ee ff ff       	call   804bf60
 804d0ec:	8b 44 24 10          	mov    eax,DWORD PTR [esp+0x10]
 804d0f0:	89 f9                	mov    ecx,edi
 804d0f2:	89 f2                	mov    edx,esi
 804d0f4:	c7 44 24 04 00 00 00 	mov    DWORD PTR [esp+0x4],0x0
 804d0fb:	00 
 804d0fc:	01 c1                	add    ecx,eax
 804d0fe:	89 04 24             	mov    DWORD PTR [esp],eax
 804d101:	89 d8                	mov    eax,ebx
 804d103:	e8 58 ee ff ff       	call   804bf60
 804d108:	8b 54 24 1c          	mov    edx,DWORD PTR [esp+0x1c]
 804d10c:	89 f9                	mov    ecx,edi
 804d10e:	89 d8                	mov    eax,ebx
 804d110:	c7 44 24 04 01 00 00 	mov    DWORD PTR [esp+0x4],0x1
 804d117:	00 
 804d118:	89 14 24             	mov    DWORD PTR [esp],edx
 804d11b:	89 f2                	mov    edx,esi
 804d11d:	e8 3e ee ff ff       	call   804bf60
 804d122:	8b 44 24 10          	mov    eax,DWORD PTR [esp+0x10]
 804d126:	89 f2                	mov    edx,esi
 804d128:	8b 4c 24 1c          	mov    ecx,DWORD PTR [esp+0x1c]
 804d12c:	c7 44 24 04 01 00 00 	mov    DWORD PTR [esp+0x4],0x1
 804d133:	00 
 804d134:	89 04 24             	mov    DWORD PTR [esp],eax
 804d137:	89 d8                	mov    eax,ebx
 804d139:	01 f9                	add    ecx,edi
 804d13b:	89 cf                	mov    edi,ecx
 804d13d:	89 4c 24 18          	mov    DWORD PTR [esp+0x18],ecx
 804d141:	e8 1a ee ff ff       	call   804bf60
 804d146:	8b 44 24 10          	mov    eax,DWORD PTR [esp+0x10]
 804d14a:	01 f8                	add    eax,edi
 804d14c:	89 44 24 24          	mov    DWORD PTR [esp+0x24],eax
 804d150:	89 c1                	mov    ecx,eax
 804d152:	e9 1d ff ff ff       	jmp    804d074
 804d157:	90                   	nop
 804d158:	8b 44 24 1c          	mov    eax,DWORD PTR [esp+0x1c]
 804d15c:	8b 7c 24 0c          	mov    edi,DWORD PTR [esp+0xc]
 804d160:	c7 44 24 04 01 00 00 	mov    DWORD PTR [esp+0x4],0x1
 804d167:	00 
 804d168:	89 04 24             	mov    DWORD PTR [esp],eax
 804d16b:	89 d8                	mov    eax,ebx
 804d16d:	89 f9                	mov    ecx,edi
 804d16f:	e8 ec ed ff ff       	call   804bf60
 804d174:	8b 44 24 1c          	mov    eax,DWORD PTR [esp+0x1c]
 804d178:	01 f8                	add    eax,edi
 804d17a:	89 44 24 18          	mov    DWORD PTR [esp+0x18],eax
 804d17e:	89 c1                	mov    ecx,eax
 804d180:	e9 0b ff ff ff       	jmp    804d090
 804d185:	8d 76 00             	lea    esi,[esi]
 804d188:	8b 7c 24 14          	mov    edi,DWORD PTR [esp+0x14]
 804d18c:	89 d1                	mov    ecx,edx
 804d18e:	89 d8                	mov    eax,ebx
 804d190:	89 f2                	mov    edx,esi
 804d192:	c7 44 24 04 01 00 00 	mov    DWORD PTR [esp+0x4],0x1
 804d199:	00 
 804d19a:	89 3c 24             	mov    DWORD PTR [esp],edi
 804d19d:	e8 be ed ff ff       	call   804bf60
 804d1a2:	89 f2                	mov    edx,esi
 804d1a4:	89 d8                	mov    eax,ebx
 804d1a6:	89 7c 24 14          	mov    DWORD PTR [esp+0x14],edi
 804d1aa:	03 7c 24 18          	add    edi,DWORD PTR [esp+0x18]
 804d1ae:	c7 44 24 04 01 00 00 	mov    DWORD PTR [esp+0x4],0x1
 804d1b5:	00 
 804d1b6:	c7 04 24 01 00 00 00 	mov    DWORD PTR [esp],0x1
 804d1bd:	89 f9                	mov    ecx,edi
 804d1bf:	e8 4c f8 ff ff       	call   804ca10
 804d1c4:	8d 4f 01             	lea    ecx,[edi+0x1]
 804d1c7:	89 f2                	mov    edx,esi
 804d1c9:	89 d8                	mov    eax,ebx
 804d1cb:	c7 44 24 04 00 00 00 	mov    DWORD PTR [esp+0x4],0x0
 804d1d2:	00 
 804d1d3:	c7 04 24 01 00 00 00 	mov    DWORD PTR [esp],0x1
 804d1da:	e8 31 f8 ff ff       	call   804ca10
 804d1df:	8b 44 24 14          	mov    eax,DWORD PTR [esp+0x14]
 804d1e3:	89 f9                	mov    ecx,edi
 804d1e5:	89 f2                	mov    edx,esi
 804d1e7:	c7 44 24 04 00 00 00 	mov    DWORD PTR [esp+0x4],0x0
 804d1ee:	00 
 804d1ef:	89 04 24             	mov    DWORD PTR [esp],eax
 804d1f2:	89 d8                	mov    eax,ebx
 804d1f4:	e8 67 ed ff ff       	call   804bf60
 804d1f9:	8b 7c 24 10          	mov    edi,DWORD PTR [esp+0x10]
 804d1fd:	89 f2                	mov    edx,esi
 804d1ff:	8b 4c 24 18          	mov    ecx,DWORD PTR [esp+0x18]
 804d203:	89 d8                	mov    eax,ebx
 804d205:	c7 44 24 04 01 00 00 	mov    DWORD PTR [esp+0x4],0x1
 804d20c:	00 
 804d20d:	89 3c 24             	mov    DWORD PTR [esp],edi
 804d210:	e8 4b ed ff ff       	call   804bf60
 804d215:	8b 54 24 18          	mov    edx,DWORD PTR [esp+0x18]
 804d219:	89 d8                	mov    eax,ebx
 804d21b:	c7 44 24 04 01 00 00 	mov    DWORD PTR [esp+0x4],0x1
 804d222:	00 
 804d223:	01 fa                	add    edx,edi
 804d225:	8b 7c 24 14          	mov    edi,DWORD PTR [esp+0x14]
 804d229:	89 d1                	mov    ecx,edx
 804d22b:	89 54 24 24          	mov    DWORD PTR [esp+0x24],edx
 804d22f:	89 f2                	mov    edx,esi
 804d231:	89 3c 24             	mov    DWORD PTR [esp],edi
 804d234:	e8 27 ed ff ff       	call   804bf60
 804d239:	8b 44 24 24          	mov    eax,DWORD PTR [esp+0x24]
 804d23d:	01 f8                	add    eax,edi
 804d23f:	89 44 24 28          	mov    DWORD PTR [esp+0x28],eax
 804d243:	89 c1                	mov    ecx,eax
 804d245:	e9 0e fe ff ff       	jmp    804d058
 804d24a:	8d b6 00 00 00 00    	lea    esi,[esi]
 804d250:	8b 7c 24 0c          	mov    edi,DWORD PTR [esp+0xc]
 804d254:	8b 44 24 14          	mov    eax,DWORD PTR [esp+0x14]
 804d258:	c7 44 24 04 01 00 00 	mov    DWORD PTR [esp+0x4],0x1
 804d25f:	00 
 804d260:	89 f9                	mov    ecx,edi
 804d262:	89 04 24             	mov    DWORD PTR [esp],eax
 804d265:	89 d8                	mov    eax,ebx
 804d267:	e8 f4 ec ff ff       	call   804bf60
 804d26c:	89 f2                	mov    edx,esi
 804d26e:	89 d8                	mov    eax,ebx
 804d270:	89 7c 24 0c          	mov    DWORD PTR [esp+0xc],edi
 804d274:	03 7c 24 14          	add    edi,DWORD PTR [esp+0x14]
 804d278:	c7 44 24 04 01 00 00 	mov    DWORD PTR [esp+0x4],0x1
 804d27f:	00 
 804d280:	c7 04 24 01 00 00 00 	mov    DWORD PTR [esp],0x1
 804d287:	89 f9                	mov    ecx,edi
 804d289:	e8 82 f7 ff ff       	call   804ca10
 804d28e:	8d 4f 01             	lea    ecx,[edi+0x1]
 804d291:	89 f2                	mov    edx,esi
 804d293:	89 d8                	mov    eax,ebx
 804d295:	c7 44 24 04 00 00 00 	mov    DWORD PTR [esp+0x4],0x0
 804d29c:	00 
 804d29d:	c7 04 24 01 00 00 00 	mov    DWORD PTR [esp],0x1
 804d2a4:	e8 67 f7 ff ff       	call   804ca10
 804d2a9:	8b 44 24 14          	mov    eax,DWORD PTR [esp+0x14]
 804d2ad:	89 f9                	mov    ecx,edi
 804d2af:	89 f2                	mov    edx,esi
 804d2b1:	c7 44 24 04 00 00 00 	mov    DWORD PTR [esp+0x4],0x0
 804d2b8:	00 
 804d2b9:	89 04 24             	mov    DWORD PTR [esp],eax
 804d2bc:	89 d8                	mov    eax,ebx
 804d2be:	e8 9d ec ff ff       	call   804bf60
 804d2c3:	8b 54 24 10          	mov    edx,DWORD PTR [esp+0x10]
 804d2c7:	89 d8                	mov    eax,ebx
 804d2c9:	8b 7c 24 0c          	mov    edi,DWORD PTR [esp+0xc]
 804d2cd:	c7 44 24 04 01 00 00 	mov    DWORD PTR [esp+0x4],0x1
 804d2d4:	00 
 804d2d5:	89 14 24             	mov    DWORD PTR [esp],edx
 804d2d8:	89 f2                	mov    edx,esi
 804d2da:	89 f9                	mov    ecx,edi
 804d2dc:	e8 7f ec ff ff       	call   804bf60
 804d2e1:	8b 44 24 14          	mov    eax,DWORD PTR [esp+0x14]
 804d2e5:	89 f2                	mov    edx,esi
 804d2e7:	03 7c 24 10          	add    edi,DWORD PTR [esp+0x10]
 804d2eb:	c7 44 24 04 01 00 00 	mov    DWORD PTR [esp+0x4],0x1
 804d2f2:	00 
 804d2f3:	89 04 24             	mov    DWORD PTR [esp],eax
 804d2f6:	89 f9                	mov    ecx,edi
 804d2f8:	89 d8                	mov    eax,ebx
 804d2fa:	89 7c 24 18          	mov    DWORD PTR [esp+0x18],edi
 804d2fe:	e8 5d ec ff ff       	call   804bf60
 804d303:	8b 44 24 14          	mov    eax,DWORD PTR [esp+0x14]
 804d307:	01 f8                	add    eax,edi
 804d309:	89 44 24 24          	mov    DWORD PTR [esp+0x24],eax
 804d30d:	89 c1                	mov    ecx,eax
 804d30f:	e9 20 fa ff ff       	jmp    804cd34
 804d314:	8d b6 00 00 00 00    	lea    esi,[esi]
 804d31a:	8d bf 00 00 00 00    	lea    edi,[edi]

0804d320 <BitonicSubSort_General>:
 804d320:	55                   	push   ebp
 804d321:	89 cd                	mov    ebp,ecx
 804d323:	57                   	push   edi
 804d324:	56                   	push   esi
 804d325:	53                   	push   ebx
 804d326:	89 c3                	mov    ebx,eax
 804d328:	83 ec 3c             	sub    esp,0x3c
 804d32b:	83 f9 01             	cmp    ecx,0x1
 804d32e:	8b 44 24 50          	mov    eax,DWORD PTR [esp+0x50]
 804d332:	89 54 24 10          	mov    DWORD PTR [esp+0x10],edx
 804d336:	89 44 24 18          	mov    DWORD PTR [esp+0x18],eax
 804d33a:	8b 44 24 54          	mov    eax,DWORD PTR [esp+0x54]
 804d33e:	89 44 24 1c          	mov    DWORD PTR [esp+0x1c],eax
 804d342:	0f 8e 00 07 00 00    	jle    804da48
 804d348:	89 c8                	mov    eax,ecx
 804d34a:	d1 f8                	sar    eax,1
 804d34c:	83 f8 01             	cmp    eax,0x1
 804d34f:	89 44 24 20          	mov    DWORD PTR [esp+0x20],eax
 804d353:	0f 84 cb 06 00 00    	je     804da24
 804d359:	89 c8                	mov    eax,ecx
 804d35b:	c1 f8 02             	sar    eax,0x2
 804d35e:	83 f8 01             	cmp    eax,0x1
 804d361:	89 44 24 14          	mov    DWORD PTR [esp+0x14],eax
 804d365:	0f 84 6d 07 00 00    	je     804dad8
 804d36b:	89 ce                	mov    esi,ecx
 804d36d:	c1 fe 03             	sar    esi,0x3
 804d370:	83 fe 01             	cmp    esi,0x1
 804d373:	89 74 24 0c          	mov    DWORD PTR [esp+0xc],esi
 804d377:	0f 84 d3 06 00 00    	je     804da50
 804d37d:	89 c8                	mov    eax,ecx
 804d37f:	c1 f8 04             	sar    eax,0x4
 804d382:	83 f8 01             	cmp    eax,0x1
 804d385:	89 44 24 08          	mov    DWORD PTR [esp+0x8],eax
 804d389:	0f 84 51 08 00 00    	je     804dbe0
 804d38f:	89 cf                	mov    edi,ecx
 804d391:	89 d8                	mov    eax,ebx
 804d393:	c1 ff 05             	sar    edi,0x5
 804d396:	89 fe                	mov    esi,edi
 804d398:	89 f9                	mov    ecx,edi
 804d39a:	c7 44 24 04 01 00 00 	mov    DWORD PTR [esp+0x4],0x1
 804d3a1:	00 
 804d3a2:	89 d7                	mov    edi,edx
 804d3a4:	c7 04 24 01 00 00 00 	mov    DWORD PTR [esp],0x1
 804d3ab:	e8 70 ff ff ff       	call   804d320
 804d3b0:	8d 14 37             	lea    edx,[edi+esi]
 804d3b3:	89 f1                	mov    ecx,esi
 804d3b5:	89 d8                	mov    eax,ebx
 804d3b7:	c7 44 24 04 00 00 00 	mov    DWORD PTR [esp+0x4],0x0
 804d3be:	00 
 804d3bf:	c7 04 24 00 00 00 00 	mov    DWORD PTR [esp],0x0
 804d3c6:	e8 55 ff ff ff       	call   804d320
 804d3cb:	8b 4c 24 08          	mov    ecx,DWORD PTR [esp+0x8]
 804d3cf:	89 fa                	mov    edx,edi
 804d3d1:	89 d8                	mov    eax,ebx
 804d3d3:	c7 44 24 04 01 00 00 	mov    DWORD PTR [esp+0x4],0x1
 804d3da:	00 
 804d3db:	c7 04 24 01 00 00 00 	mov    DWORD PTR [esp],0x1
 804d3e2:	e8 19 ea ff ff       	call   804be00
 804d3e7:	89 f1                	mov    ecx,esi
 804d3e9:	89 d8                	mov    eax,ebx
 804d3eb:	89 7c 24 10          	mov    DWORD PTR [esp+0x10],edi
 804d3ef:	03 7c 24 08          	add    edi,DWORD PTR [esp+0x8]
 804d3f3:	c7 44 24 04 01 00 00 	mov    DWORD PTR [esp+0x4],0x1
 804d3fa:	00 
 804d3fb:	c7 04 24 01 00 00 00 	mov    DWORD PTR [esp],0x1
 804d402:	89 fa                	mov    edx,edi
 804d404:	e8 17 ff ff ff       	call   804d320
 804d409:	8d 14 3e             	lea    edx,[esi+edi]
 804d40c:	89 f1                	mov    ecx,esi
 804d40e:	89 d8                	mov    eax,ebx
 804d410:	c7 44 24 04 00 00 00 	mov    DWORD PTR [esp+0x4],0x0
 804d417:	00 
 804d418:	c7 04 24 00 00 00 00 	mov    DWORD PTR [esp],0x0
 804d41f:	e8 fc fe ff ff       	call   804d320
 804d424:	8b 4c 24 08          	mov    ecx,DWORD PTR [esp+0x8]
 804d428:	89 fa                	mov    edx,edi
 804d42a:	89 d8                	mov    eax,ebx
 804d42c:	c7 44 24 04 00 00 00 	mov    DWORD PTR [esp+0x4],0x0
 804d433:	00 
 804d434:	c7 04 24 00 00 00 00 	mov    DWORD PTR [esp],0x0
 804d43b:	e8 c0 e9 ff ff       	call   804be00
 804d440:	8b 7c 24 10          	mov    edi,DWORD PTR [esp+0x10]
 804d444:	89 d8                	mov    eax,ebx
 804d446:	8b 4c 24 0c          	mov    ecx,DWORD PTR [esp+0xc]
 804d44a:	c7 44 24 04 01 00 00 	mov    DWORD PTR [esp+0x4],0x1
 804d451:	00 
 804d452:	c7 04 24 01 00 00 00 	mov    DWORD PTR [esp],0x1
 804d459:	89 fa                	mov    edx,edi
 804d45b:	e8 a0 e9 ff ff       	call   804be00
 804d460:	8b 4c 24 08          	mov    ecx,DWORD PTR [esp+0x8]
 804d464:	89 d8                	mov    eax,ebx
 804d466:	89 7c 24 10          	mov    DWORD PTR [esp+0x10],edi
 804d46a:	03 7c 24 0c          	add    edi,DWORD PTR [esp+0xc]
 804d46e:	c7 44 24 04 01 00 00 	mov    DWORD PTR [esp+0x4],0x1
 804d475:	00 
 804d476:	c7 04 24 01 00 00 00 	mov    DWORD PTR [esp],0x1
 804d47d:	89 fa                	mov    edx,edi
 804d47f:	e8 9c fe ff ff       	call   804d320
 804d484:	8b 4c 24 08          	mov    ecx,DWORD PTR [esp+0x8]
 804d488:	89 d8                	mov    eax,ebx
 804d48a:	c7 44 24 04 00 00 00 	mov    DWORD PTR [esp+0x4],0x0
 804d491:	00 
 804d492:	c7 04 24 00 00 00 00 	mov    DWORD PTR [esp],0x0
 804d499:	8d 14 39             	lea    edx,[ecx+edi]
 804d49c:	e8 7f fe ff ff       	call   804d320
 804d4a1:	8b 4c 24 0c          	mov    ecx,DWORD PTR [esp+0xc]
 804d4a5:	89 fa                	mov    edx,edi
 804d4a7:	89 d8                	mov    eax,ebx
 804d4a9:	c7 44 24 04 00 00 00 	mov    DWORD PTR [esp+0x4],0x0
 804d4b0:	00 
 804d4b1:	c7 04 24 00 00 00 00 	mov    DWORD PTR [esp],0x0
 804d4b8:	e8 43 e9 ff ff       	call   804be00
 804d4bd:	8b 7c 24 10          	mov    edi,DWORD PTR [esp+0x10]
 804d4c1:	89 d8                	mov    eax,ebx
 804d4c3:	8b 4c 24 14          	mov    ecx,DWORD PTR [esp+0x14]
 804d4c7:	c7 44 24 04 01 00 00 	mov    DWORD PTR [esp+0x4],0x1
 804d4ce:	00 
 804d4cf:	c7 04 24 01 00 00 00 	mov    DWORD PTR [esp],0x1
 804d4d6:	89 fa                	mov    edx,edi
 804d4d8:	e8 23 e9 ff ff       	call   804be00
 804d4dd:	89 f1                	mov    ecx,esi
 804d4df:	89 d8                	mov    eax,ebx
 804d4e1:	03 7c 24 14          	add    edi,DWORD PTR [esp+0x14]
 804d4e5:	c7 44 24 04 01 00 00 	mov    DWORD PTR [esp+0x4],0x1
 804d4ec:	00 
 804d4ed:	c7 04 24 01 00 00 00 	mov    DWORD PTR [esp],0x1
 804d4f4:	89 fa                	mov    edx,edi
 804d4f6:	89 7c 24 24          	mov    DWORD PTR [esp+0x24],edi
 804d4fa:	e8 21 fe ff ff       	call   804d320
 804d4ff:	8d 14 3e             	lea    edx,[esi+edi]
 804d502:	89 f1                	mov    ecx,esi
 804d504:	89 d8                	mov    eax,ebx
 804d506:	c7 44 24 04 00 00 00 	mov    DWORD PTR [esp+0x4],0x0
 804d50d:	00 
 804d50e:	c7 04 24 00 00 00 00 	mov    DWORD PTR [esp],0x0
 804d515:	e8 06 fe ff ff       	call   804d320
 804d51a:	8b 4c 24 08          	mov    ecx,DWORD PTR [esp+0x8]
 804d51e:	89 fa                	mov    edx,edi
 804d520:	89 d8                	mov    eax,ebx
 804d522:	c7 44 24 04 01 00 00 	mov    DWORD PTR [esp+0x4],0x1
 804d529:	00 
 804d52a:	c7 04 24 01 00 00 00 	mov    DWORD PTR [esp],0x1
 804d531:	e8 ca e8 ff ff       	call   804be00
 804d536:	8b 44 24 08          	mov    eax,DWORD PTR [esp+0x8]
 804d53a:	89 f1                	mov    ecx,esi
 804d53c:	89 7c 24 24          	mov    DWORD PTR [esp+0x24],edi
 804d540:	c7 44 24 04 01 00 00 	mov    DWORD PTR [esp+0x4],0x1
 804d547:	00 
 804d548:	c7 04 24 01 00 00 00 	mov    DWORD PTR [esp],0x1
 804d54f:	01 f8                	add    eax,edi
 804d551:	89 c7                	mov    edi,eax
 804d553:	89 c2                	mov    edx,eax
 804d555:	89 d8                	mov    eax,ebx
 804d557:	e8 c4 fd ff ff       	call   804d320
 804d55c:	8d 14 3e             	lea    edx,[esi+edi]
 804d55f:	89 f1                	mov    ecx,esi
 804d561:	89 d8                	mov    eax,ebx
 804d563:	c7 44 24 04 00 00 00 	mov    DWORD PTR [esp+0x4],0x0
 804d56a:	00 
 804d56b:	c7 04 24 00 00 00 00 	mov    DWORD PTR [esp],0x0
 804d572:	e8 a9 fd ff ff       	call   804d320
 804d577:	8b 4c 24 08          	mov    ecx,DWORD PTR [esp+0x8]
 804d57b:	89 fa                	mov    edx,edi
 804d57d:	89 d8                	mov    eax,ebx
 804d57f:	c7 44 24 04 00 00 00 	mov    DWORD PTR [esp+0x4],0x0
 804d586:	00 
 804d587:	c7 04 24 00 00 00 00 	mov    DWORD PTR [esp],0x0
 804d58e:	e8 6d e8 ff ff       	call   804be00
 804d593:	8b 7c 24 24          	mov    edi,DWORD PTR [esp+0x24]
 804d597:	89 d8                	mov    eax,ebx
 804d599:	8b 4c 24 0c          	mov    ecx,DWORD PTR [esp+0xc]
 804d59d:	c7 44 24 04 01 00 00 	mov    DWORD PTR [esp+0x4],0x1
 804d5a4:	00 
 804d5a5:	c7 04 24 01 00 00 00 	mov    DWORD PTR [esp],0x1
 804d5ac:	89 fa                	mov    edx,edi
 804d5ae:	e8 4d e8 ff ff       	call   804be00
 804d5b3:	8b 54 24 0c          	mov    edx,DWORD PTR [esp+0xc]
 804d5b7:	89 f1                	mov    ecx,esi
 804d5b9:	89 d8                	mov    eax,ebx
 804d5bb:	c7 44 24 04 01 00 00 	mov    DWORD PTR [esp+0x4],0x1
 804d5c2:	00 
 804d5c3:	c7 04 24 01 00 00 00 	mov    DWORD PTR [esp],0x1
 804d5ca:	01 fa                	add    edx,edi
 804d5cc:	89 d7                	mov    edi,edx
 804d5ce:	e8 4d fd ff ff       	call   804d320
 804d5d3:	8d 14 3e             	lea    edx,[esi+edi]
 804d5d6:	89 f1                	mov    ecx,esi
 804d5d8:	89 d8                	mov    eax,ebx
 804d5da:	c7 44 24 04 00 00 00 	mov    DWORD PTR [esp+0x4],0x0
 804d5e1:	00 
 804d5e2:	c7 04 24 00 00 00 00 	mov    DWORD PTR [esp],0x0
 804d5e9:	e8 32 fd ff ff       	call   804d320
 804d5ee:	8b 4c 24 08          	mov    ecx,DWORD PTR [esp+0x8]
 804d5f2:	89 fa                	mov    edx,edi
 804d5f4:	89 d8                	mov    eax,ebx
 804d5f6:	c7 44 24 04 01 00 00 	mov    DWORD PTR [esp+0x4],0x1
 804d5fd:	00 
 804d5fe:	c7 04 24 01 00 00 00 	mov    DWORD PTR [esp],0x1
 804d605:	e8 f6 e7 ff ff       	call   804be00
 804d60a:	8b 44 24 08          	mov    eax,DWORD PTR [esp+0x8]
 804d60e:	89 f1                	mov    ecx,esi
 804d610:	c7 44 24 04 01 00 00 	mov    DWORD PTR [esp+0x4],0x1
 804d617:	00 
 804d618:	c7 04 24 01 00 00 00 	mov    DWORD PTR [esp],0x1
 804d61f:	8d 14 38             	lea    edx,[eax+edi]
 804d622:	89 d8                	mov    eax,ebx
 804d624:	89 54 24 28          	mov    DWORD PTR [esp+0x28],edx
 804d628:	e8 f3 fc ff ff       	call   804d320
 804d62d:	8b 54 24 28          	mov    edx,DWORD PTR [esp+0x28]
 804d631:	89 f1                	mov    ecx,esi
 804d633:	89 d8                	mov    eax,ebx
 804d635:	c7 44 24 04 00 00 00 	mov    DWORD PTR [esp+0x4],0x0
 804d63c:	00 
 804d63d:	c7 04 24 00 00 00 00 	mov    DWORD PTR [esp],0x0
 804d644:	01 f2                	add    edx,esi
 804d646:	e8 d5 fc ff ff       	call   804d320
 804d64b:	8b 4c 24 08          	mov    ecx,DWORD PTR [esp+0x8]
 804d64f:	89 d8                	mov    eax,ebx
 804d651:	8b 54 24 28          	mov    edx,DWORD PTR [esp+0x28]
 804d655:	c7 44 24 04 00 00 00 	mov    DWORD PTR [esp+0x4],0x0
 804d65c:	00 
 804d65d:	c7 04 24 00 00 00 00 	mov    DWORD PTR [esp],0x0
 804d664:	e8 97 e7 ff ff       	call   804be00
 804d669:	8b 4c 24 0c          	mov    ecx,DWORD PTR [esp+0xc]
 804d66d:	89 fa                	mov    edx,edi
 804d66f:	89 d8                	mov    eax,ebx
 804d671:	c7 44 24 04 00 00 00 	mov    DWORD PTR [esp+0x4],0x0
 804d678:	00 
 804d679:	c7 04 24 00 00 00 00 	mov    DWORD PTR [esp],0x0
 804d680:	e8 7b e7 ff ff       	call   804be00
 804d685:	8b 4c 24 14          	mov    ecx,DWORD PTR [esp+0x14]
 804d689:	89 d8                	mov    eax,ebx
 804d68b:	8b 54 24 24          	mov    edx,DWORD PTR [esp+0x24]
 804d68f:	c7 44 24 04 00 00 00 	mov    DWORD PTR [esp+0x4],0x0
 804d696:	00 
 804d697:	c7 04 24 00 00 00 00 	mov    DWORD PTR [esp],0x0
 804d69e:	e8 5d e7 ff ff       	call   804be00
 804d6a3:	8b 74 24 20          	mov    esi,DWORD PTR [esp+0x20]
 804d6a7:	89 d8                	mov    eax,ebx
 804d6a9:	8b 7c 24 10          	mov    edi,DWORD PTR [esp+0x10]
 804d6ad:	c7 44 24 04 01 00 00 	mov    DWORD PTR [esp+0x4],0x1
 804d6b4:	00 
 804d6b5:	c7 04 24 01 00 00 00 	mov    DWORD PTR [esp],0x1
 804d6bc:	89 f1                	mov    ecx,esi
 804d6be:	89 fa                	mov    edx,edi
 804d6c0:	01 f7                	add    edi,esi
 804d6c2:	e8 39 e7 ff ff       	call   804be00
 804d6c7:	8b 74 24 08          	mov    esi,DWORD PTR [esp+0x8]
 804d6cb:	83 fe 01             	cmp    esi,0x1
 804d6ce:	0f 84 34 04 00 00    	je     804db08
 804d6d4:	d1 fe                	sar    esi,1
 804d6d6:	89 fa                	mov    edx,edi
 804d6d8:	89 f1                	mov    ecx,esi
 804d6da:	89 d8                	mov    eax,ebx
 804d6dc:	c7 44 24 04 01 00 00 	mov    DWORD PTR [esp+0x4],0x1
 804d6e3:	00 
 804d6e4:	c7 04 24 01 00 00 00 	mov    DWORD PTR [esp],0x1
 804d6eb:	e8 30 fc ff ff       	call   804d320
 804d6f0:	8d 14 37             	lea    edx,[edi+esi]
 804d6f3:	89 f1                	mov    ecx,esi
 804d6f5:	89 d8                	mov    eax,ebx
 804d6f7:	c7 44 24 04 00 00 00 	mov    DWORD PTR [esp+0x4],0x0
 804d6fe:	00 
 804d6ff:	c7 04 24 00 00 00 00 	mov    DWORD PTR [esp],0x0
 804d706:	e8 15 fc ff ff       	call   804d320
 804d70b:	8b 4c 24 08          	mov    ecx,DWORD PTR [esp+0x8]
 804d70f:	89 fa                	mov    edx,edi
 804d711:	89 d8                	mov    eax,ebx
 804d713:	c7 44 24 04 01 00 00 	mov    DWORD PTR [esp+0x4],0x1
 804d71a:	00 
 804d71b:	c7 04 24 01 00 00 00 	mov    DWORD PTR [esp],0x1
 804d722:	e8 d9 e6 ff ff       	call   804be00
 804d727:	8b 44 24 08          	mov    eax,DWORD PTR [esp+0x8]
 804d72b:	c7 44 24 04 01 00 00 	mov    DWORD PTR [esp+0x4],0x1
 804d732:	00 
 804d733:	c7 04 24 01 00 00 00 	mov    DWORD PTR [esp],0x1
 804d73a:	8d 0c 38             	lea    ecx,[eax+edi]
 804d73d:	89 d8                	mov    eax,ebx
 804d73f:	89 ca                	mov    edx,ecx
 804d741:	89 f1                	mov    ecx,esi
 804d743:	89 54 24 24          	mov    DWORD PTR [esp+0x24],edx
 804d747:	e8 d4 fb ff ff       	call   804d320
 804d74c:	8b 4c 24 24          	mov    ecx,DWORD PTR [esp+0x24]
 804d750:	89 d8                	mov    eax,ebx
 804d752:	c7 44 24 04 00 00 00 	mov    DWORD PTR [esp+0x4],0x0
 804d759:	00 
 804d75a:	c7 04 24 00 00 00 00 	mov    DWORD PTR [esp],0x0
 804d761:	8d 14 0e             	lea    edx,[esi+ecx]
 804d764:	89 f1                	mov    ecx,esi
 804d766:	e8 b5 fb ff ff       	call   804d320
 804d76b:	8b 4c 24 08          	mov    ecx,DWORD PTR [esp+0x8]
 804d76f:	89 d8                	mov    eax,ebx
 804d771:	8b 54 24 24          	mov    edx,DWORD PTR [esp+0x24]
 804d775:	c7 44 24 04 00 00 00 	mov    DWORD PTR [esp+0x4],0x0
 804d77c:	00 
 804d77d:	c7 04 24 00 00 00 00 	mov    DWORD PTR [esp],0x0
 804d784:	e8 77 e6 ff ff       	call   804be00
 804d789:	8b 4c 24 0c          	mov    ecx,DWORD PTR [esp+0xc]
 804d78d:	89 fa                	mov    edx,edi
 804d78f:	89 d8                	mov    eax,ebx
 804d791:	c7 44 24 04 01 00 00 	mov    DWORD PTR [esp+0x4],0x1
 804d798:	00 
 804d799:	c7 04 24 01 00 00 00 	mov    DWORD PTR [esp],0x1
 804d7a0:	e8 5b e6 ff ff       	call   804be00
 804d7a5:	8b 54 24 0c          	mov    edx,DWORD PTR [esp+0xc]
 804d7a9:	89 d8                	mov    eax,ebx
 804d7ab:	c7 44 24 04 01 00 00 	mov    DWORD PTR [esp+0x4],0x1
 804d7b2:	00 
 804d7b3:	c7 04 24 01 00 00 00 	mov    DWORD PTR [esp],0x1
 804d7ba:	8d 0c 3a             	lea    ecx,[edx+edi]
 804d7bd:	89 ca                	mov    edx,ecx
 804d7bf:	8b 4c 24 08          	mov    ecx,DWORD PTR [esp+0x8]
 804d7c3:	89 54 24 24          	mov    DWORD PTR [esp+0x24],edx
 804d7c7:	e8 54 fb ff ff       	call   804d320
 804d7cc:	8b 44 24 08          	mov    eax,DWORD PTR [esp+0x8]
 804d7d0:	8b 4c 24 24          	mov    ecx,DWORD PTR [esp+0x24]
 804d7d4:	c7 44 24 04 00 00 00 	mov    DWORD PTR [esp+0x4],0x0
 804d7db:	00 
 804d7dc:	c7 04 24 00 00 00 00 	mov    DWORD PTR [esp],0x0
 804d7e3:	01 c1                	add    ecx,eax
 804d7e5:	89 ca                	mov    edx,ecx
 804d7e7:	89 c1                	mov    ecx,eax
 804d7e9:	89 d8                	mov    eax,ebx
 804d7eb:	e8 30 fb ff ff       	call   804d320
 804d7f0:	8b 4c 24 0c          	mov    ecx,DWORD PTR [esp+0xc]
 804d7f4:	89 d8                	mov    eax,ebx
 804d7f6:	8b 54 24 24          	mov    edx,DWORD PTR [esp+0x24]
 804d7fa:	c7 44 24 04 00 00 00 	mov    DWORD PTR [esp+0x4],0x0
 804d801:	00 
 804d802:	c7 04 24 00 00 00 00 	mov    DWORD PTR [esp],0x0
 804d809:	e8 f2 e5 ff ff       	call   804be00
 804d80e:	8b 4c 24 14          	mov    ecx,DWORD PTR [esp+0x14]
 804d812:	89 fa                	mov    edx,edi
 804d814:	89 d8                	mov    eax,ebx
 804d816:	c7 44 24 04 01 00 00 	mov    DWORD PTR [esp+0x4],0x1
 804d81d:	00 
 804d81e:	c7 04 24 01 00 00 00 	mov    DWORD PTR [esp],0x1
 804d825:	e8 d6 e5 ff ff       	call   804be00
 804d82a:	8b 54 24 14          	mov    edx,DWORD PTR [esp+0x14]
 804d82e:	89 f1                	mov    ecx,esi
 804d830:	89 d8                	mov    eax,ebx
 804d832:	c7 44 24 04 01 00 00 	mov    DWORD PTR [esp+0x4],0x1
 804d839:	00 
 804d83a:	c7 04 24 01 00 00 00 	mov    DWORD PTR [esp],0x1
 804d841:	01 fa                	add    edx,edi
 804d843:	89 54 24 24          	mov    DWORD PTR [esp+0x24],edx
 804d847:	e8 d4 fa ff ff       	call   804d320
 804d84c:	8b 54 24 24          	mov    edx,DWORD PTR [esp+0x24]
 804d850:	89 f1                	mov    ecx,esi
 804d852:	89 d8                	mov    eax,ebx
 804d854:	c7 44 24 04 00 00 00 	mov    DWORD PTR [esp+0x4],0x0
 804d85b:	00 
 804d85c:	c7 04 24 00 00 00 00 	mov    DWORD PTR [esp],0x0
 804d863:	01 f2                	add    edx,esi
 804d865:	e8 b6 fa ff ff       	call   804d320
 804d86a:	8b 4c 24 08          	mov    ecx,DWORD PTR [esp+0x8]
 804d86e:	89 d8                	mov    eax,ebx
 804d870:	8b 54 24 24          	mov    edx,DWORD PTR [esp+0x24]
 804d874:	c7 44 24 04 01 00 00 	mov    DWORD PTR [esp+0x4],0x1
 804d87b:	00 
 804d87c:	c7 04 24 01 00 00 00 	mov    DWORD PTR [esp],0x1
 804d883:	e8 78 e5 ff ff       	call   804be00
 804d888:	8b 44 24 08          	mov    eax,DWORD PTR [esp+0x8]
 804d88c:	89 f1                	mov    ecx,esi
 804d88e:	03 44 24 24          	add    eax,DWORD PTR [esp+0x24]
 804d892:	c7 44 24 04 01 00 00 	mov    DWORD PTR [esp+0x4],0x1
 804d899:	00 
 804d89a:	c7 04 24 01 00 00 00 	mov    DWORD PTR [esp],0x1
 804d8a1:	89 c2                	mov    edx,eax
 804d8a3:	89 44 24 28          	mov    DWORD PTR [esp+0x28],eax
 804d8a7:	89 d8                	mov    eax,ebx
 804d8a9:	e8 72 fa ff ff       	call   804d320
 804d8ae:	8b 54 24 28          	mov    edx,DWORD PTR [esp+0x28]
 804d8b2:	89 f1                	mov    ecx,esi
 804d8b4:	89 d8                	mov    eax,ebx
 804d8b6:	c7 44 24 04 00 00 00 	mov    DWORD PTR [esp+0x4],0x0
 804d8bd:	00 
 804d8be:	c7 04 24 00 00 00 00 	mov    DWORD PTR [esp],0x0
 804d8c5:	01 f2                	add    edx,esi
 804d8c7:	e8 54 fa ff ff       	call   804d320
 804d8cc:	8b 4c 24 08          	mov    ecx,DWORD PTR [esp+0x8]
 804d8d0:	89 d8                	mov    eax,ebx
 804d8d2:	8b 54 24 28          	mov    edx,DWORD PTR [esp+0x28]
 804d8d6:	c7 44 24 04 00 00 00 	mov    DWORD PTR [esp+0x4],0x0
 804d8dd:	00 
 804d8de:	c7 04 24 00 00 00 00 	mov    DWORD PTR [esp],0x0
 804d8e5:	e8 16 e5 ff ff       	call   804be00
 804d8ea:	8b 4c 24 0c          	mov    ecx,DWORD PTR [esp+0xc]
 804d8ee:	89 d8                	mov    eax,ebx
 804d8f0:	8b 54 24 24          	mov    edx,DWORD PTR [esp+0x24]
 804d8f4:	c7 44 24 04 01 00 00 	mov    DWORD PTR [esp+0x4],0x1
 804d8fb:	00 
 804d8fc:	c7 04 24 01 00 00 00 	mov    DWORD PTR [esp],0x1
 804d903:	e8 f8 e4 ff ff       	call   804be00
 804d908:	8b 4c 24 0c          	mov    ecx,DWORD PTR [esp+0xc]
 804d90c:	89 d8                	mov    eax,ebx
 804d90e:	03 4c 24 24          	add    ecx,DWORD PTR [esp+0x24]
 804d912:	c7 44 24 04 01 00 00 	mov    DWORD PTR [esp+0x4],0x1
 804d919:	00 
 804d91a:	c7 04 24 01 00 00 00 	mov    DWORD PTR [esp],0x1
 804d921:	89 ca                	mov    edx,ecx
 804d923:	89 4c 24 28          	mov    DWORD PTR [esp+0x28],ecx
 804d927:	89 f1                	mov    ecx,esi
 804d929:	e8 f2 f9 ff ff       	call   804d320
 804d92e:	8b 4c 24 28          	mov    ecx,DWORD PTR [esp+0x28]
 804d932:	89 d8                	mov    eax,ebx
 804d934:	c7 44 24 04 00 00 00 	mov    DWORD PTR [esp+0x4],0x0
 804d93b:	00 
 804d93c:	c7 04 24 00 00 00 00 	mov    DWORD PTR [esp],0x0
 804d943:	8d 14 0e             	lea    edx,[esi+ecx]
 804d946:	89 f1                	mov    ecx,esi
 804d948:	e8 d3 f9 ff ff       	call   804d320
 804d94d:	8b 4c 24 08          	mov    ecx,DWORD PTR [esp+0x8]
 804d951:	89 d8                	mov    eax,ebx
 804d953:	8b 54 24 28          	mov    edx,DWORD PTR [esp+0x28]
 804d957:	c7 44 24 04 01 00 00 	mov    DWORD PTR [esp+0x4],0x1
 804d95e:	00 
 804d95f:	c7 04 24 01 00 00 00 	mov    DWORD PTR [esp],0x1
 804d966:	e8 95 e4 ff ff       	call   804be00
 804d96b:	8b 54 24 08          	mov    edx,DWORD PTR [esp+0x8]
 804d96f:	89 f1                	mov    ecx,esi
 804d971:	03 54 24 28          	add    edx,DWORD PTR [esp+0x28]
 804d975:	89 d8                	mov    eax,ebx
 804d977:	c7 44 24 04 01 00 00 	mov    DWORD PTR [esp+0x4],0x1
 804d97e:	00 
 804d97f:	c7 04 24 01 00 00 00 	mov    DWORD PTR [esp],0x1
 804d986:	89 54 24 2c          	mov    DWORD PTR [esp+0x2c],edx
 804d98a:	e8 91 f9 ff ff       	call   804d320
 804d98f:	8b 44 24 2c          	mov    eax,DWORD PTR [esp+0x2c]
 804d993:	89 f1                	mov    ecx,esi
 804d995:	c7 44 24 04 00 00 00 	mov    DWORD PTR [esp+0x4],0x0
 804d99c:	00 
 804d99d:	c7 04 24 00 00 00 00 	mov    DWORD PTR [esp],0x0
 804d9a4:	8d 14 06             	lea    edx,[esi+eax]
 804d9a7:	89 d8                	mov    eax,ebx
 804d9a9:	e8 72 f9 ff ff       	call   804d320
 804d9ae:	8b 54 24 2c          	mov    edx,DWORD PTR [esp+0x2c]
 804d9b2:	89 d8                	mov    eax,ebx
 804d9b4:	8b 4c 24 08          	mov    ecx,DWORD PTR [esp+0x8]
 804d9b8:	c7 44 24 04 00 00 00 	mov    DWORD PTR [esp+0x4],0x0
 804d9bf:	00 
 804d9c0:	c7 04 24 00 00 00 00 	mov    DWORD PTR [esp],0x0
 804d9c7:	e8 34 e4 ff ff       	call   804be00
 804d9cc:	8b 54 24 28          	mov    edx,DWORD PTR [esp+0x28]
 804d9d0:	8b 4c 24 0c          	mov    ecx,DWORD PTR [esp+0xc]
 804d9d4:	89 d8                	mov    eax,ebx
 804d9d6:	c7 44 24 04 00 00 00 	mov    DWORD PTR [esp+0x4],0x0
 804d9dd:	00 
 804d9de:	c7 04 24 00 00 00 00 	mov    DWORD PTR [esp],0x0
 804d9e5:	e8 16 e4 ff ff       	call   804be00
 804d9ea:	8b 54 24 24          	mov    edx,DWORD PTR [esp+0x24]
 804d9ee:	8b 4c 24 14          	mov    ecx,DWORD PTR [esp+0x14]
 804d9f2:	89 d8                	mov    eax,ebx
 804d9f4:	c7 44 24 04 00 00 00 	mov    DWORD PTR [esp+0x4],0x0
 804d9fb:	00 
 804d9fc:	c7 04 24 00 00 00 00 	mov    DWORD PTR [esp],0x0
 804da03:	e8 f8 e3 ff ff       	call   804be00
 804da08:	8b 4c 24 20          	mov    ecx,DWORD PTR [esp+0x20]
 804da0c:	89 fa                	mov    edx,edi
 804da0e:	89 d8                	mov    eax,ebx
 804da10:	c7 44 24 04 00 00 00 	mov    DWORD PTR [esp+0x4],0x0
 804da17:	00 
 804da18:	c7 04 24 00 00 00 00 	mov    DWORD PTR [esp],0x0
 804da1f:	e8 dc e3 ff ff       	call   804be00
 804da24:	8b 44 24 1c          	mov    eax,DWORD PTR [esp+0x1c]
 804da28:	89 e9                	mov    ecx,ebp
 804da2a:	8b 54 24 10          	mov    edx,DWORD PTR [esp+0x10]
 804da2e:	89 44 24 54          	mov    DWORD PTR [esp+0x54],eax
 804da32:	8b 44 24 18          	mov    eax,DWORD PTR [esp+0x18]
 804da36:	89 44 24 50          	mov    DWORD PTR [esp+0x50],eax
 804da3a:	83 c4 3c             	add    esp,0x3c
 804da3d:	89 d8                	mov    eax,ebx
 804da3f:	5b                   	pop    ebx
 804da40:	5e                   	pop    esi
 804da41:	5f                   	pop    edi
 804da42:	5d                   	pop    ebp
 804da43:	e9 b8 e3 ff ff       	jmp    804be00
 804da48:	83 c4 3c             	add    esp,0x3c
 804da4b:	5b                   	pop    ebx
 804da4c:	5e                   	pop    esi
 804da4d:	5f                   	pop    edi
 804da4e:	5d                   	pop    ebp
 804da4f:	c3                   	ret
 804da50:	8b 74 24 14          	mov    esi,DWORD PTR [esp+0x14]
 804da54:	89 d8                	mov    eax,ebx
 804da56:	8b 7c 24 10          	mov    edi,DWORD PTR [esp+0x10]
 804da5a:	c7 44 24 04 01 00 00 	mov    DWORD PTR [esp+0x4],0x1
 804da61:	00 
 804da62:	c7 04 24 01 00 00 00 	mov    DWORD PTR [esp],0x1
 804da69:	89 f1                	mov    ecx,esi
 804da6b:	89 fa                	mov    edx,edi
 804da6d:	e8 8e e3 ff ff       	call   804be00
 804da72:	89 fa                	mov    edx,edi
 804da74:	89 f1                	mov    ecx,esi
 804da76:	01 f2                	add    edx,esi
 804da78:	89 d8                	mov    eax,ebx
 804da7a:	c7 44 24 04 00 00 00 	mov    DWORD PTR [esp+0x4],0x0
 804da81:	00 
 804da82:	c7 04 24 00 00 00 00 	mov    DWORD PTR [esp],0x0
 804da89:	e8 72 e3 ff ff       	call   804be00
 804da8e:	8b 4c 24 20          	mov    ecx,DWORD PTR [esp+0x20]
 804da92:	89 fa                	mov    edx,edi
 804da94:	89 d8                	mov    eax,ebx
 804da96:	c7 44 24 04 01 00 00 	mov    DWORD PTR [esp+0x4],0x1
 804da9d:	00 
 804da9e:	c7 04 24 01 00 00 00 	mov    DWORD PTR [esp],0x1
 804daa5:	e8 56 e3 ff ff       	call   804be00
 804daaa:	89 d8                	mov    eax,ebx
 804daac:	89 f1                	mov    ecx,esi
 804daae:	03 7c 24 20          	add    edi,DWORD PTR [esp+0x20]
 804dab2:	c7 44 24 04 01 00 00 	mov    DWORD PTR [esp+0x4],0x1
 804dab9:	00 
 804daba:	c7 04 24 01 00 00 00 	mov    DWORD PTR [esp],0x1
 804dac1:	89 fa                	mov    edx,edi
 804dac3:	e8 38 e3 ff ff       	call   804be00
 804dac8:	89 f0                	mov    eax,esi
 804daca:	01 f8                	add    eax,edi
 804dacc:	89 44 24 24          	mov    DWORD PTR [esp+0x24],eax
 804dad0:	89 c2                	mov    edx,eax
 804dad2:	e9 17 ff ff ff       	jmp    804d9ee
 804dad7:	90                   	nop
 804dad8:	8b 74 24 20          	mov    esi,DWORD PTR [esp+0x20]
 804dadc:	89 d8                	mov    eax,ebx
 804dade:	8b 7c 24 10          	mov    edi,DWORD PTR [esp+0x10]
 804dae2:	c7 44 24 04 01 00 00 	mov    DWORD PTR [esp+0x4],0x1
 804dae9:	00 
 804daea:	c7 04 24 01 00 00 00 	mov    DWORD PTR [esp],0x1
 804daf1:	89 f1                	mov    ecx,esi
 804daf3:	89 fa                	mov    edx,edi
 804daf5:	01 f7                	add    edi,esi
 804daf7:	e8 04 e3 ff ff       	call   804be00
 804dafc:	e9 07 ff ff ff       	jmp    804da08
 804db01:	8d b4 26 00 00 00 00 	lea    esi,[esi]
 804db08:	8b 74 24 0c          	mov    esi,DWORD PTR [esp+0xc]
 804db0c:	89 fa                	mov    edx,edi
 804db0e:	89 d8                	mov    eax,ebx
 804db10:	c7 44 24 04 01 00 00 	mov    DWORD PTR [esp+0x4],0x1
 804db17:	00 
 804db18:	c7 04 24 01 00 00 00 	mov    DWORD PTR [esp],0x1
 804db1f:	89 f1                	mov    ecx,esi
 804db21:	e8 da e2 ff ff       	call   804be00
 804db26:	b9 01 00 00 00       	mov    ecx,0x1
 804db2b:	89 d8                	mov    eax,ebx
 804db2d:	89 74 24 0c          	mov    DWORD PTR [esp+0xc],esi
 804db31:	8d 34 3e             	lea    esi,[esi+edi]
 804db34:	89 f2                	mov    edx,esi
 804db36:	c7 44 24 04 01 00 00 	mov    DWORD PTR [esp+0x4],0x1
 804db3d:	00 
 804db3e:	c7 04 24 01 00 00 00 	mov    DWORD PTR [esp],0x1
 804db45:	e8 d6 f7 ff ff       	call   804d320
 804db4a:	8d 56 01             	lea    edx,[esi+0x1]
 804db4d:	b9 01 00 00 00       	mov    ecx,0x1
 804db52:	89 d8                	mov    eax,ebx
 804db54:	c7 44 24 04 00 00 00 	mov    DWORD PTR [esp+0x4],0x0
 804db5b:	00 
 804db5c:	c7 04 24 00 00 00 00 	mov    DWORD PTR [esp],0x0
 804db63:	e8 b8 f7 ff ff       	call   804d320
 804db68:	8b 4c 24 0c          	mov    ecx,DWORD PTR [esp+0xc]
 804db6c:	89 f2                	mov    edx,esi
 804db6e:	89 d8                	mov    eax,ebx
 804db70:	c7 44 24 04 00 00 00 	mov    DWORD PTR [esp+0x4],0x0
 804db77:	00 
 804db78:	c7 04 24 00 00 00 00 	mov    DWORD PTR [esp],0x0
 804db7f:	e8 7c e2 ff ff       	call   804be00
 804db84:	8b 74 24 14          	mov    esi,DWORD PTR [esp+0x14]
 804db88:	89 fa                	mov    edx,edi
 804db8a:	89 d8                	mov    eax,ebx
 804db8c:	c7 44 24 04 01 00 00 	mov    DWORD PTR [esp+0x4],0x1
 804db93:	00 
 804db94:	c7 04 24 01 00 00 00 	mov    DWORD PTR [esp],0x1
 804db9b:	89 f1                	mov    ecx,esi
 804db9d:	e8 5e e2 ff ff       	call   804be00
 804dba2:	89 f1                	mov    ecx,esi
 804dba4:	8b 74 24 0c          	mov    esi,DWORD PTR [esp+0xc]
 804dba8:	01 f9                	add    ecx,edi
 804dbaa:	89 d8                	mov    eax,ebx
 804dbac:	89 ca                	mov    edx,ecx
 804dbae:	89 4c 24 24          	mov    DWORD PTR [esp+0x24],ecx
 804dbb2:	c7 44 24 04 01 00 00 	mov    DWORD PTR [esp+0x4],0x1
 804dbb9:	00 
 804dbba:	89 f1                	mov    ecx,esi
 804dbbc:	c7 04 24 01 00 00 00 	mov    DWORD PTR [esp],0x1
 804dbc3:	e8 38 e2 ff ff       	call   804be00
 804dbc8:	8b 44 24 24          	mov    eax,DWORD PTR [esp+0x24]
 804dbcc:	01 f0                	add    eax,esi
 804dbce:	89 44 24 28          	mov    DWORD PTR [esp+0x28],eax
 804dbd2:	89 c2                	mov    edx,eax
 804dbd4:	e9 f7 fd ff ff       	jmp    804d9d0
 804dbd9:	8d b4 26 00 00 00 00 	lea    esi,[esi]
 804dbe0:	8b 7c 24 10          	mov    edi,DWORD PTR [esp+0x10]
 804dbe4:	89 d8                	mov    eax,ebx
 804dbe6:	8b 4c 24 0c          	mov    ecx,DWORD PTR [esp+0xc]
 804dbea:	c7 44 24 04 01 00 00 	mov    DWORD PTR [esp+0x4],0x1
 804dbf1:	00 
 804dbf2:	c7 04 24 01 00 00 00 	mov    DWORD PTR [esp],0x1
 804dbf9:	89 fa                	mov    edx,edi
 804dbfb:	e8 00 e2 ff ff       	call   804be00
 804dc00:	8b 74 24 0c          	mov    esi,DWORD PTR [esp+0xc]
 804dc04:	b9 01 00 00 00       	mov    ecx,0x1
 804dc09:	89 d8                	mov    eax,ebx
 804dc0b:	c7 44 24 04 01 00 00 	mov    DWORD PTR [esp+0x4],0x1
 804dc12:	00 
 804dc13:	c7 04 24 01 00 00 00 	mov    DWORD PTR [esp],0x1
 804dc1a:	01 fe                	add    esi,edi
 804dc1c:	89 f2                	mov    edx,esi
 804dc1e:	e8 fd f6 ff ff       	call   804d320
 804dc23:	8d 56 01             	lea    edx,[esi+0x1]
 804dc26:	b9 01 00 00 00       	mov    ecx,0x1
 804dc2b:	89 d8                	mov    eax,ebx
 804dc2d:	c7 44 24 04 00 00 00 	mov    DWORD PTR [esp+0x4],0x0
 804dc34:	00 
 804dc35:	c7 04 24 00 00 00 00 	mov    DWORD PTR [esp],0x0
 804dc3c:	e8 df f6 ff ff       	call   804d320
 804dc41:	8b 4c 24 0c          	mov    ecx,DWORD PTR [esp+0xc]
 804dc45:	89 f2                	mov    edx,esi
 804dc47:	89 d8                	mov    eax,ebx
 804dc49:	c7 44 24 04 00 00 00 	mov    DWORD PTR [esp+0x4],0x0
 804dc50:	00 
 804dc51:	c7 04 24 00 00 00 00 	mov    DWORD PTR [esp],0x0
 804dc58:	e8 a3 e1 ff ff       	call   804be00
 804dc5d:	8b 4c 24 14          	mov    ecx,DWORD PTR [esp+0x14]
 804dc61:	89 fa                	mov    edx,edi
 804dc63:	89 d8                	mov    eax,ebx
 804dc65:	c7 44 24 04 01 00 00 	mov    DWORD PTR [esp+0x4],0x1
 804dc6c:	00 
 804dc6d:	c7 04 24 01 00 00 00 	mov    DWORD PTR [esp],0x1
 804dc74:	e8 87 e1 ff ff       	call   804be00
 804dc79:	8b 74 24 14          	mov    esi,DWORD PTR [esp+0x14]
 804dc7d:	89 d8                	mov    eax,ebx
 804dc7f:	c7 44 24 04 01 00 00 	mov    DWORD PTR [esp+0x4],0x1
 804dc86:	00 
 804dc87:	c7 04 24 01 00 00 00 	mov    DWORD PTR [esp],0x1
 804dc8e:	01 fe                	add    esi,edi
 804dc90:	8b 7c 24 0c          	mov    edi,DWORD PTR [esp+0xc]
 804dc94:	89 f2                	mov    edx,esi
 804dc96:	89 74 24 24          	mov    DWORD PTR [esp+0x24],esi
 804dc9a:	89 f9                	mov    ecx,edi
 804dc9c:	01 f7                	add    edi,esi
 804dc9e:	e8 5d e1 ff ff       	call   804be00
 804dca3:	e9 c1 f9 ff ff       	jmp    804d669
 804dca8:	90                   	nop
 804dca9:	8d b4 26 00 00 00 00 	lea    esi,[esi]

0804dcb0 <BitonicSubSort_TwoArray_TwoKey>:
 804dcb0:	55                   	push   ebp
 804dcb1:	57                   	push   edi
 804dcb2:	56                   	push   esi
 804dcb3:	53                   	push   ebx
 804dcb4:	89 c3                	mov    ebx,eax
 804dcb6:	83 ec 4c             	sub    esp,0x4c
 804dcb9:	8b 44 24 64          	mov    eax,DWORD PTR [esp+0x64]
 804dcbd:	8b 6c 24 60          	mov    ebp,DWORD PTR [esp+0x60]
 804dcc1:	89 4c 24 20          	mov    DWORD PTR [esp+0x20],ecx
 804dcc5:	89 44 24 2c          	mov    DWORD PTR [esp+0x2c],eax
 804dcc9:	8b 44 24 68          	mov    eax,DWORD PTR [esp+0x68]
 804dccd:	83 fd 01             	cmp    ebp,0x1
 804dcd0:	89 44 24 30          	mov    DWORD PTR [esp+0x30],eax
 804dcd4:	0f 8e 7e 07 00 00    	jle    804e458
 804dcda:	89 e8                	mov    eax,ebp
 804dcdc:	89 d6                	mov    esi,edx
 804dcde:	d1 f8                	sar    eax,1
 804dce0:	83 f8 01             	cmp    eax,0x1
 804dce3:	89 44 24 28          	mov    DWORD PTR [esp+0x28],eax
 804dce7:	0f 84 3f 07 00 00    	je     804e42c
 804dced:	89 e8                	mov    eax,ebp
 804dcef:	c1 f8 02             	sar    eax,0x2
 804dcf2:	83 f8 01             	cmp    eax,0x1
 804dcf5:	89 44 24 18          	mov    DWORD PTR [esp+0x18],eax
 804dcf9:	0f 84 09 08 00 00    	je     804e508
 804dcff:	89 ef                	mov    edi,ebp
 804dd01:	c1 ff 03             	sar    edi,0x3
 804dd04:	83 ff 01             	cmp    edi,0x1
 804dd07:	89 7c 24 1c          	mov    DWORD PTR [esp+0x1c],edi
 804dd0b:	0f 84 4f 07 00 00    	je     804e460
 804dd11:	89 ef                	mov    edi,ebp
 804dd13:	c1 ff 04             	sar    edi,0x4
 804dd16:	83 ff 01             	cmp    edi,0x1
 804dd19:	89 7c 24 14          	mov    DWORD PTR [esp+0x14],edi
 804dd1d:	0f 84 0d 09 00 00    	je     804e630
 804dd23:	89 ea                	mov    edx,ebp
 804dd25:	89 d8                	mov    eax,ebx
 804dd27:	c1 fa 05             	sar    edx,0x5
 804dd2a:	89 cf                	mov    edi,ecx
 804dd2c:	89 54 24 24          	mov    DWORD PTR [esp+0x24],edx
 804dd30:	89 14 24             	mov    DWORD PTR [esp],edx
 804dd33:	89 f2                	mov    edx,esi
 804dd35:	c7 44 24 08 01 00 00 	mov    DWORD PTR [esp+0x8],0x1
 804dd3c:	00 
 804dd3d:	c7 44 24 04 01 00 00 	mov    DWORD PTR [esp+0x4],0x1
 804dd44:	00 
 804dd45:	e8 66 ff ff ff       	call   804dcb0
 804dd4a:	8b 54 24 24          	mov    edx,DWORD PTR [esp+0x24]
 804dd4e:	89 f9                	mov    ecx,edi
 804dd50:	89 d8                	mov    eax,ebx
 804dd52:	c7 44 24 08 00 00 00 	mov    DWORD PTR [esp+0x8],0x0
 804dd59:	00 
 804dd5a:	c7 44 24 04 00 00 00 	mov    DWORD PTR [esp+0x4],0x0
 804dd61:	00 
 804dd62:	01 d1                	add    ecx,edx
 804dd64:	89 14 24             	mov    DWORD PTR [esp],edx
 804dd67:	89 f2                	mov    edx,esi
 804dd69:	e8 42 ff ff ff       	call   804dcb0
 804dd6e:	8b 54 24 14          	mov    edx,DWORD PTR [esp+0x14]
 804dd72:	89 f9                	mov    ecx,edi
 804dd74:	89 d8                	mov    eax,ebx
 804dd76:	c7 44 24 08 01 00 00 	mov    DWORD PTR [esp+0x8],0x1
 804dd7d:	00 
 804dd7e:	c7 44 24 04 01 00 00 	mov    DWORD PTR [esp+0x4],0x1
 804dd85:	00 
 804dd86:	89 14 24             	mov    DWORD PTR [esp],edx
 804dd89:	89 f2                	mov    edx,esi
 804dd8b:	e8 40 e3 ff ff       	call   804c0d0
 804dd90:	8b 4c 24 24          	mov    ecx,DWORD PTR [esp+0x24]
 804dd94:	89 f2                	mov    edx,esi
 804dd96:	89 7c 24 20          	mov    DWORD PTR [esp+0x20],edi
 804dd9a:	89 d8                	mov    eax,ebx
 804dd9c:	03 7c 24 14          	add    edi,DWORD PTR [esp+0x14]
 804dda0:	c7 44 24 08 01 00 00 	mov    DWORD PTR [esp+0x8],0x1
 804dda7:	00 
 804dda8:	89 0c 24             	mov    DWORD PTR [esp],ecx
 804ddab:	c7 44 24 04 01 00 00 	mov    DWORD PTR [esp+0x4],0x1
 804ddb2:	00 
 804ddb3:	89 f9                	mov    ecx,edi
 804ddb5:	e8 f6 fe ff ff       	call   804dcb0
 804ddba:	8b 54 24 24          	mov    edx,DWORD PTR [esp+0x24]
 804ddbe:	89 d8                	mov    eax,ebx
 804ddc0:	c7 44 24 08 00 00 00 	mov    DWORD PTR [esp+0x8],0x0
 804ddc7:	00 
 804ddc8:	c7 44 24 04 00 00 00 	mov    DWORD PTR [esp+0x4],0x0
 804ddcf:	00 
 804ddd0:	89 d1                	mov    ecx,edx
 804ddd2:	01 f9                	add    ecx,edi
 804ddd4:	89 14 24             	mov    DWORD PTR [esp],edx
 804ddd7:	89 f2                	mov    edx,esi
 804ddd9:	e8 d2 fe ff ff       	call   804dcb0
 804ddde:	8b 54 24 14          	mov    edx,DWORD PTR [esp+0x14]
 804dde2:	89 f9                	mov    ecx,edi
 804dde4:	89 d8                	mov    eax,ebx
 804dde6:	c7 44 24 08 00 00 00 	mov    DWORD PTR [esp+0x8],0x0
 804dded:	00 
 804ddee:	c7 44 24 04 00 00 00 	mov    DWORD PTR [esp+0x4],0x0
 804ddf5:	00 
 804ddf6:	89 14 24             	mov    DWORD PTR [esp],edx
 804ddf9:	89 f2                	mov    edx,esi
 804ddfb:	e8 d0 e2 ff ff       	call   804c0d0
 804de00:	8b 7c 24 20          	mov    edi,DWORD PTR [esp+0x20]
 804de04:	89 f2                	mov    edx,esi
 804de06:	8b 4c 24 1c          	mov    ecx,DWORD PTR [esp+0x1c]
 804de0a:	89 d8                	mov    eax,ebx
 804de0c:	c7 44 24 08 01 00 00 	mov    DWORD PTR [esp+0x8],0x1
 804de13:	00 
 804de14:	c7 44 24 04 01 00 00 	mov    DWORD PTR [esp+0x4],0x1
 804de1b:	00 
 804de1c:	89 0c 24             	mov    DWORD PTR [esp],ecx
 804de1f:	89 f9                	mov    ecx,edi
 804de21:	e8 aa e2 ff ff       	call   804c0d0
 804de26:	8b 54 24 14          	mov    edx,DWORD PTR [esp+0x14]
 804de2a:	89 d8                	mov    eax,ebx
 804de2c:	89 7c 24 20          	mov    DWORD PTR [esp+0x20],edi
 804de30:	03 7c 24 1c          	add    edi,DWORD PTR [esp+0x1c]
 804de34:	c7 44 24 08 01 00 00 	mov    DWORD PTR [esp+0x8],0x1
 804de3b:	00 
 804de3c:	89 14 24             	mov    DWORD PTR [esp],edx
 804de3f:	89 f2                	mov    edx,esi
 804de41:	89 f9                	mov    ecx,edi
 804de43:	c7 44 24 04 01 00 00 	mov    DWORD PTR [esp+0x4],0x1
 804de4a:	00 
 804de4b:	e8 60 fe ff ff       	call   804dcb0
 804de50:	8b 54 24 14          	mov    edx,DWORD PTR [esp+0x14]
 804de54:	89 d8                	mov    eax,ebx
 804de56:	c7 44 24 08 00 00 00 	mov    DWORD PTR [esp+0x8],0x0
 804de5d:	00 
 804de5e:	c7 44 24 04 00 00 00 	mov    DWORD PTR [esp+0x4],0x0
 804de65:	00 
 804de66:	8d 0c 3a             	lea    ecx,[edx+edi]
 804de69:	89 14 24             	mov    DWORD PTR [esp],edx
 804de6c:	89 f2                	mov    edx,esi
 804de6e:	e8 3d fe ff ff       	call   804dcb0
 804de73:	8b 4c 24 1c          	mov    ecx,DWORD PTR [esp+0x1c]
 804de77:	89 f2                	mov    edx,esi
 804de79:	89 d8                	mov    eax,ebx
 804de7b:	c7 44 24 08 00 00 00 	mov    DWORD PTR [esp+0x8],0x0
 804de82:	00 
 804de83:	c7 44 24 04 00 00 00 	mov    DWORD PTR [esp+0x4],0x0
 804de8a:	00 
 804de8b:	89 0c 24             	mov    DWORD PTR [esp],ecx
 804de8e:	89 f9                	mov    ecx,edi
 804de90:	e8 3b e2 ff ff       	call   804c0d0
 804de95:	8b 44 24 18          	mov    eax,DWORD PTR [esp+0x18]
 804de99:	89 f2                	mov    edx,esi
 804de9b:	8b 7c 24 20          	mov    edi,DWORD PTR [esp+0x20]
 804de9f:	c7 44 24 08 01 00 00 	mov    DWORD PTR [esp+0x8],0x1
 804dea6:	00 
 804dea7:	c7 44 24 04 01 00 00 	mov    DWORD PTR [esp+0x4],0x1
 804deae:	00 
 804deaf:	89 04 24             	mov    DWORD PTR [esp],eax
 804deb2:	89 d8                	mov    eax,ebx
 804deb4:	89 f9                	mov    ecx,edi
 804deb6:	e8 15 e2 ff ff       	call   804c0d0
 804debb:	8b 54 24 14          	mov    edx,DWORD PTR [esp+0x14]
 804debf:	89 d8                	mov    eax,ebx
 804dec1:	03 7c 24 18          	add    edi,DWORD PTR [esp+0x18]
 804dec5:	c7 44 24 08 01 00 00 	mov    DWORD PTR [esp+0x8],0x1
 804decc:	00 
 804decd:	c7 44 24 04 01 00 00 	mov    DWORD PTR [esp+0x4],0x1
 804ded4:	00 
 804ded5:	89 14 24             	mov    DWORD PTR [esp],edx
 804ded8:	89 f9                	mov    ecx,edi
 804deda:	89 f2                	mov    edx,esi
 804dedc:	e8 cf fd ff ff       	call   804dcb0
 804dee1:	8b 54 24 14          	mov    edx,DWORD PTR [esp+0x14]
 804dee5:	89 d8                	mov    eax,ebx
 804dee7:	c7 44 24 08 00 00 00 	mov    DWORD PTR [esp+0x8],0x0
 804deee:	00 
 804deef:	c7 44 24 04 00 00 00 	mov    DWORD PTR [esp+0x4],0x0
 804def6:	00 
 804def7:	8d 0c 3a             	lea    ecx,[edx+edi]
 804defa:	89 14 24             	mov    DWORD PTR [esp],edx
 804defd:	89 f2                	mov    edx,esi
 804deff:	e8 ac fd ff ff       	call   804dcb0
 804df04:	8b 4c 24 1c          	mov    ecx,DWORD PTR [esp+0x1c]
 804df08:	89 f2                	mov    edx,esi
 804df0a:	89 d8                	mov    eax,ebx
 804df0c:	c7 44 24 08 01 00 00 	mov    DWORD PTR [esp+0x8],0x1
 804df13:	00 
 804df14:	c7 44 24 04 01 00 00 	mov    DWORD PTR [esp+0x4],0x1
 804df1b:	00 
 804df1c:	89 0c 24             	mov    DWORD PTR [esp],ecx
 804df1f:	89 f9                	mov    ecx,edi
 804df21:	e8 aa e1 ff ff       	call   804c0d0
 804df26:	8b 4c 24 1c          	mov    ecx,DWORD PTR [esp+0x1c]
 804df2a:	89 f2                	mov    edx,esi
 804df2c:	c7 44 24 08 01 00 00 	mov    DWORD PTR [esp+0x8],0x1
 804df33:	00 
 804df34:	c7 44 24 04 01 00 00 	mov    DWORD PTR [esp+0x4],0x1
 804df3b:	00 
 804df3c:	8d 04 39             	lea    eax,[ecx+edi]
 804df3f:	8b 4c 24 24          	mov    ecx,DWORD PTR [esp+0x24]
 804df43:	89 44 24 34          	mov    DWORD PTR [esp+0x34],eax
 804df47:	89 0c 24             	mov    DWORD PTR [esp],ecx
 804df4a:	89 c1                	mov    ecx,eax
 804df4c:	89 d8                	mov    eax,ebx
 804df4e:	e8 5d fd ff ff       	call   804dcb0
 804df53:	8b 54 24 24          	mov    edx,DWORD PTR [esp+0x24]
 804df57:	8b 44 24 34          	mov    eax,DWORD PTR [esp+0x34]
 804df5b:	c7 44 24 08 00 00 00 	mov    DWORD PTR [esp+0x8],0x0
 804df62:	00 
 804df63:	c7 44 24 04 00 00 00 	mov    DWORD PTR [esp+0x4],0x0
 804df6a:	00 
 804df6b:	89 14 24             	mov    DWORD PTR [esp],edx
 804df6e:	01 d0                	add    eax,edx
 804df70:	89 f2                	mov    edx,esi
 804df72:	89 c1                	mov    ecx,eax
 804df74:	89 d8                	mov    eax,ebx
 804df76:	e8 35 fd ff ff       	call   804dcb0
 804df7b:	8b 54 24 14          	mov    edx,DWORD PTR [esp+0x14]
 804df7f:	89 d8                	mov    eax,ebx
 804df81:	8b 4c 24 34          	mov    ecx,DWORD PTR [esp+0x34]
 804df85:	c7 44 24 08 01 00 00 	mov    DWORD PTR [esp+0x8],0x1
 804df8c:	00 
 804df8d:	c7 44 24 04 01 00 00 	mov    DWORD PTR [esp+0x4],0x1
 804df94:	00 
 804df95:	89 14 24             	mov    DWORD PTR [esp],edx
 804df98:	89 f2                	mov    edx,esi
 804df9a:	e8 31 e1 ff ff       	call   804c0d0
 804df9f:	8b 54 24 14          	mov    edx,DWORD PTR [esp+0x14]
 804dfa3:	8b 44 24 34          	mov    eax,DWORD PTR [esp+0x34]
 804dfa7:	c7 44 24 08 00 00 00 	mov    DWORD PTR [esp+0x8],0x0
 804dfae:	00 
 804dfaf:	c7 44 24 04 00 00 00 	mov    DWORD PTR [esp+0x4],0x0
 804dfb6:	00 
 804dfb7:	89 14 24             	mov    DWORD PTR [esp],edx
 804dfba:	01 d0                	add    eax,edx
 804dfbc:	89 f2                	mov    edx,esi
 804dfbe:	89 c1                	mov    ecx,eax
 804dfc0:	89 d8                	mov    eax,ebx
 804dfc2:	e8 e9 fc ff ff       	call   804dcb0
 804dfc7:	8b 54 24 1c          	mov    edx,DWORD PTR [esp+0x1c]
 804dfcb:	89 d8                	mov    eax,ebx
 804dfcd:	8b 4c 24 34          	mov    ecx,DWORD PTR [esp+0x34]
 804dfd1:	c7 44 24 08 00 00 00 	mov    DWORD PTR [esp+0x8],0x0
 804dfd8:	00 
 804dfd9:	c7 44 24 04 00 00 00 	mov    DWORD PTR [esp+0x4],0x0
 804dfe0:	00 
 804dfe1:	89 14 24             	mov    DWORD PTR [esp],edx
 804dfe4:	89 f2                	mov    edx,esi
 804dfe6:	e8 e5 e0 ff ff       	call   804c0d0
 804dfeb:	8b 4c 24 18          	mov    ecx,DWORD PTR [esp+0x18]
 804dfef:	89 f2                	mov    edx,esi
 804dff1:	89 d8                	mov    eax,ebx
 804dff3:	c7 44 24 08 00 00 00 	mov    DWORD PTR [esp+0x8],0x0
 804dffa:	00 
 804dffb:	c7 44 24 04 00 00 00 	mov    DWORD PTR [esp+0x4],0x0
 804e002:	00 
 804e003:	89 0c 24             	mov    DWORD PTR [esp],ecx
 804e006:	89 f9                	mov    ecx,edi
 804e008:	e8 c3 e0 ff ff       	call   804c0d0
 804e00d:	8b 7c 24 28          	mov    edi,DWORD PTR [esp+0x28]
 804e011:	89 d8                	mov    eax,ebx
 804e013:	c7 44 24 08 01 00 00 	mov    DWORD PTR [esp+0x8],0x1
 804e01a:	00 
 804e01b:	89 f2                	mov    edx,esi
 804e01d:	c7 44 24 04 01 00 00 	mov    DWORD PTR [esp+0x4],0x1
 804e024:	00 
 804e025:	89 3c 24             	mov    DWORD PTR [esp],edi
 804e028:	8b 7c 24 20          	mov    edi,DWORD PTR [esp+0x20]
 804e02c:	89 f9                	mov    ecx,edi
 804e02e:	e8 9d e0 ff ff       	call   804c0d0
 804e033:	8b 44 24 14          	mov    eax,DWORD PTR [esp+0x14]
 804e037:	03 7c 24 28          	add    edi,DWORD PTR [esp+0x28]
 804e03b:	83 f8 01             	cmp    eax,0x1
 804e03e:	89 f9                	mov    ecx,edi
 804e040:	89 7c 24 24          	mov    DWORD PTR [esp+0x24],edi
 804e044:	0f 84 f6 04 00 00    	je     804e540
 804e04a:	89 c7                	mov    edi,eax
 804e04c:	89 f2                	mov    edx,esi
 804e04e:	d1 ff                	sar    edi,1
 804e050:	89 d8                	mov    eax,ebx
 804e052:	c7 44 24 08 01 00 00 	mov    DWORD PTR [esp+0x8],0x1
 804e059:	00 
 804e05a:	c7 44 24 04 01 00 00 	mov    DWORD PTR [esp+0x4],0x1
 804e061:	00 
 804e062:	89 3c 24             	mov    DWORD PTR [esp],edi
 804e065:	e8 46 fc ff ff       	call   804dcb0
 804e06a:	8b 4c 24 24          	mov    ecx,DWORD PTR [esp+0x24]
 804e06e:	89 f2                	mov    edx,esi
 804e070:	89 d8                	mov    eax,ebx
 804e072:	c7 44 24 08 00 00 00 	mov    DWORD PTR [esp+0x8],0x0
 804e079:	00 
 804e07a:	c7 44 24 04 00 00 00 	mov    DWORD PTR [esp+0x4],0x0
 804e081:	00 
 804e082:	01 f9                	add    ecx,edi
 804e084:	89 3c 24             	mov    DWORD PTR [esp],edi
 804e087:	e8 24 fc ff ff       	call   804dcb0
 804e08c:	8b 44 24 14          	mov    eax,DWORD PTR [esp+0x14]
 804e090:	89 f2                	mov    edx,esi
 804e092:	8b 4c 24 24          	mov    ecx,DWORD PTR [esp+0x24]
 804e096:	c7 44 24 08 01 00 00 	mov    DWORD PTR [esp+0x8],0x1
 804e09d:	00 
 804e09e:	c7 44 24 04 01 00 00 	mov    DWORD PTR [esp+0x4],0x1
 804e0a5:	00 
 804e0a6:	89 04 24             	mov    DWORD PTR [esp],eax
 804e0a9:	89 d8                	mov    eax,ebx
 804e0ab:	e8 20 e0 ff ff       	call   804c0d0
 804e0b0:	8b 54 24 14          	mov    edx,DWORD PTR [esp+0x14]
 804e0b4:	89 d8                	mov    eax,ebx
 804e0b6:	03 54 24 24          	add    edx,DWORD PTR [esp+0x24]
 804e0ba:	c7 44 24 08 01 00 00 	mov    DWORD PTR [esp+0x8],0x1
 804e0c1:	00 
 804e0c2:	c7 44 24 04 01 00 00 	mov    DWORD PTR [esp+0x4],0x1
 804e0c9:	00 
 804e0ca:	89 d1                	mov    ecx,edx
 804e0cc:	89 54 24 34          	mov    DWORD PTR [esp+0x34],edx
 804e0d0:	89 f2                	mov    edx,esi
 804e0d2:	89 3c 24             	mov    DWORD PTR [esp],edi
 804e0d5:	e8 d6 fb ff ff       	call   804dcb0
 804e0da:	8b 4c 24 34          	mov    ecx,DWORD PTR [esp+0x34]
 804e0de:	89 f2                	mov    edx,esi
 804e0e0:	89 d8                	mov    eax,ebx
 804e0e2:	c7 44 24 08 00 00 00 	mov    DWORD PTR [esp+0x8],0x0
 804e0e9:	00 
 804e0ea:	c7 44 24 04 00 00 00 	mov    DWORD PTR [esp+0x4],0x0
 804e0f1:	00 
 804e0f2:	01 f9                	add    ecx,edi
 804e0f4:	89 3c 24             	mov    DWORD PTR [esp],edi
 804e0f7:	e8 b4 fb ff ff       	call   804dcb0
 804e0fc:	8b 44 24 14          	mov    eax,DWORD PTR [esp+0x14]
 804e100:	89 f2                	mov    edx,esi
 804e102:	8b 4c 24 34          	mov    ecx,DWORD PTR [esp+0x34]
 804e106:	c7 44 24 08 00 00 00 	mov    DWORD PTR [esp+0x8],0x0
 804e10d:	00 
 804e10e:	c7 44 24 04 00 00 00 	mov    DWORD PTR [esp+0x4],0x0
 804e115:	00 
 804e116:	89 04 24             	mov    DWORD PTR [esp],eax
 804e119:	89 d8                	mov    eax,ebx
 804e11b:	e8 b0 df ff ff       	call   804c0d0
 804e120:	8b 4c 24 1c          	mov    ecx,DWORD PTR [esp+0x1c]
 804e124:	89 f2                	mov    edx,esi
 804e126:	89 d8                	mov    eax,ebx
 804e128:	c7 44 24 08 01 00 00 	mov    DWORD PTR [esp+0x8],0x1
 804e12f:	00 
 804e130:	c7 44 24 04 01 00 00 	mov    DWORD PTR [esp+0x4],0x1
 804e137:	00 
 804e138:	89 0c 24             	mov    DWORD PTR [esp],ecx
 804e13b:	8b 4c 24 24          	mov    ecx,DWORD PTR [esp+0x24]
 804e13f:	e8 8c df ff ff       	call   804c0d0
 804e144:	8b 44 24 14          	mov    eax,DWORD PTR [esp+0x14]
 804e148:	89 f2                	mov    edx,esi
 804e14a:	8b 4c 24 1c          	mov    ecx,DWORD PTR [esp+0x1c]
 804e14e:	03 4c 24 24          	add    ecx,DWORD PTR [esp+0x24]
 804e152:	c7 44 24 08 01 00 00 	mov    DWORD PTR [esp+0x8],0x1
 804e159:	00 
 804e15a:	89 04 24             	mov    DWORD PTR [esp],eax
 804e15d:	89 d8                	mov    eax,ebx
 804e15f:	c7 44 24 04 01 00 00 	mov    DWORD PTR [esp+0x4],0x1
 804e166:	00 
 804e167:	89 4c 24 34          	mov    DWORD PTR [esp+0x34],ecx
 804e16b:	e8 40 fb ff ff       	call   804dcb0
 804e170:	8b 44 24 14          	mov    eax,DWORD PTR [esp+0x14]
 804e174:	89 f2                	mov    edx,esi
 804e176:	8b 4c 24 34          	mov    ecx,DWORD PTR [esp+0x34]
 804e17a:	c7 44 24 08 00 00 00 	mov    DWORD PTR [esp+0x8],0x0
 804e181:	00 
 804e182:	c7 44 24 04 00 00 00 	mov    DWORD PTR [esp+0x4],0x0
 804e189:	00 
 804e18a:	89 04 24             	mov    DWORD PTR [esp],eax
 804e18d:	01 c1                	add    ecx,eax
 804e18f:	89 d8                	mov    eax,ebx
 804e191:	e8 1a fb ff ff       	call   804dcb0
 804e196:	8b 54 24 1c          	mov    edx,DWORD PTR [esp+0x1c]
 804e19a:	89 d8                	mov    eax,ebx
 804e19c:	8b 4c 24 34          	mov    ecx,DWORD PTR [esp+0x34]
 804e1a0:	c7 44 24 08 00 00 00 	mov    DWORD PTR [esp+0x8],0x0
 804e1a7:	00 
 804e1a8:	c7 44 24 04 00 00 00 	mov    DWORD PTR [esp+0x4],0x0
 804e1af:	00 
 804e1b0:	89 14 24             	mov    DWORD PTR [esp],edx
 804e1b3:	89 f2                	mov    edx,esi
 804e1b5:	e8 16 df ff ff       	call   804c0d0
 804e1ba:	8b 54 24 18          	mov    edx,DWORD PTR [esp+0x18]
 804e1be:	89 d8                	mov    eax,ebx
 804e1c0:	8b 4c 24 24          	mov    ecx,DWORD PTR [esp+0x24]
 804e1c4:	c7 44 24 08 01 00 00 	mov    DWORD PTR [esp+0x8],0x1
 804e1cb:	00 
 804e1cc:	c7 44 24 04 01 00 00 	mov    DWORD PTR [esp+0x4],0x1
 804e1d3:	00 
 804e1d4:	89 14 24             	mov    DWORD PTR [esp],edx
 804e1d7:	89 f2                	mov    edx,esi
 804e1d9:	e8 f2 de ff ff       	call   804c0d0
 804e1de:	8b 54 24 18          	mov    edx,DWORD PTR [esp+0x18]
 804e1e2:	89 d8                	mov    eax,ebx
 804e1e4:	03 54 24 24          	add    edx,DWORD PTR [esp+0x24]
 804e1e8:	c7 44 24 08 01 00 00 	mov    DWORD PTR [esp+0x8],0x1
 804e1ef:	00 
 804e1f0:	c7 44 24 04 01 00 00 	mov    DWORD PTR [esp+0x4],0x1
 804e1f7:	00 
 804e1f8:	89 d1                	mov    ecx,edx
 804e1fa:	89 54 24 34          	mov    DWORD PTR [esp+0x34],edx
 804e1fe:	89 f2                	mov    edx,esi
 804e200:	89 3c 24             	mov    DWORD PTR [esp],edi
 804e203:	e8 a8 fa ff ff       	call   804dcb0
 804e208:	8b 54 24 34          	mov    edx,DWORD PTR [esp+0x34]
 804e20c:	89 d8                	mov    eax,ebx
 804e20e:	c7 44 24 08 00 00 00 	mov    DWORD PTR [esp+0x8],0x0
 804e215:	00 
 804e216:	c7 44 24 04 00 00 00 	mov    DWORD PTR [esp+0x4],0x0
 804e21d:	00 
 804e21e:	89 3c 24             	mov    DWORD PTR [esp],edi
 804e221:	8d 0c 17             	lea    ecx,[edi+edx]
 804e224:	89 f2                	mov    edx,esi
 804e226:	e8 85 fa ff ff       	call   804dcb0
 804e22b:	8b 44 24 14          	mov    eax,DWORD PTR [esp+0x14]
 804e22f:	89 f2                	mov    edx,esi
 804e231:	8b 4c 24 34          	mov    ecx,DWORD PTR [esp+0x34]
 804e235:	c7 44 24 08 01 00 00 	mov    DWORD PTR [esp+0x8],0x1
 804e23c:	00 
 804e23d:	c7 44 24 04 01 00 00 	mov    DWORD PTR [esp+0x4],0x1
 804e244:	00 
 804e245:	89 04 24             	mov    DWORD PTR [esp],eax
 804e248:	89 d8                	mov    eax,ebx
 804e24a:	e8 81 de ff ff       	call   804c0d0
 804e24f:	8b 54 24 14          	mov    edx,DWORD PTR [esp+0x14]
 804e253:	89 d8                	mov    eax,ebx
 804e255:	03 54 24 34          	add    edx,DWORD PTR [esp+0x34]
 804e259:	c7 44 24 08 01 00 00 	mov    DWORD PTR [esp+0x8],0x1
 804e260:	00 
 804e261:	c7 44 24 04 01 00 00 	mov    DWORD PTR [esp+0x4],0x1
 804e268:	00 
 804e269:	89 d1                	mov    ecx,edx
 804e26b:	89 54 24 38          	mov    DWORD PTR [esp+0x38],edx
 804e26f:	89 f2                	mov    edx,esi
 804e271:	89 3c 24             	mov    DWORD PTR [esp],edi
 804e274:	e8 37 fa ff ff       	call   804dcb0
 804e279:	8b 4c 24 38          	mov    ecx,DWORD PTR [esp+0x38]
 804e27d:	89 f2                	mov    edx,esi
 804e27f:	89 d8                	mov    eax,ebx
 804e281:	c7 44 24 08 00 00 00 	mov    DWORD PTR [esp+0x8],0x0
 804e288:	00 
 804e289:	c7 44 24 04 00 00 00 	mov    DWORD PTR [esp+0x4],0x0
 804e290:	00 
 804e291:	01 f9                	add    ecx,edi
 804e293:	89 3c 24             	mov    DWORD PTR [esp],edi
 804e296:	e8 15 fa ff ff       	call   804dcb0
 804e29b:	8b 44 24 14          	mov    eax,DWORD PTR [esp+0x14]
 804e29f:	89 f2                	mov    edx,esi
 804e2a1:	8b 4c 24 38          	mov    ecx,DWORD PTR [esp+0x38]
 804e2a5:	c7 44 24 08 00 00 00 	mov    DWORD PTR [esp+0x8],0x0
 804e2ac:	00 
 804e2ad:	c7 44 24 04 00 00 00 	mov    DWORD PTR [esp+0x4],0x0
 804e2b4:	00 
 804e2b5:	89 04 24             	mov    DWORD PTR [esp],eax
 804e2b8:	89 d8                	mov    eax,ebx
 804e2ba:	e8 11 de ff ff       	call   804c0d0
 804e2bf:	8b 4c 24 1c          	mov    ecx,DWORD PTR [esp+0x1c]
 804e2c3:	89 f2                	mov    edx,esi
 804e2c5:	89 d8                	mov    eax,ebx
 804e2c7:	c7 44 24 08 01 00 00 	mov    DWORD PTR [esp+0x8],0x1
 804e2ce:	00 
 804e2cf:	c7 44 24 04 01 00 00 	mov    DWORD PTR [esp+0x4],0x1
 804e2d6:	00 
 804e2d7:	89 0c 24             	mov    DWORD PTR [esp],ecx
 804e2da:	8b 4c 24 34          	mov    ecx,DWORD PTR [esp+0x34]
 804e2de:	e8 ed dd ff ff       	call   804c0d0
 804e2e3:	8b 4c 24 1c          	mov    ecx,DWORD PTR [esp+0x1c]
 804e2e7:	89 f2                	mov    edx,esi
 804e2e9:	03 4c 24 34          	add    ecx,DWORD PTR [esp+0x34]
 804e2ed:	89 d8                	mov    eax,ebx
 804e2ef:	c7 44 24 08 01 00 00 	mov    DWORD PTR [esp+0x8],0x1
 804e2f6:	00 
 804e2f7:	c7 44 24 04 01 00 00 	mov    DWORD PTR [esp+0x4],0x1
 804e2fe:	00 
 804e2ff:	89 3c 24             	mov    DWORD PTR [esp],edi
 804e302:	89 4c 24 38          	mov    DWORD PTR [esp+0x38],ecx
 804e306:	e8 a5 f9 ff ff       	call   804dcb0
 804e30b:	8b 4c 24 38          	mov    ecx,DWORD PTR [esp+0x38]
 804e30f:	89 f2                	mov    edx,esi
 804e311:	89 d8                	mov    eax,ebx
 804e313:	c7 44 24 08 00 00 00 	mov    DWORD PTR [esp+0x8],0x0
 804e31a:	00 
 804e31b:	c7 44 24 04 00 00 00 	mov    DWORD PTR [esp+0x4],0x0
 804e322:	00 
 804e323:	01 f9                	add    ecx,edi
 804e325:	89 3c 24             	mov    DWORD PTR [esp],edi
 804e328:	e8 83 f9 ff ff       	call   804dcb0
 804e32d:	8b 44 24 14          	mov    eax,DWORD PTR [esp+0x14]
 804e331:	89 f2                	mov    edx,esi
 804e333:	8b 4c 24 38          	mov    ecx,DWORD PTR [esp+0x38]
 804e337:	c7 44 24 08 01 00 00 	mov    DWORD PTR [esp+0x8],0x1
 804e33e:	00 
 804e33f:	c7 44 24 04 01 00 00 	mov    DWORD PTR [esp+0x4],0x1
 804e346:	00 
 804e347:	89 04 24             	mov    DWORD PTR [esp],eax
 804e34a:	89 d8                	mov    eax,ebx
 804e34c:	e8 7f dd ff ff       	call   804c0d0
 804e351:	8b 4c 24 14          	mov    ecx,DWORD PTR [esp+0x14]
 804e355:	89 f2                	mov    edx,esi
 804e357:	03 4c 24 38          	add    ecx,DWORD PTR [esp+0x38]
 804e35b:	89 d8                	mov    eax,ebx
 804e35d:	c7 44 24 08 01 00 00 	mov    DWORD PTR [esp+0x8],0x1
 804e364:	00 
 804e365:	c7 44 24 04 01 00 00 	mov    DWORD PTR [esp+0x4],0x1
 804e36c:	00 
 804e36d:	89 3c 24             	mov    DWORD PTR [esp],edi
 804e370:	89 4c 24 3c          	mov    DWORD PTR [esp+0x3c],ecx
 804e374:	e8 37 f9 ff ff       	call   804dcb0
 804e379:	8b 54 24 3c          	mov    edx,DWORD PTR [esp+0x3c]
 804e37d:	89 d8                	mov    eax,ebx
 804e37f:	c7 44 24 08 00 00 00 	mov    DWORD PTR [esp+0x8],0x0
 804e386:	00 
 804e387:	c7 44 24 04 00 00 00 	mov    DWORD PTR [esp+0x4],0x0
 804e38e:	00 
 804e38f:	89 3c 24             	mov    DWORD PTR [esp],edi
 804e392:	8d 0c 17             	lea    ecx,[edi+edx]
 804e395:	89 f2                	mov    edx,esi
 804e397:	e8 14 f9 ff ff       	call   804dcb0
 804e39c:	8b 44 24 14          	mov    eax,DWORD PTR [esp+0x14]
 804e3a0:	89 f2                	mov    edx,esi
 804e3a2:	8b 4c 24 3c          	mov    ecx,DWORD PTR [esp+0x3c]
 804e3a6:	c7 44 24 08 00 00 00 	mov    DWORD PTR [esp+0x8],0x0
 804e3ad:	00 
 804e3ae:	c7 44 24 04 00 00 00 	mov    DWORD PTR [esp+0x4],0x0
 804e3b5:	00 
 804e3b6:	89 04 24             	mov    DWORD PTR [esp],eax
 804e3b9:	89 d8                	mov    eax,ebx
 804e3bb:	e8 10 dd ff ff       	call   804c0d0
 804e3c0:	8b 4c 24 38          	mov    ecx,DWORD PTR [esp+0x38]
 804e3c4:	8b 44 24 1c          	mov    eax,DWORD PTR [esp+0x1c]
 804e3c8:	89 f2                	mov    edx,esi
 804e3ca:	c7 44 24 08 00 00 00 	mov    DWORD PTR [esp+0x8],0x0
 804e3d1:	00 
 804e3d2:	c7 44 24 04 00 00 00 	mov    DWORD PTR [esp+0x4],0x0
 804e3d9:	00 
 804e3da:	89 04 24             	mov    DWORD PTR [esp],eax
 804e3dd:	89 d8                	mov    eax,ebx
 804e3df:	e8 ec dc ff ff       	call   804c0d0
 804e3e4:	8b 4c 24 34          	mov    ecx,DWORD PTR [esp+0x34]
 804e3e8:	8b 44 24 18          	mov    eax,DWORD PTR [esp+0x18]
 804e3ec:	89 f2                	mov    edx,esi
 804e3ee:	c7 44 24 08 00 00 00 	mov    DWORD PTR [esp+0x8],0x0
 804e3f5:	00 
 804e3f6:	c7 44 24 04 00 00 00 	mov    DWORD PTR [esp+0x4],0x0
 804e3fd:	00 
 804e3fe:	89 04 24             	mov    DWORD PTR [esp],eax
 804e401:	89 d8                	mov    eax,ebx
 804e403:	e8 c8 dc ff ff       	call   804c0d0
 804e408:	8b 4c 24 24          	mov    ecx,DWORD PTR [esp+0x24]
 804e40c:	8b 44 24 28          	mov    eax,DWORD PTR [esp+0x28]
 804e410:	89 f2                	mov    edx,esi
 804e412:	c7 44 24 08 00 00 00 	mov    DWORD PTR [esp+0x8],0x0
 804e419:	00 
 804e41a:	c7 44 24 04 00 00 00 	mov    DWORD PTR [esp+0x4],0x0
 804e421:	00 
 804e422:	89 04 24             	mov    DWORD PTR [esp],eax
 804e425:	89 d8                	mov    eax,ebx
 804e427:	e8 a4 dc ff ff       	call   804c0d0
 804e42c:	8b 44 24 30          	mov    eax,DWORD PTR [esp+0x30]
 804e430:	89 f2                	mov    edx,esi
 804e432:	89 6c 24 60          	mov    DWORD PTR [esp+0x60],ebp
 804e436:	8b 4c 24 20          	mov    ecx,DWORD PTR [esp+0x20]
 804e43a:	89 44 24 68          	mov    DWORD PTR [esp+0x68],eax
 804e43e:	8b 44 24 2c          	mov    eax,DWORD PTR [esp+0x2c]
 804e442:	89 44 24 64          	mov    DWORD PTR [esp+0x64],eax
 804e446:	83 c4 4c             	add    esp,0x4c
 804e449:	89 d8                	mov    eax,ebx
 804e44b:	5b                   	pop    ebx
 804e44c:	5e                   	pop    esi
 804e44d:	5f                   	pop    edi
 804e44e:	5d                   	pop    ebp
 804e44f:	e9 7c dc ff ff       	jmp    804c0d0
 804e454:	8d 74 26 00          	lea    esi,[esi]
 804e458:	83 c4 4c             	add    esp,0x4c
 804e45b:	5b                   	pop    ebx
 804e45c:	5e                   	pop    esi
 804e45d:	5f                   	pop    edi
 804e45e:	5d                   	pop    ebp
 804e45f:	c3                   	ret
 804e460:	8b 7c 24 20          	mov    edi,DWORD PTR [esp+0x20]
 804e464:	8b 44 24 18          	mov    eax,DWORD PTR [esp+0x18]
 804e468:	c7 44 24 08 01 00 00 	mov    DWORD PTR [esp+0x8],0x1
 804e46f:	00 
 804e470:	c7 44 24 04 01 00 00 	mov    DWORD PTR [esp+0x4],0x1
 804e477:	00 
 804e478:	89 f9                	mov    ecx,edi
 804e47a:	89 04 24             	mov    DWORD PTR [esp],eax
 804e47d:	89 d8                	mov    eax,ebx
 804e47f:	e8 4c dc ff ff       	call   804c0d0
 804e484:	8b 44 24 18          	mov    eax,DWORD PTR [esp+0x18]
 804e488:	89 f9                	mov    ecx,edi
 804e48a:	89 f2                	mov    edx,esi
 804e48c:	c7 44 24 08 00 00 00 	mov    DWORD PTR [esp+0x8],0x0
 804e493:	00 
 804e494:	c7 44 24 04 00 00 00 	mov    DWORD PTR [esp+0x4],0x0
 804e49b:	00 
 804e49c:	01 c1                	add    ecx,eax
 804e49e:	89 04 24             	mov    DWORD PTR [esp],eax
 804e4a1:	89 d8                	mov    eax,ebx
 804e4a3:	e8 28 dc ff ff       	call   804c0d0
 804e4a8:	8b 54 24 28          	mov    edx,DWORD PTR [esp+0x28]
 804e4ac:	89 f9                	mov    ecx,edi
 804e4ae:	89 d8                	mov    eax,ebx
 804e4b0:	c7 44 24 08 01 00 00 	mov    DWORD PTR [esp+0x8],0x1
 804e4b7:	00 
 804e4b8:	c7 44 24 04 01 00 00 	mov    DWORD PTR [esp+0x4],0x1
 804e4bf:	00 
 804e4c0:	89 14 24             	mov    DWORD PTR [esp],edx
 804e4c3:	89 f2                	mov    edx,esi
 804e4c5:	e8 06 dc ff ff       	call   804c0d0
 804e4ca:	8b 44 24 18          	mov    eax,DWORD PTR [esp+0x18]
 804e4ce:	89 f2                	mov    edx,esi
 804e4d0:	8b 4c 24 28          	mov    ecx,DWORD PTR [esp+0x28]
 804e4d4:	c7 44 24 08 01 00 00 	mov    DWORD PTR [esp+0x8],0x1
 804e4db:	00 
 804e4dc:	c7 44 24 04 01 00 00 	mov    DWORD PTR [esp+0x4],0x1
 804e4e3:	00 
 804e4e4:	89 04 24             	mov    DWORD PTR [esp],eax
 804e4e7:	89 d8                	mov    eax,ebx
 804e4e9:	01 f9                	add    ecx,edi
 804e4eb:	89 cf                	mov    edi,ecx
 804e4ed:	89 4c 24 24          	mov    DWORD PTR [esp+0x24],ecx
 804e4f1:	e8 da db ff ff       	call   804c0d0
 804e4f6:	8b 44 24 18          	mov    eax,DWORD PTR [esp+0x18]
 804e4fa:	01 f8                	add    eax,edi
 804e4fc:	89 44 24 34          	mov    DWORD PTR [esp+0x34],eax
 804e500:	89 c1                	mov    ecx,eax
 804e502:	e9 e1 fe ff ff       	jmp    804e3e8
 804e507:	90                   	nop
 804e508:	8b 44 24 28          	mov    eax,DWORD PTR [esp+0x28]
 804e50c:	8b 7c 24 20          	mov    edi,DWORD PTR [esp+0x20]
 804e510:	c7 44 24 08 01 00 00 	mov    DWORD PTR [esp+0x8],0x1
 804e517:	00 
 804e518:	c7 44 24 04 01 00 00 	mov    DWORD PTR [esp+0x4],0x1
 804e51f:	00 
 804e520:	89 04 24             	mov    DWORD PTR [esp],eax
 804e523:	89 d8                	mov    eax,ebx
 804e525:	89 f9                	mov    ecx,edi
 804e527:	e8 a4 db ff ff       	call   804c0d0
 804e52c:	8b 44 24 28          	mov    eax,DWORD PTR [esp+0x28]
 804e530:	01 f8                	add    eax,edi
 804e532:	89 44 24 24          	mov    DWORD PTR [esp+0x24],eax
 804e536:	89 c1                	mov    ecx,eax
 804e538:	e9 cf fe ff ff       	jmp    804e40c
 804e53d:	8d 76 00             	lea    esi,[esi]
 804e540:	8b 7c 24 1c          	mov    edi,DWORD PTR [esp+0x1c]
 804e544:	89 f2                	mov    edx,esi
 804e546:	89 d8                	mov    eax,ebx
 804e548:	c7 44 24 08 01 00 00 	mov    DWORD PTR [esp+0x8],0x1
 804e54f:	00 
 804e550:	c7 44 24 04 01 00 00 	mov    DWORD PTR [esp+0x4],0x1
 804e557:	00 
 804e558:	89 3c 24             	mov    DWORD PTR [esp],edi
 804e55b:	e8 70 db ff ff       	call   804c0d0
 804e560:	89 f2                	mov    edx,esi
 804e562:	89 d8                	mov    eax,ebx
 804e564:	89 7c 24 1c          	mov    DWORD PTR [esp+0x1c],edi
 804e568:	03 7c 24 24          	add    edi,DWORD PTR [esp+0x24]
 804e56c:	c7 44 24 08 01 00 00 	mov    DWORD PTR [esp+0x8],0x1
 804e573:	00 
 804e574:	c7 44 24 04 01 00 00 	mov    DWORD PTR [esp+0x4],0x1
 804e57b:	00 
 804e57c:	89 f9                	mov    ecx,edi
 804e57e:	c7 04 24 01 00 00 00 	mov    DWORD PTR [esp],0x1
 804e585:	e8 26 f7 ff ff       	call   804dcb0
 804e58a:	8d 4f 01             	lea    ecx,[edi+0x1]
 804e58d:	89 f2                	mov    edx,esi
 804e58f:	89 d8                	mov    eax,ebx
 804e591:	c7 44 24 08 00 00 00 	mov    DWORD PTR [esp+0x8],0x0
 804e598:	00 
 804e599:	c7 44 24 04 00 00 00 	mov    DWORD PTR [esp+0x4],0x0
 804e5a0:	00 
 804e5a1:	c7 04 24 01 00 00 00 	mov    DWORD PTR [esp],0x1
 804e5a8:	e8 03 f7 ff ff       	call   804dcb0
 804e5ad:	8b 44 24 1c          	mov    eax,DWORD PTR [esp+0x1c]
 804e5b1:	89 f9                	mov    ecx,edi
 804e5b3:	89 f2                	mov    edx,esi
 804e5b5:	c7 44 24 08 00 00 00 	mov    DWORD PTR [esp+0x8],0x0
 804e5bc:	00 
 804e5bd:	c7 44 24 04 00 00 00 	mov    DWORD PTR [esp+0x4],0x0
 804e5c4:	00 
 804e5c5:	89 04 24             	mov    DWORD PTR [esp],eax
 804e5c8:	89 d8                	mov    eax,ebx
 804e5ca:	e8 01 db ff ff       	call   804c0d0
 804e5cf:	8b 7c 24 18          	mov    edi,DWORD PTR [esp+0x18]
 804e5d3:	89 f2                	mov    edx,esi
 804e5d5:	8b 4c 24 24          	mov    ecx,DWORD PTR [esp+0x24]
 804e5d9:	89 d8                	mov    eax,ebx
 804e5db:	c7 44 24 08 01 00 00 	mov    DWORD PTR [esp+0x8],0x1
 804e5e2:	00 
 804e5e3:	c7 44 24 04 01 00 00 	mov    DWORD PTR [esp+0x4],0x1
 804e5ea:	00 
 804e5eb:	89 3c 24             	mov    DWORD PTR [esp],edi
 804e5ee:	e8 dd da ff ff       	call   804c0d0
 804e5f3:	8b 54 24 24          	mov    edx,DWORD PTR [esp+0x24]
 804e5f7:	89 d8                	mov    eax,ebx
 804e5f9:	c7 44 24 08 01 00 00 	mov    DWORD PTR [esp+0x8],0x1
 804e600:	00 
 804e601:	c7 44 24 04 01 00 00 	mov    DWORD PTR [esp+0x4],0x1
 804e608:	00 
 804e609:	01 fa                	add    edx,edi
 804e60b:	8b 7c 24 1c          	mov    edi,DWORD PTR [esp+0x1c]
 804e60f:	89 d1                	mov    ecx,edx
 804e611:	89 54 24 34          	mov    DWORD PTR [esp+0x34],edx
 804e615:	89 f2                	mov    edx,esi
 804e617:	89 3c 24             	mov    DWORD PTR [esp],edi
 804e61a:	e8 b1 da ff ff       	call   804c0d0
 804e61f:	8b 44 24 34          	mov    eax,DWORD PTR [esp+0x34]
 804e623:	01 f8                	add    eax,edi
 804e625:	89 44 24 38          	mov    DWORD PTR [esp+0x38],eax
 804e629:	89 c1                	mov    ecx,eax
 804e62b:	e9 94 fd ff ff       	jmp    804e3c4
 804e630:	8b 7c 24 20          	mov    edi,DWORD PTR [esp+0x20]
 804e634:	8b 44 24 1c          	mov    eax,DWORD PTR [esp+0x1c]
 804e638:	c7 44 24 08 01 00 00 	mov    DWORD PTR [esp+0x8],0x1
 804e63f:	00 
 804e640:	c7 44 24 04 01 00 00 	mov    DWORD PTR [esp+0x4],0x1
 804e647:	00 
 804e648:	89 f9                	mov    ecx,edi
 804e64a:	89 04 24             	mov    DWORD PTR [esp],eax
 804e64d:	89 d8                	mov    eax,ebx
 804e64f:	e8 7c da ff ff       	call   804c0d0
 804e654:	89 f2                	mov    edx,esi
 804e656:	89 d8                	mov    eax,ebx
 804e658:	89 7c 24 20          	mov    DWORD PTR [esp+0x20],edi
 804e65c:	03 7c 24 1c          	add    edi,DWORD PTR [esp+0x1c]
 804e660:	c7 44 24 08 01 00 00 	mov    DWORD PTR [esp+0x8],0x1
 804e667:	00 
 804e668:	c7 44 24 04 01 00 00 	mov    DWORD PTR [esp+0x4],0x1
 804e66f:	00 
 804e670:	89 f9                	mov    ecx,edi
 804e672:	c7 04 24 01 00 00 00 	mov    DWORD PTR [esp],0x1
 804e679:	e8 32 f6 ff ff       	call   804dcb0
 804e67e:	8d 4f 01             	lea    ecx,[edi+0x1]
 804e681:	89 f2                	mov    edx,esi
 804e683:	89 d8                	mov    eax,ebx
 804e685:	c7 44 24 08 00 00 00 	mov    DWORD PTR [esp+0x8],0x0
 804e68c:	00 
 804e68d:	c7 44 24 04 00 00 00 	mov    DWORD PTR [esp+0x4],0x0
 804e694:	00 
 804e695:	c7 04 24 01 00 00 00 	mov    DWORD PTR [esp],0x1
 804e69c:	e8 0f f6 ff ff       	call   804dcb0
 804e6a1:	8b 44 24 1c          	mov    eax,DWORD PTR [esp+0x1c]
 804e6a5:	89 f9                	mov    ecx,edi
 804e6a7:	89 f2                	mov    edx,esi
 804e6a9:	c7 44 24 08 00 00 00 	mov    DWORD PTR [esp+0x8],0x0
 804e6b0:	00 
 804e6b1:	c7 44 24 04 00 00 00 	mov    DWORD PTR [esp+0x4],0x0
 804e6b8:	00 
 804e6b9:	89 04 24             	mov    DWORD PTR [esp],eax
 804e6bc:	89 d8                	mov    eax,ebx
 804e6be:	e8 0d da ff ff       	call   804c0d0
 804e6c3:	8b 54 24 18          	mov    edx,DWORD PTR [esp+0x18]
 804e6c7:	89 d8                	mov    eax,ebx
 804e6c9:	8b 7c 24 20          	mov    edi,DWORD PTR [esp+0x20]
 804e6cd:	c7 44 24 08 01 00 00 	mov    DWORD PTR [esp+0x8],0x1
 804e6d4:	00 
 804e6d5:	c7 44 24 04 01 00 00 	mov    DWORD PTR [esp+0x4],0x1
 804e6dc:	00 
 804e6dd:	89 14 24             	mov    DWORD PTR [esp],edx
 804e6e0:	89 f2                	mov    edx,esi
 804e6e2:	89 f9                	mov    ecx,edi
 804e6e4:	e8 e7 d9 ff ff       	call   804c0d0
 804e6e9:	89 f2                	mov    edx,esi
 804e6eb:	89 d8                	mov    eax,ebx
 804e6ed:	03 7c 24 18          	add    edi,DWORD PTR [esp+0x18]
 804e6f1:	c7 44 24 08 01 00 00 	mov    DWORD PTR [esp+0x8],0x1
 804e6f8:	00 
 804e6f9:	c7 44 24 04 01 00 00 	mov    DWORD PTR [esp+0x4],0x1
 804e700:	00 
 804e701:	89 f9                	mov    ecx,edi
 804e703:	c7 04 24 01 00 00 00 	mov    DWORD PTR [esp],0x1
 804e70a:	e8 a1 f5 ff ff       	call   804dcb0
 804e70f:	8d 4f 01             	lea    ecx,[edi+0x1]
 804e712:	89 f2                	mov    edx,esi
 804e714:	89 d8                	mov    eax,ebx
 804e716:	c7 44 24 08 00 00 00 	mov    DWORD PTR [esp+0x8],0x0
 804e71d:	00 
 804e71e:	c7 44 24 04 00 00 00 	mov    DWORD PTR [esp+0x4],0x0
 804e725:	00 
 804e726:	c7 04 24 01 00 00 00 	mov    DWORD PTR [esp],0x1
 804e72d:	e8 7e f5 ff ff       	call   804dcb0
 804e732:	8b 44 24 1c          	mov    eax,DWORD PTR [esp+0x1c]
 804e736:	89 f9                	mov    ecx,edi
 804e738:	c7 44 24 08 01 00 00 	mov    DWORD PTR [esp+0x8],0x1
 804e73f:	00 
 804e740:	89 f2                	mov    edx,esi
 804e742:	c7 44 24 04 01 00 00 	mov    DWORD PTR [esp+0x4],0x1
 804e749:	00 
 804e74a:	89 04 24             	mov    DWORD PTR [esp],eax
 804e74d:	89 d8                	mov    eax,ebx
 804e74f:	e8 7c d9 ff ff       	call   804c0d0
 804e754:	8b 44 24 1c          	mov    eax,DWORD PTR [esp+0x1c]
 804e758:	01 f8                	add    eax,edi
 804e75a:	89 44 24 34          	mov    DWORD PTR [esp+0x34],eax
 804e75e:	e9 3c f8 ff ff       	jmp    804df9f
 804e763:	8d b6 00 00 00 00    	lea    esi,[esi]
 804e769:	8d bc 27 00 00 00 00 	lea    edi,[edi]

0804e770 <BitonicMerge_Int>:
 804e770:	55                   	push   ebp
 804e771:	57                   	push   edi
 804e772:	56                   	push   esi
 804e773:	53                   	push   ebx
 804e774:	83 ec 6c             	sub    esp,0x6c
 804e777:	83 f9 01             	cmp    ecx,0x1
 804e77a:	89 44 24 1c          	mov    DWORD PTR [esp+0x1c],eax
 804e77e:	89 54 24 14          	mov    DWORD PTR [esp+0x14],edx
 804e782:	89 4c 24 3c          	mov    DWORD PTR [esp+0x3c],ecx
 804e786:	0f 8e 96 04 00 00    	jle    804ec22
 804e78c:	d1 7c 24 3c          	sar    DWORD PTR [esp+0x3c],1
 804e790:	8b 4c 24 14          	mov    ecx,DWORD PTR [esp+0x14]
 804e794:	8b 44 24 3c          	mov    eax,DWORD PTR [esp+0x3c]
 804e798:	01 c8                	add    eax,ecx
 804e79a:	39 c1                	cmp    ecx,eax
 804e79c:	89 44 24 44          	mov    DWORD PTR [esp+0x44],eax
 804e7a0:	7d 56                	jge    804e7f8
 804e7a2:	89 c3                	mov    ebx,eax
 804e7a4:	8b 44 24 1c          	mov    eax,DWORD PTR [esp+0x1c]
 804e7a8:	8d 3c 88             	lea    edi,[eax+ecx*4]
 804e7ab:	8d 34 98             	lea    esi,[eax+ebx*4]
 804e7ae:	8b 44 24 3c          	mov    eax,DWORD PTR [esp+0x3c]
 804e7b2:	8d 2c 85 00 00 00 00 	lea    ebp,[eax*4]
 804e7b9:	8b 44 24 3c          	mov    eax,DWORD PTR [esp+0x3c]
 804e7bd:	8d 14 2f             	lea    edx,[edi+ebp]
 804e7c0:	8b 04 87             	mov    eax,DWORD PTR [edi+eax*4]
 804e7c3:	39 07                	cmp    DWORD PTR [edi],eax
 804e7c5:	0f 9f c0             	setg   al
 804e7c8:	0f b6 c0             	movzx  eax,al
 804e7cb:	3b 84 24 80 00 00 00 	cmp    eax,DWORD PTR [esp+0x80]
 804e7d2:	0f 94 c0             	sete   al
 804e7d5:	0f b6 c0             	movzx  eax,al
 804e7d8:	89 44 24 0c          	mov    DWORD PTR [esp+0xc],eax
 804e7dc:	8b 07                	mov    eax,DWORD PTR [edi]
 804e7de:	8b 1a                	mov    ebx,DWORD PTR [edx]
 804e7e0:	89 c1                	mov    ecx,eax
 804e7e2:	83 7c 24 0c 00       	cmp    DWORD PTR [esp+0xc],0x0
 804e7e7:	0f 45 c3             	cmovne eax,ebx
 804e7ea:	0f 45 d9             	cmovne ebx,ecx
 804e7ed:	89 07                	mov    DWORD PTR [edi],eax
 804e7ef:	89 1a                	mov    DWORD PTR [edx],ebx
 804e7f1:	83 c7 04             	add    edi,0x4
 804e7f4:	39 f7                	cmp    edi,esi
 804e7f6:	75 c1                	jne    804e7b9
 804e7f8:	83 7c 24 3c 01       	cmp    DWORD PTR [esp+0x3c],0x1
 804e7fd:	0f 84 1f 04 00 00    	je     804ec22
 804e803:	8b 44 24 3c          	mov    eax,DWORD PTR [esp+0x3c]
 804e807:	8b 5c 24 14          	mov    ebx,DWORD PTR [esp+0x14]
 804e80b:	89 44 24 40          	mov    DWORD PTR [esp+0x40],eax
 804e80f:	d1 7c 24 40          	sar    DWORD PTR [esp+0x40],1
 804e813:	8b 4c 24 40          	mov    ecx,DWORD PTR [esp+0x40]
 804e817:	89 c8                	mov    eax,ecx
 804e819:	01 d8                	add    eax,ebx
 804e81b:	39 c3                	cmp    ebx,eax
 804e81d:	89 44 24 5c          	mov    DWORD PTR [esp+0x5c],eax
 804e821:	7d 50                	jge    804e873
 804e823:	8b 74 24 1c          	mov    esi,DWORD PTR [esp+0x1c]
 804e827:	8d 2c 8d 00 00 00 00 	lea    ebp,[ecx*4]
 804e82e:	8d 3c 9e             	lea    edi,[esi+ebx*4]
 804e831:	8d 34 86             	lea    esi,[esi+eax*4]
 804e834:	8b 44 24 40          	mov    eax,DWORD PTR [esp+0x40]
 804e838:	8d 14 2f             	lea    edx,[edi+ebp]
 804e83b:	8b 04 87             	mov    eax,DWORD PTR [edi+eax*4]
 804e83e:	39 07                	cmp    DWORD PTR [edi],eax
 804e840:	0f 9f c0             	setg   al
 804e843:	0f b6 c0             	movzx  eax,al
 804e846:	39 84 24 80 00 00 00 	cmp    DWORD PTR [esp+0x80],eax
 804e84d:	0f 94 c0             	sete   al
 804e850:	0f b6 c0             	movzx  eax,al
 804e853:	89 44 24 0c          	mov    DWORD PTR [esp+0xc],eax
 804e857:	8b 07                	mov    eax,DWORD PTR [edi]
 804e859:	8b 1a                	mov    ebx,DWORD PTR [edx]
 804e85b:	89 c1                	mov    ecx,eax
 804e85d:	83 7c 24 0c 00       	cmp    DWORD PTR [esp+0xc],0x0
 804e862:	0f 45 c3             	cmovne eax,ebx
 804e865:	0f 45 d9             	cmovne ebx,ecx
 804e868:	89 07                	mov    DWORD PTR [edi],eax
 804e86a:	89 1a                	mov    DWORD PTR [edx],ebx
 804e86c:	83 c7 04             	add    edi,0x4
 804e86f:	39 f7                	cmp    edi,esi
 804e871:	75 c1                	jne    804e834
 804e873:	83 7c 24 40 01       	cmp    DWORD PTR [esp+0x40],0x1
 804e878:	0f 84 ac 03 00 00    	je     804ec2a
 804e87e:	8b 44 24 40          	mov    eax,DWORD PTR [esp+0x40]
 804e882:	8b 4c 24 14          	mov    ecx,DWORD PTR [esp+0x14]
 804e886:	89 44 24 2c          	mov    DWORD PTR [esp+0x2c],eax
 804e88a:	d1 7c 24 2c          	sar    DWORD PTR [esp+0x2c],1
 804e88e:	8b 44 24 2c          	mov    eax,DWORD PTR [esp+0x2c]
 804e892:	01 c8                	add    eax,ecx
 804e894:	39 c1                	cmp    ecx,eax
 804e896:	89 44 24 54          	mov    DWORD PTR [esp+0x54],eax
 804e89a:	7d 56                	jge    804e8f2
 804e89c:	89 c3                	mov    ebx,eax
 804e89e:	8b 44 24 1c          	mov    eax,DWORD PTR [esp+0x1c]
 804e8a2:	8d 3c 88             	lea    edi,[eax+ecx*4]
 804e8a5:	8d 34 98             	lea    esi,[eax+ebx*4]
 804e8a8:	8b 44 24 2c          	mov    eax,DWORD PTR [esp+0x2c]
 804e8ac:	8d 2c 85 00 00 00 00 	lea    ebp,[eax*4]
 804e8b3:	8b 44 24 2c          	mov    eax,DWORD PTR [esp+0x2c]
 804e8b7:	8d 14 2f             	lea    edx,[edi+ebp]
 804e8ba:	8b 04 87             	mov    eax,DWORD PTR [edi+eax*4]
 804e8bd:	39 07                	cmp    DWORD PTR [edi],eax
 804e8bf:	0f 9f c0             	setg   al
 804e8c2:	0f b6 c0             	movzx  eax,al
 804e8c5:	39 84 24 80 00 00 00 	cmp    DWORD PTR [esp+0x80],eax
 804e8cc:	0f 94 c0             	sete   al
 804e8cf:	0f b6 c0             	movzx  eax,al
 804e8d2:	89 44 24 0c          	mov    DWORD PTR [esp+0xc],eax
 804e8d6:	8b 07                	mov    eax,DWORD PTR [edi]
 804e8d8:	8b 1a                	mov    ebx,DWORD PTR [edx]
 804e8da:	89 c1                	mov    ecx,eax
 804e8dc:	83 7c 24 0c 00       	cmp    DWORD PTR [esp+0xc],0x0
 804e8e1:	0f 45 c3             	cmovne eax,ebx
 804e8e4:	0f 45 d9             	cmovne ebx,ecx
 804e8e7:	89 07                	mov    DWORD PTR [edi],eax
 804e8e9:	89 1a                	mov    DWORD PTR [edx],ebx
 804e8eb:	83 c7 04             	add    edi,0x4
 804e8ee:	39 f7                	cmp    edi,esi
 804e8f0:	75 c1                	jne    804e8b3
 804e8f2:	83 7c 24 2c 01       	cmp    DWORD PTR [esp+0x2c],0x1
 804e8f7:	0f 84 3a 03 00 00    	je     804ec37
 804e8fd:	8b 44 24 2c          	mov    eax,DWORD PTR [esp+0x2c]
 804e901:	8b 4c 24 14          	mov    ecx,DWORD PTR [esp+0x14]
 804e905:	89 44 24 30          	mov    DWORD PTR [esp+0x30],eax
 804e909:	d1 7c 24 30          	sar    DWORD PTR [esp+0x30],1
 804e90d:	8b 44 24 30          	mov    eax,DWORD PTR [esp+0x30]
 804e911:	01 c8                	add    eax,ecx
 804e913:	39 c1                	cmp    ecx,eax
 804e915:	89 44 24 58          	mov    DWORD PTR [esp+0x58],eax
 804e919:	7d 56                	jge    804e971
 804e91b:	89 c3                	mov    ebx,eax
 804e91d:	8b 44 24 1c          	mov    eax,DWORD PTR [esp+0x1c]
 804e921:	8d 3c 88             	lea    edi,[eax+ecx*4]
 804e924:	8d 34 98             	lea    esi,[eax+ebx*4]
 804e927:	8b 44 24 30          	mov    eax,DWORD PTR [esp+0x30]
 804e92b:	8d 2c 85 00 00 00 00 	lea    ebp,[eax*4]
 804e932:	8b 44 24 30          	mov    eax,DWORD PTR [esp+0x30]
 804e936:	8d 14 2f             	lea    edx,[edi+ebp]
 804e939:	8b 04 87             	mov    eax,DWORD PTR [edi+eax*4]
 804e93c:	39 07                	cmp    DWORD PTR [edi],eax
 804e93e:	0f 9f c0             	setg   al
 804e941:	0f b6 c0             	movzx  eax,al
 804e944:	39 84 24 80 00 00 00 	cmp    DWORD PTR [esp+0x80],eax
 804e94b:	0f 94 c0             	sete   al
 804e94e:	0f b6 c0             	movzx  eax,al
 804e951:	89 44 24 0c          	mov    DWORD PTR [esp+0xc],eax
 804e955:	8b 07                	mov    eax,DWORD PTR [edi]
 804e957:	8b 1a                	mov    ebx,DWORD PTR [edx]
 804e959:	89 c1                	mov    ecx,eax
 804e95b:	83 7c 24 0c 00       	cmp    DWORD PTR [esp+0xc],0x0
 804e960:	0f 45 c3             	cmovne eax,ebx
 804e963:	0f 45 d9             	cmovne ebx,ecx
 804e966:	89 07                	mov    DWORD PTR [edi],eax
 804e968:	89 1a                	mov    DWORD PTR [edx],ebx
 804e96a:	83 c7 04             	add    edi,0x4
 804e96d:	39 f7                	cmp    edi,esi
 804e96f:	75 c1                	jne    804e932
 804e971:	83 7c 24 30 01       	cmp    DWORD PTR [esp+0x30],0x1
 804e976:	0f 84 ca 02 00 00    	je     804ec46
 804e97c:	8b 44 24 30          	mov    eax,DWORD PTR [esp+0x30]
 804e980:	8b 4c 24 14          	mov    ecx,DWORD PTR [esp+0x14]
 804e984:	89 44 24 34          	mov    DWORD PTR [esp+0x34],eax
 804e988:	d1 7c 24 34          	sar    DWORD PTR [esp+0x34],1
 804e98c:	8b 44 24 34          	mov    eax,DWORD PTR [esp+0x34]
 804e990:	01 c8                	add    eax,ecx
 804e992:	39 c1                	cmp    ecx,eax
 804e994:	89 44 24 4c          	mov    DWORD PTR [esp+0x4c],eax
 804e998:	7d 56                	jge    804e9f0
 804e99a:	89 c3                	mov    ebx,eax
 804e99c:	8b 44 24 1c          	mov    eax,DWORD PTR [esp+0x1c]
 804e9a0:	8d 3c 88             	lea    edi,[eax+ecx*4]
 804e9a3:	8d 34 98             	lea    esi,[eax+ebx*4]
 804e9a6:	8b 44 24 34          	mov    eax,DWORD PTR [esp+0x34]
 804e9aa:	8d 2c 85 00 00 00 00 	lea    ebp,[eax*4]
 804e9b1:	8b 44 24 34          	mov    eax,DWORD PTR [esp+0x34]
 804e9b5:	8d 14 2f             	lea    edx,[edi+ebp]
 804e9b8:	8b 04 87             	mov    eax,DWORD PTR [edi+eax*4]
 804e9bb:	39 07                	cmp    DWORD PTR [edi],eax
 804e9bd:	0f 9f c0             	setg   al
 804e9c0:	0f b6 c0             	movzx  eax,al
 804e9c3:	39 84 24 80 00 00 00 	cmp    DWORD PTR [esp+0x80],eax
 804e9ca:	0f 94 c0             	sete   al
 804e9cd:	0f b6 c0             	movzx  eax,al
 804e9d0:	89 44 24 0c          	mov    DWORD PTR [esp+0xc],eax
 804e9d4:	8b 07                	mov    eax,DWORD PTR [edi]
 804e9d6:	8b 1a                	mov    ebx,DWORD PTR [edx]
 804e9d8:	89 c1                	mov    ecx,eax
 804e9da:	83 7c 24 0c 00       	cmp    DWORD PTR [esp+0xc],0x0
 804e9df:	0f 45 c3             	cmovne eax,ebx
 804e9e2:	0f 45 d9             	cmovne ebx,ecx
 804e9e5:	89 07                	mov    DWORD PTR [edi],eax
 804e9e7:	89 1a                	mov    DWORD PTR [edx],ebx
 804e9e9:	83 c7 04             	add    edi,0x4
 804e9ec:	39 f7                	cmp    edi,esi
 804e9ee:	75 c1                	jne    804e9b1
 804e9f0:	83 7c 24 34 01       	cmp    DWORD PTR [esp+0x34],0x1
 804e9f5:	0f 84 99 02 00 00    	je     804ec94
 804e9fb:	8b 44 24 34          	mov    eax,DWORD PTR [esp+0x34]
 804e9ff:	8b 4c 24 14          	mov    ecx,DWORD PTR [esp+0x14]
 804ea03:	89 44 24 38          	mov    DWORD PTR [esp+0x38],eax
 804ea07:	d1 7c 24 38          	sar    DWORD PTR [esp+0x38],1
 804ea0b:	8b 44 24 38          	mov    eax,DWORD PTR [esp+0x38]
 804ea0f:	01 c8                	add    eax,ecx
 804ea11:	39 c1                	cmp    ecx,eax
 804ea13:	89 44 24 48          	mov    DWORD PTR [esp+0x48],eax
 804ea17:	7d 56                	jge    804ea6f
 804ea19:	89 c3                	mov    ebx,eax
 804ea1b:	8b 44 24 1c          	mov    eax,DWORD PTR [esp+0x1c]
 804ea1f:	8d 3c 88             	lea    edi,[eax+ecx*4]
 804ea22:	8d 34 98             	lea    esi,[eax+ebx*4]
 804ea25:	8b 44 24 38          	mov    eax,DWORD PTR [esp+0x38]
 804ea29:	8d 2c 85 00 00 00 00 	lea    ebp,[eax*4]
 804ea30:	8b 44 24 38          	mov    eax,DWORD PTR [esp+0x38]
 804ea34:	8d 14 2f             	lea    edx,[edi+ebp]
 804ea37:	8b 04 87             	mov    eax,DWORD PTR [edi+eax*4]
 804ea3a:	39 07                	cmp    DWORD PTR [edi],eax
 804ea3c:	0f 9f c0             	setg   al
 804ea3f:	0f b6 c0             	movzx  eax,al
 804ea42:	39 84 24 80 00 00 00 	cmp    DWORD PTR [esp+0x80],eax
 804ea49:	0f 94 c0             	sete   al
 804ea4c:	0f b6 c0             	movzx  eax,al
 804ea4f:	89 44 24 0c          	mov    DWORD PTR [esp+0xc],eax
 804ea53:	8b 07                	mov    eax,DWORD PTR [edi]
 804ea55:	8b 1a                	mov    ebx,DWORD PTR [edx]
 804ea57:	89 c1                	mov    ecx,eax
 804ea59:	83 7c 24 0c 00       	cmp    DWORD PTR [esp+0xc],0x0
 804ea5e:	0f 45 c3             	cmovne eax,ebx
 804ea61:	0f 45 d9             	cmovne ebx,ecx
 804ea64:	89 07                	mov    DWORD PTR [edi],eax
 804ea66:	89 1a                	mov    DWORD PTR [edx],ebx
 804ea68:	83 c7 04             	add    edi,0x4
 804ea6b:	39 f7                	cmp    edi,esi
 804ea6d:	75 c1                	jne    804ea30
 804ea6f:	83 7c 24 38 01       	cmp    DWORD PTR [esp+0x38],0x1
 804ea74:	0f 84 0b 02 00 00    	je     804ec85
 804ea7a:	8b 44 24 38          	mov    eax,DWORD PTR [esp+0x38]
 804ea7e:	8b 5c 24 14          	mov    ebx,DWORD PTR [esp+0x14]
 804ea82:	89 44 24 28          	mov    DWORD PTR [esp+0x28],eax
 804ea86:	d1 7c 24 28          	sar    DWORD PTR [esp+0x28],1
 804ea8a:	8b 44 24 28          	mov    eax,DWORD PTR [esp+0x28]
 804ea8e:	01 d8                	add    eax,ebx
 804ea90:	39 c3                	cmp    ebx,eax
 804ea92:	89 44 24 50          	mov    DWORD PTR [esp+0x50],eax
 804ea96:	7d 5a                	jge    804eaf2
 804ea98:	8b 44 24 1c          	mov    eax,DWORD PTR [esp+0x1c]
 804ea9c:	8d 3c 98             	lea    edi,[eax+ebx*4]
 804ea9f:	8b 5c 24 50          	mov    ebx,DWORD PTR [esp+0x50]
 804eaa3:	8d 04 98             	lea    eax,[eax+ebx*4]
 804eaa6:	89 44 24 0c          	mov    DWORD PTR [esp+0xc],eax
 804eaaa:	8b 44 24 28          	mov    eax,DWORD PTR [esp+0x28]
 804eaae:	8d 2c 85 00 00 00 00 	lea    ebp,[eax*4]
 804eab5:	8b 44 24 28          	mov    eax,DWORD PTR [esp+0x28]
 804eab9:	8d 14 2f             	lea    edx,[edi+ebp]
 804eabc:	8b 04 87             	mov    eax,DWORD PTR [edi+eax*4]
 804eabf:	39 07                	cmp    DWORD PTR [edi],eax
 804eac1:	0f 9f c0             	setg   al
 804eac4:	0f b6 c0             	movzx  eax,al
 804eac7:	39 84 24 80 00 00 00 	cmp    DWORD PTR [esp+0x80],eax
 804eace:	0f 94 c0             	sete   al
 804ead1:	0f b6 c0             	movzx  eax,al
 804ead4:	89 c6                	mov    esi,eax
 804ead6:	8b 07                	mov    eax,DWORD PTR [edi]
 804ead8:	8b 1a                	mov    ebx,DWORD PTR [edx]
 804eada:	89 c1                	mov    ecx,eax
 804eadc:	83 fe 00             	cmp    esi,0x0
 804eadf:	0f 45 c3             	cmovne eax,ebx
 804eae2:	0f 45 d9             	cmovne ebx,ecx
 804eae5:	89 07                	mov    DWORD PTR [edi],eax
 804eae7:	89 1a                	mov    DWORD PTR [edx],ebx
 804eae9:	83 c7 04             	add    edi,0x4
 804eaec:	3b 7c 24 0c          	cmp    edi,DWORD PTR [esp+0xc]
 804eaf0:	75 c3                	jne    804eab5
 804eaf2:	83 7c 24 28 01       	cmp    DWORD PTR [esp+0x28],0x1
 804eaf7:	0f 84 79 01 00 00    	je     804ec76
 804eafd:	8b 44 24 28          	mov    eax,DWORD PTR [esp+0x28]
 804eb01:	8b 4c 24 14          	mov    ecx,DWORD PTR [esp+0x14]
 804eb05:	89 44 24 20          	mov    DWORD PTR [esp+0x20],eax
 804eb09:	d1 7c 24 20          	sar    DWORD PTR [esp+0x20],1
 804eb0d:	8b 44 24 20          	mov    eax,DWORD PTR [esp+0x20]
 804eb11:	01 c8                	add    eax,ecx
 804eb13:	39 c1                	cmp    ecx,eax
 804eb15:	89 44 24 24          	mov    DWORD PTR [esp+0x24],eax
 804eb19:	7d 5a                	jge    804eb75
 804eb1b:	89 c3                	mov    ebx,eax
 804eb1d:	8b 44 24 1c          	mov    eax,DWORD PTR [esp+0x1c]
 804eb21:	8d 14 88             	lea    edx,[eax+ecx*4]
 804eb24:	8d 04 98             	lea    eax,[eax+ebx*4]
 804eb27:	89 44 24 0c          	mov    DWORD PTR [esp+0xc],eax
 804eb2b:	8b 44 24 20          	mov    eax,DWORD PTR [esp+0x20]
 804eb2f:	8d 2c 85 00 00 00 00 	lea    ebp,[eax*4]
 804eb36:	66 90                	xchg   ax,ax
 804eb38:	8b 44 24 20          	mov    eax,DWORD PTR [esp+0x20]
 804eb3c:	8d 34 2a             	lea    esi,[edx+ebp]
 804eb3f:	8b 04 82             	mov    eax,DWORD PTR [edx+eax*4]
 804eb42:	39 02                	cmp    DWORD PTR [edx],eax
 804eb44:	0f 9f c0             	setg   al
 804eb47:	0f b6 c0             	movzx  eax,al
 804eb4a:	39 84 24 80 00 00 00 	cmp    DWORD PTR [esp+0x80],eax
 804eb51:	0f 94 c0             	sete   al
 804eb54:	0f b6 c0             	movzx  eax,al
 804eb57:	89 c7                	mov    edi,eax
 804eb59:	8b 02                	mov    eax,DWORD PTR [edx]
 804eb5b:	8b 1e                	mov    ebx,DWORD PTR [esi]
 804eb5d:	89 c1                	mov    ecx,eax
 804eb5f:	83 ff 00             	cmp    edi,0x0
 804eb62:	0f 45 c3             	cmovne eax,ebx
 804eb65:	0f 45 d9             	cmovne ebx,ecx
 804eb68:	89 02                	mov    DWORD PTR [edx],eax
 804eb6a:	89 1e                	mov    DWORD PTR [esi],ebx
 804eb6c:	83 c2 04             	add    edx,0x4
 804eb6f:	3b 54 24 0c          	cmp    edx,DWORD PTR [esp+0xc]
 804eb73:	75 c3                	jne    804eb38
 804eb75:	83 7c 24 20 01       	cmp    DWORD PTR [esp+0x20],0x1
 804eb7a:	0f 84 e7 00 00 00    	je     804ec67
 804eb80:	8b 6c 24 20          	mov    ebp,DWORD PTR [esp+0x20]
 804eb84:	8b 5c 24 14          	mov    ebx,DWORD PTR [esp+0x14]
 804eb88:	d1 fd                	sar    ebp,1
 804eb8a:	89 d8                	mov    eax,ebx
 804eb8c:	01 e8                	add    eax,ebp
 804eb8e:	39 d8                	cmp    eax,ebx
 804eb90:	89 44 24 18          	mov    DWORD PTR [esp+0x18],eax
 804eb94:	7e 5f                	jle    804ebf5
 804eb96:	8b 44 24 1c          	mov    eax,DWORD PTR [esp+0x1c]
 804eb9a:	8b 4c 24 18          	mov    ecx,DWORD PTR [esp+0x18]
 804eb9e:	8d 14 98             	lea    edx,[eax+ebx*4]
 804eba1:	8d 04 88             	lea    eax,[eax+ecx*4]
 804eba4:	89 44 24 0c          	mov    DWORD PTR [esp+0xc],eax
 804eba8:	8d 04 ad 00 00 00 00 	lea    eax,[ebp*4]
 804ebaf:	89 44 24 10          	mov    DWORD PTR [esp+0x10],eax
 804ebb3:	90                   	nop
 804ebb4:	8d 74 26 00          	lea    esi,[esi]
 804ebb8:	8b 44 24 10          	mov    eax,DWORD PTR [esp+0x10]
 804ebbc:	8d 34 02             	lea    esi,[edx+eax]
 804ebbf:	8b 04 aa             	mov    eax,DWORD PTR [edx+ebp*4]
 804ebc2:	39 02                	cmp    DWORD PTR [edx],eax
 804ebc4:	0f 9f c0             	setg   al
 804ebc7:	0f b6 c0             	movzx  eax,al
 804ebca:	39 84 24 80 00 00 00 	cmp    DWORD PTR [esp+0x80],eax
 804ebd1:	0f 94 c0             	sete   al
 804ebd4:	0f b6 c0             	movzx  eax,al
 804ebd7:	89 c7                	mov    edi,eax
 804ebd9:	8b 02                	mov    eax,DWORD PTR [edx]
 804ebdb:	8b 1e                	mov    ebx,DWORD PTR [esi]
 804ebdd:	89 c1                	mov    ecx,eax
 804ebdf:	83 ff 00             	cmp    edi,0x0
 804ebe2:	0f 45 c3             	cmovne eax,ebx
 804ebe5:	0f 45 d9             	cmovne ebx,ecx
 804ebe8:	89 02                	mov    DWORD PTR [edx],eax
 804ebea:	89 1e                	mov    DWORD PTR [esi],ebx
 804ebec:	83 c2 04             	add    edx,0x4
 804ebef:	3b 54 24 0c          	cmp    edx,DWORD PTR [esp+0xc]
 804ebf3:	75 c3                	jne    804ebb8
 804ebf5:	8b 84 24 80 00 00 00 	mov    eax,DWORD PTR [esp+0x80]
 804ebfc:	89 e9                	mov    ecx,ebp
 804ebfe:	8b 54 24 14          	mov    edx,DWORD PTR [esp+0x14]
 804ec02:	89 04 24             	mov    DWORD PTR [esp],eax
 804ec05:	8b 44 24 1c          	mov    eax,DWORD PTR [esp+0x1c]
 804ec09:	e8 62 fb ff ff       	call   804e770
 804ec0e:	83 fd 01             	cmp    ebp,0x1
 804ec11:	74 45                	je     804ec58
 804ec13:	8b 44 24 18          	mov    eax,DWORD PTR [esp+0x18]
 804ec17:	89 44 24 14          	mov    DWORD PTR [esp+0x14],eax
 804ec1b:	89 c3                	mov    ebx,eax
 804ec1d:	e9 66 ff ff ff       	jmp    804eb88
 804ec22:	83 c4 6c             	add    esp,0x6c
 804ec25:	5b                   	pop    ebx
 804ec26:	5e                   	pop    esi
 804ec27:	5f                   	pop    edi
 804ec28:	5d                   	pop    ebp
 804ec29:	c3                   	ret
 804ec2a:	8b 44 24 44          	mov    eax,DWORD PTR [esp+0x44]
 804ec2e:	89 44 24 14          	mov    DWORD PTR [esp+0x14],eax
 804ec32:	e9 55 fb ff ff       	jmp    804e78c
 804ec37:	8b 44 24 5c          	mov    eax,DWORD PTR [esp+0x5c]
 804ec3b:	89 44 24 14          	mov    DWORD PTR [esp+0x14],eax
 804ec3f:	89 c3                	mov    ebx,eax
 804ec41:	e9 c9 fb ff ff       	jmp    804e80f
 804ec46:	8b 44 24 54          	mov    eax,DWORD PTR [esp+0x54]
 804ec4a:	89 44 24 14          	mov    DWORD PTR [esp+0x14],eax
 804ec4e:	89 c1                	mov    ecx,eax
 804ec50:	e9 35 fc ff ff       	jmp    804e88a
 804ec55:	8d 76 00             	lea    esi,[esi]
 804ec58:	8b 44 24 24          	mov    eax,DWORD PTR [esp+0x24]
 804ec5c:	89 44 24 14          	mov    DWORD PTR [esp+0x14],eax
 804ec60:	89 c1                	mov    ecx,eax
 804ec62:	e9 a2 fe ff ff       	jmp    804eb09
 804ec67:	8b 44 24 50          	mov    eax,DWORD PTR [esp+0x50]
 804ec6b:	89 44 24 14          	mov    DWORD PTR [esp+0x14],eax
 804ec6f:	89 c3                	mov    ebx,eax
 804ec71:	e9 10 fe ff ff       	jmp    804ea86
 804ec76:	8b 44 24 48          	mov    eax,DWORD PTR [esp+0x48]
 804ec7a:	89 44 24 14          	mov    DWORD PTR [esp+0x14],eax
 804ec7e:	89 c1                	mov    ecx,eax
 804ec80:	e9 82 fd ff ff       	jmp    804ea07
 804ec85:	8b 44 24 4c          	mov    eax,DWORD PTR [esp+0x4c]
 804ec89:	89 44 24 14          	mov    DWORD PTR [esp+0x14],eax
 804ec8d:	89 c1                	mov    ecx,eax
 804ec8f:	e9 f4 fc ff ff       	jmp    804e988
 804ec94:	8b 44 24 58          	mov    eax,DWORD PTR [esp+0x58]
 804ec98:	89 44 24 14          	mov    DWORD PTR [esp+0x14],eax
 804ec9c:	89 c1                	mov    ecx,eax
 804ec9e:	e9 66 fc ff ff       	jmp    804e909
 804eca3:	8d b6 00 00 00 00    	lea    esi,[esi]
 804eca9:	8d bc 27 00 00 00 00 	lea    edi,[edi]

0804ecb0 <BitonicSubSort_Int>:
 804ecb0:	55                   	push   ebp
 804ecb1:	89 cd                	mov    ebp,ecx
 804ecb3:	57                   	push   edi
 804ecb4:	56                   	push   esi
 804ecb5:	53                   	push   ebx
 804ecb6:	89 c3                	mov    ebx,eax
 804ecb8:	83 ec 3c             	sub    esp,0x3c
 804ecbb:	83 f9 01             	cmp    ecx,0x1
 804ecbe:	8b 44 24 50          	mov    eax,DWORD PTR [esp+0x50]
 804ecc2:	89 54 24 10          	mov    DWORD PTR [esp+0x10],edx
 804ecc6:	89 44 24 20          	mov    DWORD PTR [esp+0x20],eax
 804ecca:	0f 8e f0 05 00 00    	jle    804f2c0
 804ecd0:	89 c8                	mov    eax,ecx
 804ecd2:	d1 f8                	sar    eax,1
 804ecd4:	83 f8 01             	cmp    eax,0x1
 804ecd7:	89 44 24 24          	mov    DWORD PTR [esp+0x24],eax
 804ecdb:	0f 84 c1 05 00 00    	je     804f2a2
 804ece1:	89 c8                	mov    eax,ecx
 804ece3:	c1 f8 02             	sar    eax,0x2
 804ece6:	83 f8 01             	cmp    eax,0x1
 804ece9:	89 44 24 14          	mov    DWORD PTR [esp+0x14],eax
 804eced:	0f 84 45 06 00 00    	je     804f338
 804ecf3:	89 ce                	mov    esi,ecx
 804ecf5:	c1 fe 03             	sar    esi,0x3
 804ecf8:	83 fe 01             	cmp    esi,0x1
 804ecfb:	89 74 24 18          	mov    DWORD PTR [esp+0x18],esi
 804ecff:	0f 84 c3 05 00 00    	je     804f2c8
 804ed05:	89 c8                	mov    eax,ecx
 804ed07:	c1 f8 04             	sar    eax,0x4
 804ed0a:	83 f8 01             	cmp    eax,0x1
 804ed0d:	89 44 24 0c          	mov    DWORD PTR [esp+0xc],eax
 804ed11:	0f 84 c1 06 00 00    	je     804f3d8
 804ed17:	89 cf                	mov    edi,ecx
 804ed19:	89 d8                	mov    eax,ebx
 804ed1b:	c1 ff 05             	sar    edi,0x5
 804ed1e:	89 fe                	mov    esi,edi
 804ed20:	89 f9                	mov    ecx,edi
 804ed22:	c7 04 24 01 00 00 00 	mov    DWORD PTR [esp],0x1
 804ed29:	89 d7                	mov    edi,edx
 804ed2b:	e8 80 ff ff ff       	call   804ecb0
 804ed30:	8d 14 37             	lea    edx,[edi+esi]
 804ed33:	89 f1                	mov    ecx,esi
 804ed35:	89 d8                	mov    eax,ebx
 804ed37:	c7 04 24 00 00 00 00 	mov    DWORD PTR [esp],0x0
 804ed3e:	e8 6d ff ff ff       	call   804ecb0
 804ed43:	8b 4c 24 0c          	mov    ecx,DWORD PTR [esp+0xc]
 804ed47:	89 fa                	mov    edx,edi
 804ed49:	89 d8                	mov    eax,ebx
 804ed4b:	c7 04 24 01 00 00 00 	mov    DWORD PTR [esp],0x1
 804ed52:	e8 19 fa ff ff       	call   804e770
 804ed57:	89 f1                	mov    ecx,esi
 804ed59:	89 d8                	mov    eax,ebx
 804ed5b:	89 7c 24 10          	mov    DWORD PTR [esp+0x10],edi
 804ed5f:	03 7c 24 0c          	add    edi,DWORD PTR [esp+0xc]
 804ed63:	c7 04 24 01 00 00 00 	mov    DWORD PTR [esp],0x1
 804ed6a:	89 fa                	mov    edx,edi
 804ed6c:	e8 3f ff ff ff       	call   804ecb0
 804ed71:	8d 14 3e             	lea    edx,[esi+edi]
 804ed74:	89 f1                	mov    ecx,esi
 804ed76:	89 d8                	mov    eax,ebx
 804ed78:	c7 04 24 00 00 00 00 	mov    DWORD PTR [esp],0x0
 804ed7f:	e8 2c ff ff ff       	call   804ecb0
 804ed84:	8b 4c 24 0c          	mov    ecx,DWORD PTR [esp+0xc]
 804ed88:	89 fa                	mov    edx,edi
 804ed8a:	89 d8                	mov    eax,ebx
 804ed8c:	c7 04 24 00 00 00 00 	mov    DWORD PTR [esp],0x0
 804ed93:	e8 d8 f9 ff ff       	call   804e770
 804ed98:	8b 7c 24 10          	mov    edi,DWORD PTR [esp+0x10]
 804ed9c:	89 d8                	mov    eax,ebx
 804ed9e:	8b 4c 24 18          	mov    ecx,DWORD PTR [esp+0x18]
 804eda2:	c7 04 24 01 00 00 00 	mov    DWORD PTR [esp],0x1
 804eda9:	89 fa                	mov    edx,edi
 804edab:	e8 c0 f9 ff ff       	call   804e770
 804edb0:	89 f1                	mov    ecx,esi
 804edb2:	89 d8                	mov    eax,ebx
 804edb4:	89 7c 24 10          	mov    DWORD PTR [esp+0x10],edi
 804edb8:	03 7c 24 18          	add    edi,DWORD PTR [esp+0x18]
 804edbc:	c7 04 24 01 00 00 00 	mov    DWORD PTR [esp],0x1
 804edc3:	89 fa                	mov    edx,edi
 804edc5:	e8 e6 fe ff ff       	call   804ecb0
 804edca:	8d 14 3e             	lea    edx,[esi+edi]
 804edcd:	89 f1                	mov    ecx,esi
 804edcf:	89 d8                	mov    eax,ebx
 804edd1:	c7 04 24 00 00 00 00 	mov    DWORD PTR [esp],0x0
 804edd8:	e8 d3 fe ff ff       	call   804ecb0
 804eddd:	8b 4c 24 0c          	mov    ecx,DWORD PTR [esp+0xc]
 804ede1:	89 fa                	mov    edx,edi
 804ede3:	89 d8                	mov    eax,ebx
 804ede5:	c7 04 24 01 00 00 00 	mov    DWORD PTR [esp],0x1
 804edec:	e8 7f f9 ff ff       	call   804e770
 804edf1:	8b 4c 24 0c          	mov    ecx,DWORD PTR [esp+0xc]
 804edf5:	89 d8                	mov    eax,ebx
 804edf7:	c7 04 24 01 00 00 00 	mov    DWORD PTR [esp],0x1
 804edfe:	8d 14 39             	lea    edx,[ecx+edi]
 804ee01:	89 f1                	mov    ecx,esi
 804ee03:	89 54 24 1c          	mov    DWORD PTR [esp+0x1c],edx
 804ee07:	e8 a4 fe ff ff       	call   804ecb0
 804ee0c:	8b 54 24 1c          	mov    edx,DWORD PTR [esp+0x1c]
 804ee10:	89 f1                	mov    ecx,esi
 804ee12:	89 d8                	mov    eax,ebx
 804ee14:	c7 04 24 00 00 00 00 	mov    DWORD PTR [esp],0x0
 804ee1b:	01 f2                	add    edx,esi
 804ee1d:	e8 8e fe ff ff       	call   804ecb0
 804ee22:	8b 4c 24 0c          	mov    ecx,DWORD PTR [esp+0xc]
 804ee26:	89 d8                	mov    eax,ebx
 804ee28:	8b 54 24 1c          	mov    edx,DWORD PTR [esp+0x1c]
 804ee2c:	c7 04 24 00 00 00 00 	mov    DWORD PTR [esp],0x0
 804ee33:	e8 38 f9 ff ff       	call   804e770
 804ee38:	8b 4c 24 18          	mov    ecx,DWORD PTR [esp+0x18]
 804ee3c:	89 fa                	mov    edx,edi
 804ee3e:	89 d8                	mov    eax,ebx
 804ee40:	c7 04 24 00 00 00 00 	mov    DWORD PTR [esp],0x0
 804ee47:	e8 24 f9 ff ff       	call   804e770
 804ee4c:	8b 7c 24 10          	mov    edi,DWORD PTR [esp+0x10]
 804ee50:	89 d8                	mov    eax,ebx
 804ee52:	8b 4c 24 14          	mov    ecx,DWORD PTR [esp+0x14]
 804ee56:	c7 04 24 01 00 00 00 	mov    DWORD PTR [esp],0x1
 804ee5d:	89 fa                	mov    edx,edi
 804ee5f:	e8 0c f9 ff ff       	call   804e770
 804ee64:	89 f1                	mov    ecx,esi
 804ee66:	89 d8                	mov    eax,ebx
 804ee68:	03 7c 24 14          	add    edi,DWORD PTR [esp+0x14]
 804ee6c:	c7 04 24 01 00 00 00 	mov    DWORD PTR [esp],0x1
 804ee73:	89 fa                	mov    edx,edi
 804ee75:	89 7c 24 1c          	mov    DWORD PTR [esp+0x1c],edi
 804ee79:	e8 32 fe ff ff       	call   804ecb0
 804ee7e:	8d 14 3e             	lea    edx,[esi+edi]
 804ee81:	89 f1                	mov    ecx,esi
 804ee83:	89 d8                	mov    eax,ebx
 804ee85:	c7 04 24 00 00 00 00 	mov    DWORD PTR [esp],0x0
 804ee8c:	e8 1f fe ff ff       	call   804ecb0
 804ee91:	8b 4c 24 0c          	mov    ecx,DWORD PTR [esp+0xc]
 804ee95:	89 fa                	mov    edx,edi
 804ee97:	89 d8                	mov    eax,ebx
 804ee99:	c7 04 24 01 00 00 00 	mov    DWORD PTR [esp],0x1
 804eea0:	e8 cb f8 ff ff       	call   804e770
 804eea5:	8b 44 24 0c          	mov    eax,DWORD PTR [esp+0xc]
 804eea9:	89 f1                	mov    ecx,esi
 804eeab:	89 7c 24 1c          	mov    DWORD PTR [esp+0x1c],edi
 804eeaf:	c7 04 24 01 00 00 00 	mov    DWORD PTR [esp],0x1
 804eeb6:	01 f8                	add    eax,edi
 804eeb8:	89 c7                	mov    edi,eax
 804eeba:	89 c2                	mov    edx,eax
 804eebc:	89 d8                	mov    eax,ebx
 804eebe:	e8 ed fd ff ff       	call   804ecb0
 804eec3:	8d 14 3e             	lea    edx,[esi+edi]
 804eec6:	89 f1                	mov    ecx,esi
 804eec8:	89 d8                	mov    eax,ebx
 804eeca:	c7 04 24 00 00 00 00 	mov    DWORD PTR [esp],0x0
 804eed1:	e8 da fd ff ff       	call   804ecb0
 804eed6:	8b 4c 24 0c          	mov    ecx,DWORD PTR [esp+0xc]
 804eeda:	89 fa                	mov    edx,edi
 804eedc:	89 d8                	mov    eax,ebx
 804eede:	c7 04 24 00 00 00 00 	mov    DWORD PTR [esp],0x0
 804eee5:	e8 86 f8 ff ff       	call   804e770
 804eeea:	8b 7c 24 1c          	mov    edi,DWORD PTR [esp+0x1c]
 804eeee:	89 d8                	mov    eax,ebx
 804eef0:	8b 4c 24 18          	mov    ecx,DWORD PTR [esp+0x18]
 804eef4:	c7 04 24 01 00 00 00 	mov    DWORD PTR [esp],0x1
 804eefb:	89 fa                	mov    edx,edi
 804eefd:	e8 6e f8 ff ff       	call   804e770
 804ef02:	8b 54 24 18          	mov    edx,DWORD PTR [esp+0x18]
 804ef06:	89 f1                	mov    ecx,esi
 804ef08:	89 d8                	mov    eax,ebx
 804ef0a:	c7 04 24 01 00 00 00 	mov    DWORD PTR [esp],0x1
 804ef11:	01 fa                	add    edx,edi
 804ef13:	89 d7                	mov    edi,edx
 804ef15:	e8 96 fd ff ff       	call   804ecb0
 804ef1a:	8d 14 3e             	lea    edx,[esi+edi]
 804ef1d:	89 f1                	mov    ecx,esi
 804ef1f:	89 d8                	mov    eax,ebx
 804ef21:	c7 04 24 00 00 00 00 	mov    DWORD PTR [esp],0x0
 804ef28:	e8 83 fd ff ff       	call   804ecb0
 804ef2d:	8b 4c 24 0c          	mov    ecx,DWORD PTR [esp+0xc]
 804ef31:	89 fa                	mov    edx,edi
 804ef33:	89 d8                	mov    eax,ebx
 804ef35:	c7 04 24 01 00 00 00 	mov    DWORD PTR [esp],0x1
 804ef3c:	e8 2f f8 ff ff       	call   804e770
 804ef41:	8b 44 24 0c          	mov    eax,DWORD PTR [esp+0xc]
 804ef45:	89 f1                	mov    ecx,esi
 804ef47:	c7 04 24 01 00 00 00 	mov    DWORD PTR [esp],0x1
 804ef4e:	8d 14 38             	lea    edx,[eax+edi]
 804ef51:	89 d8                	mov    eax,ebx
 804ef53:	89 54 24 28          	mov    DWORD PTR [esp+0x28],edx
 804ef57:	e8 54 fd ff ff       	call   804ecb0
 804ef5c:	8b 54 24 28          	mov    edx,DWORD PTR [esp+0x28]
 804ef60:	89 f1                	mov    ecx,esi
 804ef62:	89 d8                	mov    eax,ebx
 804ef64:	c7 04 24 00 00 00 00 	mov    DWORD PTR [esp],0x0
 804ef6b:	01 f2                	add    edx,esi
 804ef6d:	e8 3e fd ff ff       	call   804ecb0
 804ef72:	8b 4c 24 0c          	mov    ecx,DWORD PTR [esp+0xc]
 804ef76:	89 d8                	mov    eax,ebx
 804ef78:	8b 54 24 28          	mov    edx,DWORD PTR [esp+0x28]
 804ef7c:	c7 04 24 00 00 00 00 	mov    DWORD PTR [esp],0x0
 804ef83:	e8 e8 f7 ff ff       	call   804e770
 804ef88:	8b 4c 24 18          	mov    ecx,DWORD PTR [esp+0x18]
 804ef8c:	89 fa                	mov    edx,edi
 804ef8e:	89 d8                	mov    eax,ebx
 804ef90:	c7 04 24 00 00 00 00 	mov    DWORD PTR [esp],0x0
 804ef97:	e8 d4 f7 ff ff       	call   804e770
 804ef9c:	8b 4c 24 14          	mov    ecx,DWORD PTR [esp+0x14]
 804efa0:	89 d8                	mov    eax,ebx
 804efa2:	8b 54 24 1c          	mov    edx,DWORD PTR [esp+0x1c]
 804efa6:	c7 04 24 00 00 00 00 	mov    DWORD PTR [esp],0x0
 804efad:	e8 be f7 ff ff       	call   804e770
 804efb2:	8b 7c 24 24          	mov    edi,DWORD PTR [esp+0x24]
 804efb6:	89 d8                	mov    eax,ebx
 804efb8:	8b 74 24 10          	mov    esi,DWORD PTR [esp+0x10]
 804efbc:	c7 04 24 01 00 00 00 	mov    DWORD PTR [esp],0x1
 804efc3:	89 f9                	mov    ecx,edi
 804efc5:	89 f2                	mov    edx,esi
 804efc7:	e8 a4 f7 ff ff       	call   804e770
 804efcc:	89 f0                	mov    eax,esi
 804efce:	01 f8                	add    eax,edi
 804efd0:	8b 7c 24 0c          	mov    edi,DWORD PTR [esp+0xc]
 804efd4:	89 44 24 1c          	mov    DWORD PTR [esp+0x1c],eax
 804efd8:	83 ff 01             	cmp    edi,0x1
 804efdb:	0f 84 87 03 00 00    	je     804f368
 804efe1:	89 fe                	mov    esi,edi
 804efe3:	89 c2                	mov    edx,eax
 804efe5:	d1 fe                	sar    esi,1
 804efe7:	89 d8                	mov    eax,ebx
 804efe9:	89 f1                	mov    ecx,esi
 804efeb:	c7 04 24 01 00 00 00 	mov    DWORD PTR [esp],0x1
 804eff2:	e8 b9 fc ff ff       	call   804ecb0
 804eff7:	8b 44 24 1c          	mov    eax,DWORD PTR [esp+0x1c]
 804effb:	89 f1                	mov    ecx,esi
 804effd:	c7 04 24 00 00 00 00 	mov    DWORD PTR [esp],0x0
 804f004:	8d 14 30             	lea    edx,[eax+esi]
 804f007:	89 d8                	mov    eax,ebx
 804f009:	e8 a2 fc ff ff       	call   804ecb0
 804f00e:	8b 54 24 1c          	mov    edx,DWORD PTR [esp+0x1c]
 804f012:	89 f9                	mov    ecx,edi
 804f014:	89 d8                	mov    eax,ebx
 804f016:	c7 04 24 01 00 00 00 	mov    DWORD PTR [esp],0x1
 804f01d:	e8 4e f7 ff ff       	call   804e770
 804f022:	89 f1                	mov    ecx,esi
 804f024:	89 d8                	mov    eax,ebx
 804f026:	89 7c 24 0c          	mov    DWORD PTR [esp+0xc],edi
 804f02a:	03 7c 24 1c          	add    edi,DWORD PTR [esp+0x1c]
 804f02e:	c7 04 24 01 00 00 00 	mov    DWORD PTR [esp],0x1
 804f035:	89 fa                	mov    edx,edi
 804f037:	e8 74 fc ff ff       	call   804ecb0
 804f03c:	8d 14 3e             	lea    edx,[esi+edi]
 804f03f:	89 f1                	mov    ecx,esi
 804f041:	89 d8                	mov    eax,ebx
 804f043:	c7 04 24 00 00 00 00 	mov    DWORD PTR [esp],0x0
 804f04a:	e8 61 fc ff ff       	call   804ecb0
 804f04f:	8b 4c 24 0c          	mov    ecx,DWORD PTR [esp+0xc]
 804f053:	89 fa                	mov    edx,edi
 804f055:	89 d8                	mov    eax,ebx
 804f057:	c7 04 24 00 00 00 00 	mov    DWORD PTR [esp],0x0
 804f05e:	e8 0d f7 ff ff       	call   804e770
 804f063:	8b 7c 24 1c          	mov    edi,DWORD PTR [esp+0x1c]
 804f067:	89 d8                	mov    eax,ebx
 804f069:	8b 4c 24 18          	mov    ecx,DWORD PTR [esp+0x18]
 804f06d:	c7 04 24 01 00 00 00 	mov    DWORD PTR [esp],0x1
 804f074:	89 fa                	mov    edx,edi
 804f076:	e8 f5 f6 ff ff       	call   804e770
 804f07b:	8b 54 24 18          	mov    edx,DWORD PTR [esp+0x18]
 804f07f:	89 f1                	mov    ecx,esi
 804f081:	89 7c 24 1c          	mov    DWORD PTR [esp+0x1c],edi
 804f085:	89 d8                	mov    eax,ebx
 804f087:	c7 04 24 01 00 00 00 	mov    DWORD PTR [esp],0x1
 804f08e:	01 fa                	add    edx,edi
 804f090:	89 d7                	mov    edi,edx
 804f092:	e8 19 fc ff ff       	call   804ecb0
 804f097:	8d 14 3e             	lea    edx,[esi+edi]
 804f09a:	89 f1                	mov    ecx,esi
 804f09c:	89 d8                	mov    eax,ebx
 804f09e:	c7 04 24 00 00 00 00 	mov    DWORD PTR [esp],0x0
 804f0a5:	e8 06 fc ff ff       	call   804ecb0
 804f0aa:	8b 4c 24 0c          	mov    ecx,DWORD PTR [esp+0xc]
 804f0ae:	89 fa                	mov    edx,edi
 804f0b0:	89 d8                	mov    eax,ebx
 804f0b2:	c7 04 24 01 00 00 00 	mov    DWORD PTR [esp],0x1
 804f0b9:	e8 b2 f6 ff ff       	call   804e770
 804f0be:	8b 44 24 0c          	mov    eax,DWORD PTR [esp+0xc]
 804f0c2:	c7 04 24 01 00 00 00 	mov    DWORD PTR [esp],0x1
 804f0c9:	8d 0c 38             	lea    ecx,[eax+edi]
 804f0cc:	89 c8                	mov    eax,ecx
 804f0ce:	89 f1                	mov    ecx,esi
 804f0d0:	89 c2                	mov    edx,eax
 804f0d2:	89 44 24 28          	mov    DWORD PTR [esp+0x28],eax
 804f0d6:	89 d8                	mov    eax,ebx
 804f0d8:	e8 d3 fb ff ff       	call   804ecb0
 804f0dd:	8b 4c 24 28          	mov    ecx,DWORD PTR [esp+0x28]
 804f0e1:	89 d8                	mov    eax,ebx
 804f0e3:	c7 04 24 00 00 00 00 	mov    DWORD PTR [esp],0x0
 804f0ea:	8d 14 0e             	lea    edx,[esi+ecx]
 804f0ed:	89 f1                	mov    ecx,esi
 804f0ef:	e8 bc fb ff ff       	call   804ecb0
 804f0f4:	8b 4c 24 0c          	mov    ecx,DWORD PTR [esp+0xc]
 804f0f8:	89 d8                	mov    eax,ebx
 804f0fa:	8b 54 24 28          	mov    edx,DWORD PTR [esp+0x28]
 804f0fe:	c7 04 24 00 00 00 00 	mov    DWORD PTR [esp],0x0
 804f105:	e8 66 f6 ff ff       	call   804e770
 804f10a:	8b 4c 24 18          	mov    ecx,DWORD PTR [esp+0x18]
 804f10e:	89 fa                	mov    edx,edi
 804f110:	89 d8                	mov    eax,ebx
 804f112:	c7 04 24 00 00 00 00 	mov    DWORD PTR [esp],0x0
 804f119:	e8 52 f6 ff ff       	call   804e770
 804f11e:	8b 7c 24 1c          	mov    edi,DWORD PTR [esp+0x1c]
 804f122:	89 d8                	mov    eax,ebx
 804f124:	8b 4c 24 14          	mov    ecx,DWORD PTR [esp+0x14]
 804f128:	c7 04 24 01 00 00 00 	mov    DWORD PTR [esp],0x1
 804f12f:	89 fa                	mov    edx,edi
 804f131:	e8 3a f6 ff ff       	call   804e770
 804f136:	8b 4c 24 14          	mov    ecx,DWORD PTR [esp+0x14]
 804f13a:	89 d8                	mov    eax,ebx
 804f13c:	c7 04 24 01 00 00 00 	mov    DWORD PTR [esp],0x1
 804f143:	01 f9                	add    ecx,edi
 804f145:	89 cf                	mov    edi,ecx
 804f147:	89 fa                	mov    edx,edi
 804f149:	89 4c 24 28          	mov    DWORD PTR [esp+0x28],ecx
 804f14d:	89 f1                	mov    ecx,esi
 804f14f:	e8 5c fb ff ff       	call   804ecb0
 804f154:	8d 14 37             	lea    edx,[edi+esi]
 804f157:	89 f1                	mov    ecx,esi
 804f159:	89 d8                	mov    eax,ebx
 804f15b:	c7 04 24 00 00 00 00 	mov    DWORD PTR [esp],0x0
 804f162:	89 7c 24 28          	mov    DWORD PTR [esp+0x28],edi
 804f166:	e8 45 fb ff ff       	call   804ecb0
 804f16b:	8b 7c 24 0c          	mov    edi,DWORD PTR [esp+0xc]
 804f16f:	89 d8                	mov    eax,ebx
 804f171:	8b 54 24 28          	mov    edx,DWORD PTR [esp+0x28]
 804f175:	c7 04 24 01 00 00 00 	mov    DWORD PTR [esp],0x1
 804f17c:	89 f9                	mov    ecx,edi
 804f17e:	e8 ed f5 ff ff       	call   804e770
 804f183:	89 f1                	mov    ecx,esi
 804f185:	89 d8                	mov    eax,ebx
 804f187:	89 7c 24 0c          	mov    DWORD PTR [esp+0xc],edi
 804f18b:	03 7c 24 28          	add    edi,DWORD PTR [esp+0x28]
 804f18f:	c7 04 24 01 00 00 00 	mov    DWORD PTR [esp],0x1
 804f196:	89 fa                	mov    edx,edi
 804f198:	e8 13 fb ff ff       	call   804ecb0
 804f19d:	8d 14 3e             	lea    edx,[esi+edi]
 804f1a0:	89 f1                	mov    ecx,esi
 804f1a2:	89 d8                	mov    eax,ebx
 804f1a4:	c7 04 24 00 00 00 00 	mov    DWORD PTR [esp],0x0
 804f1ab:	e8 00 fb ff ff       	call   804ecb0
 804f1b0:	8b 4c 24 0c          	mov    ecx,DWORD PTR [esp+0xc]
 804f1b4:	89 fa                	mov    edx,edi
 804f1b6:	89 d8                	mov    eax,ebx
 804f1b8:	c7 04 24 00 00 00 00 	mov    DWORD PTR [esp],0x0
 804f1bf:	e8 ac f5 ff ff       	call   804e770
 804f1c4:	8b 7c 24 28          	mov    edi,DWORD PTR [esp+0x28]
 804f1c8:	89 d8                	mov    eax,ebx
 804f1ca:	8b 4c 24 18          	mov    ecx,DWORD PTR [esp+0x18]
 804f1ce:	c7 04 24 01 00 00 00 	mov    DWORD PTR [esp],0x1
 804f1d5:	89 fa                	mov    edx,edi
 804f1d7:	e8 94 f5 ff ff       	call   804e770
 804f1dc:	8b 54 24 18          	mov    edx,DWORD PTR [esp+0x18]
 804f1e0:	89 f1                	mov    ecx,esi
 804f1e2:	89 d8                	mov    eax,ebx
 804f1e4:	c7 04 24 01 00 00 00 	mov    DWORD PTR [esp],0x1
 804f1eb:	01 fa                	add    edx,edi
 804f1ed:	89 d7                	mov    edi,edx
 804f1ef:	e8 bc fa ff ff       	call   804ecb0
 804f1f4:	8d 14 3e             	lea    edx,[esi+edi]
 804f1f7:	89 f1                	mov    ecx,esi
 804f1f9:	89 d8                	mov    eax,ebx
 804f1fb:	c7 04 24 00 00 00 00 	mov    DWORD PTR [esp],0x0
 804f202:	e8 a9 fa ff ff       	call   804ecb0
 804f207:	8b 4c 24 0c          	mov    ecx,DWORD PTR [esp+0xc]
 804f20b:	89 fa                	mov    edx,edi
 804f20d:	89 d8                	mov    eax,ebx
 804f20f:	c7 04 24 01 00 00 00 	mov    DWORD PTR [esp],0x1
 804f216:	e8 55 f5 ff ff       	call   804e770
 804f21b:	8b 44 24 0c          	mov    eax,DWORD PTR [esp+0xc]
 804f21f:	89 f1                	mov    ecx,esi
 804f221:	c7 04 24 01 00 00 00 	mov    DWORD PTR [esp],0x1
 804f228:	8d 14 38             	lea    edx,[eax+edi]
 804f22b:	89 d8                	mov    eax,ebx
 804f22d:	89 54 24 2c          	mov    DWORD PTR [esp+0x2c],edx
 804f231:	e8 7a fa ff ff       	call   804ecb0
 804f236:	8b 54 24 2c          	mov    edx,DWORD PTR [esp+0x2c]
 804f23a:	89 f1                	mov    ecx,esi
 804f23c:	89 d8                	mov    eax,ebx
 804f23e:	c7 04 24 00 00 00 00 	mov    DWORD PTR [esp],0x0
 804f245:	01 f2                	add    edx,esi
 804f247:	e8 64 fa ff ff       	call   804ecb0
 804f24c:	8b 4c 24 0c          	mov    ecx,DWORD PTR [esp+0xc]
 804f250:	89 d8                	mov    eax,ebx
 804f252:	8b 54 24 2c          	mov    edx,DWORD PTR [esp+0x2c]
 804f256:	c7 04 24 00 00 00 00 	mov    DWORD PTR [esp],0x0
 804f25d:	e8 0e f5 ff ff       	call   804e770
 804f262:	8b 4c 24 18          	mov    ecx,DWORD PTR [esp+0x18]
 804f266:	89 fa                	mov    edx,edi
 804f268:	89 d8                	mov    eax,ebx
 804f26a:	c7 04 24 00 00 00 00 	mov    DWORD PTR [esp],0x0
 804f271:	e8 fa f4 ff ff       	call   804e770
 804f276:	8b 54 24 28          	mov    edx,DWORD PTR [esp+0x28]
 804f27a:	8b 4c 24 14          	mov    ecx,DWORD PTR [esp+0x14]
 804f27e:	89 d8                	mov    eax,ebx
 804f280:	c7 04 24 00 00 00 00 	mov    DWORD PTR [esp],0x0
 804f287:	e8 e4 f4 ff ff       	call   804e770
 804f28c:	8b 54 24 1c          	mov    edx,DWORD PTR [esp+0x1c]
 804f290:	8b 4c 24 24          	mov    ecx,DWORD PTR [esp+0x24]
 804f294:	89 d8                	mov    eax,ebx
 804f296:	c7 04 24 00 00 00 00 	mov    DWORD PTR [esp],0x0
 804f29d:	e8 ce f4 ff ff       	call   804e770
 804f2a2:	8b 44 24 20          	mov    eax,DWORD PTR [esp+0x20]
 804f2a6:	89 e9                	mov    ecx,ebp
 804f2a8:	8b 54 24 10          	mov    edx,DWORD PTR [esp+0x10]
 804f2ac:	89 44 24 50          	mov    DWORD PTR [esp+0x50],eax
 804f2b0:	83 c4 3c             	add    esp,0x3c
 804f2b3:	89 d8                	mov    eax,ebx
 804f2b5:	5b                   	pop    ebx
 804f2b6:	5e                   	pop    esi
 804f2b7:	5f                   	pop    edi
 804f2b8:	5d                   	pop    ebp
 804f2b9:	e9 b2 f4 ff ff       	jmp    804e770
 804f2be:	66 90                	xchg   ax,ax
 804f2c0:	83 c4 3c             	add    esp,0x3c
 804f2c3:	5b                   	pop    ebx
 804f2c4:	5e                   	pop    esi
 804f2c5:	5f                   	pop    edi
 804f2c6:	5d                   	pop    ebp
 804f2c7:	c3                   	ret
 804f2c8:	8b 7c 24 14          	mov    edi,DWORD PTR [esp+0x14]
 804f2cc:	89 d8                	mov    eax,ebx
 804f2ce:	8b 74 24 10          	mov    esi,DWORD PTR [esp+0x10]
 804f2d2:	c7 04 24 01 00 00 00 	mov    DWORD PTR [esp],0x1
 804f2d9:	89 f9                	mov    ecx,edi
 804f2db:	89 f2                	mov    edx,esi
 804f2dd:	e8 8e f4 ff ff       	call   804e770
 804f2e2:	89 f2                	mov    edx,esi
 804f2e4:	89 f9                	mov    ecx,edi
 804f2e6:	01 fa                	add    edx,edi
 804f2e8:	89 d8                	mov    eax,ebx
 804f2ea:	c7 04 24 00 00 00 00 	mov    DWORD PTR [esp],0x0
 804f2f1:	e8 7a f4 ff ff       	call   804e770
 804f2f6:	8b 4c 24 24          	mov    ecx,DWORD PTR [esp+0x24]
 804f2fa:	89 f2                	mov    edx,esi
 804f2fc:	89 d8                	mov    eax,ebx
 804f2fe:	c7 04 24 01 00 00 00 	mov    DWORD PTR [esp],0x1
 804f305:	e8 66 f4 ff ff       	call   804e770
 804f30a:	8b 54 24 24          	mov    edx,DWORD PTR [esp+0x24]
 804f30e:	89 d8                	mov    eax,ebx
 804f310:	c7 04 24 01 00 00 00 	mov    DWORD PTR [esp],0x1
 804f317:	89 f9                	mov    ecx,edi
 804f319:	01 f2                	add    edx,esi
 804f31b:	89 d6                	mov    esi,edx
 804f31d:	89 54 24 1c          	mov    DWORD PTR [esp+0x1c],edx
 804f321:	e8 4a f4 ff ff       	call   804e770
 804f326:	89 f8                	mov    eax,edi
 804f328:	01 f0                	add    eax,esi
 804f32a:	89 44 24 28          	mov    DWORD PTR [esp+0x28],eax
 804f32e:	89 c2                	mov    edx,eax
 804f330:	e9 45 ff ff ff       	jmp    804f27a
 804f335:	8d 76 00             	lea    esi,[esi]
 804f338:	8b 7c 24 24          	mov    edi,DWORD PTR [esp+0x24]
 804f33c:	89 d8                	mov    eax,ebx
 804f33e:	8b 74 24 10          	mov    esi,DWORD PTR [esp+0x10]
 804f342:	c7 04 24 01 00 00 00 	mov    DWORD PTR [esp],0x1
 804f349:	89 f9                	mov    ecx,edi
 804f34b:	89 f2                	mov    edx,esi
 804f34d:	e8 1e f4 ff ff       	call   804e770
 804f352:	89 f0                	mov    eax,esi
 804f354:	01 f8                	add    eax,edi
 804f356:	89 44 24 1c          	mov    DWORD PTR [esp+0x1c],eax
 804f35a:	89 c2                	mov    edx,eax
 804f35c:	e9 2f ff ff ff       	jmp    804f290
 804f361:	8d b4 26 00 00 00 00 	lea    esi,[esi]
 804f368:	8b 7c 24 18          	mov    edi,DWORD PTR [esp+0x18]
 804f36c:	89 c6                	mov    esi,eax
 804f36e:	89 c2                	mov    edx,eax
 804f370:	c7 04 24 01 00 00 00 	mov    DWORD PTR [esp],0x1
 804f377:	89 d8                	mov    eax,ebx
 804f379:	89 f9                	mov    ecx,edi
 804f37b:	e8 f0 f3 ff ff       	call   804e770
 804f380:	89 fa                	mov    edx,edi
 804f382:	89 f9                	mov    ecx,edi
 804f384:	01 f2                	add    edx,esi
 804f386:	89 d8                	mov    eax,ebx
 804f388:	c7 04 24 00 00 00 00 	mov    DWORD PTR [esp],0x0
 804f38f:	89 74 24 1c          	mov    DWORD PTR [esp+0x1c],esi
 804f393:	e8 d8 f3 ff ff       	call   804e770
 804f398:	8b 74 24 14          	mov    esi,DWORD PTR [esp+0x14]
 804f39c:	89 d8                	mov    eax,ebx
 804f39e:	8b 54 24 1c          	mov    edx,DWORD PTR [esp+0x1c]
 804f3a2:	c7 04 24 01 00 00 00 	mov    DWORD PTR [esp],0x1
 804f3a9:	89 f1                	mov    ecx,esi
 804f3ab:	e8 c0 f3 ff ff       	call   804e770
 804f3b0:	8b 44 24 1c          	mov    eax,DWORD PTR [esp+0x1c]
 804f3b4:	89 f9                	mov    ecx,edi
 804f3b6:	c7 04 24 01 00 00 00 	mov    DWORD PTR [esp],0x1
 804f3bd:	01 f0                	add    eax,esi
 804f3bf:	89 c6                	mov    esi,eax
 804f3c1:	89 c2                	mov    edx,eax
 804f3c3:	89 44 24 28          	mov    DWORD PTR [esp+0x28],eax
 804f3c7:	89 d8                	mov    eax,ebx
 804f3c9:	01 f7                	add    edi,esi
 804f3cb:	e8 a0 f3 ff ff       	call   804e770
 804f3d0:	e9 8d fe ff ff       	jmp    804f262
 804f3d5:	8d 76 00             	lea    esi,[esi]
 804f3d8:	8b 7c 24 18          	mov    edi,DWORD PTR [esp+0x18]
 804f3dc:	89 d8                	mov    eax,ebx
 804f3de:	8b 74 24 10          	mov    esi,DWORD PTR [esp+0x10]
 804f3e2:	c7 04 24 01 00 00 00 	mov    DWORD PTR [esp],0x1
 804f3e9:	89 f9                	mov    ecx,edi
 804f3eb:	89 f2                	mov    edx,esi
 804f3ed:	e8 7e f3 ff ff       	call   804e770
 804f3f2:	89 f2                	mov    edx,esi
 804f3f4:	89 f9                	mov    ecx,edi
 804f3f6:	01 fa                	add    edx,edi
 804f3f8:	89 d8                	mov    eax,ebx
 804f3fa:	c7 04 24 00 00 00 00 	mov    DWORD PTR [esp],0x0
 804f401:	e8 6a f3 ff ff       	call   804e770
 804f406:	8b 4c 24 14          	mov    ecx,DWORD PTR [esp+0x14]
 804f40a:	89 f2                	mov    edx,esi
 804f40c:	89 d8                	mov    eax,ebx
 804f40e:	c7 04 24 01 00 00 00 	mov    DWORD PTR [esp],0x1
 804f415:	e8 56 f3 ff ff       	call   804e770
 804f41a:	8b 54 24 14          	mov    edx,DWORD PTR [esp+0x14]
 804f41e:	89 f9                	mov    ecx,edi
 804f420:	c7 04 24 01 00 00 00 	mov    DWORD PTR [esp],0x1
 804f427:	89 d8                	mov    eax,ebx
 804f429:	01 f2                	add    edx,esi
 804f42b:	89 d6                	mov    esi,edx
 804f42d:	89 54 24 1c          	mov    DWORD PTR [esp+0x1c],edx
 804f431:	01 f7                	add    edi,esi
 804f433:	e8 38 f3 ff ff       	call   804e770
 804f438:	e9 4b fb ff ff       	jmp    804ef88
 804f43d:	8d 76 00             	lea    esi,[esi]

0804f440 <BitonicSort_Int>:
 804f440:	55                   	push   ebp
 804f441:	57                   	push   edi
 804f442:	56                   	push   esi
 804f443:	53                   	push   ebx
 804f444:	83 ec 2c             	sub    esp,0x2c
 804f447:	8b 6c 24 44          	mov    ebp,DWORD PTR [esp+0x44]
 804f44b:	f7 c5 01 00 00 00    	test   ebp,0x1
 804f451:	89 e8                	mov    eax,ebp
 804f453:	75 09                	jne    804f45e
 804f455:	8d 76 00             	lea    esi,[esi]
 804f458:	d1 f8                	sar    eax,1
 804f45a:	a8 01                	test   al,0x1
 804f45c:	74 fa                	je     804f458
 804f45e:	83 f8 01             	cmp    eax,0x1
 804f461:	74 22                	je     804f485
 804f463:	a1 80 60 05 08       	mov    eax,ds:0x8056080
 804f468:	c7 44 24 08 3c 39 05 	mov    DWORD PTR [esp+0x8],0x805393c
 804f46f:	08 
 804f470:	c7 44 24 04 01 00 00 	mov    DWORD PTR [esp+0x4],0x1
 804f477:	00 
 804f478:	89 04 24             	mov    DWORD PTR [esp],eax
 804f47b:	e8 f0 90 ff ff       	call   8048570
 804f480:	e8 3b 91 ff ff       	call   80485c0
 804f485:	83 fd 01             	cmp    ebp,0x1
 804f488:	0f 8e d2 00 00 00    	jle    804f560
 804f48e:	8b 44 24 40          	mov    eax,DWORD PTR [esp+0x40]
 804f492:	89 ee                	mov    esi,ebp
 804f494:	31 d2                	xor    edx,edx
 804f496:	d1 fe                	sar    esi,1
 804f498:	89 f1                	mov    ecx,esi
 804f49a:	c7 04 24 01 00 00 00 	mov    DWORD PTR [esp],0x1
 804f4a1:	e8 0a f8 ff ff       	call   804ecb0
 804f4a6:	8b 44 24 40          	mov    eax,DWORD PTR [esp+0x40]
 804f4aa:	89 f1                	mov    ecx,esi
 804f4ac:	c7 04 24 00 00 00 00 	mov    DWORD PTR [esp],0x0
 804f4b3:	89 f2                	mov    edx,esi
 804f4b5:	e8 f6 f7 ff ff       	call   804ecb0
 804f4ba:	c7 44 24 18 00 00 00 	mov    DWORD PTR [esp+0x18],0x0
 804f4c1:	00 
 804f4c2:	8b 5c 24 18          	mov    ebx,DWORD PTR [esp+0x18]
 804f4c6:	66 90                	xchg   ax,ax
 804f4c8:	d1 fd                	sar    ebp,1
 804f4ca:	89 d8                	mov    eax,ebx
 804f4cc:	01 e8                	add    eax,ebp
 804f4ce:	39 c3                	cmp    ebx,eax
 804f4d0:	89 44 24 1c          	mov    DWORD PTR [esp+0x1c],eax
 804f4d4:	7d 5c                	jge    804f532
 804f4d6:	8b 44 24 40          	mov    eax,DWORD PTR [esp+0x40]
 804f4da:	8b 4c 24 1c          	mov    ecx,DWORD PTR [esp+0x1c]
 804f4de:	8d 14 98             	lea    edx,[eax+ebx*4]
 804f4e1:	8d 04 88             	lea    eax,[eax+ecx*4]
 804f4e4:	89 44 24 10          	mov    DWORD PTR [esp+0x10],eax
 804f4e8:	8d 04 ad 00 00 00 00 	lea    eax,[ebp*4]
 804f4ef:	89 44 24 14          	mov    DWORD PTR [esp+0x14],eax
 804f4f3:	90                   	nop
 804f4f4:	8d 74 26 00          	lea    esi,[esi]
 804f4f8:	8b 44 24 14          	mov    eax,DWORD PTR [esp+0x14]
 804f4fc:	8d 34 02             	lea    esi,[edx+eax]
 804f4ff:	8b 04 aa             	mov    eax,DWORD PTR [edx+ebp*4]
 804f502:	39 02                	cmp    DWORD PTR [edx],eax
 804f504:	0f 9f c0             	setg   al
 804f507:	0f b6 c0             	movzx  eax,al
 804f50a:	39 44 24 48          	cmp    DWORD PTR [esp+0x48],eax
 804f50e:	0f 94 c0             	sete   al
 804f511:	0f b6 c0             	movzx  eax,al
 804f514:	89 c7                	mov    edi,eax
 804f516:	8b 02                	mov    eax,DWORD PTR [edx]
 804f518:	8b 1e                	mov    ebx,DWORD PTR [esi]
 804f51a:	89 c1                	mov    ecx,eax
 804f51c:	83 ff 00             	cmp    edi,0x0
 804f51f:	0f 45 c3             	cmovne eax,ebx
 804f522:	0f 45 d9             	cmovne ebx,ecx
 804f525:	89 02                	mov    DWORD PTR [edx],eax
 804f527:	89 1e                	mov    DWORD PTR [esi],ebx
 804f529:	83 c2 04             	add    edx,0x4
 804f52c:	3b 54 24 10          	cmp    edx,DWORD PTR [esp+0x10]
 804f530:	75 c6                	jne    804f4f8
 804f532:	8b 44 24 48          	mov    eax,DWORD PTR [esp+0x48]
 804f536:	89 e9                	mov    ecx,ebp
 804f538:	8b 54 24 18          	mov    edx,DWORD PTR [esp+0x18]
 804f53c:	89 04 24             	mov    DWORD PTR [esp],eax
 804f53f:	8b 44 24 40          	mov    eax,DWORD PTR [esp+0x40]
 804f543:	e8 28 f2 ff ff       	call   804e770
 804f548:	83 fd 01             	cmp    ebp,0x1
 804f54b:	74 13                	je     804f560
 804f54d:	8b 44 24 1c          	mov    eax,DWORD PTR [esp+0x1c]
 804f551:	89 44 24 18          	mov    DWORD PTR [esp+0x18],eax
 804f555:	89 c3                	mov    ebx,eax
 804f557:	e9 6c ff ff ff       	jmp    804f4c8
 804f55c:	8d 74 26 00          	lea    esi,[esi]
 804f560:	83 c4 2c             	add    esp,0x2c
 804f563:	5b                   	pop    ebx
 804f564:	5e                   	pop    esi
 804f565:	5f                   	pop    edi
 804f566:	5d                   	pop    ebp
 804f567:	c3                   	ret
 804f568:	90                   	nop
 804f569:	8d b4 26 00 00 00 00 	lea    esi,[esi]

0804f570 <BitonicSort_Block>:
 804f570:	55                   	push   ebp
 804f571:	57                   	push   edi
 804f572:	56                   	push   esi
 804f573:	53                   	push   ebx
 804f574:	83 ec 1c             	sub    esp,0x1c
 804f577:	8b 44 24 38          	mov    eax,DWORD PTR [esp+0x38]
 804f57b:	8b 5c 24 34          	mov    ebx,DWORD PTR [esp+0x34]
 804f57f:	8b 74 24 30          	mov    esi,DWORD PTR [esp+0x30]
 804f583:	8b 7c 24 3c          	mov    edi,DWORD PTR [esp+0x3c]
 804f587:	a3 e4 60 05 08       	mov    ds:0x80560e4,eax
 804f58c:	8b 44 24 40          	mov    eax,DWORD PTR [esp+0x40]
 804f590:	f6 c3 01             	test   bl,0x1
 804f593:	89 da                	mov    edx,ebx
 804f595:	a3 74 60 05 08       	mov    ds:0x8056074,eax
 804f59a:	75 0b                	jne    804f5a7
 804f59c:	8d 74 26 00          	lea    esi,[esi]
 804f5a0:	d1 fa                	sar    edx,1
 804f5a2:	f6 c2 01             	test   dl,0x1
 804f5a5:	74 f9                	je     804f5a0
 804f5a7:	83 fa 01             	cmp    edx,0x1
 804f5aa:	74 24                	je     804f5d0
 804f5ac:	a1 80 60 05 08       	mov    eax,ds:0x8056080
 804f5b1:	c7 44 24 08 3c 39 05 	mov    DWORD PTR [esp+0x8],0x805393c
 804f5b8:	08 
 804f5b9:	c7 44 24 04 01 00 00 	mov    DWORD PTR [esp+0x4],0x1
 804f5c0:	00 
 804f5c1:	89 04 24             	mov    DWORD PTR [esp],eax
 804f5c4:	e8 a7 8f ff ff       	call   8048570
 804f5c9:	e8 f2 8f ff ff       	call   80485c0
 804f5ce:	66 90                	xchg   ax,ax
 804f5d0:	83 fb 01             	cmp    ebx,0x1
 804f5d3:	7e 43                	jle    804f618
 804f5d5:	89 dd                	mov    ebp,ebx
 804f5d7:	89 f0                	mov    eax,esi
 804f5d9:	d1 fd                	sar    ebp,1
 804f5db:	31 d2                	xor    edx,edx
 804f5dd:	89 e9                	mov    ecx,ebp
 804f5df:	c7 04 24 01 00 00 00 	mov    DWORD PTR [esp],0x1
 804f5e6:	e8 95 cc ff ff       	call   804c280
 804f5eb:	89 e9                	mov    ecx,ebp
 804f5ed:	89 ea                	mov    edx,ebp
 804f5ef:	89 f0                	mov    eax,esi
 804f5f1:	c7 04 24 00 00 00 00 	mov    DWORD PTR [esp],0x0
 804f5f8:	e8 83 cc ff ff       	call   804c280
 804f5fd:	89 d9                	mov    ecx,ebx
 804f5ff:	89 f0                	mov    eax,esi
 804f601:	89 7c 24 30          	mov    DWORD PTR [esp+0x30],edi
 804f605:	83 c4 1c             	add    esp,0x1c
 804f608:	31 d2                	xor    edx,edx
 804f60a:	5b                   	pop    ebx
 804f60b:	5e                   	pop    esi
 804f60c:	5f                   	pop    edi
 804f60d:	5d                   	pop    ebp
 804f60e:	e9 ed c6 ff ff       	jmp    804bd00
 804f613:	90                   	nop
 804f614:	8d 74 26 00          	lea    esi,[esi]
 804f618:	83 c4 1c             	add    esp,0x1c
 804f61b:	5b                   	pop    ebx
 804f61c:	5e                   	pop    esi
 804f61d:	5f                   	pop    edi
 804f61e:	5d                   	pop    ebp
 804f61f:	c3                   	ret

0804f620 <BitonicSort_General>:
 804f620:	55                   	push   ebp
 804f621:	57                   	push   edi
 804f622:	56                   	push   esi
 804f623:	53                   	push   ebx
 804f624:	83 ec 1c             	sub    esp,0x1c
 804f627:	8b 44 24 40          	mov    eax,DWORD PTR [esp+0x40]
 804f62b:	8b 5c 24 34          	mov    ebx,DWORD PTR [esp+0x34]
 804f62f:	8b 74 24 30          	mov    esi,DWORD PTR [esp+0x30]
 804f633:	8b 6c 24 48          	mov    ebp,DWORD PTR [esp+0x48]
 804f637:	89 44 24 0c          	mov    DWORD PTR [esp+0xc],eax
 804f63b:	8b 44 24 3c          	mov    eax,DWORD PTR [esp+0x3c]
 804f63f:	f6 c3 01             	test   bl,0x1
 804f642:	a3 e0 60 05 08       	mov    ds:0x80560e0,eax
 804f647:	8b 44 24 44          	mov    eax,DWORD PTR [esp+0x44]
 804f64b:	a3 dc 60 05 08       	mov    ds:0x80560dc,eax
 804f650:	8b 44 24 38          	mov    eax,DWORD PTR [esp+0x38]
 804f654:	a3 74 60 05 08       	mov    ds:0x8056074,eax
 804f659:	89 d8                	mov    eax,ebx
 804f65b:	75 09                	jne    804f666
 804f65d:	8d 76 00             	lea    esi,[esi]
 804f660:	d1 f8                	sar    eax,1
 804f662:	a8 01                	test   al,0x1
 804f664:	74 fa                	je     804f660
 804f666:	83 f8 01             	cmp    eax,0x1
 804f669:	74 25                	je     804f690
 804f66b:	a1 80 60 05 08       	mov    eax,ds:0x8056080
 804f670:	c7 44 24 08 3c 39 05 	mov    DWORD PTR [esp+0x8],0x805393c
 804f677:	08 
 804f678:	c7 44 24 04 01 00 00 	mov    DWORD PTR [esp+0x4],0x1
 804f67f:	00 
 804f680:	89 04 24             	mov    DWORD PTR [esp],eax
 804f683:	e8 e8 8e ff ff       	call   8048570
 804f688:	e8 33 8f ff ff       	call   80485c0
 804f68d:	8d 76 00             	lea    esi,[esi]
 804f690:	83 fb 01             	cmp    ebx,0x1
 804f693:	7e 5b                	jle    804f6f0
 804f695:	89 df                	mov    edi,ebx
 804f697:	89 f0                	mov    eax,esi
 804f699:	d1 ff                	sar    edi,1
 804f69b:	31 d2                	xor    edx,edx
 804f69d:	89 f9                	mov    ecx,edi
 804f69f:	c7 44 24 04 01 00 00 	mov    DWORD PTR [esp+0x4],0x1
 804f6a6:	00 
 804f6a7:	c7 04 24 01 00 00 00 	mov    DWORD PTR [esp],0x1
 804f6ae:	e8 6d dc ff ff       	call   804d320
 804f6b3:	89 f9                	mov    ecx,edi
 804f6b5:	89 fa                	mov    edx,edi
 804f6b7:	89 f0                	mov    eax,esi
 804f6b9:	c7 44 24 04 00 00 00 	mov    DWORD PTR [esp+0x4],0x0
 804f6c0:	00 
 804f6c1:	c7 04 24 00 00 00 00 	mov    DWORD PTR [esp],0x0
 804f6c8:	e8 53 dc ff ff       	call   804d320
 804f6cd:	8b 44 24 0c          	mov    eax,DWORD PTR [esp+0xc]
 804f6d1:	89 d9                	mov    ecx,ebx
 804f6d3:	89 6c 24 34          	mov    DWORD PTR [esp+0x34],ebp
 804f6d7:	31 d2                	xor    edx,edx
 804f6d9:	89 44 24 30          	mov    DWORD PTR [esp+0x30],eax
 804f6dd:	83 c4 1c             	add    esp,0x1c
 804f6e0:	89 f0                	mov    eax,esi
 804f6e2:	5b                   	pop    ebx
 804f6e3:	5e                   	pop    esi
 804f6e4:	5f                   	pop    edi
 804f6e5:	5d                   	pop    ebp
 804f6e6:	e9 15 c7 ff ff       	jmp    804be00
 804f6eb:	90                   	nop
 804f6ec:	8d 74 26 00          	lea    esi,[esi]
 804f6f0:	83 c4 1c             	add    esp,0x1c
 804f6f3:	5b                   	pop    ebx
 804f6f4:	5e                   	pop    esi
 804f6f5:	5f                   	pop    edi
 804f6f6:	5d                   	pop    ebp
 804f6f7:	c3                   	ret
 804f6f8:	90                   	nop
 804f6f9:	8d b4 26 00 00 00 00 	lea    esi,[esi]

0804f700 <BitonicSort_TwoArray>:
 804f700:	55                   	push   ebp
 804f701:	57                   	push   edi
 804f702:	56                   	push   esi
 804f703:	53                   	push   ebx
 804f704:	83 ec 1c             	sub    esp,0x1c
 804f707:	8b 44 24 40          	mov    eax,DWORD PTR [esp+0x40]
 804f70b:	8b 5c 24 38          	mov    ebx,DWORD PTR [esp+0x38]
 804f70f:	8b 74 24 30          	mov    esi,DWORD PTR [esp+0x30]
 804f713:	8b 7c 24 34          	mov    edi,DWORD PTR [esp+0x34]
 804f717:	89 44 24 0c          	mov    DWORD PTR [esp+0xc],eax
 804f71b:	8b 44 24 3c          	mov    eax,DWORD PTR [esp+0x3c]
 804f71f:	f6 c3 01             	test   bl,0x1
 804f722:	a3 e4 60 05 08       	mov    ds:0x80560e4,eax
 804f727:	8b 44 24 44          	mov    eax,DWORD PTR [esp+0x44]
 804f72b:	a3 70 60 05 08       	mov    ds:0x8056070,eax
 804f730:	8b 44 24 48          	mov    eax,DWORD PTR [esp+0x48]
 804f734:	a3 6c 60 05 08       	mov    ds:0x805606c,eax
 804f739:	89 d8                	mov    eax,ebx
 804f73b:	75 09                	jne    804f746
 804f73d:	8d 76 00             	lea    esi,[esi]
 804f740:	d1 f8                	sar    eax,1
 804f742:	a8 01                	test   al,0x1
 804f744:	74 fa                	je     804f740
 804f746:	83 f8 01             	cmp    eax,0x1
 804f749:	74 25                	je     804f770
 804f74b:	a1 80 60 05 08       	mov    eax,ds:0x8056080
 804f750:	c7 44 24 08 3c 39 05 	mov    DWORD PTR [esp+0x8],0x805393c
 804f757:	08 
 804f758:	c7 44 24 04 01 00 00 	mov    DWORD PTR [esp+0x4],0x1
 804f75f:	00 
 804f760:	89 04 24             	mov    DWORD PTR [esp],eax
 804f763:	e8 08 8e ff ff       	call   8048570
 804f768:	e8 53 8e ff ff       	call   80485c0
 804f76d:	8d 76 00             	lea    esi,[esi]
 804f770:	83 fb 01             	cmp    ebx,0x1
 804f773:	7e 53                	jle    804f7c8
 804f775:	89 dd                	mov    ebp,ebx
 804f777:	89 fa                	mov    edx,edi
 804f779:	d1 fd                	sar    ebp,1
 804f77b:	89 f0                	mov    eax,esi
 804f77d:	89 2c 24             	mov    DWORD PTR [esp],ebp
 804f780:	31 c9                	xor    ecx,ecx
 804f782:	c7 44 24 04 01 00 00 	mov    DWORD PTR [esp+0x4],0x1
 804f789:	00 
 804f78a:	e8 81 d2 ff ff       	call   804ca10
 804f78f:	89 e9                	mov    ecx,ebp
 804f791:	89 fa                	mov    edx,edi
 804f793:	89 2c 24             	mov    DWORD PTR [esp],ebp
 804f796:	89 f0                	mov    eax,esi
 804f798:	c7 44 24 04 00 00 00 	mov    DWORD PTR [esp+0x4],0x0
 804f79f:	00 
 804f7a0:	e8 6b d2 ff ff       	call   804ca10
 804f7a5:	8b 44 24 0c          	mov    eax,DWORD PTR [esp+0xc]
 804f7a9:	89 fa                	mov    edx,edi
 804f7ab:	89 5c 24 30          	mov    DWORD PTR [esp+0x30],ebx
 804f7af:	31 c9                	xor    ecx,ecx
 804f7b1:	89 44 24 34          	mov    DWORD PTR [esp+0x34],eax
 804f7b5:	83 c4 1c             	add    esp,0x1c
 804f7b8:	89 f0                	mov    eax,esi
 804f7ba:	5b                   	pop    ebx
 804f7bb:	5e                   	pop    esi
 804f7bc:	5f                   	pop    edi
 804f7bd:	5d                   	pop    ebp
 804f7be:	e9 9d c7 ff ff       	jmp    804bf60
 804f7c3:	90                   	nop
 804f7c4:	8d 74 26 00          	lea    esi,[esi]
 804f7c8:	83 c4 1c             	add    esp,0x1c
 804f7cb:	5b                   	pop    ebx
 804f7cc:	5e                   	pop    esi
 804f7cd:	5f                   	pop    edi
 804f7ce:	5d                   	pop    ebp
 804f7cf:	c3                   	ret

0804f7d0 <BitonicSort_TwoArray_TwoKey>:
 804f7d0:	57                   	push   edi
 804f7d1:	56                   	push   esi
 804f7d2:	53                   	push   ebx
 804f7d3:	83 ec 10             	sub    esp,0x10
 804f7d6:	8b 4c 24 2c          	mov    ecx,DWORD PTR [esp+0x2c]
 804f7da:	8b 5c 24 28          	mov    ebx,DWORD PTR [esp+0x28]
 804f7de:	8b 44 24 20          	mov    eax,DWORD PTR [esp+0x20]
 804f7e2:	8b 54 24 24          	mov    edx,DWORD PTR [esp+0x24]
 804f7e6:	89 0d e0 60 05 08    	mov    DWORD PTR ds:0x80560e0,ecx
 804f7ec:	8b 4c 24 34          	mov    ecx,DWORD PTR [esp+0x34]
 804f7f0:	f6 c3 01             	test   bl,0x1
 804f7f3:	8b 74 24 30          	mov    esi,DWORD PTR [esp+0x30]
 804f7f7:	8b 7c 24 38          	mov    edi,DWORD PTR [esp+0x38]
 804f7fb:	89 0d dc 60 05 08    	mov    DWORD PTR ds:0x80560dc,ecx
 804f801:	8b 4c 24 3c          	mov    ecx,DWORD PTR [esp+0x3c]
 804f805:	89 0d 70 60 05 08    	mov    DWORD PTR ds:0x8056070,ecx
 804f80b:	8b 4c 24 40          	mov    ecx,DWORD PTR [esp+0x40]
 804f80f:	89 0d 6c 60 05 08    	mov    DWORD PTR ds:0x805606c,ecx
 804f815:	89 d9                	mov    ecx,ebx
 804f817:	75 0e                	jne    804f827
 804f819:	8d b4 26 00 00 00 00 	lea    esi,[esi]
 804f820:	d1 f9                	sar    ecx,1
 804f822:	f6 c1 01             	test   cl,0x1
 804f825:	74 f9                	je     804f820
 804f827:	83 f9 01             	cmp    ecx,0x1
 804f82a:	74 24                	je     804f850
 804f82c:	a1 80 60 05 08       	mov    eax,ds:0x8056080
 804f831:	c7 44 24 08 3c 39 05 	mov    DWORD PTR [esp+0x8],0x805393c
 804f838:	08 
 804f839:	c7 44 24 04 01 00 00 	mov    DWORD PTR [esp+0x4],0x1
 804f840:	00 
 804f841:	89 04 24             	mov    DWORD PTR [esp],eax
 804f844:	e8 27 8d ff ff       	call   8048570
 804f849:	e8 72 8d ff ff       	call   80485c0
 804f84e:	66 90                	xchg   ax,ax
 804f850:	89 7c 24 28          	mov    DWORD PTR [esp+0x28],edi
 804f854:	31 c9                	xor    ecx,ecx
 804f856:	89 74 24 24          	mov    DWORD PTR [esp+0x24],esi
 804f85a:	89 5c 24 20          	mov    DWORD PTR [esp+0x20],ebx
 804f85e:	83 c4 10             	add    esp,0x10
 804f861:	5b                   	pop    ebx
 804f862:	5e                   	pop    esi
 804f863:	5f                   	pop    edi
 804f864:	e9 47 e4 ff ff       	jmp    804dcb0
 804f869:	66 90                	xchg   ax,ax
 804f86b:	66 90                	xchg   ax,ax
 804f86d:	66 90                	xchg   ax,ax
 804f86f:	90                   	nop

0804f870 <curve25519_athlon_recip>:
 804f870:	55                   	push   ebp
 804f871:	57                   	push   edi
 804f872:	56                   	push   esi
 804f873:	53                   	push   ebx
 804f874:	81 ec 3c 03 00 00    	sub    esp,0x33c
 804f87a:	8b bc 24 54 03 00 00 	mov    edi,DWORD PTR [esp+0x354]
 804f881:	8d 6c 24 10          	lea    ebp,[esp+0x10]
 804f885:	8d b4 24 e0 02 00 00 	lea    esi,[esp+0x2e0]
 804f88c:	89 2c 24             	mov    DWORD PTR [esp],ebp
 804f88f:	8d 9c 24 90 02 00 00 	lea    ebx,[esp+0x290]
 804f896:	89 7c 24 04          	mov    DWORD PTR [esp+0x4],edi
 804f89a:	e8 01 39 00 00       	call   80531a0
 804f89f:	89 6c 24 04          	mov    DWORD PTR [esp+0x4],ebp
 804f8a3:	89 34 24             	mov    DWORD PTR [esp],esi
 804f8a6:	e8 f5 38 00 00       	call   80531a0
 804f8ab:	89 74 24 04          	mov    DWORD PTR [esp+0x4],esi
 804f8af:	89 1c 24             	mov    DWORD PTR [esp],ebx
 804f8b2:	e8 e9 38 00 00       	call   80531a0
 804f8b7:	89 7c 24 08          	mov    DWORD PTR [esp+0x8],edi
 804f8bb:	8d 7c 24 60          	lea    edi,[esp+0x60]
 804f8bf:	89 3c 24             	mov    DWORD PTR [esp],edi
 804f8c2:	89 5c 24 04          	mov    DWORD PTR [esp+0x4],ebx
 804f8c6:	e8 55 34 00 00       	call   8052d20
 804f8cb:	8d 84 24 b0 00 00 00 	lea    eax,[esp+0xb0]
 804f8d2:	89 6c 24 08          	mov    DWORD PTR [esp+0x8],ebp
 804f8d6:	8d ac 24 50 01 00 00 	lea    ebp,[esp+0x150]
 804f8dd:	89 7c 24 04          	mov    DWORD PTR [esp+0x4],edi
 804f8e1:	89 04 24             	mov    DWORD PTR [esp],eax
 804f8e4:	e8 37 34 00 00       	call   8052d20
 804f8e9:	8d 84 24 b0 00 00 00 	lea    eax,[esp+0xb0]
 804f8f0:	89 44 24 04          	mov    DWORD PTR [esp+0x4],eax
 804f8f4:	89 1c 24             	mov    DWORD PTR [esp],ebx
 804f8f7:	e8 a4 38 00 00       	call   80531a0
 804f8fc:	89 7c 24 08          	mov    DWORD PTR [esp+0x8],edi
 804f900:	8d bc 24 00 01 00 00 	lea    edi,[esp+0x100]
 804f907:	89 3c 24             	mov    DWORD PTR [esp],edi
 804f90a:	89 5c 24 04          	mov    DWORD PTR [esp+0x4],ebx
 804f90e:	e8 0d 34 00 00       	call   8052d20
 804f913:	89 7c 24 04          	mov    DWORD PTR [esp+0x4],edi
 804f917:	89 1c 24             	mov    DWORD PTR [esp],ebx
 804f91a:	e8 81 38 00 00       	call   80531a0
 804f91f:	89 5c 24 04          	mov    DWORD PTR [esp+0x4],ebx
 804f923:	89 34 24             	mov    DWORD PTR [esp],esi
 804f926:	e8 75 38 00 00       	call   80531a0
 804f92b:	89 74 24 04          	mov    DWORD PTR [esp+0x4],esi
 804f92f:	89 1c 24             	mov    DWORD PTR [esp],ebx
 804f932:	e8 69 38 00 00       	call   80531a0
 804f937:	89 5c 24 04          	mov    DWORD PTR [esp+0x4],ebx
 804f93b:	89 34 24             	mov    DWORD PTR [esp],esi
 804f93e:	e8 5d 38 00 00       	call   80531a0
 804f943:	89 74 24 04          	mov    DWORD PTR [esp+0x4],esi
 804f947:	89 1c 24             	mov    DWORD PTR [esp],ebx
 804f94a:	e8 51 38 00 00       	call   80531a0
 804f94f:	89 7c 24 08          	mov    DWORD PTR [esp+0x8],edi
 804f953:	bf 04 00 00 00       	mov    edi,0x4
 804f958:	89 5c 24 04          	mov    DWORD PTR [esp+0x4],ebx
 804f95c:	89 2c 24             	mov    DWORD PTR [esp],ebp
 804f95f:	e8 bc 33 00 00       	call   8052d20
 804f964:	89 6c 24 04          	mov    DWORD PTR [esp+0x4],ebp
 804f968:	89 1c 24             	mov    DWORD PTR [esp],ebx
 804f96b:	e8 30 38 00 00       	call   80531a0
 804f970:	89 5c 24 04          	mov    DWORD PTR [esp+0x4],ebx
 804f974:	89 34 24             	mov    DWORD PTR [esp],esi
 804f977:	e8 24 38 00 00       	call   80531a0
 804f97c:	89 74 24 04          	mov    DWORD PTR [esp+0x4],esi
 804f980:	89 1c 24             	mov    DWORD PTR [esp],ebx
 804f983:	e8 18 38 00 00       	call   80531a0
 804f988:	89 5c 24 04          	mov    DWORD PTR [esp+0x4],ebx
 804f98c:	89 34 24             	mov    DWORD PTR [esp],esi
 804f98f:	e8 0c 38 00 00       	call   80531a0
 804f994:	83 ef 01             	sub    edi,0x1
 804f997:	75 e3                	jne    804f97c
 804f999:	8d 84 24 a0 01 00 00 	lea    eax,[esp+0x1a0]
 804f9a0:	bf 09 00 00 00       	mov    edi,0x9
 804f9a5:	89 04 24             	mov    DWORD PTR [esp],eax
 804f9a8:	89 6c 24 08          	mov    DWORD PTR [esp+0x8],ebp
 804f9ac:	89 74 24 04          	mov    DWORD PTR [esp+0x4],esi
 804f9b0:	e8 6b 33 00 00       	call   8052d20
 804f9b5:	8d 84 24 a0 01 00 00 	lea    eax,[esp+0x1a0]
 804f9bc:	89 44 24 04          	mov    DWORD PTR [esp+0x4],eax
 804f9c0:	89 1c 24             	mov    DWORD PTR [esp],ebx
 804f9c3:	e8 d8 37 00 00       	call   80531a0
 804f9c8:	89 5c 24 04          	mov    DWORD PTR [esp+0x4],ebx
 804f9cc:	89 34 24             	mov    DWORD PTR [esp],esi
 804f9cf:	e8 cc 37 00 00       	call   80531a0
 804f9d4:	8d 74 26 00          	lea    esi,[esi]
 804f9d8:	89 74 24 04          	mov    DWORD PTR [esp+0x4],esi
 804f9dc:	89 1c 24             	mov    DWORD PTR [esp],ebx
 804f9df:	e8 bc 37 00 00       	call   80531a0
 804f9e4:	89 5c 24 04          	mov    DWORD PTR [esp+0x4],ebx
 804f9e8:	89 34 24             	mov    DWORD PTR [esp],esi
 804f9eb:	e8 b0 37 00 00       	call   80531a0
 804f9f0:	83 ef 01             	sub    edi,0x1
 804f9f3:	75 e3                	jne    804f9d8
 804f9f5:	8d 84 24 a0 01 00 00 	lea    eax,[esp+0x1a0]
 804f9fc:	bf 04 00 00 00       	mov    edi,0x4
 804fa01:	89 44 24 08          	mov    DWORD PTR [esp+0x8],eax
 804fa05:	89 74 24 04          	mov    DWORD PTR [esp+0x4],esi
 804fa09:	89 1c 24             	mov    DWORD PTR [esp],ebx
 804fa0c:	e8 0f 33 00 00       	call   8052d20
 804fa11:	89 5c 24 04          	mov    DWORD PTR [esp+0x4],ebx
 804fa15:	89 34 24             	mov    DWORD PTR [esp],esi
 804fa18:	e8 83 37 00 00       	call   80531a0
 804fa1d:	89 74 24 04          	mov    DWORD PTR [esp+0x4],esi
 804fa21:	89 1c 24             	mov    DWORD PTR [esp],ebx
 804fa24:	e8 77 37 00 00       	call   80531a0
 804fa29:	89 5c 24 04          	mov    DWORD PTR [esp+0x4],ebx
 804fa2d:	89 34 24             	mov    DWORD PTR [esp],esi
 804fa30:	e8 6b 37 00 00       	call   80531a0
 804fa35:	89 74 24 04          	mov    DWORD PTR [esp+0x4],esi
 804fa39:	89 1c 24             	mov    DWORD PTR [esp],ebx
 804fa3c:	e8 5f 37 00 00       	call   80531a0
 804fa41:	83 ef 01             	sub    edi,0x1
 804fa44:	75 e3                	jne    804fa29
 804fa46:	89 6c 24 08          	mov    DWORD PTR [esp+0x8],ebp
 804fa4a:	8d ac 24 f0 01 00 00 	lea    ebp,[esp+0x1f0]
 804fa51:	bf 18 00 00 00       	mov    edi,0x18
 804fa56:	89 5c 24 04          	mov    DWORD PTR [esp+0x4],ebx
 804fa5a:	89 2c 24             	mov    DWORD PTR [esp],ebp
 804fa5d:	e8 be 32 00 00       	call   8052d20
 804fa62:	89 6c 24 04          	mov    DWORD PTR [esp+0x4],ebp
 804fa66:	89 1c 24             	mov    DWORD PTR [esp],ebx
 804fa69:	e8 32 37 00 00       	call   80531a0
 804fa6e:	89 5c 24 04          	mov    DWORD PTR [esp+0x4],ebx
 804fa72:	89 34 24             	mov    DWORD PTR [esp],esi
 804fa75:	e8 26 37 00 00       	call   80531a0
 804fa7a:	8d b6 00 00 00 00    	lea    esi,[esi]
 804fa80:	89 74 24 04          	mov    DWORD PTR [esp+0x4],esi
 804fa84:	89 1c 24             	mov    DWORD PTR [esp],ebx
 804fa87:	e8 14 37 00 00       	call   80531a0
 804fa8c:	89 5c 24 04          	mov    DWORD PTR [esp+0x4],ebx
 804fa90:	89 34 24             	mov    DWORD PTR [esp],esi
 804fa93:	e8 08 37 00 00       	call   80531a0
 804fa98:	83 ef 01             	sub    edi,0x1
 804fa9b:	75 e3                	jne    804fa80
 804fa9d:	8d 84 24 40 02 00 00 	lea    eax,[esp+0x240]
 804faa4:	bf 31 00 00 00       	mov    edi,0x31
 804faa9:	89 04 24             	mov    DWORD PTR [esp],eax
 804faac:	89 6c 24 08          	mov    DWORD PTR [esp+0x8],ebp
 804fab0:	89 74 24 04          	mov    DWORD PTR [esp+0x4],esi
 804fab4:	e8 67 32 00 00       	call   8052d20
 804fab9:	8d 84 24 40 02 00 00 	lea    eax,[esp+0x240]
 804fac0:	89 44 24 04          	mov    DWORD PTR [esp+0x4],eax
 804fac4:	89 34 24             	mov    DWORD PTR [esp],esi
 804fac7:	e8 d4 36 00 00       	call   80531a0
 804facc:	89 74 24 04          	mov    DWORD PTR [esp+0x4],esi
 804fad0:	89 1c 24             	mov    DWORD PTR [esp],ebx
 804fad3:	e8 c8 36 00 00       	call   80531a0
 804fad8:	89 5c 24 04          	mov    DWORD PTR [esp+0x4],ebx
 804fadc:	89 34 24             	mov    DWORD PTR [esp],esi
 804fadf:	e8 bc 36 00 00       	call   80531a0
 804fae4:	89 74 24 04          	mov    DWORD PTR [esp+0x4],esi
 804fae8:	89 1c 24             	mov    DWORD PTR [esp],ebx
 804faeb:	e8 b0 36 00 00       	call   80531a0
 804faf0:	83 ef 01             	sub    edi,0x1
 804faf3:	75 e3                	jne    804fad8
 804faf5:	8d 84 24 40 02 00 00 	lea    eax,[esp+0x240]
 804fafc:	bf 18 00 00 00       	mov    edi,0x18
 804fb01:	89 44 24 08          	mov    DWORD PTR [esp+0x8],eax
 804fb05:	89 5c 24 04          	mov    DWORD PTR [esp+0x4],ebx
 804fb09:	89 34 24             	mov    DWORD PTR [esp],esi
 804fb0c:	e8 0f 32 00 00       	call   8052d20
 804fb11:	89 74 24 04          	mov    DWORD PTR [esp+0x4],esi
 804fb15:	89 1c 24             	mov    DWORD PTR [esp],ebx
 804fb18:	e8 83 36 00 00       	call   80531a0
 804fb1d:	89 5c 24 04          	mov    DWORD PTR [esp+0x4],ebx
 804fb21:	89 34 24             	mov    DWORD PTR [esp],esi
 804fb24:	e8 77 36 00 00       	call   80531a0
 804fb29:	8d b4 26 00 00 00 00 	lea    esi,[esi]
 804fb30:	89 74 24 04          	mov    DWORD PTR [esp+0x4],esi
 804fb34:	89 1c 24             	mov    DWORD PTR [esp],ebx
 804fb37:	e8 64 36 00 00       	call   80531a0
 804fb3c:	89 5c 24 04          	mov    DWORD PTR [esp+0x4],ebx
 804fb40:	89 34 24             	mov    DWORD PTR [esp],esi
 804fb43:	e8 58 36 00 00       	call   80531a0
 804fb48:	83 ef 01             	sub    edi,0x1
 804fb4b:	75 e3                	jne    804fb30
 804fb4d:	89 6c 24 08          	mov    DWORD PTR [esp+0x8],ebp
 804fb51:	89 74 24 04          	mov    DWORD PTR [esp+0x4],esi
 804fb55:	89 1c 24             	mov    DWORD PTR [esp],ebx
 804fb58:	e8 c3 31 00 00       	call   8052d20
 804fb5d:	89 5c 24 04          	mov    DWORD PTR [esp+0x4],ebx
 804fb61:	89 34 24             	mov    DWORD PTR [esp],esi
 804fb64:	e8 37 36 00 00       	call   80531a0
 804fb69:	89 74 24 04          	mov    DWORD PTR [esp+0x4],esi
 804fb6d:	89 1c 24             	mov    DWORD PTR [esp],ebx
 804fb70:	e8 2b 36 00 00       	call   80531a0
 804fb75:	89 5c 24 04          	mov    DWORD PTR [esp+0x4],ebx
 804fb79:	89 34 24             	mov    DWORD PTR [esp],esi
 804fb7c:	e8 1f 36 00 00       	call   80531a0
 804fb81:	89 74 24 04          	mov    DWORD PTR [esp+0x4],esi
 804fb85:	89 1c 24             	mov    DWORD PTR [esp],ebx
 804fb88:	e8 13 36 00 00       	call   80531a0
 804fb8d:	89 5c 24 04          	mov    DWORD PTR [esp+0x4],ebx
 804fb91:	89 34 24             	mov    DWORD PTR [esp],esi
 804fb94:	e8 07 36 00 00       	call   80531a0
 804fb99:	8d 84 24 b0 00 00 00 	lea    eax,[esp+0xb0]
 804fba0:	89 44 24 08          	mov    DWORD PTR [esp+0x8],eax
 804fba4:	8b 84 24 50 03 00 00 	mov    eax,DWORD PTR [esp+0x350]
 804fbab:	89 74 24 04          	mov    DWORD PTR [esp+0x4],esi
 804fbaf:	89 04 24             	mov    DWORD PTR [esp],eax
 804fbb2:	e8 69 31 00 00       	call   8052d20
 804fbb7:	81 c4 3c 03 00 00    	add    esp,0x33c
 804fbbd:	5b                   	pop    ebx
 804fbbe:	5e                   	pop    esi
 804fbbf:	5f                   	pop    edi
 804fbc0:	5d                   	pop    ebp
 804fbc1:	c3                   	ret
 804fbc2:	8d b4 26 00 00 00 00 	lea    esi,[esi]
 804fbc9:	8d bc 27 00 00 00 00 	lea    edi,[edi]

0804fbd0 <curve25519_athlon>:
 804fbd0:	56                   	push   esi
 804fbd1:	53                   	push   ebx
 804fbd2:	81 ec 04 01 00 00    	sub    esp,0x104
 804fbd8:	e8 83 03 00 00       	call   804ff60
 804fbdd:	8b 84 24 18 01 00 00 	mov    eax,DWORD PTR [esp+0x118]
 804fbe4:	8d 5c 24 10          	lea    ebx,[esp+0x10]
 804fbe8:	89 1c 24             	mov    DWORD PTR [esp],ebx
 804fbeb:	8d 74 24 60          	lea    esi,[esp+0x60]
 804fbef:	89 44 24 04          	mov    DWORD PTR [esp+0x4],eax
 804fbf3:	e8 08 39 00 00       	call   8053500
 804fbf8:	8b 84 24 14 01 00 00 	mov    eax,DWORD PTR [esp+0x114]
 804fbff:	89 1c 24             	mov    DWORD PTR [esp],ebx
 804fc02:	89 44 24 04          	mov    DWORD PTR [esp+0x4],eax
 804fc06:	e8 75 03 00 00       	call   804ff80
 804fc0b:	89 74 24 04          	mov    DWORD PTR [esp+0x4],esi
 804fc0f:	89 34 24             	mov    DWORD PTR [esp],esi
 804fc12:	e8 59 fc ff ff       	call   804f870
 804fc17:	89 5c 24 04          	mov    DWORD PTR [esp+0x4],ebx
 804fc1b:	8d 9c 24 b0 00 00 00 	lea    ebx,[esp+0xb0]
 804fc22:	89 74 24 08          	mov    DWORD PTR [esp+0x8],esi
 804fc26:	89 1c 24             	mov    DWORD PTR [esp],ebx
 804fc29:	e8 f2 30 00 00       	call   8052d20
 804fc2e:	8b 84 24 10 01 00 00 	mov    eax,DWORD PTR [esp+0x110]
 804fc35:	89 5c 24 04          	mov    DWORD PTR [esp+0x4],ebx
 804fc39:	89 04 24             	mov    DWORD PTR [esp],eax
 804fc3c:	e8 1f 00 00 00       	call   804fc60
 804fc41:	81 c4 04 01 00 00    	add    esp,0x104
 804fc47:	5b                   	pop    ebx
 804fc48:	5e                   	pop    esi
 804fc49:	c3                   	ret
 804fc4a:	66 90                	xchg   ax,ax
 804fc4c:	66 90                	xchg   ax,ax
 804fc4e:	66 90                	xchg   ax,ax
 804fc50:	66 90                	xchg   ax,ax
 804fc52:	66 90                	xchg   ax,ax
 804fc54:	66 90                	xchg   ax,ax
 804fc56:	66 90                	xchg   ax,ax
 804fc58:	66 90                	xchg   ax,ax
 804fc5a:	66 90                	xchg   ax,ax
 804fc5c:	66 90                	xchg   ax,ax
 804fc5e:	66 90                	xchg   ax,ax

0804fc60 <_curve25519_athlon_fromdouble>:
 804fc60:	89 e0                	mov    eax,esp
 804fc62:	83 e0 1f             	and    eax,0x1f
 804fc65:	05 c0 00 00 00       	add    eax,0xc0
 804fc6a:	29 c4                	sub    esp,eax
 804fc6c:	89 2c 24             	mov    DWORD PTR [esp],ebp
 804fc6f:	8b 4c 04 08          	mov    ecx,DWORD PTR [esp+eax+0x8]
 804fc73:	dd 01                	fld    QWORD PTR [ecx]
 804fc75:	dc 05 c8 3a 05 08    	fadd   QWORD PTR ds:0x8053ac8
 804fc7b:	dd 5c 24 60          	fstp   QWORD PTR [esp+0x60]
 804fc7f:	dd 41 08             	fld    QWORD PTR [ecx+0x8]
 804fc82:	dc 05 d0 3a 05 08    	fadd   QWORD PTR ds:0x8053ad0
 804fc88:	dd 5c 24 68          	fstp   QWORD PTR [esp+0x68]
 804fc8c:	dd 41 10             	fld    QWORD PTR [ecx+0x10]
 804fc8f:	dc 05 d8 3a 05 08    	fadd   QWORD PTR ds:0x8053ad8
 804fc95:	dd 5c 24 70          	fstp   QWORD PTR [esp+0x70]
 804fc99:	dd 41 18             	fld    QWORD PTR [ecx+0x18]
 804fc9c:	dc 05 e0 3a 05 08    	fadd   QWORD PTR ds:0x8053ae0
 804fca2:	dd 5c 24 78          	fstp   QWORD PTR [esp+0x78]
 804fca6:	dd 41 20             	fld    QWORD PTR [ecx+0x20]
 804fca9:	dc 05 e8 3a 05 08    	fadd   QWORD PTR ds:0x8053ae8
 804fcaf:	dd 9c 24 80 00 00 00 	fstp   QWORD PTR [esp+0x80]
 804fcb6:	dd 41 28             	fld    QWORD PTR [ecx+0x28]
 804fcb9:	dc 05 f0 3a 05 08    	fadd   QWORD PTR ds:0x8053af0
 804fcbf:	dd 9c 24 88 00 00 00 	fstp   QWORD PTR [esp+0x88]
 804fcc6:	dd 41 30             	fld    QWORD PTR [ecx+0x30]
 804fcc9:	dc 05 f8 3a 05 08    	fadd   QWORD PTR ds:0x8053af8
 804fccf:	dd 9c 24 90 00 00 00 	fstp   QWORD PTR [esp+0x90]
 804fcd6:	dd 41 38             	fld    QWORD PTR [ecx+0x38]
 804fcd9:	dc 05 00 3b 05 08    	fadd   QWORD PTR ds:0x8053b00
 804fcdf:	dd 9c 24 98 00 00 00 	fstp   QWORD PTR [esp+0x98]
 804fce6:	dd 41 40             	fld    QWORD PTR [ecx+0x40]
 804fce9:	dc 05 08 3b 05 08    	fadd   QWORD PTR ds:0x8053b08
 804fcef:	dd 9c 24 a0 00 00 00 	fstp   QWORD PTR [esp+0xa0]
 804fcf6:	dd 41 48             	fld    QWORD PTR [ecx+0x48]
 804fcf9:	dc 05 10 3b 05 08    	fadd   QWORD PTR ds:0x8053b10
 804fcff:	dd 9c 24 a8 00 00 00 	fstp   QWORD PTR [esp+0xa8]
 804fd06:	8b 4c 24 60          	mov    ecx,DWORD PTR [esp+0x60]
 804fd0a:	89 4c 24 04          	mov    DWORD PTR [esp+0x4],ecx
 804fd0e:	8b 4c 24 68          	mov    ecx,DWORD PTR [esp+0x68]
 804fd12:	c1 e1 1a             	shl    ecx,0x1a
 804fd15:	89 4c 24 28          	mov    DWORD PTR [esp+0x28],ecx
 804fd19:	8b 4c 24 68          	mov    ecx,DWORD PTR [esp+0x68]
 804fd1d:	c1 e9 06             	shr    ecx,0x6
 804fd20:	89 4c 24 08          	mov    DWORD PTR [esp+0x8],ecx
 804fd24:	8b 4c 24 70          	mov    ecx,DWORD PTR [esp+0x70]
 804fd28:	c1 e1 13             	shl    ecx,0x13
 804fd2b:	89 4c 24 2c          	mov    DWORD PTR [esp+0x2c],ecx
 804fd2f:	8b 4c 24 70          	mov    ecx,DWORD PTR [esp+0x70]
 804fd33:	c1 e9 0d             	shr    ecx,0xd
 804fd36:	89 4c 24 0c          	mov    DWORD PTR [esp+0xc],ecx
 804fd3a:	8b 4c 24 78          	mov    ecx,DWORD PTR [esp+0x78]
 804fd3e:	c1 e1 0d             	shl    ecx,0xd
 804fd41:	89 4c 24 30          	mov    DWORD PTR [esp+0x30],ecx
 804fd45:	8b 4c 24 78          	mov    ecx,DWORD PTR [esp+0x78]
 804fd49:	c1 e9 13             	shr    ecx,0x13
 804fd4c:	89 4c 24 10          	mov    DWORD PTR [esp+0x10],ecx
 804fd50:	8b 8c 24 80 00 00 00 	mov    ecx,DWORD PTR [esp+0x80]
 804fd57:	c1 e1 06             	shl    ecx,0x6
 804fd5a:	89 4c 24 34          	mov    DWORD PTR [esp+0x34],ecx
 804fd5e:	8b 8c 24 80 00 00 00 	mov    ecx,DWORD PTR [esp+0x80]
 804fd65:	c1 e9 1a             	shr    ecx,0x1a
 804fd68:	8b 94 24 88 00 00 00 	mov    edx,DWORD PTR [esp+0x88]
 804fd6f:	01 d1                	add    ecx,edx
 804fd71:	89 4c 24 14          	mov    DWORD PTR [esp+0x14],ecx
 804fd75:	8b 8c 24 90 00 00 00 	mov    ecx,DWORD PTR [esp+0x90]
 804fd7c:	c1 e1 19             	shl    ecx,0x19
 804fd7f:	89 4c 24 38          	mov    DWORD PTR [esp+0x38],ecx
 804fd83:	8b 8c 24 90 00 00 00 	mov    ecx,DWORD PTR [esp+0x90]
 804fd8a:	c1 e9 07             	shr    ecx,0x7
 804fd8d:	89 4c 24 18          	mov    DWORD PTR [esp+0x18],ecx
 804fd91:	8b 8c 24 98 00 00 00 	mov    ecx,DWORD PTR [esp+0x98]
 804fd98:	c1 e1 13             	shl    ecx,0x13
 804fd9b:	89 4c 24 3c          	mov    DWORD PTR [esp+0x3c],ecx
 804fd9f:	8b 8c 24 98 00 00 00 	mov    ecx,DWORD PTR [esp+0x98]
 804fda6:	c1 e9 0d             	shr    ecx,0xd
 804fda9:	89 4c 24 1c          	mov    DWORD PTR [esp+0x1c],ecx
 804fdad:	8b 8c 24 a0 00 00 00 	mov    ecx,DWORD PTR [esp+0xa0]
 804fdb4:	c1 e1 0c             	shl    ecx,0xc
 804fdb7:	89 4c 24 40          	mov    DWORD PTR [esp+0x40],ecx
 804fdbb:	8b 8c 24 a0 00 00 00 	mov    ecx,DWORD PTR [esp+0xa0]
 804fdc2:	c1 e9 14             	shr    ecx,0x14
 804fdc5:	89 4c 24 20          	mov    DWORD PTR [esp+0x20],ecx
 804fdc9:	8b 8c 24 a8 00 00 00 	mov    ecx,DWORD PTR [esp+0xa8]
 804fdd0:	c1 e1 06             	shl    ecx,0x6
 804fdd3:	89 4c 24 44          	mov    DWORD PTR [esp+0x44],ecx
 804fdd7:	8b 8c 24 a8 00 00 00 	mov    ecx,DWORD PTR [esp+0xa8]
 804fdde:	c1 e9 1a             	shr    ecx,0x1a
 804fde1:	89 4c 24 24          	mov    DWORD PTR [esp+0x24],ecx
 804fde5:	b9 00 00 00 00       	mov    ecx,0x0
 804fdea:	89 4c 24 48          	mov    DWORD PTR [esp+0x48],ecx
 804fdee:	8b 4c 24 04          	mov    ecx,DWORD PTR [esp+0x4]
 804fdf2:	03 4c 24 28          	add    ecx,DWORD PTR [esp+0x28]
 804fdf6:	89 4c 24 04          	mov    DWORD PTR [esp+0x4],ecx
 804fdfa:	8b 4c 24 08          	mov    ecx,DWORD PTR [esp+0x8]
 804fdfe:	13 4c 24 2c          	adc    ecx,DWORD PTR [esp+0x2c]
 804fe02:	89 4c 24 08          	mov    DWORD PTR [esp+0x8],ecx
 804fe06:	8b 4c 24 0c          	mov    ecx,DWORD PTR [esp+0xc]
 804fe0a:	13 4c 24 30          	adc    ecx,DWORD PTR [esp+0x30]
 804fe0e:	89 4c 24 0c          	mov    DWORD PTR [esp+0xc],ecx
 804fe12:	8b 4c 24 10          	mov    ecx,DWORD PTR [esp+0x10]
 804fe16:	13 4c 24 34          	adc    ecx,DWORD PTR [esp+0x34]
 804fe1a:	89 4c 24 10          	mov    DWORD PTR [esp+0x10],ecx
 804fe1e:	8b 4c 24 14          	mov    ecx,DWORD PTR [esp+0x14]
 804fe22:	13 4c 24 38          	adc    ecx,DWORD PTR [esp+0x38]
 804fe26:	89 4c 24 14          	mov    DWORD PTR [esp+0x14],ecx
 804fe2a:	8b 4c 24 18          	mov    ecx,DWORD PTR [esp+0x18]
 804fe2e:	13 4c 24 3c          	adc    ecx,DWORD PTR [esp+0x3c]
 804fe32:	89 4c 24 18          	mov    DWORD PTR [esp+0x18],ecx
 804fe36:	8b 4c 24 1c          	mov    ecx,DWORD PTR [esp+0x1c]
 804fe3a:	13 4c 24 40          	adc    ecx,DWORD PTR [esp+0x40]
 804fe3e:	89 4c 24 1c          	mov    DWORD PTR [esp+0x1c],ecx
 804fe42:	8b 4c 24 20          	mov    ecx,DWORD PTR [esp+0x20]
 804fe46:	13 4c 24 44          	adc    ecx,DWORD PTR [esp+0x44]
 804fe4a:	89 4c 24 20          	mov    DWORD PTR [esp+0x20],ecx
 804fe4e:	8b 4c 24 24          	mov    ecx,DWORD PTR [esp+0x24]
 804fe52:	13 4c 24 48          	adc    ecx,DWORD PTR [esp+0x48]
 804fe56:	89 4c 24 24          	mov    DWORD PTR [esp+0x24],ecx
 804fe5a:	8b 4c 24 04          	mov    ecx,DWORD PTR [esp+0x4]
 804fe5e:	83 d1 13             	adc    ecx,0x13
 804fe61:	89 4c 24 28          	mov    DWORD PTR [esp+0x28],ecx
 804fe65:	8b 4c 24 08          	mov    ecx,DWORD PTR [esp+0x8]
 804fe69:	83 d1 00             	adc    ecx,0x0
 804fe6c:	89 4c 24 2c          	mov    DWORD PTR [esp+0x2c],ecx
 804fe70:	8b 4c 24 0c          	mov    ecx,DWORD PTR [esp+0xc]
 804fe74:	83 d1 00             	adc    ecx,0x0
 804fe77:	89 4c 24 30          	mov    DWORD PTR [esp+0x30],ecx
 804fe7b:	8b 4c 24 10          	mov    ecx,DWORD PTR [esp+0x10]
 804fe7f:	83 d1 00             	adc    ecx,0x0
 804fe82:	89 4c 24 34          	mov    DWORD PTR [esp+0x34],ecx
 804fe86:	8b 4c 24 14          	mov    ecx,DWORD PTR [esp+0x14]
 804fe8a:	83 d1 00             	adc    ecx,0x0
 804fe8d:	89 4c 24 38          	mov    DWORD PTR [esp+0x38],ecx
 804fe91:	8b 4c 24 18          	mov    ecx,DWORD PTR [esp+0x18]
 804fe95:	83 d1 00             	adc    ecx,0x0
 804fe98:	89 4c 24 3c          	mov    DWORD PTR [esp+0x3c],ecx
 804fe9c:	8b 4c 24 1c          	mov    ecx,DWORD PTR [esp+0x1c]
 804fea0:	83 d1 00             	adc    ecx,0x0
 804fea3:	89 4c 24 40          	mov    DWORD PTR [esp+0x40],ecx
 804fea7:	8b 4c 24 20          	mov    ecx,DWORD PTR [esp+0x20]
 804feab:	81 d1 00 00 00 80    	adc    ecx,0x80000000
 804feb1:	89 4c 24 44          	mov    DWORD PTR [esp+0x44],ecx
 804feb5:	8b 6c 24 24          	mov    ebp,DWORD PTR [esp+0x24]
 804feb9:	83 d5 ff             	adc    ebp,0xff
 804febc:	81 e5 00 00 00 80    	and    ebp,0x80000000
 804fec2:	c1 fd 1f             	sar    ebp,0x1f
 804fec5:	8b 4c 04 04          	mov    ecx,DWORD PTR [esp+eax+0x4]
 804fec9:	8b 54 24 04          	mov    edx,DWORD PTR [esp+0x4]
 804fecd:	33 54 24 28          	xor    edx,DWORD PTR [esp+0x28]
 804fed1:	21 ea                	and    edx,ebp
 804fed3:	33 54 24 28          	xor    edx,DWORD PTR [esp+0x28]
 804fed7:	89 11                	mov    DWORD PTR [ecx],edx
 804fed9:	8b 54 24 08          	mov    edx,DWORD PTR [esp+0x8]
 804fedd:	33 54 24 2c          	xor    edx,DWORD PTR [esp+0x2c]
 804fee1:	21 ea                	and    edx,ebp
 804fee3:	33 54 24 2c          	xor    edx,DWORD PTR [esp+0x2c]
 804fee7:	89 51 04             	mov    DWORD PTR [ecx+0x4],edx
 804feea:	8b 54 24 0c          	mov    edx,DWORD PTR [esp+0xc]
 804feee:	33 54 24 30          	xor    edx,DWORD PTR [esp+0x30]
 804fef2:	21 ea                	and    edx,ebp
 804fef4:	33 54 24 30          	xor    edx,DWORD PTR [esp+0x30]
 804fef8:	89 51 08             	mov    DWORD PTR [ecx+0x8],edx
 804fefb:	8b 54 24 10          	mov    edx,DWORD PTR [esp+0x10]
 804feff:	33 54 24 34          	xor    edx,DWORD PTR [esp+0x34]
 804ff03:	21 ea                	and    edx,ebp
 804ff05:	33 54 24 34          	xor    edx,DWORD PTR [esp+0x34]
 804ff09:	89 51 0c             	mov    DWORD PTR [ecx+0xc],edx
 804ff0c:	8b 54 24 14          	mov    edx,DWORD PTR [esp+0x14]
 804ff10:	33 54 24 38          	xor    edx,DWORD PTR [esp+0x38]
 804ff14:	21 ea                	and    edx,ebp
 804ff16:	33 54 24 38          	xor    edx,DWORD PTR [esp+0x38]
 804ff1a:	89 51 10             	mov    DWORD PTR [ecx+0x10],edx
 804ff1d:	8b 54 24 18          	mov    edx,DWORD PTR [esp+0x18]
 804ff21:	33 54 24 3c          	xor    edx,DWORD PTR [esp+0x3c]
 804ff25:	21 ea                	and    edx,ebp
 804ff27:	33 54 24 3c          	xor    edx,DWORD PTR [esp+0x3c]
 804ff2b:	89 51 14             	mov    DWORD PTR [ecx+0x14],edx
 804ff2e:	8b 54 24 1c          	mov    edx,DWORD PTR [esp+0x1c]
 804ff32:	33 54 24 40          	xor    edx,DWORD PTR [esp+0x40]
 804ff36:	21 ea                	and    edx,ebp
 804ff38:	33 54 24 40          	xor    edx,DWORD PTR [esp+0x40]
 804ff3c:	89 51 18             	mov    DWORD PTR [ecx+0x18],edx
 804ff3f:	8b 54 24 20          	mov    edx,DWORD PTR [esp+0x20]
 804ff43:	33 54 24 44          	xor    edx,DWORD PTR [esp+0x44]
 804ff47:	21 ea                	and    edx,ebp
 804ff49:	33 54 24 44          	xor    edx,DWORD PTR [esp+0x44]
 804ff4d:	89 51 1c             	mov    DWORD PTR [ecx+0x1c],edx
 804ff50:	8b 2c 24             	mov    ebp,DWORD PTR [esp]
 804ff53:	01 c4                	add    esp,eax
 804ff55:	c3                   	ret
 804ff56:	66 90                	xchg   ax,ax
 804ff58:	66 90                	xchg   ax,ax
 804ff5a:	66 90                	xchg   ax,ax
 804ff5c:	66 90                	xchg   ax,ax
 804ff5e:	66 90                	xchg   ax,ax

0804ff60 <_curve25519_athlon_init>:
 804ff60:	89 e0                	mov    eax,esp
 804ff62:	83 e0 1f             	and    eax,0x1f
 804ff65:	83 c0 00             	add    eax,0x0
 804ff68:	29 c4                	sub    esp,eax
 804ff6a:	d9 2d 18 3b 05 08    	fldcw  WORD PTR ds:0x8053b18
 804ff70:	01 c4                	add    esp,eax
 804ff72:	c3                   	ret
 804ff73:	66 90                	xchg   ax,ax
 804ff75:	66 90                	xchg   ax,ax
 804ff77:	66 90                	xchg   ax,ax
 804ff79:	66 90                	xchg   ax,ax
 804ff7b:	66 90                	xchg   ax,ax
 804ff7d:	66 90                	xchg   ax,ax
 804ff7f:	90                   	nop

0804ff80 <_curve25519_athlon_mainloop>:
 804ff80:	89 e0                	mov    eax,esp
 804ff82:	83 e0 1f             	and    eax,0x1f
 804ff85:	05 c0 02 00 00       	add    eax,0x2c0
 804ff8a:	29 c4                	sub    esp,eax
 804ff8c:	8d 94 24 00 01 00 00 	lea    edx,[esp+0x100]
 804ff93:	8d 8c 24 00 02 00 00 	lea    ecx,[esp+0x200]
 804ff9a:	dd 05 b0 3a 05 08    	fld    QWORD PTR ds:0x8053ab0
 804ffa0:	dd 05 c0 3a 05 08    	fld    QWORD PTR ds:0x8053ac0
 804ffa6:	89 81 a0 00 00 00    	mov    DWORD PTR [ecx+0xa0],eax
 804ffac:	89 99 a4 00 00 00    	mov    DWORD PTR [ecx+0xa4],ebx
 804ffb2:	89 b1 a8 00 00 00    	mov    DWORD PTR [ecx+0xa8],esi
 804ffb8:	89 b9 ac 00 00 00    	mov    DWORD PTR [ecx+0xac],edi
 804ffbe:	89 a9 b0 00 00 00    	mov    DWORD PTR [ecx+0xb0],ebp
 804ffc4:	8b 5c 04 04          	mov    ebx,DWORD PTR [esp+eax+0x4]
 804ffc8:	d9 c9                	fxch   st(1)
 804ffca:	dd 14 24             	fst    QWORD PTR [esp]
 804ffcd:	d9 c9                	fxch   st(1)
 804ffcf:	dd 54 24 08          	fst    QWORD PTR [esp+0x8]
 804ffd3:	dd 54 24 10          	fst    QWORD PTR [esp+0x10]
 804ffd7:	dd 54 24 18          	fst    QWORD PTR [esp+0x18]
 804ffdb:	dd 54 24 20          	fst    QWORD PTR [esp+0x20]
 804ffdf:	dd 54 24 28          	fst    QWORD PTR [esp+0x28]
 804ffe3:	dd 54 24 30          	fst    QWORD PTR [esp+0x30]
 804ffe7:	dd 52 88             	fst    QWORD PTR [edx-0x78]
 804ffea:	dd 52 90             	fst    QWORD PTR [edx-0x70]
 804ffed:	dd 52 98             	fst    QWORD PTR [edx-0x68]
 804fff0:	dd 52 a0             	fst    QWORD PTR [edx-0x60]
 804fff3:	dd 52 a8             	fst    QWORD PTR [edx-0x58]
 804fff6:	dd 52 b0             	fst    QWORD PTR [edx-0x50]
 804fff9:	dd 52 b8             	fst    QWORD PTR [edx-0x48]
 804fffc:	dd 52 c0             	fst    QWORD PTR [edx-0x40]
 804ffff:	dd 52 c8             	fst    QWORD PTR [edx-0x38]
 8050002:	dd 52 d0             	fst    QWORD PTR [edx-0x30]
 8050005:	dd 52 d8             	fst    QWORD PTR [edx-0x28]
 8050008:	dd 52 e0             	fst    QWORD PTR [edx-0x20]
 805000b:	dd 52 e8             	fst    QWORD PTR [edx-0x18]
 805000e:	d9 c9                	fxch   st(1)
 8050010:	dd 5a 40             	fstp   QWORD PTR [edx+0x40]
 8050013:	dd 52 48             	fst    QWORD PTR [edx+0x48]
 8050016:	dd 52 50             	fst    QWORD PTR [edx+0x50]
 8050019:	dd 52 58             	fst    QWORD PTR [edx+0x58]
 805001c:	dd 52 60             	fst    QWORD PTR [edx+0x60]
 805001f:	dd 52 68             	fst    QWORD PTR [edx+0x68]
 8050022:	dd 52 70             	fst    QWORD PTR [edx+0x70]
 8050025:	dd 52 78             	fst    QWORD PTR [edx+0x78]
 8050028:	dd 51 80             	fst    QWORD PTR [ecx-0x80]
 805002b:	dd 59 88             	fstp   QWORD PTR [ecx-0x78]
 805002e:	dd 03                	fld    QWORD PTR [ebx]
 8050030:	dd 43 08             	fld    QWORD PTR [ebx+0x8]
 8050033:	dd 43 10             	fld    QWORD PTR [ebx+0x10]
 8050036:	dd 43 18             	fld    QWORD PTR [ebx+0x18]
 8050039:	d9 cb                	fxch   st(3)
 805003b:	dd 52 f0             	fst    QWORD PTR [edx-0x10]
 805003e:	dd 5c 24 38          	fstp   QWORD PTR [esp+0x38]
 8050042:	dd 43 20             	fld    QWORD PTR [ebx+0x20]
 8050045:	d9 ca                	fxch   st(2)
 8050047:	dd 52 f8             	fst    QWORD PTR [edx-0x8]
 805004a:	dd 5c 24 40          	fstp   QWORD PTR [esp+0x40]
 805004e:	dd 43 28             	fld    QWORD PTR [ebx+0x28]
 8050051:	d9 c9                	fxch   st(1)
 8050053:	dd 12                	fst    QWORD PTR [edx]
 8050055:	dd 5c 24 48          	fstp   QWORD PTR [esp+0x48]
 8050059:	dd 43 30             	fld    QWORD PTR [ebx+0x30]
 805005c:	d9 cb                	fxch   st(3)
 805005e:	dd 52 08             	fst    QWORD PTR [edx+0x8]
 8050061:	dd 5c 24 50          	fstp   QWORD PTR [esp+0x50]
 8050065:	dd 43 38             	fld    QWORD PTR [ebx+0x38]
 8050068:	d9 ca                	fxch   st(2)
 805006a:	dd 52 10             	fst    QWORD PTR [edx+0x10]
 805006d:	dd 5c 24 58          	fstp   QWORD PTR [esp+0x58]
 8050071:	dd 43 40             	fld    QWORD PTR [ebx+0x40]
 8050074:	d9 c9                	fxch   st(1)
 8050076:	dd 52 18             	fst    QWORD PTR [edx+0x18]
 8050079:	dd 5c 24 60          	fstp   QWORD PTR [esp+0x60]
 805007d:	dd 43 48             	fld    QWORD PTR [ebx+0x48]
 8050080:	d9 cb                	fxch   st(3)
 8050082:	dd 52 20             	fst    QWORD PTR [edx+0x20]
 8050085:	dd 5c 24 68          	fstp   QWORD PTR [esp+0x68]
 8050089:	d9 c9                	fxch   st(1)
 805008b:	dd 52 28             	fst    QWORD PTR [edx+0x28]
 805008e:	dd 5c 24 70          	fstp   QWORD PTR [esp+0x70]
 8050092:	dd 52 30             	fst    QWORD PTR [edx+0x30]
 8050095:	dd 5c 24 78          	fstp   QWORD PTR [esp+0x78]
 8050099:	dd 52 38             	fst    QWORD PTR [edx+0x38]
 805009c:	dd 5a 80             	fstp   QWORD PTR [edx-0x80]
 805009f:	8b 5c 04 08          	mov    ebx,DWORD PTR [esp+eax+0x8]
 80500a3:	bf 1c 00 00 00       	mov    edi,0x1c
 80500a8:	bd 1f 00 00 00       	mov    ebp,0x1f
 80500ad:	8b 73 1c             	mov    esi,DWORD PTR [ebx+0x1c]
 80500b0:	d1 c6                	rol    esi,1

080500b2 <._morebytes>:
 80500b2:	89 b9 bc 00 00 00    	mov    DWORD PTR [ecx+0xbc],edi

080500b8 <._morebits>:
 80500b8:	d1 c6                	rol    esi,1
 80500ba:	89 b1 b4 00 00 00    	mov    DWORD PTR [ecx+0xb4],esi
 80500c0:	89 a9 b8 00 00 00    	mov    DWORD PTR [ecx+0xb8],ebp
 80500c6:	83 e6 01             	and    esi,0x1
 80500c9:	c7 41 94 00 00 30 43 	mov    DWORD PTR [ecx-0x6c],0x43300000
 80500d0:	89 71 90             	mov    DWORD PTR [ecx-0x70],esi
 80500d3:	dd 42 a0             	fld    QWORD PTR [edx-0x60]
 80500d6:	dd 04 24             	fld    QWORD PTR [esp]
 80500d9:	dc c1                	fadd   st(1),st
 80500db:	dc 62 a0             	fsub   QWORD PTR [edx-0x60]
 80500de:	dd 42 40             	fld    QWORD PTR [edx+0x40]
 80500e1:	dd 42 f0             	fld    QWORD PTR [edx-0x10]
 80500e4:	dc c1                	fadd   st(1),st
 80500e6:	dc 62 40             	fsub   QWORD PTR [edx+0x40]
 80500e9:	dd 42 a8             	fld    QWORD PTR [edx-0x58]
 80500ec:	dd 44 24 08          	fld    QWORD PTR [esp+0x8]
 80500f0:	dc c1                	fadd   st(1),st
 80500f2:	dc 62 a8             	fsub   QWORD PTR [edx-0x58]
 80500f5:	d9 cd                	fxch   st(5)
 80500f7:	dd 1c 24             	fstp   QWORD PTR [esp]
 80500fa:	d9 cb                	fxch   st(3)
 80500fc:	dd 5a a0             	fstp   QWORD PTR [edx-0x60]
 80500ff:	dd 42 48             	fld    QWORD PTR [edx+0x48]
 8050102:	dd 42 f8             	fld    QWORD PTR [edx-0x8]
 8050105:	dc c1                	fadd   st(1),st
 8050107:	dc 62 48             	fsub   QWORD PTR [edx+0x48]
 805010a:	d9 cb                	fxch   st(3)
 805010c:	dd 5a f0             	fstp   QWORD PTR [edx-0x10]
 805010f:	d9 c9                	fxch   st(1)
 8050111:	dd 5a 40             	fstp   QWORD PTR [edx+0x40]
 8050114:	dd 42 b0             	fld    QWORD PTR [edx-0x50]
 8050117:	dd 44 24 10          	fld    QWORD PTR [esp+0x10]
 805011b:	dc c1                	fadd   st(1),st
 805011d:	dc 62 b0             	fsub   QWORD PTR [edx-0x50]
 8050120:	d9 cc                	fxch   st(4)
 8050122:	dd 5c 24 08          	fstp   QWORD PTR [esp+0x8]
 8050126:	d9 cc                	fxch   st(4)
 8050128:	dd 5a a8             	fstp   QWORD PTR [edx-0x58]
 805012b:	dd 42 50             	fld    QWORD PTR [edx+0x50]
 805012e:	dd 02                	fld    QWORD PTR [edx]
 8050130:	dc c1                	fadd   st(1),st
 8050132:	dc 62 50             	fsub   QWORD PTR [edx+0x50]
 8050135:	d9 ca                	fxch   st(2)
 8050137:	dd 5a f8             	fstp   QWORD PTR [edx-0x8]
 805013a:	d9 ca                	fxch   st(2)
 805013c:	dd 5a 48             	fstp   QWORD PTR [edx+0x48]
 805013f:	dd 42 b8             	fld    QWORD PTR [edx-0x48]
 8050142:	dd 44 24 18          	fld    QWORD PTR [esp+0x18]
 8050146:	dc c1                	fadd   st(1),st
 8050148:	dc 62 b8             	fsub   QWORD PTR [edx-0x48]
 805014b:	d9 cd                	fxch   st(5)
 805014d:	dd 5c 24 10          	fstp   QWORD PTR [esp+0x10]
 8050151:	d9 cb                	fxch   st(3)
 8050153:	dd 5a b0             	fstp   QWORD PTR [edx-0x50]
 8050156:	dd 42 58             	fld    QWORD PTR [edx+0x58]
 8050159:	dd 42 08             	fld    QWORD PTR [edx+0x8]
 805015c:	dc c1                	fadd   st(1),st
 805015e:	dc 62 58             	fsub   QWORD PTR [edx+0x58]
 8050161:	d9 cb                	fxch   st(3)
 8050163:	dd 1a                	fstp   QWORD PTR [edx]
 8050165:	d9 c9                	fxch   st(1)
 8050167:	dd 5a 50             	fstp   QWORD PTR [edx+0x50]
 805016a:	dd 42 c0             	fld    QWORD PTR [edx-0x40]
 805016d:	dd 44 24 20          	fld    QWORD PTR [esp+0x20]
 8050171:	dc c1                	fadd   st(1),st
 8050173:	dc 62 c0             	fsub   QWORD PTR [edx-0x40]
 8050176:	d9 cc                	fxch   st(4)
 8050178:	dd 5c 24 18          	fstp   QWORD PTR [esp+0x18]
 805017c:	d9 cc                	fxch   st(4)
 805017e:	dd 5a b8             	fstp   QWORD PTR [edx-0x48]
 8050181:	dd 42 60             	fld    QWORD PTR [edx+0x60]
 8050184:	dd 42 10             	fld    QWORD PTR [edx+0x10]
 8050187:	dc c1                	fadd   st(1),st
 8050189:	dc 62 60             	fsub   QWORD PTR [edx+0x60]
 805018c:	d9 ca                	fxch   st(2)
 805018e:	dd 5a 08             	fstp   QWORD PTR [edx+0x8]
 8050191:	d9 ca                	fxch   st(2)
 8050193:	dd 5a 58             	fstp   QWORD PTR [edx+0x58]
 8050196:	dd 42 c8             	fld    QWORD PTR [edx-0x38]
 8050199:	dd 44 24 28          	fld    QWORD PTR [esp+0x28]
 805019d:	dc c1                	fadd   st(1),st
 805019f:	dc 62 c8             	fsub   QWORD PTR [edx-0x38]
 80501a2:	d9 cd                	fxch   st(5)
 80501a4:	dd 5c 24 20          	fstp   QWORD PTR [esp+0x20]
 80501a8:	d9 cb                	fxch   st(3)
 80501aa:	dd 5a c0             	fstp   QWORD PTR [edx-0x40]
 80501ad:	dd 42 68             	fld    QWORD PTR [edx+0x68]
 80501b0:	dd 42 18             	fld    QWORD PTR [edx+0x18]
 80501b3:	dc c1                	fadd   st(1),st
 80501b5:	dc 62 68             	fsub   QWORD PTR [edx+0x68]
 80501b8:	d9 cb                	fxch   st(3)
 80501ba:	dd 5a 10             	fstp   QWORD PTR [edx+0x10]
 80501bd:	d9 c9                	fxch   st(1)
 80501bf:	dd 5a 60             	fstp   QWORD PTR [edx+0x60]
 80501c2:	dd 42 d0             	fld    QWORD PTR [edx-0x30]
 80501c5:	dd 44 24 30          	fld    QWORD PTR [esp+0x30]
 80501c9:	dc c1                	fadd   st(1),st
 80501cb:	dc 62 d0             	fsub   QWORD PTR [edx-0x30]
 80501ce:	d9 cc                	fxch   st(4)
 80501d0:	dd 5c 24 28          	fstp   QWORD PTR [esp+0x28]
 80501d4:	d9 cc                	fxch   st(4)
 80501d6:	dd 5a c8             	fstp   QWORD PTR [edx-0x38]
 80501d9:	dd 42 70             	fld    QWORD PTR [edx+0x70]
 80501dc:	dd 42 20             	fld    QWORD PTR [edx+0x20]
 80501df:	dc c1                	fadd   st(1),st
 80501e1:	dc 62 70             	fsub   QWORD PTR [edx+0x70]
 80501e4:	d9 ca                	fxch   st(2)
 80501e6:	dd 5a 18             	fstp   QWORD PTR [edx+0x18]
 80501e9:	d9 ca                	fxch   st(2)
 80501eb:	dd 5a 68             	fstp   QWORD PTR [edx+0x68]
 80501ee:	dd 42 d8             	fld    QWORD PTR [edx-0x28]
 80501f1:	dd 42 88             	fld    QWORD PTR [edx-0x78]
 80501f4:	dc c1                	fadd   st(1),st
 80501f6:	dc 62 d8             	fsub   QWORD PTR [edx-0x28]
 80501f9:	d9 cd                	fxch   st(5)
 80501fb:	dd 5c 24 30          	fstp   QWORD PTR [esp+0x30]
 80501ff:	d9 cb                	fxch   st(3)
 8050201:	dd 5a d0             	fstp   QWORD PTR [edx-0x30]
 8050204:	dd 42 78             	fld    QWORD PTR [edx+0x78]
 8050207:	dd 42 28             	fld    QWORD PTR [edx+0x28]
 805020a:	dc c1                	fadd   st(1),st
 805020c:	dc 62 78             	fsub   QWORD PTR [edx+0x78]
 805020f:	d9 cb                	fxch   st(3)
 8050211:	dd 5a 20             	fstp   QWORD PTR [edx+0x20]
 8050214:	d9 c9                	fxch   st(1)
 8050216:	dd 5a 70             	fstp   QWORD PTR [edx+0x70]
 8050219:	dd 42 e0             	fld    QWORD PTR [edx-0x20]
 805021c:	dd 42 90             	fld    QWORD PTR [edx-0x70]
 805021f:	dc c1                	fadd   st(1),st
 8050221:	dc 62 e0             	fsub   QWORD PTR [edx-0x20]
 8050224:	d9 cc                	fxch   st(4)
 8050226:	dd 5a 88             	fstp   QWORD PTR [edx-0x78]
 8050229:	d9 cc                	fxch   st(4)
 805022b:	dd 5a d8             	fstp   QWORD PTR [edx-0x28]
 805022e:	dd 41 80             	fld    QWORD PTR [ecx-0x80]
 8050231:	dd 42 30             	fld    QWORD PTR [edx+0x30]
 8050234:	dc c1                	fadd   st(1),st
 8050236:	dc 61 80             	fsub   QWORD PTR [ecx-0x80]
 8050239:	d9 ca                	fxch   st(2)
 805023b:	dd 5a 28             	fstp   QWORD PTR [edx+0x28]
 805023e:	d9 ca                	fxch   st(2)
 8050240:	dd 5a 78             	fstp   QWORD PTR [edx+0x78]
 8050243:	dd 42 e8             	fld    QWORD PTR [edx-0x18]
 8050246:	dd 42 98             	fld    QWORD PTR [edx-0x68]
 8050249:	dc c1                	fadd   st(1),st
 805024b:	dc 62 e8             	fsub   QWORD PTR [edx-0x18]
 805024e:	d9 cd                	fxch   st(5)
 8050250:	dd 5a 90             	fstp   QWORD PTR [edx-0x70]
 8050253:	d9 cb                	fxch   st(3)
 8050255:	dd 5a e0             	fstp   QWORD PTR [edx-0x20]
 8050258:	dd 41 88             	fld    QWORD PTR [ecx-0x78]
 805025b:	dd 42 38             	fld    QWORD PTR [edx+0x38]
 805025e:	dc c1                	fadd   st(1),st
 8050260:	dc 61 88             	fsub   QWORD PTR [ecx-0x78]
 8050263:	d9 cb                	fxch   st(3)
 8050265:	dd 5a 30             	fstp   QWORD PTR [edx+0x30]
 8050268:	d9 c9                	fxch   st(1)
 805026a:	dd 59 80             	fstp   QWORD PTR [ecx-0x80]
 805026d:	dd 41 90             	fld    QWORD PTR [ecx-0x70]
 8050270:	dc 25 10 3a 05 08    	fsub   QWORD PTR ds:0x8053a10
 8050276:	dd 05 b0 3a 05 08    	fld    QWORD PTR ds:0x8053ab0
 805027c:	d8 e1                	fsub   st,st(1)
 805027e:	d9 cc                	fxch   st(4)
 8050280:	dd 5a 98             	fstp   QWORD PTR [edx-0x68]
 8050283:	d9 cc                	fxch   st(4)
 8050285:	dd 5a e8             	fstp   QWORD PTR [edx-0x18]
 8050288:	dd 5a 38             	fstp   QWORD PTR [edx+0x38]
 805028b:	dd 59 88             	fstp   QWORD PTR [ecx-0x78]
 805028e:	d9 c9                	fxch   st(1)
 8050290:	dd 91 88 00 00 00    	fst    QWORD PTR [ecx+0x88]
 8050296:	dd 04 24             	fld    QWORD PTR [esp]
 8050299:	d8 ca                	fmul   st,st(2)
 805029b:	dd 42 f0             	fld    QWORD PTR [edx-0x10]
 805029e:	d8 ca                	fmul   st,st(2)
 80502a0:	de c1                	faddp  st(1),st
 80502a2:	dd 44 24 08          	fld    QWORD PTR [esp+0x8]
 80502a6:	d8 cb                	fmul   st,st(3)
 80502a8:	dd 42 f8             	fld    QWORD PTR [edx-0x8]
 80502ab:	d8 cb                	fmul   st,st(3)
 80502ad:	de c1                	faddp  st(1),st
 80502af:	dd 44 24 10          	fld    QWORD PTR [esp+0x10]
 80502b3:	d8 cc                	fmul   st,st(4)
 80502b5:	dd 02                	fld    QWORD PTR [edx]
 80502b7:	d8 cc                	fmul   st,st(4)
 80502b9:	de c1                	faddp  st(1),st
 80502bb:	dd 44 24 18          	fld    QWORD PTR [esp+0x18]
 80502bf:	d8 cd                	fmul   st,st(5)
 80502c1:	dd 42 08             	fld    QWORD PTR [edx+0x8]
 80502c4:	d8 cd                	fmul   st,st(5)
 80502c6:	de c1                	faddp  st(1),st
 80502c8:	d9 cb                	fxch   st(3)
 80502ca:	dd 59 90             	fstp   QWORD PTR [ecx-0x70]
 80502cd:	dd 44 24 20          	fld    QWORD PTR [esp+0x20]
 80502d1:	d8 cd                	fmul   st,st(5)
 80502d3:	dd 42 10             	fld    QWORD PTR [edx+0x10]
 80502d6:	d8 cd                	fmul   st,st(5)
 80502d8:	de c1                	faddp  st(1),st
 80502da:	d9 ca                	fxch   st(2)
 80502dc:	dd 59 98             	fstp   QWORD PTR [ecx-0x68]
 80502df:	dd 44 24 28          	fld    QWORD PTR [esp+0x28]
 80502e3:	d8 cd                	fmul   st,st(5)
 80502e5:	dd 42 18             	fld    QWORD PTR [edx+0x18]
 80502e8:	d8 cd                	fmul   st,st(5)
 80502ea:	de c1                	faddp  st(1),st
 80502ec:	d9 c9                	fxch   st(1)
 80502ee:	dd 59 a0             	fstp   QWORD PTR [ecx-0x60]
 80502f1:	dd 44 24 30          	fld    QWORD PTR [esp+0x30]
 80502f5:	d8 cd                	fmul   st,st(5)
 80502f7:	dd 42 20             	fld    QWORD PTR [edx+0x20]
 80502fa:	d8 cd                	fmul   st,st(5)
 80502fc:	de c1                	faddp  st(1),st
 80502fe:	d9 cb                	fxch   st(3)
 8050300:	dd 59 a8             	fstp   QWORD PTR [ecx-0x58]
 8050303:	dd 42 88             	fld    QWORD PTR [edx-0x78]
 8050306:	d8 cd                	fmul   st,st(5)
 8050308:	dd 42 28             	fld    QWORD PTR [edx+0x28]
 805030b:	d8 cd                	fmul   st,st(5)
 805030d:	de c1                	faddp  st(1),st
 805030f:	d9 ca                	fxch   st(2)
 8050311:	dd 59 b0             	fstp   QWORD PTR [ecx-0x50]
 8050314:	dd 42 90             	fld    QWORD PTR [edx-0x70]
 8050317:	d8 cd                	fmul   st,st(5)
 8050319:	dd 42 30             	fld    QWORD PTR [edx+0x30]
 805031c:	d8 cd                	fmul   st,st(5)
 805031e:	de c1                	faddp  st(1),st
 8050320:	d9 c9                	fxch   st(1)
 8050322:	dd 59 b8             	fstp   QWORD PTR [ecx-0x48]
 8050325:	dd 42 98             	fld    QWORD PTR [edx-0x68]
 8050328:	d8 cd                	fmul   st,st(5)
 805032a:	dd 42 38             	fld    QWORD PTR [edx+0x38]
 805032d:	d8 cd                	fmul   st,st(5)
 805032f:	de c1                	faddp  st(1),st
 8050331:	d9 cb                	fxch   st(3)
 8050333:	dd 59 c0             	fstp   QWORD PTR [ecx-0x40]
 8050336:	dd 42 a0             	fld    QWORD PTR [edx-0x60]
 8050339:	d8 cd                	fmul   st,st(5)
 805033b:	dd 42 40             	fld    QWORD PTR [edx+0x40]
 805033e:	d8 cd                	fmul   st,st(5)
 8050340:	de c1                	faddp  st(1),st
 8050342:	d9 ca                	fxch   st(2)
 8050344:	dd 59 c8             	fstp   QWORD PTR [ecx-0x38]
 8050347:	dd 42 a8             	fld    QWORD PTR [edx-0x58]
 805034a:	d8 cd                	fmul   st,st(5)
 805034c:	dd 42 48             	fld    QWORD PTR [edx+0x48]
 805034f:	d8 cd                	fmul   st,st(5)
 8050351:	de c1                	faddp  st(1),st
 8050353:	d9 c9                	fxch   st(1)
 8050355:	dd 59 d0             	fstp   QWORD PTR [ecx-0x30]
 8050358:	dd 42 b0             	fld    QWORD PTR [edx-0x50]
 805035b:	d8 cd                	fmul   st,st(5)
 805035d:	dd 42 50             	fld    QWORD PTR [edx+0x50]
 8050360:	d8 cd                	fmul   st,st(5)
 8050362:	de c1                	faddp  st(1),st
 8050364:	d9 cb                	fxch   st(3)
 8050366:	dd 59 d8             	fstp   QWORD PTR [ecx-0x28]
 8050369:	dd 42 b8             	fld    QWORD PTR [edx-0x48]
 805036c:	d8 cd                	fmul   st,st(5)
 805036e:	dd 42 58             	fld    QWORD PTR [edx+0x58]
 8050371:	d8 cd                	fmul   st,st(5)
 8050373:	de c1                	faddp  st(1),st
 8050375:	d9 ca                	fxch   st(2)
 8050377:	dd 59 e0             	fstp   QWORD PTR [ecx-0x20]
 805037a:	dd 42 c0             	fld    QWORD PTR [edx-0x40]
 805037d:	d8 cd                	fmul   st,st(5)
 805037f:	dd 42 60             	fld    QWORD PTR [edx+0x60]
 8050382:	d8 cd                	fmul   st,st(5)
 8050384:	de c1                	faddp  st(1),st
 8050386:	d9 c9                	fxch   st(1)
 8050388:	dd 59 e8             	fstp   QWORD PTR [ecx-0x18]
 805038b:	dd 42 c8             	fld    QWORD PTR [edx-0x38]
 805038e:	d8 cd                	fmul   st,st(5)
 8050390:	dd 42 68             	fld    QWORD PTR [edx+0x68]
 8050393:	d8 cd                	fmul   st,st(5)
 8050395:	de c1                	faddp  st(1),st
 8050397:	d9 cb                	fxch   st(3)
 8050399:	dd 59 f0             	fstp   QWORD PTR [ecx-0x10]
 805039c:	dd 42 d0             	fld    QWORD PTR [edx-0x30]
 805039f:	d8 cd                	fmul   st,st(5)
 80503a1:	dd 42 70             	fld    QWORD PTR [edx+0x70]
 80503a4:	d8 cd                	fmul   st,st(5)
 80503a6:	de c1                	faddp  st(1),st
 80503a8:	d9 ca                	fxch   st(2)
 80503aa:	dd 59 f8             	fstp   QWORD PTR [ecx-0x8]
 80503ad:	dd 42 d8             	fld    QWORD PTR [edx-0x28]
 80503b0:	d8 cd                	fmul   st,st(5)
 80503b2:	dd 42 78             	fld    QWORD PTR [edx+0x78]
 80503b5:	d8 cd                	fmul   st,st(5)
 80503b7:	de c1                	faddp  st(1),st
 80503b9:	d9 c9                	fxch   st(1)
 80503bb:	dd 19                	fstp   QWORD PTR [ecx]
 80503bd:	dd 42 e0             	fld    QWORD PTR [edx-0x20]
 80503c0:	d8 cd                	fmul   st,st(5)
 80503c2:	dd 41 80             	fld    QWORD PTR [ecx-0x80]
 80503c5:	d8 cd                	fmul   st,st(5)
 80503c7:	de c1                	faddp  st(1),st
 80503c9:	d9 cb                	fxch   st(3)
 80503cb:	dd 59 08             	fstp   QWORD PTR [ecx+0x8]
 80503ce:	dd 42 e8             	fld    QWORD PTR [edx-0x18]
 80503d1:	de cd                	fmulp  st(5),st
 80503d3:	dd 41 88             	fld    QWORD PTR [ecx-0x78]
 80503d6:	de cc                	fmulp  st(4),st
 80503d8:	d9 cb                	fxch   st(3)
 80503da:	de c4                	faddp  st(4),st
 80503dc:	dd 59 10             	fstp   QWORD PTR [ecx+0x10]
 80503df:	d9 c9                	fxch   st(1)
 80503e1:	dd 59 18             	fstp   QWORD PTR [ecx+0x18]
 80503e4:	dd 59 20             	fstp   QWORD PTR [ecx+0x20]
 80503e7:	dd 59 28             	fstp   QWORD PTR [ecx+0x28]
 80503ea:	dd 42 e8             	fld    QWORD PTR [edx-0x18]
 80503ed:	dc 4a 38             	fmul   QWORD PTR [edx+0x38]
 80503f0:	dc 0d 00 3a 05 08    	fmul   QWORD PTR ds:0x8053a00
 80503f6:	dd 42 a0             	fld    QWORD PTR [edx-0x60]
 80503f9:	dc 4a 30             	fmul   QWORD PTR [edx+0x30]
 80503fc:	de c1                	faddp  st(1),st
 80503fe:	dd 42 a8             	fld    QWORD PTR [edx-0x58]
 8050401:	dc 4a 28             	fmul   QWORD PTR [edx+0x28]
 8050404:	de c1                	faddp  st(1),st
 8050406:	dd 42 a0             	fld    QWORD PTR [edx-0x60]
 8050409:	dc 4a 38             	fmul   QWORD PTR [edx+0x38]
 805040c:	dd 42 b0             	fld    QWORD PTR [edx-0x50]
 805040f:	dc 4a 20             	fmul   QWORD PTR [edx+0x20]
 8050412:	de c2                	faddp  st(2),st
 8050414:	dd 42 a8             	fld    QWORD PTR [edx-0x58]
 8050417:	dc 4a 30             	fmul   QWORD PTR [edx+0x30]
 805041a:	de c1                	faddp  st(1),st
 805041c:	dd 42 b8             	fld    QWORD PTR [edx-0x48]
 805041f:	dc 4a 18             	fmul   QWORD PTR [edx+0x18]
 8050422:	de c2                	faddp  st(2),st
 8050424:	dd 42 b0             	fld    QWORD PTR [edx-0x50]
 8050427:	dc 4a 28             	fmul   QWORD PTR [edx+0x28]
 805042a:	de c1                	faddp  st(1),st
 805042c:	dd 42 c0             	fld    QWORD PTR [edx-0x40]
 805042f:	dc 4a 10             	fmul   QWORD PTR [edx+0x10]
 8050432:	de c2                	faddp  st(2),st
 8050434:	dd 42 b8             	fld    QWORD PTR [edx-0x48]
 8050437:	dc 4a 20             	fmul   QWORD PTR [edx+0x20]
 805043a:	de c1                	faddp  st(1),st
 805043c:	dd 42 a8             	fld    QWORD PTR [edx-0x58]
 805043f:	dc 4a 38             	fmul   QWORD PTR [edx+0x38]
 8050442:	dd 42 c8             	fld    QWORD PTR [edx-0x38]
 8050445:	dc 4a 08             	fmul   QWORD PTR [edx+0x8]
 8050448:	de c3                	faddp  st(3),st
 805044a:	dd 42 c0             	fld    QWORD PTR [edx-0x40]
 805044d:	dc 4a 18             	fmul   QWORD PTR [edx+0x18]
 8050450:	de c2                	faddp  st(2),st
 8050452:	dd 42 b0             	fld    QWORD PTR [edx-0x50]
 8050455:	dc 4a 30             	fmul   QWORD PTR [edx+0x30]
 8050458:	de c1                	faddp  st(1),st
 805045a:	dd 42 d0             	fld    QWORD PTR [edx-0x30]
 805045d:	dc 0a                	fmul   QWORD PTR [edx]
 805045f:	de c3                	faddp  st(3),st
 8050461:	dd 42 c8             	fld    QWORD PTR [edx-0x38]
 8050464:	dc 4a 10             	fmul   QWORD PTR [edx+0x10]
 8050467:	de c2                	faddp  st(2),st
 8050469:	dd 42 b8             	fld    QWORD PTR [edx-0x48]
 805046c:	dc 4a 28             	fmul   QWORD PTR [edx+0x28]
 805046f:	de c1                	faddp  st(1),st
 8050471:	dd 42 d8             	fld    QWORD PTR [edx-0x28]
 8050474:	dc 4a f8             	fmul   QWORD PTR [edx-0x8]
 8050477:	de c3                	faddp  st(3),st
 8050479:	dd 42 d0             	fld    QWORD PTR [edx-0x30]
 805047c:	dc 4a 08             	fmul   QWORD PTR [edx+0x8]
 805047f:	de c2                	faddp  st(2),st
 8050481:	dd 42 c0             	fld    QWORD PTR [edx-0x40]
 8050484:	dc 4a 20             	fmul   QWORD PTR [edx+0x20]
 8050487:	de c1                	faddp  st(1),st
 8050489:	dd 42 e0             	fld    QWORD PTR [edx-0x20]
 805048c:	dc 4a f0             	fmul   QWORD PTR [edx-0x10]
 805048f:	de c3                	faddp  st(3),st
 8050491:	dd 42 d8             	fld    QWORD PTR [edx-0x28]
 8050494:	dc 0a                	fmul   QWORD PTR [edx]
 8050496:	de c2                	faddp  st(2),st
 8050498:	dd 42 c8             	fld    QWORD PTR [edx-0x38]
 805049b:	dc 4a 18             	fmul   QWORD PTR [edx+0x18]
 805049e:	de c1                	faddp  st(1),st
 80504a0:	dd 42 b0             	fld    QWORD PTR [edx-0x50]
 80504a3:	dc 4a 38             	fmul   QWORD PTR [edx+0x38]
 80504a6:	dd 42 d0             	fld    QWORD PTR [edx-0x30]
 80504a9:	dc 4a 10             	fmul   QWORD PTR [edx+0x10]
 80504ac:	de c2                	faddp  st(2),st
 80504ae:	dd 42 e0             	fld    QWORD PTR [edx-0x20]
 80504b1:	dc 4a f8             	fmul   QWORD PTR [edx-0x8]
 80504b4:	de c3                	faddp  st(3),st
 80504b6:	dd 05 a0 3a 05 08    	fld    QWORD PTR ds:0x8053aa0
 80504bc:	d8 c4                	fadd   st,st(4)
 80504be:	dd 42 b8             	fld    QWORD PTR [edx-0x48]
 80504c1:	dc 4a 30             	fmul   QWORD PTR [edx+0x30]
 80504c4:	de c2                	faddp  st(2),st
 80504c6:	dd 42 d8             	fld    QWORD PTR [edx-0x28]
 80504c9:	dc 4a 08             	fmul   QWORD PTR [edx+0x8]
 80504cc:	de c3                	faddp  st(3),st
 80504ce:	dd 42 e8             	fld    QWORD PTR [edx-0x18]
 80504d1:	dc 4a f0             	fmul   QWORD PTR [edx-0x10]
 80504d4:	de c4                	faddp  st(4),st
 80504d6:	dc 25 a0 3a 05 08    	fsub   QWORD PTR ds:0x8053aa0
 80504dc:	dd 42 c0             	fld    QWORD PTR [edx-0x40]
 80504df:	dc 4a 28             	fmul   QWORD PTR [edx+0x28]
 80504e2:	de c2                	faddp  st(2),st
 80504e4:	dd 42 b8             	fld    QWORD PTR [edx-0x48]
 80504e7:	dc 4a 38             	fmul   QWORD PTR [edx+0x38]
 80504ea:	dd 42 e0             	fld    QWORD PTR [edx-0x20]
 80504ed:	dc 0a                	fmul   QWORD PTR [edx]
 80504ef:	de c4                	faddp  st(4),st
 80504f1:	d9 c9                	fxch   st(1)
 80504f3:	dc c4                	fadd   st(4),st
 80504f5:	dd 42 c8             	fld    QWORD PTR [edx-0x38]
 80504f8:	dc 4a 20             	fmul   QWORD PTR [edx+0x20]
 80504fb:	de c3                	faddp  st(3),st
 80504fd:	dd 42 c0             	fld    QWORD PTR [edx-0x40]
 8050500:	dc 4a 30             	fmul   QWORD PTR [edx+0x30]
 8050503:	de c2                	faddp  st(2),st
 8050505:	de ed                	fsubp  st(5),st
 8050507:	dd 05 a8 3a 05 08    	fld    QWORD PTR ds:0x8053aa8
 805050d:	d8 c4                	fadd   st,st(4)
 805050f:	dd 42 d0             	fld    QWORD PTR [edx-0x30]
 8050512:	dc 4a 18             	fmul   QWORD PTR [edx+0x18]
 8050515:	de c3                	faddp  st(3),st
 8050517:	dd 42 c8             	fld    QWORD PTR [edx-0x38]
 805051a:	dc 4a 28             	fmul   QWORD PTR [edx+0x28]
 805051d:	de c2                	faddp  st(2),st
 805051f:	dd 42 e8             	fld    QWORD PTR [edx-0x18]
 8050522:	dc 4a f8             	fmul   QWORD PTR [edx-0x8]
 8050525:	de c4                	faddp  st(4),st
 8050527:	dc 25 a8 3a 05 08    	fsub   QWORD PTR ds:0x8053aa8
 805052d:	dd 42 d8             	fld    QWORD PTR [edx-0x28]
 8050530:	dc 4a 10             	fmul   QWORD PTR [edx+0x10]
 8050533:	de c3                	faddp  st(3),st
 8050535:	dd 42 c0             	fld    QWORD PTR [edx-0x40]
 8050538:	dc 4a 38             	fmul   QWORD PTR [edx+0x38]
 805053b:	dd 42 d0             	fld    QWORD PTR [edx-0x30]
 805053e:	dc 4a 20             	fmul   QWORD PTR [edx+0x20]
 8050541:	de c3                	faddp  st(3),st
 8050543:	dd 42 e0             	fld    QWORD PTR [edx-0x20]
 8050546:	dc 4a 08             	fmul   QWORD PTR [edx+0x8]
 8050549:	de c4                	faddp  st(4),st
 805054b:	d9 c9                	fxch   st(1)
 805054d:	dc c4                	fadd   st(4),st
 805054f:	de ed                	fsubp  st(5),st
 8050551:	d9 cd                	fxch   st(5)
 8050553:	dd 59 40             	fstp   QWORD PTR [ecx+0x40]
 8050556:	dd 42 c8             	fld    QWORD PTR [edx-0x38]
 8050559:	dc 4a 30             	fmul   QWORD PTR [edx+0x30]
 805055c:	de c5                	faddp  st(5),st
 805055e:	dd 42 d8             	fld    QWORD PTR [edx-0x28]
 8050561:	dc 4a 18             	fmul   QWORD PTR [edx+0x18]
 8050564:	de c1                	faddp  st(1),st
 8050566:	dd 42 e8             	fld    QWORD PTR [edx-0x18]
 8050569:	dc 0a                	fmul   QWORD PTR [edx]
 805056b:	de c2                	faddp  st(2),st
 805056d:	d9 ca                	fxch   st(2)
 805056f:	dc 0d 00 3a 05 08    	fmul   QWORD PTR ds:0x8053a00
 8050575:	dd 42 d0             	fld    QWORD PTR [edx-0x30]
 8050578:	dc 4a 28             	fmul   QWORD PTR [edx+0x28]
 805057b:	de c5                	faddp  st(5),st
 805057d:	dd 42 e0             	fld    QWORD PTR [edx-0x20]
 8050580:	dc 4a 10             	fmul   QWORD PTR [edx+0x10]
 8050583:	de c3                	faddp  st(3),st
 8050585:	d9 c9                	fxch   st(1)
 8050587:	dc 0d 00 3a 05 08    	fmul   QWORD PTR ds:0x8053a00
 805058d:	dd 42 a0             	fld    QWORD PTR [edx-0x60]
 8050590:	dc 4a f0             	fmul   QWORD PTR [edx-0x10]
 8050593:	de c2                	faddp  st(2),st
 8050595:	d9 cb                	fxch   st(3)
 8050597:	dd 59 48             	fstp   QWORD PTR [ecx+0x48]
 805059a:	dd 42 c8             	fld    QWORD PTR [edx-0x38]
 805059d:	dc 4a 38             	fmul   QWORD PTR [edx+0x38]
 80505a0:	dd 42 d8             	fld    QWORD PTR [edx-0x28]
 80505a3:	dc 4a 20             	fmul   QWORD PTR [edx+0x20]
 80505a6:	de c5                	faddp  st(5),st
 80505a8:	dd 42 e8             	fld    QWORD PTR [edx-0x18]
 80505ab:	dc 4a 08             	fmul   QWORD PTR [edx+0x8]
 80505ae:	de c3                	faddp  st(3),st
 80505b0:	dd 42 a0             	fld    QWORD PTR [edx-0x60]
 80505b3:	dc 4a f8             	fmul   QWORD PTR [edx-0x8]
 80505b6:	de c4                	faddp  st(4),st
 80505b8:	dd 05 60 3a 05 08    	fld    QWORD PTR ds:0x8053a60
 80505be:	d8 c2                	fadd   st,st(2)
 80505c0:	dd 42 d0             	fld    QWORD PTR [edx-0x30]
 80505c3:	dc 4a 30             	fmul   QWORD PTR [edx+0x30]
 80505c6:	de c2                	faddp  st(2),st
 80505c8:	dd 42 e0             	fld    QWORD PTR [edx-0x20]
 80505cb:	dc 4a 18             	fmul   QWORD PTR [edx+0x18]
 80505ce:	de c6                	faddp  st(6),st
 80505d0:	d9 cb                	fxch   st(3)
 80505d2:	dc 0d 00 3a 05 08    	fmul   QWORD PTR ds:0x8053a00
 80505d8:	dd 42 a8             	fld    QWORD PTR [edx-0x58]
 80505db:	dc 4a f0             	fmul   QWORD PTR [edx-0x10]
 80505de:	de c5                	faddp  st(5),st
 80505e0:	d9 cb                	fxch   st(3)
 80505e2:	dc 25 60 3a 05 08    	fsub   QWORD PTR ds:0x8053a60
 80505e8:	dd 42 d8             	fld    QWORD PTR [edx-0x28]
 80505eb:	dc 4a 28             	fmul   QWORD PTR [edx+0x28]
 80505ee:	de c2                	faddp  st(2),st
 80505f0:	dd 42 e8             	fld    QWORD PTR [edx-0x18]
 80505f3:	dc 4a 10             	fmul   QWORD PTR [edx+0x10]
 80505f6:	de c6                	faddp  st(6),st
 80505f8:	dd 42 a0             	fld    QWORD PTR [edx-0x60]
 80505fb:	dc 0a                	fmul   QWORD PTR [edx]
 80505fd:	de c4                	faddp  st(4),st
 80505ff:	dc c4                	fadd   st(4),st
 8050601:	de ea                	fsubp  st(2),st
 8050603:	dd 42 d0             	fld    QWORD PTR [edx-0x30]
 8050606:	dc 4a 38             	fmul   QWORD PTR [edx+0x38]
 8050609:	dd 42 e0             	fld    QWORD PTR [edx-0x20]
 805060c:	dc 4a 20             	fmul   QWORD PTR [edx+0x20]
 805060f:	de c2                	faddp  st(2),st
 8050611:	d9 cd                	fxch   st(5)
 8050613:	dc 0d 00 3a 05 08    	fmul   QWORD PTR ds:0x8053a00
 8050619:	dd 42 a8             	fld    QWORD PTR [edx-0x58]
 805061c:	dc 4a f8             	fmul   QWORD PTR [edx-0x8]
 805061f:	de c4                	faddp  st(4),st
 8050621:	dd 05 68 3a 05 08    	fld    QWORD PTR ds:0x8053a68
 8050627:	d8 c5                	fadd   st,st(5)
 8050629:	dd 42 d8             	fld    QWORD PTR [edx-0x28]
 805062c:	dc 4a 30             	fmul   QWORD PTR [edx+0x30]
 805062f:	de c7                	faddp  st(7),st
 8050631:	dd 42 e8             	fld    QWORD PTR [edx-0x18]
 8050634:	dc 4a 18             	fmul   QWORD PTR [edx+0x18]
 8050637:	de c3                	faddp  st(3),st
 8050639:	dd 42 a0             	fld    QWORD PTR [edx-0x60]
 805063c:	dc 4a 08             	fmul   QWORD PTR [edx+0x8]
 805063f:	de c2                	faddp  st(2),st
 8050641:	dd 42 b0             	fld    QWORD PTR [edx-0x50]
 8050644:	dc 4a f0             	fmul   QWORD PTR [edx-0x10]
 8050647:	de c5                	faddp  st(5),st
 8050649:	dc 25 68 3a 05 08    	fsub   QWORD PTR ds:0x8053a68
 805064f:	d9 cb                	fxch   st(3)
 8050651:	dd 59 30             	fstp   QWORD PTR [ecx+0x30]
 8050654:	dd 42 e0             	fld    QWORD PTR [edx-0x20]
 8050657:	dc 4a 28             	fmul   QWORD PTR [edx+0x28]
 805065a:	de c6                	faddp  st(6),st
 805065c:	d9 c9                	fxch   st(1)
 805065e:	dc 0d 00 3a 05 08    	fmul   QWORD PTR ds:0x8053a00
 8050664:	dd 42 a8             	fld    QWORD PTR [edx-0x58]
 8050667:	dc 0a                	fmul   QWORD PTR [edx]
 8050669:	de c2                	faddp  st(2),st
 805066b:	d9 ca                	fxch   st(2)
 805066d:	dc c3                	fadd   st(3),st
 805066f:	de ec                	fsubp  st(4),st
 8050671:	dd 42 d8             	fld    QWORD PTR [edx-0x28]
 8050674:	dc 4a 38             	fmul   QWORD PTR [edx+0x38]
 8050677:	dd 42 e8             	fld    QWORD PTR [edx-0x18]
 805067a:	dc 4a 20             	fmul   QWORD PTR [edx+0x20]
 805067d:	de c6                	faddp  st(6),st
 805067f:	dd 42 a0             	fld    QWORD PTR [edx-0x60]
 8050682:	dc 4a 10             	fmul   QWORD PTR [edx+0x10]
 8050685:	de c3                	faddp  st(3),st
 8050687:	dd 42 b0             	fld    QWORD PTR [edx-0x50]
 805068a:	dc 4a f8             	fmul   QWORD PTR [edx-0x8]
 805068d:	de c2                	faddp  st(2),st
 805068f:	dd 05 70 3a 05 08    	fld    QWORD PTR ds:0x8053a70
 8050695:	d8 c4                	fadd   st,st(4)
 8050697:	dd 42 e0             	fld    QWORD PTR [edx-0x20]
 805069a:	dc 4a 30             	fmul   QWORD PTR [edx+0x30]
 805069d:	de c2                	faddp  st(2),st
 805069f:	d9 ce                	fxch   st(6)
 80506a1:	dc 0d 00 3a 05 08    	fmul   QWORD PTR ds:0x8053a00
 80506a7:	dd 42 a8             	fld    QWORD PTR [edx-0x58]
 80506aa:	dc 4a 08             	fmul   QWORD PTR [edx+0x8]
 80506ad:	de c4                	faddp  st(4),st
 80506af:	dd 42 b8             	fld    QWORD PTR [edx-0x48]
 80506b2:	dc 4a f0             	fmul   QWORD PTR [edx-0x10]
 80506b5:	de c3                	faddp  st(3),st
 80506b7:	d9 ce                	fxch   st(6)
 80506b9:	dc 25 70 3a 05 08    	fsub   QWORD PTR ds:0x8053a70
 80506bf:	d9 cd                	fxch   st(5)
 80506c1:	dd 59 38             	fstp   QWORD PTR [ecx+0x38]
 80506c4:	dd 42 e8             	fld    QWORD PTR [edx-0x18]
 80506c7:	dc 4a 28             	fmul   QWORD PTR [edx+0x28]
 80506ca:	de c1                	faddp  st(1),st
 80506cc:	dd 42 a0             	fld    QWORD PTR [edx-0x60]
 80506cf:	dc 4a 18             	fmul   QWORD PTR [edx+0x18]
 80506d2:	de c6                	faddp  st(6),st
 80506d4:	dd 42 b0             	fld    QWORD PTR [edx-0x50]
 80506d7:	dc 0a                	fmul   QWORD PTR [edx]
 80506d9:	de c3                	faddp  st(3),st
 80506db:	d9 cc                	fxch   st(4)
 80506dd:	dc c1                	fadd   st(1),st
 80506df:	de eb                	fsubp  st(3),st
 80506e1:	dd 42 e0             	fld    QWORD PTR [edx-0x20]
 80506e4:	dc 4a 38             	fmul   QWORD PTR [edx+0x38]
 80506e7:	d9 cc                	fxch   st(4)
 80506e9:	dc 0d 00 3a 05 08    	fmul   QWORD PTR ds:0x8053a00
 80506ef:	dd 42 a8             	fld    QWORD PTR [edx-0x58]
 80506f2:	dc 4a 10             	fmul   QWORD PTR [edx+0x10]
 80506f5:	de c6                	faddp  st(6),st
 80506f7:	dd 42 b8             	fld    QWORD PTR [edx-0x48]
 80506fa:	dc 4a f8             	fmul   QWORD PTR [edx-0x8]
 80506fd:	de c3                	faddp  st(3),st
 80506ff:	dd 05 78 3a 05 08    	fld    QWORD PTR ds:0x8053a78
 8050705:	d8 c2                	fadd   st,st(2)
 8050707:	dd 42 e8             	fld    QWORD PTR [edx-0x18]
 805070a:	dc 4a 30             	fmul   QWORD PTR [edx+0x30]
 805070d:	de c6                	faddp  st(6),st
 805070f:	dd 42 a0             	fld    QWORD PTR [edx-0x60]
 8050712:	dc 4a 20             	fmul   QWORD PTR [edx+0x20]
 8050715:	de c2                	faddp  st(2),st
 8050717:	dd 42 b0             	fld    QWORD PTR [edx-0x50]
 805071a:	dc 4a 08             	fmul   QWORD PTR [edx+0x8]
 805071d:	de c7                	faddp  st(7),st
 805071f:	dd 42 c0             	fld    QWORD PTR [edx-0x40]
 8050722:	dc 4a f0             	fmul   QWORD PTR [edx-0x10]
 8050725:	de c4                	faddp  st(4),st
 8050727:	dc 25 78 3a 05 08    	fsub   QWORD PTR ds:0x8053a78
 805072d:	d9 cc                	fxch   st(4)
 805072f:	dd 5a e8             	fstp   QWORD PTR [edx-0x18]
 8050732:	d9 cc                	fxch   st(4)
 8050734:	dc 0d 00 3a 05 08    	fmul   QWORD PTR ds:0x8053a00
 805073a:	dd 42 a8             	fld    QWORD PTR [edx-0x58]
 805073d:	dc 4a 18             	fmul   QWORD PTR [edx+0x18]
 8050740:	de c5                	faddp  st(5),st
 8050742:	dd 42 b8             	fld    QWORD PTR [edx-0x48]
 8050745:	dc 0a                	fmul   QWORD PTR [edx]
 8050747:	de c6                	faddp  st(6),st
 8050749:	d9 cb                	fxch   st(3)
 805074b:	dc c2                	fadd   st(2),st
 805074d:	de e9                	fsubp  st(1),st
 805074f:	dd 42 a0             	fld    QWORD PTR [edx-0x60]
 8050752:	dc 4a 28             	fmul   QWORD PTR [edx+0x28]
 8050755:	de c3                	faddp  st(3),st
 8050757:	dd 42 b0             	fld    QWORD PTR [edx-0x50]
 805075a:	dc 4a 10             	fmul   QWORD PTR [edx+0x10]
 805075d:	de c4                	faddp  st(4),st
 805075f:	dd 42 c0             	fld    QWORD PTR [edx-0x40]
 8050762:	dc 4a f8             	fmul   QWORD PTR [edx-0x8]
 8050765:	de c5                	faddp  st(5),st
 8050767:	dd 05 80 3a 05 08    	fld    QWORD PTR ds:0x8053a80
 805076d:	d8 c2                	fadd   st,st(2)
 805076f:	dd 42 a8             	fld    QWORD PTR [edx-0x58]
 8050772:	dc 4a 20             	fmul   QWORD PTR [edx+0x20]
 8050775:	de c4                	faddp  st(4),st
 8050777:	dd 42 b8             	fld    QWORD PTR [edx-0x48]
 805077a:	dc 4a 08             	fmul   QWORD PTR [edx+0x8]
 805077d:	de c5                	faddp  st(5),st
 805077f:	dd 42 c8             	fld    QWORD PTR [edx-0x38]
 8050782:	dc 4a f0             	fmul   QWORD PTR [edx-0x10]
 8050785:	de c6                	faddp  st(6),st
 8050787:	dc 25 80 3a 05 08    	fsub   QWORD PTR ds:0x8053a80
 805078d:	d9 c9                	fxch   st(1)
 805078f:	dd 5a a0             	fstp   QWORD PTR [edx-0x60]
 8050792:	dd 42 b0             	fld    QWORD PTR [edx-0x50]
 8050795:	dc 4a 18             	fmul   QWORD PTR [edx+0x18]
 8050798:	de c3                	faddp  st(3),st
 805079a:	dd 42 c0             	fld    QWORD PTR [edx-0x40]
 805079d:	dc 0a                	fmul   QWORD PTR [edx]
 805079f:	de c4                	faddp  st(4),st
 80507a1:	dc c4                	fadd   st(4),st
 80507a3:	de e9                	fsubp  st(1),st
 80507a5:	dd 5a a8             	fstp   QWORD PTR [edx-0x58]
 80507a8:	dd 42 b8             	fld    QWORD PTR [edx-0x48]
 80507ab:	dc 4a 10             	fmul   QWORD PTR [edx+0x10]
 80507ae:	de c1                	faddp  st(1),st
 80507b0:	dd 42 c8             	fld    QWORD PTR [edx-0x38]
 80507b3:	dc 4a f8             	fmul   QWORD PTR [edx-0x8]
 80507b6:	de c2                	faddp  st(2),st
 80507b8:	dd 05 88 3a 05 08    	fld    QWORD PTR ds:0x8053a88
 80507be:	d8 c3                	fadd   st,st(3)
 80507c0:	dd 42 c0             	fld    QWORD PTR [edx-0x40]
 80507c3:	dc 4a 08             	fmul   QWORD PTR [edx+0x8]
 80507c6:	de c2                	faddp  st(2),st
 80507c8:	dd 42 d0             	fld    QWORD PTR [edx-0x30]
 80507cb:	dc 4a f0             	fmul   QWORD PTR [edx-0x10]
 80507ce:	de c3                	faddp  st(3),st
 80507d0:	dc 25 88 3a 05 08    	fsub   QWORD PTR ds:0x8053a88
 80507d6:	dd 42 c8             	fld    QWORD PTR [edx-0x38]
 80507d9:	dc 0a                	fmul   QWORD PTR [edx]
 80507db:	de c2                	faddp  st(2),st
 80507dd:	dc c2                	fadd   st(2),st
 80507df:	de eb                	fsubp  st(3),st
 80507e1:	d9 ca                	fxch   st(2)
 80507e3:	dd 5a b0             	fstp   QWORD PTR [edx-0x50]
 80507e6:	dd 42 d0             	fld    QWORD PTR [edx-0x30]
 80507e9:	dc 4a f8             	fmul   QWORD PTR [edx-0x8]
 80507ec:	de c2                	faddp  st(2),st
 80507ee:	dd 05 90 3a 05 08    	fld    QWORD PTR ds:0x8053a90
 80507f4:	d8 c1                	fadd   st,st(1)
 80507f6:	dd 42 d8             	fld    QWORD PTR [edx-0x28]
 80507f9:	dc 4a f0             	fmul   QWORD PTR [edx-0x10]
 80507fc:	de c3                	faddp  st(3),st
 80507fe:	dc 25 90 3a 05 08    	fsub   QWORD PTR ds:0x8053a90
 8050804:	dd 41 40             	fld    QWORD PTR [ecx+0x40]
 8050807:	dd 41 48             	fld    QWORD PTR [ecx+0x48]
 805080a:	d9 ca                	fxch   st(2)
 805080c:	dc c4                	fadd   st(4),st
 805080e:	de eb                	fsubp  st(3),st
 8050810:	dd 05 98 3a 05 08    	fld    QWORD PTR ds:0x8053a98
 8050816:	d8 c4                	fadd   st,st(4)
 8050818:	dc 25 98 3a 05 08    	fsub   QWORD PTR ds:0x8053a98
 805081e:	dc c1                	fadd   st(1),st
 8050820:	de ec                	fsubp  st(4),st
 8050822:	dd 05 a0 3a 05 08    	fld    QWORD PTR ds:0x8053aa0
 8050828:	d8 c1                	fadd   st,st(1)
 805082a:	dc 25 a0 3a 05 08    	fsub   QWORD PTR ds:0x8053aa0
 8050830:	dc e9                	fsub   st(1),st
 8050832:	de c2                	faddp  st(2),st
 8050834:	d9 ca                	fxch   st(2)
 8050836:	dd 5a b8             	fstp   QWORD PTR [edx-0x48]
 8050839:	d9 ca                	fxch   st(2)
 805083b:	dd 5a c0             	fstp   QWORD PTR [edx-0x40]
 805083e:	dd 5a c8             	fstp   QWORD PTR [edx-0x38]
 8050841:	dd 5a d0             	fstp   QWORD PTR [edx-0x30]
 8050844:	dd 42 98             	fld    QWORD PTR [edx-0x68]
 8050847:	dc 49 88             	fmul   QWORD PTR [ecx-0x78]
 805084a:	dc 0d 00 3a 05 08    	fmul   QWORD PTR ds:0x8053a00
 8050850:	dd 04 24             	fld    QWORD PTR [esp]
 8050853:	dc 49 80             	fmul   QWORD PTR [ecx-0x80]
 8050856:	de c1                	faddp  st(1),st
 8050858:	dd 44 24 08          	fld    QWORD PTR [esp+0x8]
 805085c:	dc 4a 78             	fmul   QWORD PTR [edx+0x78]
 805085f:	de c1                	faddp  st(1),st
 8050861:	dd 04 24             	fld    QWORD PTR [esp]
 8050864:	dc 49 88             	fmul   QWORD PTR [ecx-0x78]
 8050867:	dd 44 24 10          	fld    QWORD PTR [esp+0x10]
 805086b:	dc 4a 70             	fmul   QWORD PTR [edx+0x70]
 805086e:	de c2                	faddp  st(2),st
 8050870:	dd 44 24 08          	fld    QWORD PTR [esp+0x8]
 8050874:	dc 49 80             	fmul   QWORD PTR [ecx-0x80]
 8050877:	de c1                	faddp  st(1),st
 8050879:	dd 44 24 18          	fld    QWORD PTR [esp+0x18]
 805087d:	dc 4a 68             	fmul   QWORD PTR [edx+0x68]
 8050880:	de c2                	faddp  st(2),st
 8050882:	dd 44 24 10          	fld    QWORD PTR [esp+0x10]
 8050886:	dc 4a 78             	fmul   QWORD PTR [edx+0x78]
 8050889:	de c1                	faddp  st(1),st
 805088b:	dd 44 24 20          	fld    QWORD PTR [esp+0x20]
 805088f:	dc 4a 60             	fmul   QWORD PTR [edx+0x60]
 8050892:	de c2                	faddp  st(2),st
 8050894:	dd 44 24 18          	fld    QWORD PTR [esp+0x18]
 8050898:	dc 4a 70             	fmul   QWORD PTR [edx+0x70]
 805089b:	de c1                	faddp  st(1),st
 805089d:	dd 44 24 08          	fld    QWORD PTR [esp+0x8]
 80508a1:	dc 49 88             	fmul   QWORD PTR [ecx-0x78]
 80508a4:	dd 44 24 28          	fld    QWORD PTR [esp+0x28]
 80508a8:	dc 4a 58             	fmul   QWORD PTR [edx+0x58]
 80508ab:	de c3                	faddp  st(3),st
 80508ad:	dd 44 24 20          	fld    QWORD PTR [esp+0x20]
 80508b1:	dc 4a 68             	fmul   QWORD PTR [edx+0x68]
 80508b4:	de c2                	faddp  st(2),st
 80508b6:	dd 44 24 10          	fld    QWORD PTR [esp+0x10]
 80508ba:	dc 49 80             	fmul   QWORD PTR [ecx-0x80]
 80508bd:	de c1                	faddp  st(1),st
 80508bf:	dd 44 24 30          	fld    QWORD PTR [esp+0x30]
 80508c3:	dc 4a 50             	fmul   QWORD PTR [edx+0x50]
 80508c6:	de c3                	faddp  st(3),st
 80508c8:	dd 44 24 28          	fld    QWORD PTR [esp+0x28]
 80508cc:	dc 4a 60             	fmul   QWORD PTR [edx+0x60]
 80508cf:	de c2                	faddp  st(2),st
 80508d1:	dd 44 24 18          	fld    QWORD PTR [esp+0x18]
 80508d5:	dc 4a 78             	fmul   QWORD PTR [edx+0x78]
 80508d8:	de c1                	faddp  st(1),st
 80508da:	dd 42 88             	fld    QWORD PTR [edx-0x78]
 80508dd:	dc 4a 48             	fmul   QWORD PTR [edx+0x48]
 80508e0:	de c3                	faddp  st(3),st
 80508e2:	dd 44 24 30          	fld    QWORD PTR [esp+0x30]
 80508e6:	dc 4a 58             	fmul   QWORD PTR [edx+0x58]
 80508e9:	de c2                	faddp  st(2),st
 80508eb:	dd 44 24 20          	fld    QWORD PTR [esp+0x20]
 80508ef:	dc 4a 70             	fmul   QWORD PTR [edx+0x70]
 80508f2:	de c1                	faddp  st(1),st
 80508f4:	dd 42 90             	fld    QWORD PTR [edx-0x70]
 80508f7:	dc 4a 40             	fmul   QWORD PTR [edx+0x40]
 80508fa:	de c3                	faddp  st(3),st
 80508fc:	dd 42 88             	fld    QWORD PTR [edx-0x78]
 80508ff:	dc 4a 50             	fmul   QWORD PTR [edx+0x50]
 8050902:	de c2                	faddp  st(2),st
 8050904:	dd 44 24 28          	fld    QWORD PTR [esp+0x28]
 8050908:	dc 4a 68             	fmul   QWORD PTR [edx+0x68]
 805090b:	de c1                	faddp  st(1),st
 805090d:	dd 44 24 10          	fld    QWORD PTR [esp+0x10]
 8050911:	dc 49 88             	fmul   QWORD PTR [ecx-0x78]
 8050914:	dd 44 24 30          	fld    QWORD PTR [esp+0x30]
 8050918:	dc 4a 60             	fmul   QWORD PTR [edx+0x60]
 805091b:	de c2                	faddp  st(2),st
 805091d:	dd 42 90             	fld    QWORD PTR [edx-0x70]
 8050920:	dc 4a 48             	fmul   QWORD PTR [edx+0x48]
 8050923:	de c3                	faddp  st(3),st
 8050925:	dd 05 a0 3a 05 08    	fld    QWORD PTR ds:0x8053aa0
 805092b:	d8 c4                	fadd   st,st(4)
 805092d:	dd 44 24 18          	fld    QWORD PTR [esp+0x18]
 8050931:	dc 49 80             	fmul   QWORD PTR [ecx-0x80]
 8050934:	de c2                	faddp  st(2),st
 8050936:	dd 42 88             	fld    QWORD PTR [edx-0x78]
 8050939:	dc 4a 58             	fmul   QWORD PTR [edx+0x58]
 805093c:	de c3                	faddp  st(3),st
 805093e:	dd 42 98             	fld    QWORD PTR [edx-0x68]
 8050941:	dc 4a 40             	fmul   QWORD PTR [edx+0x40]
 8050944:	de c4                	faddp  st(4),st
 8050946:	dc 25 a0 3a 05 08    	fsub   QWORD PTR ds:0x8053aa0
 805094c:	dd 44 24 20          	fld    QWORD PTR [esp+0x20]
 8050950:	dc 4a 78             	fmul   QWORD PTR [edx+0x78]
 8050953:	de c2                	faddp  st(2),st
 8050955:	dd 44 24 18          	fld    QWORD PTR [esp+0x18]
 8050959:	dc 49 88             	fmul   QWORD PTR [ecx-0x78]
 805095c:	dd 42 90             	fld    QWORD PTR [edx-0x70]
 805095f:	dc 4a 50             	fmul   QWORD PTR [edx+0x50]
 8050962:	de c4                	faddp  st(4),st
 8050964:	d9 c9                	fxch   st(1)
 8050966:	dc c4                	fadd   st(4),st
 8050968:	dd 44 24 28          	fld    QWORD PTR [esp+0x28]
 805096c:	dc 4a 70             	fmul   QWORD PTR [edx+0x70]
 805096f:	de c3                	faddp  st(3),st
 8050971:	dd 44 24 20          	fld    QWORD PTR [esp+0x20]
 8050975:	dc 49 80             	fmul   QWORD PTR [ecx-0x80]
 8050978:	de c2                	faddp  st(2),st
 805097a:	de ed                	fsubp  st(5),st
 805097c:	dd 05 a8 3a 05 08    	fld    QWORD PTR ds:0x8053aa8
 8050982:	d8 c4                	fadd   st,st(4)
 8050984:	dd 44 24 30          	fld    QWORD PTR [esp+0x30]
 8050988:	dc 4a 68             	fmul   QWORD PTR [edx+0x68]
 805098b:	de c3                	faddp  st(3),st
 805098d:	dd 44 24 28          	fld    QWORD PTR [esp+0x28]
 8050991:	dc 4a 78             	fmul   QWORD PTR [edx+0x78]
 8050994:	de c2                	faddp  st(2),st
 8050996:	dd 42 98             	fld    QWORD PTR [edx-0x68]
 8050999:	dc 4a 48             	fmul   QWORD PTR [edx+0x48]
 805099c:	de c4                	faddp  st(4),st
 805099e:	dc 25 a8 3a 05 08    	fsub   QWORD PTR ds:0x8053aa8
 80509a4:	dd 42 88             	fld    QWORD PTR [edx-0x78]
 80509a7:	dc 4a 60             	fmul   QWORD PTR [edx+0x60]
 80509aa:	de c3                	faddp  st(3),st
 80509ac:	dd 44 24 20          	fld    QWORD PTR [esp+0x20]
 80509b0:	dc 49 88             	fmul   QWORD PTR [ecx-0x78]
 80509b3:	dd 44 24 30          	fld    QWORD PTR [esp+0x30]
 80509b7:	dc 4a 70             	fmul   QWORD PTR [edx+0x70]
 80509ba:	de c3                	faddp  st(3),st
 80509bc:	dd 42 90             	fld    QWORD PTR [edx-0x70]
 80509bf:	dc 4a 58             	fmul   QWORD PTR [edx+0x58]
 80509c2:	de c4                	faddp  st(4),st
 80509c4:	d9 c9                	fxch   st(1)
 80509c6:	dc c4                	fadd   st(4),st
 80509c8:	de ed                	fsubp  st(5),st
 80509ca:	d9 cd                	fxch   st(5)
 80509cc:	dd 5a 08             	fstp   QWORD PTR [edx+0x8]
 80509cf:	dd 44 24 28          	fld    QWORD PTR [esp+0x28]
 80509d3:	dc 49 80             	fmul   QWORD PTR [ecx-0x80]
 80509d6:	de c5                	faddp  st(5),st
 80509d8:	dd 42 88             	fld    QWORD PTR [edx-0x78]
 80509db:	dc 4a 68             	fmul   QWORD PTR [edx+0x68]
 80509de:	de c1                	faddp  st(1),st
 80509e0:	dd 42 98             	fld    QWORD PTR [edx-0x68]
 80509e3:	dc 4a 50             	fmul   QWORD PTR [edx+0x50]
 80509e6:	de c2                	faddp  st(2),st
 80509e8:	d9 ca                	fxch   st(2)
 80509ea:	dc 0d 00 3a 05 08    	fmul   QWORD PTR ds:0x8053a00
 80509f0:	dd 44 24 30          	fld    QWORD PTR [esp+0x30]
 80509f4:	dc 4a 78             	fmul   QWORD PTR [edx+0x78]
 80509f7:	de c5                	faddp  st(5),st
 80509f9:	dd 42 90             	fld    QWORD PTR [edx-0x70]
 80509fc:	dc 4a 60             	fmul   QWORD PTR [edx+0x60]
 80509ff:	de c3                	faddp  st(3),st
 8050a01:	d9 c9                	fxch   st(1)
 8050a03:	dc 0d 00 3a 05 08    	fmul   QWORD PTR ds:0x8053a00
 8050a09:	dd 04 24             	fld    QWORD PTR [esp]
 8050a0c:	dc 4a 40             	fmul   QWORD PTR [edx+0x40]
 8050a0f:	de c2                	faddp  st(2),st
 8050a11:	d9 cb                	fxch   st(3)
 8050a13:	dd 5a 10             	fstp   QWORD PTR [edx+0x10]
 8050a16:	dd 44 24 28          	fld    QWORD PTR [esp+0x28]
 8050a1a:	dc 49 88             	fmul   QWORD PTR [ecx-0x78]
 8050a1d:	dd 42 88             	fld    QWORD PTR [edx-0x78]
 8050a20:	dc 4a 70             	fmul   QWORD PTR [edx+0x70]
 8050a23:	de c5                	faddp  st(5),st
 8050a25:	dd 42 98             	fld    QWORD PTR [edx-0x68]
 8050a28:	dc 4a 58             	fmul   QWORD PTR [edx+0x58]
 8050a2b:	de c3                	faddp  st(3),st
 8050a2d:	dd 04 24             	fld    QWORD PTR [esp]
 8050a30:	dc 4a 48             	fmul   QWORD PTR [edx+0x48]
 8050a33:	de c4                	faddp  st(4),st
 8050a35:	dd 05 60 3a 05 08    	fld    QWORD PTR ds:0x8053a60
 8050a3b:	d8 c2                	fadd   st,st(2)
 8050a3d:	dd 44 24 30          	fld    QWORD PTR [esp+0x30]
 8050a41:	dc 49 80             	fmul   QWORD PTR [ecx-0x80]
 8050a44:	de c2                	faddp  st(2),st
 8050a46:	dd 42 90             	fld    QWORD PTR [edx-0x70]
 8050a49:	dc 4a 68             	fmul   QWORD PTR [edx+0x68]
 8050a4c:	de c6                	faddp  st(6),st
 8050a4e:	d9 cb                	fxch   st(3)
 8050a50:	dc 0d 00 3a 05 08    	fmul   QWORD PTR ds:0x8053a00
 8050a56:	dd 44 24 08          	fld    QWORD PTR [esp+0x8]
 8050a5a:	dc 4a 40             	fmul   QWORD PTR [edx+0x40]
 8050a5d:	de c5                	faddp  st(5),st
 8050a5f:	d9 cb                	fxch   st(3)
 8050a61:	dc 25 60 3a 05 08    	fsub   QWORD PTR ds:0x8053a60
 8050a67:	dd 42 88             	fld    QWORD PTR [edx-0x78]
 8050a6a:	dc 4a 78             	fmul   QWORD PTR [edx+0x78]
 8050a6d:	de c2                	faddp  st(2),st
 8050a6f:	dd 42 98             	fld    QWORD PTR [edx-0x68]
 8050a72:	dc 4a 60             	fmul   QWORD PTR [edx+0x60]
 8050a75:	de c6                	faddp  st(6),st
 8050a77:	dd 04 24             	fld    QWORD PTR [esp]
 8050a7a:	dc 4a 50             	fmul   QWORD PTR [edx+0x50]
 8050a7d:	de c4                	faddp  st(4),st
 8050a7f:	dc c4                	fadd   st(4),st
 8050a81:	de ea                	fsubp  st(2),st
 8050a83:	dd 44 24 30          	fld    QWORD PTR [esp+0x30]
 8050a87:	dc 49 88             	fmul   QWORD PTR [ecx-0x78]
 8050a8a:	dd 42 90             	fld    QWORD PTR [edx-0x70]
 8050a8d:	dc 4a 70             	fmul   QWORD PTR [edx+0x70]
 8050a90:	de c2                	faddp  st(2),st
 8050a92:	d9 cd                	fxch   st(5)
 8050a94:	dc 0d 00 3a 05 08    	fmul   QWORD PTR ds:0x8053a00
 8050a9a:	dd 44 24 08          	fld    QWORD PTR [esp+0x8]
 8050a9e:	dc 4a 48             	fmul   QWORD PTR [edx+0x48]
 8050aa1:	de c4                	faddp  st(4),st
 8050aa3:	dd 05 68 3a 05 08    	fld    QWORD PTR ds:0x8053a68
 8050aa9:	d8 c5                	fadd   st,st(5)
 8050aab:	dd 42 88             	fld    QWORD PTR [edx-0x78]
 8050aae:	dc 49 80             	fmul   QWORD PTR [ecx-0x80]
 8050ab1:	de c7                	faddp  st(7),st
 8050ab3:	dd 42 98             	fld    QWORD PTR [edx-0x68]
 8050ab6:	dc 4a 68             	fmul   QWORD PTR [edx+0x68]
 8050ab9:	de c3                	faddp  st(3),st
 8050abb:	dd 04 24             	fld    QWORD PTR [esp]
 8050abe:	dc 4a 58             	fmul   QWORD PTR [edx+0x58]
 8050ac1:	de c2                	faddp  st(2),st
 8050ac3:	dd 44 24 10          	fld    QWORD PTR [esp+0x10]
 8050ac7:	dc 4a 40             	fmul   QWORD PTR [edx+0x40]
 8050aca:	de c5                	faddp  st(5),st
 8050acc:	dc 25 68 3a 05 08    	fsub   QWORD PTR ds:0x8053a68
 8050ad2:	d9 cb                	fxch   st(3)
 8050ad4:	dd 5a d8             	fstp   QWORD PTR [edx-0x28]
 8050ad7:	dd 42 90             	fld    QWORD PTR [edx-0x70]
 8050ada:	dc 4a 78             	fmul   QWORD PTR [edx+0x78]
 8050add:	de c6                	faddp  st(6),st
 8050adf:	d9 c9                	fxch   st(1)
 8050ae1:	dc 0d 00 3a 05 08    	fmul   QWORD PTR ds:0x8053a00
 8050ae7:	dd 44 24 08          	fld    QWORD PTR [esp+0x8]
 8050aeb:	dc 4a 50             	fmul   QWORD PTR [edx+0x50]
 8050aee:	de c2                	faddp  st(2),st
 8050af0:	d9 ca                	fxch   st(2)
 8050af2:	dc c3                	fadd   st(3),st
 8050af4:	de ec                	fsubp  st(4),st
 8050af6:	dd 42 88             	fld    QWORD PTR [edx-0x78]
 8050af9:	dc 49 88             	fmul   QWORD PTR [ecx-0x78]
 8050afc:	dd 42 98             	fld    QWORD PTR [edx-0x68]
 8050aff:	dc 4a 70             	fmul   QWORD PTR [edx+0x70]
 8050b02:	de c6                	faddp  st(6),st
 8050b04:	dd 04 24             	fld    QWORD PTR [esp]
 8050b07:	dc 4a 60             	fmul   QWORD PTR [edx+0x60]
 8050b0a:	de c3                	faddp  st(3),st
 8050b0c:	dd 44 24 10          	fld    QWORD PTR [esp+0x10]
 8050b10:	dc 4a 48             	fmul   QWORD PTR [edx+0x48]
 8050b13:	de c2                	faddp  st(2),st
 8050b15:	dd 05 70 3a 05 08    	fld    QWORD PTR ds:0x8053a70
 8050b1b:	d8 c4                	fadd   st,st(4)
 8050b1d:	dd 42 90             	fld    QWORD PTR [edx-0x70]
 8050b20:	dc 49 80             	fmul   QWORD PTR [ecx-0x80]
 8050b23:	de c2                	faddp  st(2),st
 8050b25:	d9 ce                	fxch   st(6)
 8050b27:	dc 0d 00 3a 05 08    	fmul   QWORD PTR ds:0x8053a00
 8050b2d:	dd 44 24 08          	fld    QWORD PTR [esp+0x8]
 8050b31:	dc 4a 58             	fmul   QWORD PTR [edx+0x58]
 8050b34:	de c4                	faddp  st(4),st
 8050b36:	dd 44 24 18          	fld    QWORD PTR [esp+0x18]
 8050b3a:	dc 4a 40             	fmul   QWORD PTR [edx+0x40]
 8050b3d:	de c3                	faddp  st(3),st
 8050b3f:	d9 ce                	fxch   st(6)
 8050b41:	dc 25 70 3a 05 08    	fsub   QWORD PTR ds:0x8053a70
 8050b47:	d9 cd                	fxch   st(5)
 8050b49:	dd 5a e0             	fstp   QWORD PTR [edx-0x20]
 8050b4c:	dd 42 98             	fld    QWORD PTR [edx-0x68]
 8050b4f:	dc 4a 78             	fmul   QWORD PTR [edx+0x78]
 8050b52:	de c1                	faddp  st(1),st
 8050b54:	dd 04 24             	fld    QWORD PTR [esp]
 8050b57:	dc 4a 68             	fmul   QWORD PTR [edx+0x68]
 8050b5a:	de c6                	faddp  st(6),st
 8050b5c:	dd 44 24 10          	fld    QWORD PTR [esp+0x10]
 8050b60:	dc 4a 50             	fmul   QWORD PTR [edx+0x50]
 8050b63:	de c3                	faddp  st(3),st
 8050b65:	d9 cc                	fxch   st(4)
 8050b67:	dc c1                	fadd   st(1),st
 8050b69:	de eb                	fsubp  st(3),st
 8050b6b:	dd 42 90             	fld    QWORD PTR [edx-0x70]
 8050b6e:	dc 49 88             	fmul   QWORD PTR [ecx-0x78]
 8050b71:	d9 cc                	fxch   st(4)
 8050b73:	dc 0d 00 3a 05 08    	fmul   QWORD PTR ds:0x8053a00
 8050b79:	dd 44 24 08          	fld    QWORD PTR [esp+0x8]
 8050b7d:	dc 4a 60             	fmul   QWORD PTR [edx+0x60]
 8050b80:	de c6                	faddp  st(6),st
 8050b82:	dd 44 24 18          	fld    QWORD PTR [esp+0x18]
 8050b86:	dc 4a 48             	fmul   QWORD PTR [edx+0x48]
 8050b89:	de c3                	faddp  st(3),st
 8050b8b:	dd 05 78 3a 05 08    	fld    QWORD PTR ds:0x8053a78
 8050b91:	d8 c2                	fadd   st,st(2)
 8050b93:	dd 42 98             	fld    QWORD PTR [edx-0x68]
 8050b96:	dc 49 80             	fmul   QWORD PTR [ecx-0x80]
 8050b99:	de c6                	faddp  st(6),st
 8050b9b:	dd 04 24             	fld    QWORD PTR [esp]
 8050b9e:	dc 4a 70             	fmul   QWORD PTR [edx+0x70]
 8050ba1:	de c2                	faddp  st(2),st
 8050ba3:	dd 44 24 10          	fld    QWORD PTR [esp+0x10]
 8050ba7:	dc 4a 58             	fmul   QWORD PTR [edx+0x58]
 8050baa:	de c7                	faddp  st(7),st
 8050bac:	dd 44 24 20          	fld    QWORD PTR [esp+0x20]
 8050bb0:	dc 4a 40             	fmul   QWORD PTR [edx+0x40]
 8050bb3:	de c4                	faddp  st(4),st
 8050bb5:	dc 25 78 3a 05 08    	fsub   QWORD PTR ds:0x8053a78
 8050bbb:	d9 cc                	fxch   st(4)
 8050bbd:	dd 5a 98             	fstp   QWORD PTR [edx-0x68]
 8050bc0:	d9 cc                	fxch   st(4)
 8050bc2:	dc 0d 00 3a 05 08    	fmul   QWORD PTR ds:0x8053a00
 8050bc8:	dd 44 24 08          	fld    QWORD PTR [esp+0x8]
 8050bcc:	dc 4a 68             	fmul   QWORD PTR [edx+0x68]
 8050bcf:	de c5                	faddp  st(5),st
 8050bd1:	dd 44 24 18          	fld    QWORD PTR [esp+0x18]
 8050bd5:	dc 4a 50             	fmul   QWORD PTR [edx+0x50]
 8050bd8:	de c6                	faddp  st(6),st
 8050bda:	d9 cb                	fxch   st(3)
 8050bdc:	dc c2                	fadd   st(2),st
 8050bde:	de e9                	fsubp  st(1),st
 8050be0:	dd 04 24             	fld    QWORD PTR [esp]
 8050be3:	dc 4a 78             	fmul   QWORD PTR [edx+0x78]
 8050be6:	de c3                	faddp  st(3),st
 8050be8:	dd 44 24 10          	fld    QWORD PTR [esp+0x10]
 8050bec:	dc 4a 60             	fmul   QWORD PTR [edx+0x60]
 8050bef:	de c4                	faddp  st(4),st
 8050bf1:	dd 44 24 20          	fld    QWORD PTR [esp+0x20]
 8050bf5:	dc 4a 48             	fmul   QWORD PTR [edx+0x48]
 8050bf8:	de c5                	faddp  st(5),st
 8050bfa:	dd 05 80 3a 05 08    	fld    QWORD PTR ds:0x8053a80
 8050c00:	d8 c2                	fadd   st,st(2)
 8050c02:	dd 44 24 08          	fld    QWORD PTR [esp+0x8]
 8050c06:	dc 4a 70             	fmul   QWORD PTR [edx+0x70]
 8050c09:	de c4                	faddp  st(4),st
 8050c0b:	dd 44 24 18          	fld    QWORD PTR [esp+0x18]
 8050c0f:	dc 4a 58             	fmul   QWORD PTR [edx+0x58]
 8050c12:	de c5                	faddp  st(5),st
 8050c14:	dd 44 24 28          	fld    QWORD PTR [esp+0x28]
 8050c18:	dc 4a 40             	fmul   QWORD PTR [edx+0x40]
 8050c1b:	de c6                	faddp  st(6),st
 8050c1d:	dc 25 80 3a 05 08    	fsub   QWORD PTR ds:0x8053a80
 8050c23:	d9 c9                	fxch   st(1)
 8050c25:	dd 5a f0             	fstp   QWORD PTR [edx-0x10]
 8050c28:	dd 44 24 10          	fld    QWORD PTR [esp+0x10]
 8050c2c:	dc 4a 68             	fmul   QWORD PTR [edx+0x68]
 8050c2f:	de c3                	faddp  st(3),st
 8050c31:	dd 44 24 20          	fld    QWORD PTR [esp+0x20]
 8050c35:	dc 4a 50             	fmul   QWORD PTR [edx+0x50]
 8050c38:	de c4                	faddp  st(4),st
 8050c3a:	dc c4                	fadd   st(4),st
 8050c3c:	de e9                	fsubp  st(1),st
 8050c3e:	dd 5a f8             	fstp   QWORD PTR [edx-0x8]
 8050c41:	dd 44 24 18          	fld    QWORD PTR [esp+0x18]
 8050c45:	dc 4a 60             	fmul   QWORD PTR [edx+0x60]
 8050c48:	de c1                	faddp  st(1),st
 8050c4a:	dd 44 24 28          	fld    QWORD PTR [esp+0x28]
 8050c4e:	dc 4a 48             	fmul   QWORD PTR [edx+0x48]
 8050c51:	de c2                	faddp  st(2),st
 8050c53:	dd 05 88 3a 05 08    	fld    QWORD PTR ds:0x8053a88
 8050c59:	d8 c3                	fadd   st,st(3)
 8050c5b:	dd 44 24 20          	fld    QWORD PTR [esp+0x20]
 8050c5f:	dc 4a 58             	fmul   QWORD PTR [edx+0x58]
 8050c62:	de c2                	faddp  st(2),st
 8050c64:	dd 44 24 30          	fld    QWORD PTR [esp+0x30]
 8050c68:	dc 4a 40             	fmul   QWORD PTR [edx+0x40]
 8050c6b:	de c3                	faddp  st(3),st
 8050c6d:	dc 25 88 3a 05 08    	fsub   QWORD PTR ds:0x8053a88
 8050c73:	dd 44 24 28          	fld    QWORD PTR [esp+0x28]
 8050c77:	dc 4a 50             	fmul   QWORD PTR [edx+0x50]
 8050c7a:	de c2                	faddp  st(2),st
 8050c7c:	dc c2                	fadd   st(2),st
 8050c7e:	de eb                	fsubp  st(3),st
 8050c80:	d9 ca                	fxch   st(2)
 8050c82:	dd 1a                	fstp   QWORD PTR [edx]
 8050c84:	dd 44 24 30          	fld    QWORD PTR [esp+0x30]
 8050c88:	dc 4a 48             	fmul   QWORD PTR [edx+0x48]
 8050c8b:	de c2                	faddp  st(2),st
 8050c8d:	dd 05 90 3a 05 08    	fld    QWORD PTR ds:0x8053a90
 8050c93:	d8 c1                	fadd   st,st(1)
 8050c95:	dd 42 88             	fld    QWORD PTR [edx-0x78]
 8050c98:	dc 4a 40             	fmul   QWORD PTR [edx+0x40]
 8050c9b:	de c3                	faddp  st(3),st
 8050c9d:	dc 25 90 3a 05 08    	fsub   QWORD PTR ds:0x8053a90
 8050ca3:	dd 42 08             	fld    QWORD PTR [edx+0x8]
 8050ca6:	dd 42 10             	fld    QWORD PTR [edx+0x10]
 8050ca9:	d9 ca                	fxch   st(2)
 8050cab:	dc c4                	fadd   st(4),st
 8050cad:	de eb                	fsubp  st(3),st
 8050caf:	dd 05 98 3a 05 08    	fld    QWORD PTR ds:0x8053a98
 8050cb5:	d8 c4                	fadd   st,st(4)
 8050cb7:	dc 25 98 3a 05 08    	fsub   QWORD PTR ds:0x8053a98
 8050cbd:	dc c1                	fadd   st(1),st
 8050cbf:	de ec                	fsubp  st(4),st
 8050cc1:	dd 05 a0 3a 05 08    	fld    QWORD PTR ds:0x8053aa0
 8050cc7:	d8 c1                	fadd   st,st(1)
 8050cc9:	dc 25 a0 3a 05 08    	fsub   QWORD PTR ds:0x8053aa0
 8050ccf:	dc e9                	fsub   st(1),st
 8050cd1:	de c2                	faddp  st(2),st
 8050cd3:	d9 ca                	fxch   st(2)
 8050cd5:	dd 5a 08             	fstp   QWORD PTR [edx+0x8]
 8050cd8:	d9 ca                	fxch   st(2)
 8050cda:	dd 5a 10             	fstp   QWORD PTR [edx+0x10]
 8050cdd:	dd 5a 18             	fstp   QWORD PTR [edx+0x18]
 8050ce0:	dd 5a 20             	fstp   QWORD PTR [edx+0x20]
 8050ce3:	dd 41 d8             	fld    QWORD PTR [ecx-0x28]
 8050ce6:	d8 c8                	fmul   st,st(0)
 8050ce8:	dd 41 90             	fld    QWORD PTR [ecx-0x70]
 8050ceb:	d8 c0                	fadd   st,st(0)
 8050ced:	dd 41 98             	fld    QWORD PTR [ecx-0x68]
 8050cf0:	d8 c0                	fadd   st,st(0)
 8050cf2:	dd 41 a0             	fld    QWORD PTR [ecx-0x60]
 8050cf5:	d8 c0                	fadd   st,st(0)
 8050cf7:	dd 41 c8             	fld    QWORD PTR [ecx-0x38]
 8050cfa:	d9 cc                	fxch   st(4)
 8050cfc:	dc 0d 00 3a 05 08    	fmul   QWORD PTR ds:0x8053a00
 8050d02:	dd 41 d8             	fld    QWORD PTR [ecx-0x28]
 8050d05:	d8 cc                	fmul   st,st(4)
 8050d07:	dd 41 d0             	fld    QWORD PTR [ecx-0x30]
 8050d0a:	d8 cc                	fmul   st,st(4)
 8050d0c:	de c1                	faddp  st(1),st
 8050d0e:	d9 cc                	fxch   st(4)
 8050d10:	dd 14 24             	fst    QWORD PTR [esp]
 8050d13:	d9 cb                	fxch   st(3)
 8050d15:	dd 54 24 08          	fst    QWORD PTR [esp+0x8]
 8050d19:	d9 cb                	fxch   st(3)
 8050d1b:	dc 49 d0             	fmul   QWORD PTR [ecx-0x30]
 8050d1e:	de c1                	faddp  st(1),st
 8050d20:	dd 41 c0             	fld    QWORD PTR [ecx-0x40]
 8050d23:	d9 cd                	fxch   st(5)
 8050d25:	dc cb                	fmul   st(3),st
 8050d27:	d9 cb                	fxch   st(3)
 8050d29:	de c1                	faddp  st(1),st
 8050d2b:	d9 ca                	fxch   st(2)
 8050d2d:	d8 c0                	fadd   st,st(0)
 8050d2f:	dd 41 c8             	fld    QWORD PTR [ecx-0x38]
 8050d32:	d8 ca                	fmul   st,st(2)
 8050d34:	de c4                	faddp  st(4),st
 8050d36:	d9 c9                	fxch   st(1)
 8050d38:	dd 54 24 10          	fst    QWORD PTR [esp+0x10]
 8050d3c:	dd 41 b8             	fld    QWORD PTR [ecx-0x48]
 8050d3f:	d9 cd                	fxch   st(5)
 8050d41:	dc c9                	fmul   st(1),st
 8050d43:	d9 c9                	fxch   st(1)
 8050d45:	de c3                	faddp  st(3),st
 8050d47:	d8 c0                	fadd   st,st(0)
 8050d49:	dd 5c 24 30          	fstp   QWORD PTR [esp+0x30]
 8050d4d:	dd 41 a8             	fld    QWORD PTR [ecx-0x58]
 8050d50:	d8 c0                	fadd   st,st(0)
 8050d52:	dd 54 24 18          	fst    QWORD PTR [esp+0x18]
 8050d56:	dd 41 c0             	fld    QWORD PTR [ecx-0x40]
 8050d59:	d8 c9                	fmul   st,st(1)
 8050d5b:	de c4                	faddp  st(4),st
 8050d5d:	d8 cc                	fmul   st,st(4)
 8050d5f:	de c2                	faddp  st(2),st
 8050d61:	d9 cb                	fxch   st(3)
 8050d63:	d8 c0                	fadd   st,st(0)
 8050d65:	dd 5c 24 28          	fstp   QWORD PTR [esp+0x28]
 8050d69:	dd 41 b0             	fld    QWORD PTR [ecx-0x50]
 8050d6c:	d8 c8                	fmul   st,st(0)
 8050d6e:	de c1                	faddp  st(1),st
 8050d70:	dd 05 a0 3a 05 08    	fld    QWORD PTR ds:0x8053aa0
 8050d76:	d8 c1                	fadd   st,st(1)
 8050d78:	dc 25 a0 3a 05 08    	fsub   QWORD PTR ds:0x8053aa0
 8050d7e:	dc e9                	fsub   st(1),st
 8050d80:	dd 44 24 08          	fld    QWORD PTR [esp+0x8]
 8050d84:	dd 41 d8             	fld    QWORD PTR [ecx-0x28]
 8050d87:	dc c9                	fmul   st(1),st
 8050d89:	dd 44 24 10          	fld    QWORD PTR [esp+0x10]
 8050d8d:	dc c9                	fmul   st(1),st
 8050d8f:	dd 41 d0             	fld    QWORD PTR [ecx-0x30]
 8050d92:	dc c9                	fmul   st(1),st
 8050d94:	d9 c9                	fxch   st(1)
 8050d96:	de c3                	faddp  st(3),st
 8050d98:	dd 44 24 18          	fld    QWORD PTR [esp+0x18]
 8050d9c:	dc c9                	fmul   st(1),st
 8050d9e:	d9 c9                	fxch   st(1)
 8050da0:	de c2                	faddp  st(2),st
 8050da2:	dd 41 b0             	fld    QWORD PTR [ecx-0x50]
 8050da5:	d8 c0                	fadd   st,st(0)
 8050da7:	dd 54 24 20          	fst    QWORD PTR [esp+0x20]
 8050dab:	dc 49 b8             	fmul   QWORD PTR [ecx-0x48]
 8050dae:	de c6                	faddp  st(6),st
 8050db0:	d9 cb                	fxch   st(3)
 8050db2:	de c5                	faddp  st(5),st
 8050db4:	dd 05 a8 3a 05 08    	fld    QWORD PTR ds:0x8053aa8
 8050dba:	d8 c5                	fadd   st,st(5)
 8050dbc:	dc 25 a8 3a 05 08    	fsub   QWORD PTR ds:0x8053aa8
 8050dc2:	dc ed                	fsub   st(5),st
 8050dc4:	dd 41 c8             	fld    QWORD PTR [ecx-0x38]
 8050dc7:	dc cc                	fmul   st(4),st
 8050dc9:	d9 cc                	fxch   st(4)
 8050dcb:	de c3                	faddp  st(3),st
 8050dcd:	dd 44 24 20          	fld    QWORD PTR [esp+0x20]
 8050dd1:	dc cc                	fmul   st(4),st
 8050dd3:	d9 cc                	fxch   st(4)
 8050dd5:	de c2                	faddp  st(2),st
 8050dd7:	dd 41 c0             	fld    QWORD PTR [ecx-0x40]
 8050dda:	dc cc                	fmul   st(4),st
 8050ddc:	d9 cc                	fxch   st(4)
 8050dde:	de c3                	faddp  st(3),st
 8050de0:	d9 cb                	fxch   st(3)
 8050de2:	dc 4c 24 28          	fmul   QWORD PTR [esp+0x28]
 8050de6:	de c1                	faddp  st(1),st
 8050de8:	d9 cb                	fxch   st(3)
 8050dea:	dd 5a 88             	fstp   QWORD PTR [edx-0x78]
 8050ded:	dd 41 b8             	fld    QWORD PTR [ecx-0x48]
 8050df0:	d8 c8                	fmul   st,st(0)
 8050df2:	de c1                	faddp  st(1),st
 8050df4:	d9 ca                	fxch   st(2)
 8050df6:	dc 0d 00 3a 05 08    	fmul   QWORD PTR ds:0x8053a00
 8050dfc:	d9 cb                	fxch   st(3)
 8050dfe:	dd 5a 90             	fstp   QWORD PTR [edx-0x70]
 8050e01:	de c1                	faddp  st(1),st
 8050e03:	dc 0d 00 3a 05 08    	fmul   QWORD PTR ds:0x8053a00
 8050e09:	dd 44 24 18          	fld    QWORD PTR [esp+0x18]
 8050e0d:	dc 49 d8             	fmul   QWORD PTR [ecx-0x28]
 8050e10:	dd 41 90             	fld    QWORD PTR [ecx-0x70]
 8050e13:	d8 c8                	fmul   st,st(0)
 8050e15:	de c2                	faddp  st(2),st
 8050e17:	dd 44 24 20          	fld    QWORD PTR [esp+0x20]
 8050e1b:	dc 49 d0             	fmul   QWORD PTR [ecx-0x30]
 8050e1e:	de c1                	faddp  st(1),st
 8050e20:	dd 04 24             	fld    QWORD PTR [esp]
 8050e23:	dc 49 98             	fmul   QWORD PTR [ecx-0x68]
 8050e26:	de c3                	faddp  st(3),st
 8050e28:	dd 44 24 28          	fld    QWORD PTR [esp+0x28]
 8050e2c:	dc 49 c8             	fmul   QWORD PTR [ecx-0x38]
 8050e2f:	de c1                	faddp  st(1),st
 8050e31:	dd 05 60 3a 05 08    	fld    QWORD PTR ds:0x8053a60
 8050e37:	d8 c2                	fadd   st,st(2)
 8050e39:	dc 25 60 3a 05 08    	fsub   QWORD PTR ds:0x8053a60
 8050e3f:	dc ea                	fsub   st(2),st
 8050e41:	de c3                	faddp  st(3),st
 8050e43:	dd 05 68 3a 05 08    	fld    QWORD PTR ds:0x8053a68
 8050e49:	d8 c3                	fadd   st,st(3)
 8050e4b:	dc 25 68 3a 05 08    	fsub   QWORD PTR ds:0x8053a68
 8050e51:	dc eb                	fsub   st(3),st
 8050e53:	dd 41 c0             	fld    QWORD PTR [ecx-0x40]
 8050e56:	d8 c8                	fmul   st,st(0)
 8050e58:	de c2                	faddp  st(2),st
 8050e5a:	d9 c9                	fxch   st(1)
 8050e5c:	dc 0d 00 3a 05 08    	fmul   QWORD PTR ds:0x8053a00
 8050e62:	dd 04 24             	fld    QWORD PTR [esp]
 8050e65:	dc 49 a0             	fmul   QWORD PTR [ecx-0x60]
 8050e68:	de c1                	faddp  st(1),st
 8050e6a:	dd 41 98             	fld    QWORD PTR [ecx-0x68]
 8050e6d:	d8 c8                	fmul   st,st(0)
 8050e6f:	de c1                	faddp  st(1),st
 8050e71:	de c1                	faddp  st(1),st
 8050e73:	dd 05 70 3a 05 08    	fld    QWORD PTR ds:0x8053a70
 8050e79:	d8 c1                	fadd   st,st(1)
 8050e7b:	dc 25 70 3a 05 08    	fsub   QWORD PTR ds:0x8053a70
 8050e81:	dc e9                	fsub   st(1),st
 8050e83:	d9 ca                	fxch   st(2)
 8050e85:	dd 5a 40             	fstp   QWORD PTR [edx+0x40]
 8050e88:	dd 44 24 20          	fld    QWORD PTR [esp+0x20]
 8050e8c:	dc 49 d8             	fmul   QWORD PTR [ecx-0x28]
 8050e8f:	dd 44 24 28          	fld    QWORD PTR [esp+0x28]
 8050e93:	dc 49 d0             	fmul   QWORD PTR [ecx-0x30]
 8050e96:	de c1                	faddp  st(1),st
 8050e98:	dd 44 24 30          	fld    QWORD PTR [esp+0x30]
 8050e9c:	dc 49 c8             	fmul   QWORD PTR [ecx-0x38]
 8050e9f:	de c1                	faddp  st(1),st
 8050ea1:	dc 0d 00 3a 05 08    	fmul   QWORD PTR ds:0x8053a00
 8050ea7:	dd 04 24             	fld    QWORD PTR [esp]
 8050eaa:	dc 49 a8             	fmul   QWORD PTR [ecx-0x58]
 8050ead:	de c1                	faddp  st(1),st
 8050eaf:	dd 44 24 08          	fld    QWORD PTR [esp+0x8]
 8050eb3:	dc 49 a0             	fmul   QWORD PTR [ecx-0x60]
 8050eb6:	de c1                	faddp  st(1),st
 8050eb8:	de c2                	faddp  st(2),st
 8050eba:	dd 05 78 3a 05 08    	fld    QWORD PTR ds:0x8053a78
 8050ec0:	d8 c2                	fadd   st,st(2)
 8050ec2:	dc 25 78 3a 05 08    	fsub   QWORD PTR ds:0x8053a78
 8050ec8:	dc ea                	fsub   st(2),st
 8050eca:	d9 cb                	fxch   st(3)
 8050ecc:	dd 5a 48             	fstp   QWORD PTR [edx+0x48]
 8050ecf:	dd 44 24 28          	fld    QWORD PTR [esp+0x28]
 8050ed3:	dc 49 d8             	fmul   QWORD PTR [ecx-0x28]
 8050ed6:	dd 44 24 30          	fld    QWORD PTR [esp+0x30]
 8050eda:	dc 49 d0             	fmul   QWORD PTR [ecx-0x30]
 8050edd:	de c1                	faddp  st(1),st
 8050edf:	dd 41 c8             	fld    QWORD PTR [ecx-0x38]
 8050ee2:	d8 c8                	fmul   st,st(0)
 8050ee4:	de c1                	faddp  st(1),st
 8050ee6:	dc 0d 00 3a 05 08    	fmul   QWORD PTR ds:0x8053a00
 8050eec:	dd 04 24             	fld    QWORD PTR [esp]
 8050eef:	dc 49 b0             	fmul   QWORD PTR [ecx-0x50]
 8050ef2:	de c1                	faddp  st(1),st
 8050ef4:	dd 44 24 08          	fld    QWORD PTR [esp+0x8]
 8050ef8:	dc 49 a8             	fmul   QWORD PTR [ecx-0x58]
 8050efb:	de c1                	faddp  st(1),st
 8050efd:	dd 41 a0             	fld    QWORD PTR [ecx-0x60]
 8050f00:	d8 c8                	fmul   st,st(0)
 8050f02:	de c1                	faddp  st(1),st
 8050f04:	de c3                	faddp  st(3),st
 8050f06:	dd 05 80 3a 05 08    	fld    QWORD PTR ds:0x8053a80
 8050f0c:	d8 c3                	fadd   st,st(3)
 8050f0e:	dc 25 80 3a 05 08    	fsub   QWORD PTR ds:0x8053a80
 8050f14:	dc eb                	fsub   st(3),st
 8050f16:	d9 c9                	fxch   st(1)
 8050f18:	dd 5a 50             	fstp   QWORD PTR [edx+0x50]
 8050f1b:	dd 44 24 30          	fld    QWORD PTR [esp+0x30]
 8050f1f:	dd 41 d8             	fld    QWORD PTR [ecx-0x28]
 8050f22:	dc c9                	fmul   st(1),st
 8050f24:	d8 cd                	fmul   st,st(5)
 8050f26:	d9 cd                	fxch   st(5)
 8050f28:	dc 49 d0             	fmul   QWORD PTR [ecx-0x30]
 8050f2b:	de c1                	faddp  st(1),st
 8050f2d:	dc 0d 00 3a 05 08    	fmul   QWORD PTR ds:0x8053a00
 8050f33:	dd 04 24             	fld    QWORD PTR [esp]
 8050f36:	dc 49 b8             	fmul   QWORD PTR [ecx-0x48]
 8050f39:	de c1                	faddp  st(1),st
 8050f3b:	dd 44 24 08          	fld    QWORD PTR [esp+0x8]
 8050f3f:	dc 49 b0             	fmul   QWORD PTR [ecx-0x50]
 8050f42:	de c1                	faddp  st(1),st
 8050f44:	dd 44 24 10          	fld    QWORD PTR [esp+0x10]
 8050f48:	dc 49 a8             	fmul   QWORD PTR [ecx-0x58]
 8050f4b:	de c1                	faddp  st(1),st
 8050f4d:	de c1                	faddp  st(1),st
 8050f4f:	dd 05 88 3a 05 08    	fld    QWORD PTR ds:0x8053a88
 8050f55:	d8 c1                	fadd   st,st(1)
 8050f57:	dc 25 88 3a 05 08    	fsub   QWORD PTR ds:0x8053a88
 8050f5d:	dc e9                	fsub   st(1),st
 8050f5f:	d9 ca                	fxch   st(2)
 8050f61:	dd 5a 58             	fstp   QWORD PTR [edx+0x58]
 8050f64:	dd 41 d0             	fld    QWORD PTR [ecx-0x30]
 8050f67:	d8 c8                	fmul   st,st(0)
 8050f69:	de c4                	faddp  st(4),st
 8050f6b:	d9 cb                	fxch   st(3)
 8050f6d:	dc 0d 00 3a 05 08    	fmul   QWORD PTR ds:0x8053a00
 8050f73:	dd 04 24             	fld    QWORD PTR [esp]
 8050f76:	dc 49 c0             	fmul   QWORD PTR [ecx-0x40]
 8050f79:	de c1                	faddp  st(1),st
 8050f7b:	dd 44 24 08          	fld    QWORD PTR [esp+0x8]
 8050f7f:	dc 49 b8             	fmul   QWORD PTR [ecx-0x48]
 8050f82:	de c1                	faddp  st(1),st
 8050f84:	dd 44 24 10          	fld    QWORD PTR [esp+0x10]
 8050f88:	dc 49 b0             	fmul   QWORD PTR [ecx-0x50]
 8050f8b:	de c1                	faddp  st(1),st
 8050f8d:	dd 41 a8             	fld    QWORD PTR [ecx-0x58]
 8050f90:	d8 c8                	fmul   st,st(0)
 8050f92:	de c1                	faddp  st(1),st
 8050f94:	de c1                	faddp  st(1),st
 8050f96:	dd 05 90 3a 05 08    	fld    QWORD PTR ds:0x8053a90
 8050f9c:	d8 c1                	fadd   st,st(1)
 8050f9e:	dc 25 90 3a 05 08    	fsub   QWORD PTR ds:0x8053a90
 8050fa4:	dc e9                	fsub   st(1),st
 8050fa6:	dd 41 d0             	fld    QWORD PTR [ecx-0x30]
 8050fa9:	d8 c0                	fadd   st,st(0)
 8050fab:	dc 49 d8             	fmul   QWORD PTR [ecx-0x28]
 8050fae:	dc 0d 00 3a 05 08    	fmul   QWORD PTR ds:0x8053a00
 8050fb4:	dd 04 24             	fld    QWORD PTR [esp]
 8050fb7:	dc 49 c8             	fmul   QWORD PTR [ecx-0x38]
 8050fba:	de c1                	faddp  st(1),st
 8050fbc:	dd 44 24 08          	fld    QWORD PTR [esp+0x8]
 8050fc0:	dc 49 c0             	fmul   QWORD PTR [ecx-0x40]
 8050fc3:	de c1                	faddp  st(1),st
 8050fc5:	dd 44 24 10          	fld    QWORD PTR [esp+0x10]
 8050fc9:	dc 49 b8             	fmul   QWORD PTR [ecx-0x48]
 8050fcc:	de c1                	faddp  st(1),st
 8050fce:	dd 44 24 18          	fld    QWORD PTR [esp+0x18]
 8050fd2:	dc 49 b0             	fmul   QWORD PTR [ecx-0x50]
 8050fd5:	de c1                	faddp  st(1),st
 8050fd7:	de c1                	faddp  st(1),st
 8050fd9:	dd 05 98 3a 05 08    	fld    QWORD PTR ds:0x8053a98
 8050fdf:	d8 c1                	fadd   st,st(1)
 8050fe1:	dc 25 98 3a 05 08    	fsub   QWORD PTR ds:0x8053a98
 8050fe7:	dc e9                	fsub   st(1),st
 8050fe9:	dd 42 88             	fld    QWORD PTR [edx-0x78]
 8050fec:	de c1                	faddp  st(1),st
 8050fee:	dd 05 a0 3a 05 08    	fld    QWORD PTR ds:0x8053aa0
 8050ff4:	d8 c1                	fadd   st,st(1)
 8050ff6:	dd 42 90             	fld    QWORD PTR [edx-0x70]
 8050ff9:	d9 c9                	fxch   st(1)
 8050ffb:	dc 25 a0 3a 05 08    	fsub   QWORD PTR ds:0x8053aa0
 8051001:	dc ea                	fsub   st(2),st
 8051003:	de c1                	faddp  st(1),st
 8051005:	d9 cc                	fxch   st(4)
 8051007:	dd 5a 60             	fstp   QWORD PTR [edx+0x60]
 805100a:	d9 cc                	fxch   st(4)
 805100c:	dd 5a 68             	fstp   QWORD PTR [edx+0x68]
 805100f:	d9 c9                	fxch   st(1)
 8051011:	dd 5a 70             	fstp   QWORD PTR [edx+0x70]
 8051014:	dd 5a 78             	fstp   QWORD PTR [edx+0x78]
 8051017:	d9 c9                	fxch   st(1)
 8051019:	dd 59 80             	fstp   QWORD PTR [ecx-0x80]
 805101c:	dd 59 88             	fstp   QWORD PTR [ecx-0x78]
 805101f:	dd 41 28             	fld    QWORD PTR [ecx+0x28]
 8051022:	d8 c8                	fmul   st,st(0)
 8051024:	dd 41 e0             	fld    QWORD PTR [ecx-0x20]
 8051027:	d8 c0                	fadd   st,st(0)
 8051029:	dd 41 e8             	fld    QWORD PTR [ecx-0x18]
 805102c:	d8 c0                	fadd   st,st(0)
 805102e:	dd 41 f0             	fld    QWORD PTR [ecx-0x10]
 8051031:	d8 c0                	fadd   st,st(0)
 8051033:	dd 41 18             	fld    QWORD PTR [ecx+0x18]
 8051036:	d9 cc                	fxch   st(4)
 8051038:	dc 0d 00 3a 05 08    	fmul   QWORD PTR ds:0x8053a00
 805103e:	dd 41 28             	fld    QWORD PTR [ecx+0x28]
 8051041:	d8 cc                	fmul   st,st(4)
 8051043:	dd 41 20             	fld    QWORD PTR [ecx+0x20]
 8051046:	d8 cc                	fmul   st,st(4)
 8051048:	de c1                	faddp  st(1),st
 805104a:	d9 cc                	fxch   st(4)
 805104c:	dd 14 24             	fst    QWORD PTR [esp]
 805104f:	d9 cb                	fxch   st(3)
 8051051:	dd 54 24 08          	fst    QWORD PTR [esp+0x8]
 8051055:	d9 cb                	fxch   st(3)
 8051057:	dc 49 20             	fmul   QWORD PTR [ecx+0x20]
 805105a:	de c1                	faddp  st(1),st
 805105c:	dd 41 10             	fld    QWORD PTR [ecx+0x10]
 805105f:	d9 cd                	fxch   st(5)
 8051061:	dc cb                	fmul   st(3),st
 8051063:	d9 cb                	fxch   st(3)
 8051065:	de c1                	faddp  st(1),st
 8051067:	d9 ca                	fxch   st(2)
 8051069:	d8 c0                	fadd   st,st(0)
 805106b:	dd 41 18             	fld    QWORD PTR [ecx+0x18]
 805106e:	d8 ca                	fmul   st,st(2)
 8051070:	de c4                	faddp  st(4),st
 8051072:	d9 c9                	fxch   st(1)
 8051074:	dd 54 24 10          	fst    QWORD PTR [esp+0x10]
 8051078:	dd 41 08             	fld    QWORD PTR [ecx+0x8]
 805107b:	d9 cd                	fxch   st(5)
 805107d:	dc c9                	fmul   st(1),st
 805107f:	d9 c9                	fxch   st(1)
 8051081:	de c3                	faddp  st(3),st
 8051083:	d8 c0                	fadd   st,st(0)
 8051085:	dd 5c 24 30          	fstp   QWORD PTR [esp+0x30]
 8051089:	dd 41 f8             	fld    QWORD PTR [ecx-0x8]
 805108c:	d8 c0                	fadd   st,st(0)
 805108e:	dd 54 24 18          	fst    QWORD PTR [esp+0x18]
 8051092:	dd 41 10             	fld    QWORD PTR [ecx+0x10]
 8051095:	d8 c9                	fmul   st,st(1)
 8051097:	de c4                	faddp  st(4),st
 8051099:	d8 cc                	fmul   st,st(4)
 805109b:	de c2                	faddp  st(2),st
 805109d:	d9 cb                	fxch   st(3)
 805109f:	d8 c0                	fadd   st,st(0)
 80510a1:	dd 5c 24 28          	fstp   QWORD PTR [esp+0x28]
 80510a5:	dd 01                	fld    QWORD PTR [ecx]
 80510a7:	d8 c8                	fmul   st,st(0)
 80510a9:	de c1                	faddp  st(1),st
 80510ab:	dd 05 a0 3a 05 08    	fld    QWORD PTR ds:0x8053aa0
 80510b1:	d8 c1                	fadd   st,st(1)
 80510b3:	dc 25 a0 3a 05 08    	fsub   QWORD PTR ds:0x8053aa0
 80510b9:	dc e9                	fsub   st(1),st
 80510bb:	dd 44 24 08          	fld    QWORD PTR [esp+0x8]
 80510bf:	dd 41 28             	fld    QWORD PTR [ecx+0x28]
 80510c2:	dc c9                	fmul   st(1),st
 80510c4:	dd 44 24 10          	fld    QWORD PTR [esp+0x10]
 80510c8:	dc c9                	fmul   st(1),st
 80510ca:	dd 41 20             	fld    QWORD PTR [ecx+0x20]
 80510cd:	dc c9                	fmul   st(1),st
 80510cf:	d9 c9                	fxch   st(1)
 80510d1:	de c3                	faddp  st(3),st
 80510d3:	dd 44 24 18          	fld    QWORD PTR [esp+0x18]
 80510d7:	dc c9                	fmul   st(1),st
 80510d9:	d9 c9                	fxch   st(1)
 80510db:	de c2                	faddp  st(2),st
 80510dd:	dd 01                	fld    QWORD PTR [ecx]
 80510df:	d8 c0                	fadd   st,st(0)
 80510e1:	dd 54 24 20          	fst    QWORD PTR [esp+0x20]
 80510e5:	dc 49 08             	fmul   QWORD PTR [ecx+0x8]
 80510e8:	de c6                	faddp  st(6),st
 80510ea:	d9 cb                	fxch   st(3)
 80510ec:	de c5                	faddp  st(5),st
 80510ee:	dd 05 a8 3a 05 08    	fld    QWORD PTR ds:0x8053aa8
 80510f4:	d8 c5                	fadd   st,st(5)
 80510f6:	dc 25 a8 3a 05 08    	fsub   QWORD PTR ds:0x8053aa8
 80510fc:	dc ed                	fsub   st(5),st
 80510fe:	dd 41 18             	fld    QWORD PTR [ecx+0x18]
 8051101:	dc cc                	fmul   st(4),st
 8051103:	d9 cc                	fxch   st(4)
 8051105:	de c3                	faddp  st(3),st
 8051107:	dd 44 24 20          	fld    QWORD PTR [esp+0x20]
 805110b:	dc cc                	fmul   st(4),st
 805110d:	d9 cc                	fxch   st(4)
 805110f:	de c2                	faddp  st(2),st
 8051111:	dd 41 10             	fld    QWORD PTR [ecx+0x10]
 8051114:	dc cc                	fmul   st(4),st
 8051116:	d9 cc                	fxch   st(4)
 8051118:	de c3                	faddp  st(3),st
 805111a:	d9 cb                	fxch   st(3)
 805111c:	dc 4c 24 28          	fmul   QWORD PTR [esp+0x28]
 8051120:	de c1                	faddp  st(1),st
 8051122:	d9 cb                	fxch   st(3)
 8051124:	dd 5a 88             	fstp   QWORD PTR [edx-0x78]
 8051127:	dd 41 08             	fld    QWORD PTR [ecx+0x8]
 805112a:	d8 c8                	fmul   st,st(0)
 805112c:	de c1                	faddp  st(1),st
 805112e:	d9 ca                	fxch   st(2)
 8051130:	dc 0d 00 3a 05 08    	fmul   QWORD PTR ds:0x8053a00
 8051136:	d9 cb                	fxch   st(3)
 8051138:	dd 5a 90             	fstp   QWORD PTR [edx-0x70]
 805113b:	de c1                	faddp  st(1),st
 805113d:	dc 0d 00 3a 05 08    	fmul   QWORD PTR ds:0x8053a00
 8051143:	dd 44 24 18          	fld    QWORD PTR [esp+0x18]
 8051147:	dc 49 28             	fmul   QWORD PTR [ecx+0x28]
 805114a:	dd 41 e0             	fld    QWORD PTR [ecx-0x20]
 805114d:	d8 c8                	fmul   st,st(0)
 805114f:	de c2                	faddp  st(2),st
 8051151:	dd 44 24 20          	fld    QWORD PTR [esp+0x20]
 8051155:	dc 49 20             	fmul   QWORD PTR [ecx+0x20]
 8051158:	de c1                	faddp  st(1),st
 805115a:	dd 04 24             	fld    QWORD PTR [esp]
 805115d:	dc 49 e8             	fmul   QWORD PTR [ecx-0x18]
 8051160:	de c3                	faddp  st(3),st
 8051162:	dd 44 24 28          	fld    QWORD PTR [esp+0x28]
 8051166:	dc 49 18             	fmul   QWORD PTR [ecx+0x18]
 8051169:	de c1                	faddp  st(1),st
 805116b:	dd 05 60 3a 05 08    	fld    QWORD PTR ds:0x8053a60
 8051171:	d8 c2                	fadd   st,st(2)
 8051173:	dc 25 60 3a 05 08    	fsub   QWORD PTR ds:0x8053a60
 8051179:	dc ea                	fsub   st(2),st
 805117b:	de c3                	faddp  st(3),st
 805117d:	dd 05 68 3a 05 08    	fld    QWORD PTR ds:0x8053a68
 8051183:	d8 c3                	fadd   st,st(3)
 8051185:	dc 25 68 3a 05 08    	fsub   QWORD PTR ds:0x8053a68
 805118b:	dc eb                	fsub   st(3),st
 805118d:	dd 41 10             	fld    QWORD PTR [ecx+0x10]
 8051190:	d8 c8                	fmul   st,st(0)
 8051192:	de c2                	faddp  st(2),st
 8051194:	d9 c9                	fxch   st(1)
 8051196:	dc 0d 00 3a 05 08    	fmul   QWORD PTR ds:0x8053a00
 805119c:	dd 04 24             	fld    QWORD PTR [esp]
 805119f:	dc 49 f0             	fmul   QWORD PTR [ecx-0x10]
 80511a2:	de c1                	faddp  st(1),st
 80511a4:	dd 41 e8             	fld    QWORD PTR [ecx-0x18]
 80511a7:	d8 c8                	fmul   st,st(0)
 80511a9:	de c1                	faddp  st(1),st
 80511ab:	de c1                	faddp  st(1),st
 80511ad:	dd 05 70 3a 05 08    	fld    QWORD PTR ds:0x8053a70
 80511b3:	d8 c1                	fadd   st,st(1)
 80511b5:	dc 25 70 3a 05 08    	fsub   QWORD PTR ds:0x8053a70
 80511bb:	dc e9                	fsub   st(1),st
 80511bd:	d9 ca                	fxch   st(2)
 80511bf:	dd 59 90             	fstp   QWORD PTR [ecx-0x70]
 80511c2:	dd 44 24 20          	fld    QWORD PTR [esp+0x20]
 80511c6:	dc 49 28             	fmul   QWORD PTR [ecx+0x28]
 80511c9:	dd 44 24 28          	fld    QWORD PTR [esp+0x28]
 80511cd:	dc 49 20             	fmul   QWORD PTR [ecx+0x20]
 80511d0:	de c1                	faddp  st(1),st
 80511d2:	dd 44 24 30          	fld    QWORD PTR [esp+0x30]
 80511d6:	dc 49 18             	fmul   QWORD PTR [ecx+0x18]
 80511d9:	de c1                	faddp  st(1),st
 80511db:	dc 0d 00 3a 05 08    	fmul   QWORD PTR ds:0x8053a00
 80511e1:	dd 04 24             	fld    QWORD PTR [esp]
 80511e4:	dc 49 f8             	fmul   QWORD PTR [ecx-0x8]
 80511e7:	de c1                	faddp  st(1),st
 80511e9:	dd 44 24 08          	fld    QWORD PTR [esp+0x8]
 80511ed:	dc 49 f0             	fmul   QWORD PTR [ecx-0x10]
 80511f0:	de c1                	faddp  st(1),st
 80511f2:	de c2                	faddp  st(2),st
 80511f4:	dd 05 78 3a 05 08    	fld    QWORD PTR ds:0x8053a78
 80511fa:	d8 c2                	fadd   st,st(2)
 80511fc:	dc 25 78 3a 05 08    	fsub   QWORD PTR ds:0x8053a78
 8051202:	dc ea                	fsub   st(2),st
 8051204:	d9 cb                	fxch   st(3)
 8051206:	dd 59 98             	fstp   QWORD PTR [ecx-0x68]
 8051209:	dd 44 24 28          	fld    QWORD PTR [esp+0x28]
 805120d:	dc 49 28             	fmul   QWORD PTR [ecx+0x28]
 8051210:	dd 44 24 30          	fld    QWORD PTR [esp+0x30]
 8051214:	dc 49 20             	fmul   QWORD PTR [ecx+0x20]
 8051217:	de c1                	faddp  st(1),st
 8051219:	dd 41 18             	fld    QWORD PTR [ecx+0x18]
 805121c:	d8 c8                	fmul   st,st(0)
 805121e:	de c1                	faddp  st(1),st
 8051220:	dc 0d 00 3a 05 08    	fmul   QWORD PTR ds:0x8053a00
 8051226:	dd 04 24             	fld    QWORD PTR [esp]
 8051229:	dc 09                	fmul   QWORD PTR [ecx]
 805122b:	de c1                	faddp  st(1),st
 805122d:	dd 44 24 08          	fld    QWORD PTR [esp+0x8]
 8051231:	dc 49 f8             	fmul   QWORD PTR [ecx-0x8]
 8051234:	de c1                	faddp  st(1),st
 8051236:	dd 41 f0             	fld    QWORD PTR [ecx-0x10]
 8051239:	d8 c8                	fmul   st,st(0)
 805123b:	de c1                	faddp  st(1),st
 805123d:	de c3                	faddp  st(3),st
 805123f:	dd 05 80 3a 05 08    	fld    QWORD PTR ds:0x8053a80
 8051245:	d8 c3                	fadd   st,st(3)
 8051247:	dc 25 80 3a 05 08    	fsub   QWORD PTR ds:0x8053a80
 805124d:	dc eb                	fsub   st(3),st
 805124f:	d9 c9                	fxch   st(1)
 8051251:	dd 59 a0             	fstp   QWORD PTR [ecx-0x60]
 8051254:	dd 44 24 30          	fld    QWORD PTR [esp+0x30]
 8051258:	dd 41 28             	fld    QWORD PTR [ecx+0x28]
 805125b:	dc c9                	fmul   st(1),st
 805125d:	d8 cd                	fmul   st,st(5)
 805125f:	d9 cd                	fxch   st(5)
 8051261:	dc 49 20             	fmul   QWORD PTR [ecx+0x20]
 8051264:	de c1                	faddp  st(1),st
 8051266:	dc 0d 00 3a 05 08    	fmul   QWORD PTR ds:0x8053a00
 805126c:	dd 04 24             	fld    QWORD PTR [esp]
 805126f:	dc 49 08             	fmul   QWORD PTR [ecx+0x8]
 8051272:	de c1                	faddp  st(1),st
 8051274:	dd 44 24 08          	fld    QWORD PTR [esp+0x8]
 8051278:	dc 09                	fmul   QWORD PTR [ecx]
 805127a:	de c1                	faddp  st(1),st
 805127c:	dd 44 24 10          	fld    QWORD PTR [esp+0x10]
 8051280:	dc 49 f8             	fmul   QWORD PTR [ecx-0x8]
 8051283:	de c1                	faddp  st(1),st
 8051285:	de c1                	faddp  st(1),st
 8051287:	dd 05 88 3a 05 08    	fld    QWORD PTR ds:0x8053a88
 805128d:	d8 c1                	fadd   st,st(1)
 805128f:	dc 25 88 3a 05 08    	fsub   QWORD PTR ds:0x8053a88
 8051295:	dc e9                	fsub   st(1),st
 8051297:	d9 ca                	fxch   st(2)
 8051299:	dd 59 a8             	fstp   QWORD PTR [ecx-0x58]
 805129c:	dd 41 20             	fld    QWORD PTR [ecx+0x20]
 805129f:	d8 c8                	fmul   st,st(0)
 80512a1:	de c4                	faddp  st(4),st
 80512a3:	d9 cb                	fxch   st(3)
 80512a5:	dc 0d 00 3a 05 08    	fmul   QWORD PTR ds:0x8053a00
 80512ab:	dd 04 24             	fld    QWORD PTR [esp]
 80512ae:	dc 49 10             	fmul   QWORD PTR [ecx+0x10]
 80512b1:	de c1                	faddp  st(1),st
 80512b3:	dd 44 24 08          	fld    QWORD PTR [esp+0x8]
 80512b7:	dc 49 08             	fmul   QWORD PTR [ecx+0x8]
 80512ba:	de c1                	faddp  st(1),st
 80512bc:	dd 44 24 10          	fld    QWORD PTR [esp+0x10]
 80512c0:	dc 09                	fmul   QWORD PTR [ecx]
 80512c2:	de c1                	faddp  st(1),st
 80512c4:	dd 41 f8             	fld    QWORD PTR [ecx-0x8]
 80512c7:	d8 c8                	fmul   st,st(0)
 80512c9:	de c1                	faddp  st(1),st
 80512cb:	de c1                	faddp  st(1),st
 80512cd:	dd 05 90 3a 05 08    	fld    QWORD PTR ds:0x8053a90
 80512d3:	d8 c1                	fadd   st,st(1)
 80512d5:	dc 25 90 3a 05 08    	fsub   QWORD PTR ds:0x8053a90
 80512db:	dc e9                	fsub   st(1),st
 80512dd:	dd 41 20             	fld    QWORD PTR [ecx+0x20]
 80512e0:	d8 c0                	fadd   st,st(0)
 80512e2:	dc 49 28             	fmul   QWORD PTR [ecx+0x28]
 80512e5:	dc 0d 00 3a 05 08    	fmul   QWORD PTR ds:0x8053a00
 80512eb:	dd 04 24             	fld    QWORD PTR [esp]
 80512ee:	dc 49 18             	fmul   QWORD PTR [ecx+0x18]
 80512f1:	de c1                	faddp  st(1),st
 80512f3:	dd 44 24 08          	fld    QWORD PTR [esp+0x8]
 80512f7:	dc 49 10             	fmul   QWORD PTR [ecx+0x10]
 80512fa:	de c1                	faddp  st(1),st
 80512fc:	dd 44 24 10          	fld    QWORD PTR [esp+0x10]
 8051300:	dc 49 08             	fmul   QWORD PTR [ecx+0x8]
 8051303:	de c1                	faddp  st(1),st
 8051305:	dd 44 24 18          	fld    QWORD PTR [esp+0x18]
 8051309:	dc 09                	fmul   QWORD PTR [ecx]
 805130b:	de c1                	faddp  st(1),st
 805130d:	de c1                	faddp  st(1),st
 805130f:	dd 05 98 3a 05 08    	fld    QWORD PTR ds:0x8053a98
 8051315:	d8 c1                	fadd   st,st(1)
 8051317:	dc 25 98 3a 05 08    	fsub   QWORD PTR ds:0x8053a98
 805131d:	dc e9                	fsub   st(1),st
 805131f:	dd 42 88             	fld    QWORD PTR [edx-0x78]
 8051322:	de c1                	faddp  st(1),st
 8051324:	dd 05 a0 3a 05 08    	fld    QWORD PTR ds:0x8053aa0
 805132a:	d8 c1                	fadd   st,st(1)
 805132c:	dd 42 90             	fld    QWORD PTR [edx-0x70]
 805132f:	d9 c9                	fxch   st(1)
 8051331:	dc 25 a0 3a 05 08    	fsub   QWORD PTR ds:0x8053aa0
 8051337:	dc ea                	fsub   st(2),st
 8051339:	de c1                	faddp  st(1),st
 805133b:	d9 cc                	fxch   st(4)
 805133d:	dd 59 b0             	fstp   QWORD PTR [ecx-0x50]
 8051340:	d9 cc                	fxch   st(4)
 8051342:	dd 59 b8             	fstp   QWORD PTR [ecx-0x48]
 8051345:	d9 c9                	fxch   st(1)
 8051347:	dd 59 c0             	fstp   QWORD PTR [ecx-0x40]
 805134a:	dd 59 c8             	fstp   QWORD PTR [ecx-0x38]
 805134d:	d9 c9                	fxch   st(1)
 805134f:	dd 59 d0             	fstp   QWORD PTR [ecx-0x30]
 8051352:	dd 59 d8             	fstp   QWORD PTR [ecx-0x28]
 8051355:	dd 42 d8             	fld    QWORD PTR [edx-0x28]
 8051358:	dd 41 30             	fld    QWORD PTR [ecx+0x30]
 805135b:	dc c1                	fadd   st(1),st
 805135d:	dc 62 d8             	fsub   QWORD PTR [edx-0x28]
 8051360:	d9 c9                	fxch   st(1)
 8051362:	dd 5a 88             	fstp   QWORD PTR [edx-0x78]
 8051365:	dd 5a d8             	fstp   QWORD PTR [edx-0x28]
 8051368:	dd 42 e0             	fld    QWORD PTR [edx-0x20]
 805136b:	dd 41 38             	fld    QWORD PTR [ecx+0x38]
 805136e:	dc c1                	fadd   st(1),st
 8051370:	dc 62 e0             	fsub   QWORD PTR [edx-0x20]
 8051373:	d9 c9                	fxch   st(1)
 8051375:	dd 5a 90             	fstp   QWORD PTR [edx-0x70]
 8051378:	dd 5a e0             	fstp   QWORD PTR [edx-0x20]
 805137b:	dd 42 98             	fld    QWORD PTR [edx-0x68]
 805137e:	dd 42 e8             	fld    QWORD PTR [edx-0x18]
 8051381:	dc c1                	fadd   st(1),st
 8051383:	dc 62 98             	fsub   QWORD PTR [edx-0x68]
 8051386:	d9 c9                	fxch   st(1)
 8051388:	dd 5a 98             	fstp   QWORD PTR [edx-0x68]
 805138b:	dd 5a e8             	fstp   QWORD PTR [edx-0x18]
 805138e:	dd 42 f0             	fld    QWORD PTR [edx-0x10]
 8051391:	dd 42 a0             	fld    QWORD PTR [edx-0x60]
 8051394:	dc c1                	fadd   st(1),st
 8051396:	dc 62 f0             	fsub   QWORD PTR [edx-0x10]
 8051399:	d9 c9                	fxch   st(1)
 805139b:	dd 5a a0             	fstp   QWORD PTR [edx-0x60]
 805139e:	dd 5a f0             	fstp   QWORD PTR [edx-0x10]
 80513a1:	dd 42 f8             	fld    QWORD PTR [edx-0x8]
 80513a4:	dd 42 a8             	fld    QWORD PTR [edx-0x58]
 80513a7:	dc c1                	fadd   st(1),st
 80513a9:	dc 62 f8             	fsub   QWORD PTR [edx-0x8]
 80513ac:	d9 c9                	fxch   st(1)
 80513ae:	dd 5a a8             	fstp   QWORD PTR [edx-0x58]
 80513b1:	dd 5a f8             	fstp   QWORD PTR [edx-0x8]
 80513b4:	dd 02                	fld    QWORD PTR [edx]
 80513b6:	dd 42 b0             	fld    QWORD PTR [edx-0x50]
 80513b9:	dc c1                	fadd   st(1),st
 80513bb:	dc 22                	fsub   QWORD PTR [edx]
 80513bd:	d9 c9                	fxch   st(1)
 80513bf:	dd 5a b0             	fstp   QWORD PTR [edx-0x50]
 80513c2:	dd 1a                	fstp   QWORD PTR [edx]
 80513c4:	dd 42 08             	fld    QWORD PTR [edx+0x8]
 80513c7:	dd 42 b8             	fld    QWORD PTR [edx-0x48]
 80513ca:	dc c1                	fadd   st(1),st
 80513cc:	dc 62 08             	fsub   QWORD PTR [edx+0x8]
 80513cf:	d9 c9                	fxch   st(1)
 80513d1:	dd 5a b8             	fstp   QWORD PTR [edx-0x48]
 80513d4:	dd 5a 08             	fstp   QWORD PTR [edx+0x8]
 80513d7:	dd 42 10             	fld    QWORD PTR [edx+0x10]
 80513da:	dd 42 c0             	fld    QWORD PTR [edx-0x40]
 80513dd:	dc c1                	fadd   st(1),st
 80513df:	dc 62 10             	fsub   QWORD PTR [edx+0x10]
 80513e2:	d9 c9                	fxch   st(1)
 80513e4:	dd 5a c0             	fstp   QWORD PTR [edx-0x40]
 80513e7:	dd 5a 10             	fstp   QWORD PTR [edx+0x10]
 80513ea:	dd 42 18             	fld    QWORD PTR [edx+0x18]
 80513ed:	dd 42 c8             	fld    QWORD PTR [edx-0x38]
 80513f0:	dc c1                	fadd   st(1),st
 80513f2:	dc 62 18             	fsub   QWORD PTR [edx+0x18]
 80513f5:	d9 c9                	fxch   st(1)
 80513f7:	dd 5a c8             	fstp   QWORD PTR [edx-0x38]
 80513fa:	dd 5a 18             	fstp   QWORD PTR [edx+0x18]
 80513fd:	dd 42 20             	fld    QWORD PTR [edx+0x20]
 8051400:	dd 42 d0             	fld    QWORD PTR [edx-0x30]
 8051403:	dc c1                	fadd   st(1),st
 8051405:	dc 62 20             	fsub   QWORD PTR [edx+0x20]
 8051408:	d9 c9                	fxch   st(1)
 805140a:	dd 5a d0             	fstp   QWORD PTR [edx-0x30]
 805140d:	dd 5a 20             	fstp   QWORD PTR [edx+0x20]
 8051410:	dd 42 40             	fld    QWORD PTR [edx+0x40]
 8051413:	dc 61 90             	fsub   QWORD PTR [ecx-0x70]
 8051416:	dd 59 e0             	fstp   QWORD PTR [ecx-0x20]
 8051419:	dd 42 48             	fld    QWORD PTR [edx+0x48]
 805141c:	dc 61 98             	fsub   QWORD PTR [ecx-0x68]
 805141f:	dd 59 e8             	fstp   QWORD PTR [ecx-0x18]
 8051422:	dd 42 50             	fld    QWORD PTR [edx+0x50]
 8051425:	dc 61 a0             	fsub   QWORD PTR [ecx-0x60]
 8051428:	dd 59 f0             	fstp   QWORD PTR [ecx-0x10]
 805142b:	dd 42 58             	fld    QWORD PTR [edx+0x58]
 805142e:	dc 61 a8             	fsub   QWORD PTR [ecx-0x58]
 8051431:	dd 59 f8             	fstp   QWORD PTR [ecx-0x8]
 8051434:	dd 42 60             	fld    QWORD PTR [edx+0x60]
 8051437:	dc 61 b0             	fsub   QWORD PTR [ecx-0x50]
 805143a:	dd 19                	fstp   QWORD PTR [ecx]
 805143c:	dd 42 68             	fld    QWORD PTR [edx+0x68]
 805143f:	dc 61 b8             	fsub   QWORD PTR [ecx-0x48]
 8051442:	dd 59 08             	fstp   QWORD PTR [ecx+0x8]
 8051445:	dd 42 70             	fld    QWORD PTR [edx+0x70]
 8051448:	dc 61 c0             	fsub   QWORD PTR [ecx-0x40]
 805144b:	dd 59 10             	fstp   QWORD PTR [ecx+0x10]
 805144e:	dd 42 78             	fld    QWORD PTR [edx+0x78]
 8051451:	dc 61 c8             	fsub   QWORD PTR [ecx-0x38]
 8051454:	dd 59 18             	fstp   QWORD PTR [ecx+0x18]
 8051457:	dd 41 80             	fld    QWORD PTR [ecx-0x80]
 805145a:	dc 61 d0             	fsub   QWORD PTR [ecx-0x30]
 805145d:	dd 59 20             	fstp   QWORD PTR [ecx+0x20]
 8051460:	dd 41 88             	fld    QWORD PTR [ecx-0x78]
 8051463:	dc 61 d8             	fsub   QWORD PTR [ecx-0x28]
 8051466:	dd 59 28             	fstp   QWORD PTR [ecx+0x28]
 8051469:	dd 42 d0             	fld    QWORD PTR [edx-0x30]
 805146c:	d8 c8                	fmul   st,st(0)
 805146e:	dd 42 88             	fld    QWORD PTR [edx-0x78]
 8051471:	d8 c0                	fadd   st,st(0)
 8051473:	dd 42 90             	fld    QWORD PTR [edx-0x70]
 8051476:	d8 c0                	fadd   st,st(0)
 8051478:	dd 42 98             	fld    QWORD PTR [edx-0x68]
 805147b:	d8 c0                	fadd   st,st(0)
 805147d:	dd 42 c0             	fld    QWORD PTR [edx-0x40]
 8051480:	d9 cc                	fxch   st(4)
 8051482:	dc 0d 00 3a 05 08    	fmul   QWORD PTR ds:0x8053a00
 8051488:	dd 42 d0             	fld    QWORD PTR [edx-0x30]
 805148b:	d8 cc                	fmul   st,st(4)
 805148d:	dd 42 c8             	fld    QWORD PTR [edx-0x38]
 8051490:	d8 cc                	fmul   st,st(4)
 8051492:	de c1                	faddp  st(1),st
 8051494:	d9 cc                	fxch   st(4)
 8051496:	dd 14 24             	fst    QWORD PTR [esp]
 8051499:	d9 cb                	fxch   st(3)
 805149b:	dd 54 24 08          	fst    QWORD PTR [esp+0x8]
 805149f:	d9 cb                	fxch   st(3)
 80514a1:	dc 4a c8             	fmul   QWORD PTR [edx-0x38]
 80514a4:	de c1                	faddp  st(1),st
 80514a6:	dd 42 b8             	fld    QWORD PTR [edx-0x48]
 80514a9:	d9 cd                	fxch   st(5)
 80514ab:	dc cb                	fmul   st(3),st
 80514ad:	d9 cb                	fxch   st(3)
 80514af:	de c1                	faddp  st(1),st
 80514b1:	d9 ca                	fxch   st(2)
 80514b3:	d8 c0                	fadd   st,st(0)
 80514b5:	dd 42 c0             	fld    QWORD PTR [edx-0x40]
 80514b8:	d8 ca                	fmul   st,st(2)
 80514ba:	de c4                	faddp  st(4),st
 80514bc:	d9 c9                	fxch   st(1)
 80514be:	dd 54 24 10          	fst    QWORD PTR [esp+0x10]
 80514c2:	dd 42 b0             	fld    QWORD PTR [edx-0x50]
 80514c5:	d9 cd                	fxch   st(5)
 80514c7:	dc c9                	fmul   st(1),st
 80514c9:	d9 c9                	fxch   st(1)
 80514cb:	de c3                	faddp  st(3),st
 80514cd:	d8 c0                	fadd   st,st(0)
 80514cf:	dd 5c 24 30          	fstp   QWORD PTR [esp+0x30]
 80514d3:	dd 42 a0             	fld    QWORD PTR [edx-0x60]
 80514d6:	d8 c0                	fadd   st,st(0)
 80514d8:	dd 54 24 18          	fst    QWORD PTR [esp+0x18]
 80514dc:	dd 42 b8             	fld    QWORD PTR [edx-0x48]
 80514df:	d8 c9                	fmul   st,st(1)
 80514e1:	de c4                	faddp  st(4),st
 80514e3:	d8 cc                	fmul   st,st(4)
 80514e5:	de c2                	faddp  st(2),st
 80514e7:	d9 cb                	fxch   st(3)
 80514e9:	d8 c0                	fadd   st,st(0)
 80514eb:	dd 5c 24 28          	fstp   QWORD PTR [esp+0x28]
 80514ef:	dd 42 a8             	fld    QWORD PTR [edx-0x58]
 80514f2:	d8 c8                	fmul   st,st(0)
 80514f4:	de c1                	faddp  st(1),st
 80514f6:	dd 05 a0 3a 05 08    	fld    QWORD PTR ds:0x8053aa0
 80514fc:	d8 c1                	fadd   st,st(1)
 80514fe:	dc 25 a0 3a 05 08    	fsub   QWORD PTR ds:0x8053aa0
 8051504:	dc e9                	fsub   st(1),st
 8051506:	dd 44 24 08          	fld    QWORD PTR [esp+0x8]
 805150a:	dd 42 d0             	fld    QWORD PTR [edx-0x30]
 805150d:	dc c9                	fmul   st(1),st
 805150f:	dd 44 24 10          	fld    QWORD PTR [esp+0x10]
 8051513:	dc c9                	fmul   st(1),st
 8051515:	dd 42 c8             	fld    QWORD PTR [edx-0x38]
 8051518:	dc c9                	fmul   st(1),st
 805151a:	d9 c9                	fxch   st(1)
 805151c:	de c3                	faddp  st(3),st
 805151e:	dd 44 24 18          	fld    QWORD PTR [esp+0x18]
 8051522:	dc c9                	fmul   st(1),st
 8051524:	d9 c9                	fxch   st(1)
 8051526:	de c2                	faddp  st(2),st
 8051528:	dd 42 a8             	fld    QWORD PTR [edx-0x58]
 805152b:	d8 c0                	fadd   st,st(0)
 805152d:	dd 54 24 20          	fst    QWORD PTR [esp+0x20]
 8051531:	dc 4a b0             	fmul   QWORD PTR [edx-0x50]
 8051534:	de c6                	faddp  st(6),st
 8051536:	d9 cb                	fxch   st(3)
 8051538:	de c5                	faddp  st(5),st
 805153a:	dd 05 a8 3a 05 08    	fld    QWORD PTR ds:0x8053aa8
 8051540:	d8 c5                	fadd   st,st(5)
 8051542:	dc 25 a8 3a 05 08    	fsub   QWORD PTR ds:0x8053aa8
 8051548:	dc ed                	fsub   st(5),st
 805154a:	dd 42 c0             	fld    QWORD PTR [edx-0x40]
 805154d:	dc cc                	fmul   st(4),st
 805154f:	d9 cc                	fxch   st(4)
 8051551:	de c3                	faddp  st(3),st
 8051553:	dd 44 24 20          	fld    QWORD PTR [esp+0x20]
 8051557:	dc cc                	fmul   st(4),st
 8051559:	d9 cc                	fxch   st(4)
 805155b:	de c2                	faddp  st(2),st
 805155d:	dd 42 b8             	fld    QWORD PTR [edx-0x48]
 8051560:	dc cc                	fmul   st(4),st
 8051562:	d9 cc                	fxch   st(4)
 8051564:	de c3                	faddp  st(3),st
 8051566:	d9 cb                	fxch   st(3)
 8051568:	dc 4c 24 28          	fmul   QWORD PTR [esp+0x28]
 805156c:	de c1                	faddp  st(1),st
 805156e:	d9 cb                	fxch   st(3)
 8051570:	dd 5a 30             	fstp   QWORD PTR [edx+0x30]
 8051573:	dd 42 b0             	fld    QWORD PTR [edx-0x50]
 8051576:	d8 c8                	fmul   st,st(0)
 8051578:	de c1                	faddp  st(1),st
 805157a:	d9 ca                	fxch   st(2)
 805157c:	dc 0d 00 3a 05 08    	fmul   QWORD PTR ds:0x8053a00
 8051582:	d9 cb                	fxch   st(3)
 8051584:	dd 5a 38             	fstp   QWORD PTR [edx+0x38]
 8051587:	de c1                	faddp  st(1),st
 8051589:	dc 0d 00 3a 05 08    	fmul   QWORD PTR ds:0x8053a00
 805158f:	dd 44 24 18          	fld    QWORD PTR [esp+0x18]
 8051593:	dc 4a d0             	fmul   QWORD PTR [edx-0x30]
 8051596:	dd 42 88             	fld    QWORD PTR [edx-0x78]
 8051599:	d8 c8                	fmul   st,st(0)
 805159b:	de c2                	faddp  st(2),st
 805159d:	dd 44 24 20          	fld    QWORD PTR [esp+0x20]
 80515a1:	dc 4a c8             	fmul   QWORD PTR [edx-0x38]
 80515a4:	de c1                	faddp  st(1),st
 80515a6:	dd 04 24             	fld    QWORD PTR [esp]
 80515a9:	dc 4a 90             	fmul   QWORD PTR [edx-0x70]
 80515ac:	de c3                	faddp  st(3),st
 80515ae:	dd 44 24 28          	fld    QWORD PTR [esp+0x28]
 80515b2:	dc 4a c0             	fmul   QWORD PTR [edx-0x40]
 80515b5:	de c1                	faddp  st(1),st
 80515b7:	dd 05 60 3a 05 08    	fld    QWORD PTR ds:0x8053a60
 80515bd:	d8 c2                	fadd   st,st(2)
 80515bf:	dc 25 60 3a 05 08    	fsub   QWORD PTR ds:0x8053a60
 80515c5:	dc ea                	fsub   st(2),st
 80515c7:	de c3                	faddp  st(3),st
 80515c9:	dd 05 68 3a 05 08    	fld    QWORD PTR ds:0x8053a68
 80515cf:	d8 c3                	fadd   st,st(3)
 80515d1:	dc 25 68 3a 05 08    	fsub   QWORD PTR ds:0x8053a68
 80515d7:	dc eb                	fsub   st(3),st
 80515d9:	dd 42 b8             	fld    QWORD PTR [edx-0x48]
 80515dc:	d8 c8                	fmul   st,st(0)
 80515de:	de c2                	faddp  st(2),st
 80515e0:	d9 c9                	fxch   st(1)
 80515e2:	dc 0d 00 3a 05 08    	fmul   QWORD PTR ds:0x8053a00
 80515e8:	dd 04 24             	fld    QWORD PTR [esp]
 80515eb:	dc 4a 98             	fmul   QWORD PTR [edx-0x68]
 80515ee:	de c1                	faddp  st(1),st
 80515f0:	dd 42 90             	fld    QWORD PTR [edx-0x70]
 80515f3:	d8 c8                	fmul   st,st(0)
 80515f5:	de c1                	faddp  st(1),st
 80515f7:	de c1                	faddp  st(1),st
 80515f9:	dd 05 70 3a 05 08    	fld    QWORD PTR ds:0x8053a70
 80515ff:	d8 c1                	fadd   st,st(1)
 8051601:	dc 25 70 3a 05 08    	fsub   QWORD PTR ds:0x8053a70
 8051607:	dc e9                	fsub   st(1),st
 8051609:	d9 ca                	fxch   st(2)
 805160b:	dd 5a 88             	fstp   QWORD PTR [edx-0x78]
 805160e:	dd 44 24 20          	fld    QWORD PTR [esp+0x20]
 8051612:	dc 4a d0             	fmul   QWORD PTR [edx-0x30]
 8051615:	dd 44 24 28          	fld    QWORD PTR [esp+0x28]
 8051619:	dc 4a c8             	fmul   QWORD PTR [edx-0x38]
 805161c:	de c1                	faddp  st(1),st
 805161e:	dd 44 24 30          	fld    QWORD PTR [esp+0x30]
 8051622:	dc 4a c0             	fmul   QWORD PTR [edx-0x40]
 8051625:	de c1                	faddp  st(1),st
 8051627:	dc 0d 00 3a 05 08    	fmul   QWORD PTR ds:0x8053a00
 805162d:	dd 04 24             	fld    QWORD PTR [esp]
 8051630:	dc 4a a0             	fmul   QWORD PTR [edx-0x60]
 8051633:	de c1                	faddp  st(1),st
 8051635:	dd 44 24 08          	fld    QWORD PTR [esp+0x8]
 8051639:	dc 4a 98             	fmul   QWORD PTR [edx-0x68]
 805163c:	de c1                	faddp  st(1),st
 805163e:	de c2                	faddp  st(2),st
 8051640:	dd 05 78 3a 05 08    	fld    QWORD PTR ds:0x8053a78
 8051646:	d8 c2                	fadd   st,st(2)
 8051648:	dc 25 78 3a 05 08    	fsub   QWORD PTR ds:0x8053a78
 805164e:	dc ea                	fsub   st(2),st
 8051650:	d9 cb                	fxch   st(3)
 8051652:	dd 5a 90             	fstp   QWORD PTR [edx-0x70]
 8051655:	dd 44 24 28          	fld    QWORD PTR [esp+0x28]
 8051659:	dc 4a d0             	fmul   QWORD PTR [edx-0x30]
 805165c:	dd 44 24 30          	fld    QWORD PTR [esp+0x30]
 8051660:	dc 4a c8             	fmul   QWORD PTR [edx-0x38]
 8051663:	de c1                	faddp  st(1),st
 8051665:	dd 42 c0             	fld    QWORD PTR [edx-0x40]
 8051668:	d8 c8                	fmul   st,st(0)
 805166a:	de c1                	faddp  st(1),st
 805166c:	dc 0d 00 3a 05 08    	fmul   QWORD PTR ds:0x8053a00
 8051672:	dd 04 24             	fld    QWORD PTR [esp]
 8051675:	dc 4a a8             	fmul   QWORD PTR [edx-0x58]
 8051678:	de c1                	faddp  st(1),st
 805167a:	dd 44 24 08          	fld    QWORD PTR [esp+0x8]
 805167e:	dc 4a a0             	fmul   QWORD PTR [edx-0x60]
 8051681:	de c1                	faddp  st(1),st
 8051683:	dd 42 98             	fld    QWORD PTR [edx-0x68]
 8051686:	d8 c8                	fmul   st,st(0)
 8051688:	de c1                	faddp  st(1),st
 805168a:	de c3                	faddp  st(3),st
 805168c:	dd 05 80 3a 05 08    	fld    QWORD PTR ds:0x8053a80
 8051692:	d8 c3                	fadd   st,st(3)
 8051694:	dc 25 80 3a 05 08    	fsub   QWORD PTR ds:0x8053a80
 805169a:	dc eb                	fsub   st(3),st
 805169c:	d9 c9                	fxch   st(1)
 805169e:	dd 5a 98             	fstp   QWORD PTR [edx-0x68]
 80516a1:	dd 44 24 30          	fld    QWORD PTR [esp+0x30]
 80516a5:	dd 42 d0             	fld    QWORD PTR [edx-0x30]
 80516a8:	dc c9                	fmul   st(1),st
 80516aa:	d8 cd                	fmul   st,st(5)
 80516ac:	d9 cd                	fxch   st(5)
 80516ae:	dc 4a c8             	fmul   QWORD PTR [edx-0x38]
 80516b1:	de c1                	faddp  st(1),st
 80516b3:	dc 0d 00 3a 05 08    	fmul   QWORD PTR ds:0x8053a00
 80516b9:	dd 04 24             	fld    QWORD PTR [esp]
 80516bc:	dc 4a b0             	fmul   QWORD PTR [edx-0x50]
 80516bf:	de c1                	faddp  st(1),st
 80516c1:	dd 44 24 08          	fld    QWORD PTR [esp+0x8]
 80516c5:	dc 4a a8             	fmul   QWORD PTR [edx-0x58]
 80516c8:	de c1                	faddp  st(1),st
 80516ca:	dd 44 24 10          	fld    QWORD PTR [esp+0x10]
 80516ce:	dc 4a a0             	fmul   QWORD PTR [edx-0x60]
 80516d1:	de c1                	faddp  st(1),st
 80516d3:	de c1                	faddp  st(1),st
 80516d5:	dd 05 88 3a 05 08    	fld    QWORD PTR ds:0x8053a88
 80516db:	d8 c1                	fadd   st,st(1)
 80516dd:	dc 25 88 3a 05 08    	fsub   QWORD PTR ds:0x8053a88
 80516e3:	dc e9                	fsub   st(1),st
 80516e5:	d9 ca                	fxch   st(2)
 80516e7:	dd 5a 28             	fstp   QWORD PTR [edx+0x28]
 80516ea:	dd 42 c8             	fld    QWORD PTR [edx-0x38]
 80516ed:	d8 c8                	fmul   st,st(0)
 80516ef:	de c4                	faddp  st(4),st
 80516f1:	d9 cb                	fxch   st(3)
 80516f3:	dc 0d 00 3a 05 08    	fmul   QWORD PTR ds:0x8053a00
 80516f9:	dd 04 24             	fld    QWORD PTR [esp]
 80516fc:	dc 4a b8             	fmul   QWORD PTR [edx-0x48]
 80516ff:	de c1                	faddp  st(1),st
 8051701:	dd 44 24 08          	fld    QWORD PTR [esp+0x8]
 8051705:	dc 4a b0             	fmul   QWORD PTR [edx-0x50]
 8051708:	de c1                	faddp  st(1),st
 805170a:	dd 44 24 10          	fld    QWORD PTR [esp+0x10]
 805170e:	dc 4a a8             	fmul   QWORD PTR [edx-0x58]
 8051711:	de c1                	faddp  st(1),st
 8051713:	dd 42 a0             	fld    QWORD PTR [edx-0x60]
 8051716:	d8 c8                	fmul   st,st(0)
 8051718:	de c1                	faddp  st(1),st
 805171a:	de c1                	faddp  st(1),st
 805171c:	dd 05 90 3a 05 08    	fld    QWORD PTR ds:0x8053a90
 8051722:	d8 c1                	fadd   st,st(1)
 8051724:	dc 25 90 3a 05 08    	fsub   QWORD PTR ds:0x8053a90
 805172a:	dc e9                	fsub   st(1),st
 805172c:	dd 42 c8             	fld    QWORD PTR [edx-0x38]
 805172f:	d8 c0                	fadd   st,st(0)
 8051731:	dc 4a d0             	fmul   QWORD PTR [edx-0x30]
 8051734:	dc 0d 00 3a 05 08    	fmul   QWORD PTR ds:0x8053a00
 805173a:	dd 04 24             	fld    QWORD PTR [esp]
 805173d:	dc 4a c0             	fmul   QWORD PTR [edx-0x40]
 8051740:	de c1                	faddp  st(1),st
 8051742:	dd 44 24 08          	fld    QWORD PTR [esp+0x8]
 8051746:	dc 4a b8             	fmul   QWORD PTR [edx-0x48]
 8051749:	de c1                	faddp  st(1),st
 805174b:	dd 44 24 10          	fld    QWORD PTR [esp+0x10]
 805174f:	dc 4a b0             	fmul   QWORD PTR [edx-0x50]
 8051752:	de c1                	faddp  st(1),st
 8051754:	dd 44 24 18          	fld    QWORD PTR [esp+0x18]
 8051758:	dc 4a a8             	fmul   QWORD PTR [edx-0x58]
 805175b:	de c1                	faddp  st(1),st
 805175d:	de c1                	faddp  st(1),st
 805175f:	dd 05 98 3a 05 08    	fld    QWORD PTR ds:0x8053a98
 8051765:	d8 c1                	fadd   st,st(1)
 8051767:	dc 25 98 3a 05 08    	fsub   QWORD PTR ds:0x8053a98
 805176d:	dc e9                	fsub   st(1),st
 805176f:	dd 42 30             	fld    QWORD PTR [edx+0x30]
 8051772:	de c1                	faddp  st(1),st
 8051774:	dd 05 a0 3a 05 08    	fld    QWORD PTR ds:0x8053aa0
 805177a:	d8 c1                	fadd   st,st(1)
 805177c:	dd 42 38             	fld    QWORD PTR [edx+0x38]
 805177f:	d9 c9                	fxch   st(1)
 8051781:	dc 25 a0 3a 05 08    	fsub   QWORD PTR ds:0x8053aa0
 8051787:	dc ea                	fsub   st(2),st
 8051789:	de c1                	faddp  st(1),st
 805178b:	d9 cc                	fxch   st(4)
 805178d:	dd 5a a0             	fstp   QWORD PTR [edx-0x60]
 8051790:	d9 cc                	fxch   st(4)
 8051792:	dd 5a a8             	fstp   QWORD PTR [edx-0x58]
 8051795:	d9 c9                	fxch   st(1)
 8051797:	dd 5a b0             	fstp   QWORD PTR [edx-0x50]
 805179a:	dd 5a b8             	fstp   QWORD PTR [edx-0x48]
 805179d:	d9 c9                	fxch   st(1)
 805179f:	dd 5a c0             	fstp   QWORD PTR [edx-0x40]
 80517a2:	dd 5a c8             	fstp   QWORD PTR [edx-0x38]
 80517a5:	dd 42 20             	fld    QWORD PTR [edx+0x20]
 80517a8:	d8 c8                	fmul   st,st(0)
 80517aa:	dd 42 d8             	fld    QWORD PTR [edx-0x28]
 80517ad:	d8 c0                	fadd   st,st(0)
 80517af:	dd 42 e0             	fld    QWORD PTR [edx-0x20]
 80517b2:	d8 c0                	fadd   st,st(0)
 80517b4:	dd 42 e8             	fld    QWORD PTR [edx-0x18]
 80517b7:	d8 c0                	fadd   st,st(0)
 80517b9:	dd 42 10             	fld    QWORD PTR [edx+0x10]
 80517bc:	d9 cc                	fxch   st(4)
 80517be:	dc 0d 00 3a 05 08    	fmul   QWORD PTR ds:0x8053a00
 80517c4:	dd 42 20             	fld    QWORD PTR [edx+0x20]
 80517c7:	d8 cc                	fmul   st,st(4)
 80517c9:	dd 42 18             	fld    QWORD PTR [edx+0x18]
 80517cc:	d8 cc                	fmul   st,st(4)
 80517ce:	de c1                	faddp  st(1),st
 80517d0:	d9 cc                	fxch   st(4)
 80517d2:	dd 14 24             	fst    QWORD PTR [esp]
 80517d5:	d9 cb                	fxch   st(3)
 80517d7:	dd 54 24 08          	fst    QWORD PTR [esp+0x8]
 80517db:	d9 cb                	fxch   st(3)
 80517dd:	dc 4a 18             	fmul   QWORD PTR [edx+0x18]
 80517e0:	de c1                	faddp  st(1),st
 80517e2:	dd 42 08             	fld    QWORD PTR [edx+0x8]
 80517e5:	d9 cd                	fxch   st(5)
 80517e7:	dc cb                	fmul   st(3),st
 80517e9:	d9 cb                	fxch   st(3)
 80517eb:	de c1                	faddp  st(1),st
 80517ed:	d9 ca                	fxch   st(2)
 80517ef:	d8 c0                	fadd   st,st(0)
 80517f1:	dd 42 10             	fld    QWORD PTR [edx+0x10]
 80517f4:	d8 ca                	fmul   st,st(2)
 80517f6:	de c4                	faddp  st(4),st
 80517f8:	d9 c9                	fxch   st(1)
 80517fa:	dd 54 24 10          	fst    QWORD PTR [esp+0x10]
 80517fe:	dd 02                	fld    QWORD PTR [edx]
 8051800:	d9 cd                	fxch   st(5)
 8051802:	dc c9                	fmul   st(1),st
 8051804:	d9 c9                	fxch   st(1)
 8051806:	de c3                	faddp  st(3),st
 8051808:	d8 c0                	fadd   st,st(0)
 805180a:	dd 5c 24 30          	fstp   QWORD PTR [esp+0x30]
 805180e:	dd 42 f0             	fld    QWORD PTR [edx-0x10]
 8051811:	d8 c0                	fadd   st,st(0)
 8051813:	dd 54 24 18          	fst    QWORD PTR [esp+0x18]
 8051817:	dd 42 08             	fld    QWORD PTR [edx+0x8]
 805181a:	d8 c9                	fmul   st,st(1)
 805181c:	de c4                	faddp  st(4),st
 805181e:	d8 cc                	fmul   st,st(4)
 8051820:	de c2                	faddp  st(2),st
 8051822:	d9 cb                	fxch   st(3)
 8051824:	d8 c0                	fadd   st,st(0)
 8051826:	dd 5c 24 28          	fstp   QWORD PTR [esp+0x28]
 805182a:	dd 42 f8             	fld    QWORD PTR [edx-0x8]
 805182d:	d8 c8                	fmul   st,st(0)
 805182f:	de c1                	faddp  st(1),st
 8051831:	dd 05 a0 3a 05 08    	fld    QWORD PTR ds:0x8053aa0
 8051837:	d8 c1                	fadd   st,st(1)
 8051839:	dc 25 a0 3a 05 08    	fsub   QWORD PTR ds:0x8053aa0
 805183f:	dc e9                	fsub   st(1),st
 8051841:	dd 44 24 08          	fld    QWORD PTR [esp+0x8]
 8051845:	dd 42 20             	fld    QWORD PTR [edx+0x20]
 8051848:	dc c9                	fmul   st(1),st
 805184a:	dd 44 24 10          	fld    QWORD PTR [esp+0x10]
 805184e:	dc c9                	fmul   st(1),st
 8051850:	dd 42 18             	fld    QWORD PTR [edx+0x18]
 8051853:	dc c9                	fmul   st(1),st
 8051855:	d9 c9                	fxch   st(1)
 8051857:	de c3                	faddp  st(3),st
 8051859:	dd 44 24 18          	fld    QWORD PTR [esp+0x18]
 805185d:	dc c9                	fmul   st(1),st
 805185f:	d9 c9                	fxch   st(1)
 8051861:	de c2                	faddp  st(2),st
 8051863:	dd 42 f8             	fld    QWORD PTR [edx-0x8]
 8051866:	d8 c0                	fadd   st,st(0)
 8051868:	dd 54 24 20          	fst    QWORD PTR [esp+0x20]
 805186c:	dc 0a                	fmul   QWORD PTR [edx]
 805186e:	de c6                	faddp  st(6),st
 8051870:	d9 cb                	fxch   st(3)
 8051872:	de c5                	faddp  st(5),st
 8051874:	dd 05 a8 3a 05 08    	fld    QWORD PTR ds:0x8053aa8
 805187a:	d8 c5                	fadd   st,st(5)
 805187c:	dc 25 a8 3a 05 08    	fsub   QWORD PTR ds:0x8053aa8
 8051882:	dc ed                	fsub   st(5),st
 8051884:	dd 42 10             	fld    QWORD PTR [edx+0x10]
 8051887:	dc cc                	fmul   st(4),st
 8051889:	d9 cc                	fxch   st(4)
 805188b:	de c3                	faddp  st(3),st
 805188d:	dd 44 24 20          	fld    QWORD PTR [esp+0x20]
 8051891:	dc cc                	fmul   st(4),st
 8051893:	d9 cc                	fxch   st(4)
 8051895:	de c2                	faddp  st(2),st
 8051897:	dd 42 08             	fld    QWORD PTR [edx+0x8]
 805189a:	dc cc                	fmul   st(4),st
 805189c:	d9 cc                	fxch   st(4)
 805189e:	de c3                	faddp  st(3),st
 80518a0:	d9 cb                	fxch   st(3)
 80518a2:	dc 4c 24 28          	fmul   QWORD PTR [esp+0x28]
 80518a6:	de c1                	faddp  st(1),st
 80518a8:	d9 cb                	fxch   st(3)
 80518aa:	dd 5a d0             	fstp   QWORD PTR [edx-0x30]
 80518ad:	dd 02                	fld    QWORD PTR [edx]
 80518af:	d8 c8                	fmul   st,st(0)
 80518b1:	de c1                	faddp  st(1),st
 80518b3:	d9 ca                	fxch   st(2)
 80518b5:	dc 0d 00 3a 05 08    	fmul   QWORD PTR ds:0x8053a00
 80518bb:	d9 cb                	fxch   st(3)
 80518bd:	dd 5a 30             	fstp   QWORD PTR [edx+0x30]
 80518c0:	de c1                	faddp  st(1),st
 80518c2:	dc 0d 00 3a 05 08    	fmul   QWORD PTR ds:0x8053a00
 80518c8:	dd 44 24 18          	fld    QWORD PTR [esp+0x18]
 80518cc:	dc 4a 20             	fmul   QWORD PTR [edx+0x20]
 80518cf:	dd 42 d8             	fld    QWORD PTR [edx-0x28]
 80518d2:	d8 c8                	fmul   st,st(0)
 80518d4:	de c2                	faddp  st(2),st
 80518d6:	dd 44 24 20          	fld    QWORD PTR [esp+0x20]
 80518da:	dc 4a 18             	fmul   QWORD PTR [edx+0x18]
 80518dd:	de c1                	faddp  st(1),st
 80518df:	dd 04 24             	fld    QWORD PTR [esp]
 80518e2:	dc 4a e0             	fmul   QWORD PTR [edx-0x20]
 80518e5:	de c3                	faddp  st(3),st
 80518e7:	dd 44 24 28          	fld    QWORD PTR [esp+0x28]
 80518eb:	dc 4a 10             	fmul   QWORD PTR [edx+0x10]
 80518ee:	de c1                	faddp  st(1),st
 80518f0:	dd 05 60 3a 05 08    	fld    QWORD PTR ds:0x8053a60
 80518f6:	d8 c2                	fadd   st,st(2)
 80518f8:	dc 25 60 3a 05 08    	fsub   QWORD PTR ds:0x8053a60
 80518fe:	dc ea                	fsub   st(2),st
 8051900:	de c3                	faddp  st(3),st
 8051902:	dd 05 68 3a 05 08    	fld    QWORD PTR ds:0x8053a68
 8051908:	d8 c3                	fadd   st,st(3)
 805190a:	dc 25 68 3a 05 08    	fsub   QWORD PTR ds:0x8053a68
 8051910:	dc eb                	fsub   st(3),st
 8051912:	dd 42 08             	fld    QWORD PTR [edx+0x8]
 8051915:	d8 c8                	fmul   st,st(0)
 8051917:	de c2                	faddp  st(2),st
 8051919:	d9 c9                	fxch   st(1)
 805191b:	dc 0d 00 3a 05 08    	fmul   QWORD PTR ds:0x8053a00
 8051921:	dd 04 24             	fld    QWORD PTR [esp]
 8051924:	dc 4a e8             	fmul   QWORD PTR [edx-0x18]
 8051927:	de c1                	faddp  st(1),st
 8051929:	dd 42 e0             	fld    QWORD PTR [edx-0x20]
 805192c:	d8 c8                	fmul   st,st(0)
 805192e:	de c1                	faddp  st(1),st
 8051930:	de c1                	faddp  st(1),st
 8051932:	dd 05 70 3a 05 08    	fld    QWORD PTR ds:0x8053a70
 8051938:	d8 c1                	fadd   st,st(1)
 805193a:	dc 25 70 3a 05 08    	fsub   QWORD PTR ds:0x8053a70
 8051940:	dc e9                	fsub   st(1),st
 8051942:	d9 ca                	fxch   st(2)
 8051944:	dd 59 38             	fstp   QWORD PTR [ecx+0x38]
 8051947:	dd 44 24 20          	fld    QWORD PTR [esp+0x20]
 805194b:	dc 4a 20             	fmul   QWORD PTR [edx+0x20]
 805194e:	dd 44 24 28          	fld    QWORD PTR [esp+0x28]
 8051952:	dc 4a 18             	fmul   QWORD PTR [edx+0x18]
 8051955:	de c1                	faddp  st(1),st
 8051957:	dd 44 24 30          	fld    QWORD PTR [esp+0x30]
 805195b:	dc 4a 10             	fmul   QWORD PTR [edx+0x10]
 805195e:	de c1                	faddp  st(1),st
 8051960:	dc 0d 00 3a 05 08    	fmul   QWORD PTR ds:0x8053a00
 8051966:	dd 04 24             	fld    QWORD PTR [esp]
 8051969:	dc 4a f0             	fmul   QWORD PTR [edx-0x10]
 805196c:	de c1                	faddp  st(1),st
 805196e:	dd 44 24 08          	fld    QWORD PTR [esp+0x8]
 8051972:	dc 4a e8             	fmul   QWORD PTR [edx-0x18]
 8051975:	de c1                	faddp  st(1),st
 8051977:	de c2                	faddp  st(2),st
 8051979:	dd 05 78 3a 05 08    	fld    QWORD PTR ds:0x8053a78
 805197f:	d8 c2                	fadd   st,st(2)
 8051981:	dc 25 78 3a 05 08    	fsub   QWORD PTR ds:0x8053a78
 8051987:	dc ea                	fsub   st(2),st
 8051989:	d9 cb                	fxch   st(3)
 805198b:	dd 59 40             	fstp   QWORD PTR [ecx+0x40]
 805198e:	dd 44 24 28          	fld    QWORD PTR [esp+0x28]
 8051992:	dc 4a 20             	fmul   QWORD PTR [edx+0x20]
 8051995:	dd 44 24 30          	fld    QWORD PTR [esp+0x30]
 8051999:	dc 4a 18             	fmul   QWORD PTR [edx+0x18]
 805199c:	de c1                	faddp  st(1),st
 805199e:	dd 42 10             	fld    QWORD PTR [edx+0x10]
 80519a1:	d8 c8                	fmul   st,st(0)
 80519a3:	de c1                	faddp  st(1),st
 80519a5:	dc 0d 00 3a 05 08    	fmul   QWORD PTR ds:0x8053a00
 80519ab:	dd 04 24             	fld    QWORD PTR [esp]
 80519ae:	dc 4a f8             	fmul   QWORD PTR [edx-0x8]
 80519b1:	de c1                	faddp  st(1),st
 80519b3:	dd 44 24 08          	fld    QWORD PTR [esp+0x8]
 80519b7:	dc 4a f0             	fmul   QWORD PTR [edx-0x10]
 80519ba:	de c1                	faddp  st(1),st
 80519bc:	dd 42 e8             	fld    QWORD PTR [edx-0x18]
 80519bf:	d8 c8                	fmul   st,st(0)
 80519c1:	de c1                	faddp  st(1),st
 80519c3:	de c3                	faddp  st(3),st
 80519c5:	dd 05 80 3a 05 08    	fld    QWORD PTR ds:0x8053a80
 80519cb:	d8 c3                	fadd   st,st(3)
 80519cd:	dc 25 80 3a 05 08    	fsub   QWORD PTR ds:0x8053a80
 80519d3:	dc eb                	fsub   st(3),st
 80519d5:	d9 c9                	fxch   st(1)
 80519d7:	dd 59 48             	fstp   QWORD PTR [ecx+0x48]
 80519da:	dd 44 24 30          	fld    QWORD PTR [esp+0x30]
 80519de:	dd 42 20             	fld    QWORD PTR [edx+0x20]
 80519e1:	dc c9                	fmul   st(1),st
 80519e3:	d8 cd                	fmul   st,st(5)
 80519e5:	d9 cd                	fxch   st(5)
 80519e7:	dc 4a 18             	fmul   QWORD PTR [edx+0x18]
 80519ea:	de c1                	faddp  st(1),st
 80519ec:	dc 0d 00 3a 05 08    	fmul   QWORD PTR ds:0x8053a00
 80519f2:	dd 04 24             	fld    QWORD PTR [esp]
 80519f5:	dc 0a                	fmul   QWORD PTR [edx]
 80519f7:	de c1                	faddp  st(1),st
 80519f9:	dd 44 24 08          	fld    QWORD PTR [esp+0x8]
 80519fd:	dc 4a f8             	fmul   QWORD PTR [edx-0x8]
 8051a00:	de c1                	faddp  st(1),st
 8051a02:	dd 44 24 10          	fld    QWORD PTR [esp+0x10]
 8051a06:	dc 4a f0             	fmul   QWORD PTR [edx-0x10]
 8051a09:	de c1                	faddp  st(1),st
 8051a0b:	de c1                	faddp  st(1),st
 8051a0d:	dd 05 88 3a 05 08    	fld    QWORD PTR ds:0x8053a88
 8051a13:	d8 c1                	fadd   st,st(1)
 8051a15:	dc 25 88 3a 05 08    	fsub   QWORD PTR ds:0x8053a88
 8051a1b:	dc e9                	fsub   st(1),st
 8051a1d:	d9 ca                	fxch   st(2)
 8051a1f:	dd 59 50             	fstp   QWORD PTR [ecx+0x50]
 8051a22:	dd 42 18             	fld    QWORD PTR [edx+0x18]
 8051a25:	d8 c8                	fmul   st,st(0)
 8051a27:	de c4                	faddp  st(4),st
 8051a29:	d9 cb                	fxch   st(3)
 8051a2b:	dc 0d 00 3a 05 08    	fmul   QWORD PTR ds:0x8053a00
 8051a31:	dd 04 24             	fld    QWORD PTR [esp]
 8051a34:	dc 4a 08             	fmul   QWORD PTR [edx+0x8]
 8051a37:	de c1                	faddp  st(1),st
 8051a39:	dd 44 24 08          	fld    QWORD PTR [esp+0x8]
 8051a3d:	dc 0a                	fmul   QWORD PTR [edx]
 8051a3f:	de c1                	faddp  st(1),st
 8051a41:	dd 44 24 10          	fld    QWORD PTR [esp+0x10]
 8051a45:	dc 4a f8             	fmul   QWORD PTR [edx-0x8]
 8051a48:	de c1                	faddp  st(1),st
 8051a4a:	dd 42 f0             	fld    QWORD PTR [edx-0x10]
 8051a4d:	d8 c8                	fmul   st,st(0)
 8051a4f:	de c1                	faddp  st(1),st
 8051a51:	de c1                	faddp  st(1),st
 8051a53:	dd 05 90 3a 05 08    	fld    QWORD PTR ds:0x8053a90
 8051a59:	d8 c1                	fadd   st,st(1)
 8051a5b:	dc 25 90 3a 05 08    	fsub   QWORD PTR ds:0x8053a90
 8051a61:	dc e9                	fsub   st(1),st
 8051a63:	dd 42 18             	fld    QWORD PTR [edx+0x18]
 8051a66:	d8 c0                	fadd   st,st(0)
 8051a68:	dc 4a 20             	fmul   QWORD PTR [edx+0x20]
 8051a6b:	dc 0d 00 3a 05 08    	fmul   QWORD PTR ds:0x8053a00
 8051a71:	dd 04 24             	fld    QWORD PTR [esp]
 8051a74:	dc 4a 10             	fmul   QWORD PTR [edx+0x10]
 8051a77:	de c1                	faddp  st(1),st
 8051a79:	dd 44 24 08          	fld    QWORD PTR [esp+0x8]
 8051a7d:	dc 4a 08             	fmul   QWORD PTR [edx+0x8]
 8051a80:	de c1                	faddp  st(1),st
 8051a82:	dd 44 24 10          	fld    QWORD PTR [esp+0x10]
 8051a86:	dc 0a                	fmul   QWORD PTR [edx]
 8051a88:	de c1                	faddp  st(1),st
 8051a8a:	dd 44 24 18          	fld    QWORD PTR [esp+0x18]
 8051a8e:	dc 4a f8             	fmul   QWORD PTR [edx-0x8]
 8051a91:	de c1                	faddp  st(1),st
 8051a93:	de c1                	faddp  st(1),st
 8051a95:	dd 05 98 3a 05 08    	fld    QWORD PTR ds:0x8053a98
 8051a9b:	d8 c1                	fadd   st,st(1)
 8051a9d:	dc 25 98 3a 05 08    	fsub   QWORD PTR ds:0x8053a98
 8051aa3:	dc e9                	fsub   st(1),st
 8051aa5:	dd 42 d0             	fld    QWORD PTR [edx-0x30]
 8051aa8:	de c1                	faddp  st(1),st
 8051aaa:	dd 05 a0 3a 05 08    	fld    QWORD PTR ds:0x8053aa0
 8051ab0:	d8 c1                	fadd   st,st(1)
 8051ab2:	dd 42 30             	fld    QWORD PTR [edx+0x30]
 8051ab5:	d9 c9                	fxch   st(1)
 8051ab7:	dc 25 a0 3a 05 08    	fsub   QWORD PTR ds:0x8053aa0
 8051abd:	dc ea                	fsub   st(2),st
 8051abf:	de c1                	faddp  st(1),st
 8051ac1:	d9 cc                	fxch   st(4)
 8051ac3:	dd 59 58             	fstp   QWORD PTR [ecx+0x58]
 8051ac6:	d9 cc                	fxch   st(4)
 8051ac8:	dd 59 60             	fstp   QWORD PTR [ecx+0x60]
 8051acb:	d9 c9                	fxch   st(1)
 8051acd:	dd 59 68             	fstp   QWORD PTR [ecx+0x68]
 8051ad0:	dd 59 70             	fstp   QWORD PTR [ecx+0x70]
 8051ad3:	d9 c9                	fxch   st(1)
 8051ad5:	dd 59 78             	fstp   QWORD PTR [ecx+0x78]
 8051ad8:	dd 99 80 00 00 00    	fstp   QWORD PTR [ecx+0x80]
 8051ade:	dd 41 20             	fld    QWORD PTR [ecx+0x20]
 8051ae1:	dc 0d 08 3a 05 08    	fmul   QWORD PTR ds:0x8053a08
 8051ae7:	dd 05 a0 3a 05 08    	fld    QWORD PTR ds:0x8053aa0
 8051aed:	d8 c1                	fadd   st,st(1)
 8051aef:	dc 25 a0 3a 05 08    	fsub   QWORD PTR ds:0x8053aa0
 8051af5:	dd 41 28             	fld    QWORD PTR [ecx+0x28]
 8051af8:	dc 0d 08 3a 05 08    	fmul   QWORD PTR ds:0x8053a08
 8051afe:	d8 c1                	fadd   st,st(1)
 8051b00:	d9 c9                	fxch   st(1)
 8051b02:	de ea                	fsubp  st(2),st
 8051b04:	d9 c9                	fxch   st(1)
 8051b06:	dd 1c 24             	fstp   QWORD PTR [esp]
 8051b09:	dd 05 a8 3a 05 08    	fld    QWORD PTR ds:0x8053aa8
 8051b0f:	d8 c1                	fadd   st,st(1)
 8051b11:	dc 25 a8 3a 05 08    	fsub   QWORD PTR ds:0x8053aa8
 8051b17:	dc e9                	fsub   st(1),st
 8051b19:	dc 0d 00 3a 05 08    	fmul   QWORD PTR ds:0x8053a00
 8051b1f:	d9 c9                	fxch   st(1)
 8051b21:	dd 5c 24 08          	fstp   QWORD PTR [esp+0x8]
 8051b25:	dd 41 e0             	fld    QWORD PTR [ecx-0x20]
 8051b28:	dc 0d 08 3a 05 08    	fmul   QWORD PTR ds:0x8053a08
 8051b2e:	de c1                	faddp  st(1),st
 8051b30:	dd 05 60 3a 05 08    	fld    QWORD PTR ds:0x8053a60
 8051b36:	d8 c1                	fadd   st,st(1)
 8051b38:	dc 25 60 3a 05 08    	fsub   QWORD PTR ds:0x8053a60
 8051b3e:	dd 41 e8             	fld    QWORD PTR [ecx-0x18]
 8051b41:	dc 0d 08 3a 05 08    	fmul   QWORD PTR ds:0x8053a08
 8051b47:	d8 c1                	fadd   st,st(1)
 8051b49:	d9 c9                	fxch   st(1)
 8051b4b:	de ea                	fsubp  st(2),st
 8051b4d:	d9 c9                	fxch   st(1)
 8051b4f:	dd 5a d0             	fstp   QWORD PTR [edx-0x30]
 8051b52:	dd 05 68 3a 05 08    	fld    QWORD PTR ds:0x8053a68
 8051b58:	d8 c1                	fadd   st,st(1)
 8051b5a:	dc 25 68 3a 05 08    	fsub   QWORD PTR ds:0x8053a68
 8051b60:	dd 41 f0             	fld    QWORD PTR [ecx-0x10]
 8051b63:	dc 0d 08 3a 05 08    	fmul   QWORD PTR ds:0x8053a08
 8051b69:	d8 c1                	fadd   st,st(1)
 8051b6b:	d9 c9                	fxch   st(1)
 8051b6d:	de ea                	fsubp  st(2),st
 8051b6f:	d9 c9                	fxch   st(1)
 8051b71:	dd 5a d8             	fstp   QWORD PTR [edx-0x28]
 8051b74:	dd 05 70 3a 05 08    	fld    QWORD PTR ds:0x8053a70
 8051b7a:	d8 c1                	fadd   st,st(1)
 8051b7c:	dc 25 70 3a 05 08    	fsub   QWORD PTR ds:0x8053a70
 8051b82:	dd 41 f8             	fld    QWORD PTR [ecx-0x8]
 8051b85:	dc 0d 08 3a 05 08    	fmul   QWORD PTR ds:0x8053a08
 8051b8b:	d8 c1                	fadd   st,st(1)
 8051b8d:	d9 c9                	fxch   st(1)
 8051b8f:	de ea                	fsubp  st(2),st
 8051b91:	d9 c9                	fxch   st(1)
 8051b93:	dd 5a e0             	fstp   QWORD PTR [edx-0x20]
 8051b96:	dd 05 78 3a 05 08    	fld    QWORD PTR ds:0x8053a78
 8051b9c:	d8 c1                	fadd   st,st(1)
 8051b9e:	dc 25 78 3a 05 08    	fsub   QWORD PTR ds:0x8053a78
 8051ba4:	dd 01                	fld    QWORD PTR [ecx]
 8051ba6:	dc 0d 08 3a 05 08    	fmul   QWORD PTR ds:0x8053a08
 8051bac:	d8 c1                	fadd   st,st(1)
 8051bae:	d9 c9                	fxch   st(1)
 8051bb0:	de ea                	fsubp  st(2),st
 8051bb2:	d9 c9                	fxch   st(1)
 8051bb4:	dd 5a e8             	fstp   QWORD PTR [edx-0x18]
 8051bb7:	dd 05 80 3a 05 08    	fld    QWORD PTR ds:0x8053a80
 8051bbd:	d8 c1                	fadd   st,st(1)
 8051bbf:	dc 25 80 3a 05 08    	fsub   QWORD PTR ds:0x8053a80
 8051bc5:	dd 41 08             	fld    QWORD PTR [ecx+0x8]
 8051bc8:	dc 0d 08 3a 05 08    	fmul   QWORD PTR ds:0x8053a08
 8051bce:	d8 c1                	fadd   st,st(1)
 8051bd0:	d9 c9                	fxch   st(1)
 8051bd2:	de ea                	fsubp  st(2),st
 8051bd4:	d9 c9                	fxch   st(1)
 8051bd6:	dd 5a f0             	fstp   QWORD PTR [edx-0x10]
 8051bd9:	dd 05 88 3a 05 08    	fld    QWORD PTR ds:0x8053a88
 8051bdf:	d8 c1                	fadd   st,st(1)
 8051be1:	dc 25 88 3a 05 08    	fsub   QWORD PTR ds:0x8053a88
 8051be7:	dd 41 10             	fld    QWORD PTR [ecx+0x10]
 8051bea:	dc 0d 08 3a 05 08    	fmul   QWORD PTR ds:0x8053a08
 8051bf0:	d8 c1                	fadd   st,st(1)
 8051bf2:	d9 c9                	fxch   st(1)
 8051bf4:	de ea                	fsubp  st(2),st
 8051bf6:	d9 c9                	fxch   st(1)
 8051bf8:	dd 5a f8             	fstp   QWORD PTR [edx-0x8]
 8051bfb:	dd 05 90 3a 05 08    	fld    QWORD PTR ds:0x8053a90
 8051c01:	d8 c1                	fadd   st,st(1)
 8051c03:	dc 25 90 3a 05 08    	fsub   QWORD PTR ds:0x8053a90
 8051c09:	dd 41 18             	fld    QWORD PTR [ecx+0x18]
 8051c0c:	dc 0d 08 3a 05 08    	fmul   QWORD PTR ds:0x8053a08
 8051c12:	d8 c1                	fadd   st,st(1)
 8051c14:	d9 c9                	fxch   st(1)
 8051c16:	de ea                	fsubp  st(2),st
 8051c18:	d9 c9                	fxch   st(1)
 8051c1a:	dd 1a                	fstp   QWORD PTR [edx]
 8051c1c:	dd 05 98 3a 05 08    	fld    QWORD PTR ds:0x8053a98
 8051c22:	d8 c1                	fadd   st,st(1)
 8051c24:	dc 25 98 3a 05 08    	fsub   QWORD PTR ds:0x8053a98
 8051c2a:	dd 04 24             	fld    QWORD PTR [esp]
 8051c2d:	d8 c1                	fadd   st,st(1)
 8051c2f:	d9 c9                	fxch   st(1)
 8051c31:	de ea                	fsubp  st(2),st
 8051c33:	d9 c9                	fxch   st(1)
 8051c35:	dd 5a 08             	fstp   QWORD PTR [edx+0x8]
 8051c38:	dd 05 a0 3a 05 08    	fld    QWORD PTR ds:0x8053aa0
 8051c3e:	d8 c1                	fadd   st,st(1)
 8051c40:	dc 25 a0 3a 05 08    	fsub   QWORD PTR ds:0x8053aa0
 8051c46:	dd 44 24 08          	fld    QWORD PTR [esp+0x8]
 8051c4a:	d8 c1                	fadd   st,st(1)
 8051c4c:	d9 c9                	fxch   st(1)
 8051c4e:	de ea                	fsubp  st(2),st
 8051c50:	d9 c9                	fxch   st(1)
 8051c52:	dd 5a 10             	fstp   QWORD PTR [edx+0x10]
 8051c55:	dd 59 30             	fstp   QWORD PTR [ecx+0x30]
 8051c58:	dd 41 88             	fld    QWORD PTR [ecx-0x78]
 8051c5b:	dc 49 d8             	fmul   QWORD PTR [ecx-0x28]
 8051c5e:	dc 0d 00 3a 05 08    	fmul   QWORD PTR ds:0x8053a00
 8051c64:	dd 42 40             	fld    QWORD PTR [edx+0x40]
 8051c67:	dc 49 d0             	fmul   QWORD PTR [ecx-0x30]
 8051c6a:	de c1                	faddp  st(1),st
 8051c6c:	dd 42 48             	fld    QWORD PTR [edx+0x48]
 8051c6f:	dc 49 c8             	fmul   QWORD PTR [ecx-0x38]
 8051c72:	de c1                	faddp  st(1),st
 8051c74:	dd 42 40             	fld    QWORD PTR [edx+0x40]
 8051c77:	dc 49 d8             	fmul   QWORD PTR [ecx-0x28]
 8051c7a:	dd 42 50             	fld    QWORD PTR [edx+0x50]
 8051c7d:	dc 49 c0             	fmul   QWORD PTR [ecx-0x40]
 8051c80:	de c2                	faddp  st(2),st
 8051c82:	dd 42 48             	fld    QWORD PTR [edx+0x48]
 8051c85:	dc 49 d0             	fmul   QWORD PTR [ecx-0x30]
 8051c88:	de c1                	faddp  st(1),st
 8051c8a:	dd 42 58             	fld    QWORD PTR [edx+0x58]
 8051c8d:	dc 49 b8             	fmul   QWORD PTR [ecx-0x48]
 8051c90:	de c2                	faddp  st(2),st
 8051c92:	dd 42 50             	fld    QWORD PTR [edx+0x50]
 8051c95:	dc 49 c8             	fmul   QWORD PTR [ecx-0x38]
 8051c98:	de c1                	faddp  st(1),st
 8051c9a:	dd 42 60             	fld    QWORD PTR [edx+0x60]
 8051c9d:	dc 49 b0             	fmul   QWORD PTR [ecx-0x50]
 8051ca0:	de c2                	faddp  st(2),st
 8051ca2:	dd 42 58             	fld    QWORD PTR [edx+0x58]
 8051ca5:	dc 49 c0             	fmul   QWORD PTR [ecx-0x40]
 8051ca8:	de c1                	faddp  st(1),st
 8051caa:	dd 42 48             	fld    QWORD PTR [edx+0x48]
 8051cad:	dc 49 d8             	fmul   QWORD PTR [ecx-0x28]
 8051cb0:	dd 42 68             	fld    QWORD PTR [edx+0x68]
 8051cb3:	dc 49 a8             	fmul   QWORD PTR [ecx-0x58]
 8051cb6:	de c3                	faddp  st(3),st
 8051cb8:	dd 42 60             	fld    QWORD PTR [edx+0x60]
 8051cbb:	dc 49 b8             	fmul   QWORD PTR [ecx-0x48]
 8051cbe:	de c2                	faddp  st(2),st
 8051cc0:	dd 42 50             	fld    QWORD PTR [edx+0x50]
 8051cc3:	dc 49 d0             	fmul   QWORD PTR [ecx-0x30]
 8051cc6:	de c1                	faddp  st(1),st
 8051cc8:	dd 42 70             	fld    QWORD PTR [edx+0x70]
 8051ccb:	dc 49 a0             	fmul   QWORD PTR [ecx-0x60]
 8051cce:	de c3                	faddp  st(3),st
 8051cd0:	dd 42 68             	fld    QWORD PTR [edx+0x68]
 8051cd3:	dc 49 b0             	fmul   QWORD PTR [ecx-0x50]
 8051cd6:	de c2                	faddp  st(2),st
 8051cd8:	dd 42 58             	fld    QWORD PTR [edx+0x58]
 8051cdb:	dc 49 c8             	fmul   QWORD PTR [ecx-0x38]
 8051cde:	de c1                	faddp  st(1),st
 8051ce0:	dd 42 78             	fld    QWORD PTR [edx+0x78]
 8051ce3:	dc 49 98             	fmul   QWORD PTR [ecx-0x68]
 8051ce6:	de c3                	faddp  st(3),st
 8051ce8:	dd 42 70             	fld    QWORD PTR [edx+0x70]
 8051ceb:	dc 49 a8             	fmul   QWORD PTR [ecx-0x58]
 8051cee:	de c2                	faddp  st(2),st
 8051cf0:	dd 42 60             	fld    QWORD PTR [edx+0x60]
 8051cf3:	dc 49 c0             	fmul   QWORD PTR [ecx-0x40]
 8051cf6:	de c1                	faddp  st(1),st
 8051cf8:	dd 41 80             	fld    QWORD PTR [ecx-0x80]
 8051cfb:	dc 49 90             	fmul   QWORD PTR [ecx-0x70]
 8051cfe:	de c3                	faddp  st(3),st
 8051d00:	dd 42 78             	fld    QWORD PTR [edx+0x78]
 8051d03:	dc 49 a0             	fmul   QWORD PTR [ecx-0x60]
 8051d06:	de c2                	faddp  st(2),st
 8051d08:	dd 42 68             	fld    QWORD PTR [edx+0x68]
 8051d0b:	dc 49 b8             	fmul   QWORD PTR [ecx-0x48]
 8051d0e:	de c1                	faddp  st(1),st
 8051d10:	dd 42 50             	fld    QWORD PTR [edx+0x50]
 8051d13:	dc 49 d8             	fmul   QWORD PTR [ecx-0x28]
 8051d16:	dd 42 70             	fld    QWORD PTR [edx+0x70]
 8051d19:	dc 49 b0             	fmul   QWORD PTR [ecx-0x50]
 8051d1c:	de c2                	faddp  st(2),st
 8051d1e:	dd 41 80             	fld    QWORD PTR [ecx-0x80]
 8051d21:	dc 49 98             	fmul   QWORD PTR [ecx-0x68]
 8051d24:	de c3                	faddp  st(3),st
 8051d26:	dd 05 a0 3a 05 08    	fld    QWORD PTR ds:0x8053aa0
 8051d2c:	d8 c4                	fadd   st,st(4)
 8051d2e:	dd 42 58             	fld    QWORD PTR [edx+0x58]
 8051d31:	dc 49 d0             	fmul   QWORD PTR [ecx-0x30]
 8051d34:	de c2                	faddp  st(2),st
 8051d36:	dd 42 78             	fld    QWORD PTR [edx+0x78]
 8051d39:	dc 49 a8             	fmul   QWORD PTR [ecx-0x58]
 8051d3c:	de c3                	faddp  st(3),st
 8051d3e:	dd 41 88             	fld    QWORD PTR [ecx-0x78]
 8051d41:	dc 49 90             	fmul   QWORD PTR [ecx-0x70]
 8051d44:	de c4                	faddp  st(4),st
 8051d46:	dc 25 a0 3a 05 08    	fsub   QWORD PTR ds:0x8053aa0
 8051d4c:	dd 42 60             	fld    QWORD PTR [edx+0x60]
 8051d4f:	dc 49 c8             	fmul   QWORD PTR [ecx-0x38]
 8051d52:	de c2                	faddp  st(2),st
 8051d54:	dd 42 58             	fld    QWORD PTR [edx+0x58]
 8051d57:	dc 49 d8             	fmul   QWORD PTR [ecx-0x28]
 8051d5a:	dd 41 80             	fld    QWORD PTR [ecx-0x80]
 8051d5d:	dc 49 a0             	fmul   QWORD PTR [ecx-0x60]
 8051d60:	de c4                	faddp  st(4),st
 8051d62:	d9 c9                	fxch   st(1)
 8051d64:	dc c4                	fadd   st(4),st
 8051d66:	dd 42 68             	fld    QWORD PTR [edx+0x68]
 8051d69:	dc 49 c0             	fmul   QWORD PTR [ecx-0x40]
 8051d6c:	de c3                	faddp  st(3),st
 8051d6e:	dd 42 60             	fld    QWORD PTR [edx+0x60]
 8051d71:	dc 49 d0             	fmul   QWORD PTR [ecx-0x30]
 8051d74:	de c2                	faddp  st(2),st
 8051d76:	de ed                	fsubp  st(5),st
 8051d78:	dd 05 a8 3a 05 08    	fld    QWORD PTR ds:0x8053aa8
 8051d7e:	d8 c4                	fadd   st,st(4)
 8051d80:	dd 42 70             	fld    QWORD PTR [edx+0x70]
 8051d83:	dc 49 b8             	fmul   QWORD PTR [ecx-0x48]
 8051d86:	de c3                	faddp  st(3),st
 8051d88:	dd 42 68             	fld    QWORD PTR [edx+0x68]
 8051d8b:	dc 49 c8             	fmul   QWORD PTR [ecx-0x38]
 8051d8e:	de c2                	faddp  st(2),st
 8051d90:	dd 41 88             	fld    QWORD PTR [ecx-0x78]
 8051d93:	dc 49 98             	fmul   QWORD PTR [ecx-0x68]
 8051d96:	de c4                	faddp  st(4),st
 8051d98:	dc 25 a8 3a 05 08    	fsub   QWORD PTR ds:0x8053aa8
 8051d9e:	dd 42 78             	fld    QWORD PTR [edx+0x78]
 8051da1:	dc 49 b0             	fmul   QWORD PTR [ecx-0x50]
 8051da4:	de c3                	faddp  st(3),st
 8051da6:	dd 42 60             	fld    QWORD PTR [edx+0x60]
 8051da9:	dc 49 d8             	fmul   QWORD PTR [ecx-0x28]
 8051dac:	dd 42 70             	fld    QWORD PTR [edx+0x70]
 8051daf:	dc 49 c0             	fmul   QWORD PTR [ecx-0x40]
 8051db2:	de c3                	faddp  st(3),st
 8051db4:	dd 41 80             	fld    QWORD PTR [ecx-0x80]
 8051db7:	dc 49 a8             	fmul   QWORD PTR [ecx-0x58]
 8051dba:	de c4                	faddp  st(4),st
 8051dbc:	d9 c9                	fxch   st(1)
 8051dbe:	dc c4                	fadd   st(4),st
 8051dc0:	de ed                	fsubp  st(5),st
 8051dc2:	d9 cd                	fxch   st(5)
 8051dc4:	dd 1c 24             	fstp   QWORD PTR [esp]
 8051dc7:	dd 42 68             	fld    QWORD PTR [edx+0x68]
 8051dca:	dc 49 d0             	fmul   QWORD PTR [ecx-0x30]
 8051dcd:	de c5                	faddp  st(5),st
 8051dcf:	dd 42 78             	fld    QWORD PTR [edx+0x78]
 8051dd2:	dc 49 b8             	fmul   QWORD PTR [ecx-0x48]
 8051dd5:	de c1                	faddp  st(1),st
 8051dd7:	dd 41 88             	fld    QWORD PTR [ecx-0x78]
 8051dda:	dc 49 a0             	fmul   QWORD PTR [ecx-0x60]
 8051ddd:	de c2                	faddp  st(2),st
 8051ddf:	d9 ca                	fxch   st(2)
 8051de1:	dc 0d 00 3a 05 08    	fmul   QWORD PTR ds:0x8053a00
 8051de7:	dd 42 70             	fld    QWORD PTR [edx+0x70]
 8051dea:	dc 49 c8             	fmul   QWORD PTR [ecx-0x38]
 8051ded:	de c5                	faddp  st(5),st
 8051def:	dd 41 80             	fld    QWORD PTR [ecx-0x80]
 8051df2:	dc 49 b0             	fmul   QWORD PTR [ecx-0x50]
 8051df5:	de c3                	faddp  st(3),st
 8051df7:	d9 c9                	fxch   st(1)
 8051df9:	dc 0d 00 3a 05 08    	fmul   QWORD PTR ds:0x8053a00
 8051dff:	dd 42 40             	fld    QWORD PTR [edx+0x40]
 8051e02:	dc 49 90             	fmul   QWORD PTR [ecx-0x70]
 8051e05:	de c2                	faddp  st(2),st
 8051e07:	d9 cb                	fxch   st(3)
 8051e09:	dd 5c 24 08          	fstp   QWORD PTR [esp+0x8]
 8051e0d:	dd 42 68             	fld    QWORD PTR [edx+0x68]
 8051e10:	dc 49 d8             	fmul   QWORD PTR [ecx-0x28]
 8051e13:	dd 42 78             	fld    QWORD PTR [edx+0x78]
 8051e16:	dc 49 c0             	fmul   QWORD PTR [ecx-0x40]
 8051e19:	de c5                	faddp  st(5),st
 8051e1b:	dd 41 88             	fld    QWORD PTR [ecx-0x78]
 8051e1e:	dc 49 a8             	fmul   QWORD PTR [ecx-0x58]
 8051e21:	de c3                	faddp  st(3),st
 8051e23:	dd 42 40             	fld    QWORD PTR [edx+0x40]
 8051e26:	dc 49 98             	fmul   QWORD PTR [ecx-0x68]
 8051e29:	de c4                	faddp  st(4),st
 8051e2b:	dd 05 60 3a 05 08    	fld    QWORD PTR ds:0x8053a60
 8051e31:	d8 c2                	fadd   st,st(2)
 8051e33:	dd 42 70             	fld    QWORD PTR [edx+0x70]
 8051e36:	dc 49 d0             	fmul   QWORD PTR [ecx-0x30]
 8051e39:	de c2                	faddp  st(2),st
 8051e3b:	dd 41 80             	fld    QWORD PTR [ecx-0x80]
 8051e3e:	dc 49 b8             	fmul   QWORD PTR [ecx-0x48]
 8051e41:	de c6                	faddp  st(6),st
 8051e43:	d9 cb                	fxch   st(3)
 8051e45:	dc 0d 00 3a 05 08    	fmul   QWORD PTR ds:0x8053a00
 8051e4b:	dd 42 48             	fld    QWORD PTR [edx+0x48]
 8051e4e:	dc 49 90             	fmul   QWORD PTR [ecx-0x70]
 8051e51:	de c5                	faddp  st(5),st
 8051e53:	d9 cb                	fxch   st(3)
 8051e55:	dc 25 60 3a 05 08    	fsub   QWORD PTR ds:0x8053a60
 8051e5b:	dd 42 78             	fld    QWORD PTR [edx+0x78]
 8051e5e:	dc 49 c8             	fmul   QWORD PTR [ecx-0x38]
 8051e61:	de c2                	faddp  st(2),st
 8051e63:	dd 41 88             	fld    QWORD PTR [ecx-0x78]
 8051e66:	dc 49 b0             	fmul   QWORD PTR [ecx-0x50]
 8051e69:	de c6                	faddp  st(6),st
 8051e6b:	dd 42 40             	fld    QWORD PTR [edx+0x40]
 8051e6e:	dc 49 a0             	fmul   QWORD PTR [ecx-0x60]
 8051e71:	de c4                	faddp  st(4),st
 8051e73:	dc c4                	fadd   st(4),st
 8051e75:	de ea                	fsubp  st(2),st
 8051e77:	dd 42 70             	fld    QWORD PTR [edx+0x70]
 8051e7a:	dc 49 d8             	fmul   QWORD PTR [ecx-0x28]
 8051e7d:	dd 41 80             	fld    QWORD PTR [ecx-0x80]
 8051e80:	dc 49 c0             	fmul   QWORD PTR [ecx-0x40]
 8051e83:	de c2                	faddp  st(2),st
 8051e85:	d9 cd                	fxch   st(5)
 8051e87:	dc 0d 00 3a 05 08    	fmul   QWORD PTR ds:0x8053a00
 8051e8d:	dd 42 48             	fld    QWORD PTR [edx+0x48]
 8051e90:	dc 49 98             	fmul   QWORD PTR [ecx-0x68]
 8051e93:	de c4                	faddp  st(4),st
 8051e95:	dd 05 68 3a 05 08    	fld    QWORD PTR ds:0x8053a68
 8051e9b:	d8 c5                	fadd   st,st(5)
 8051e9d:	dd 42 78             	fld    QWORD PTR [edx+0x78]
 8051ea0:	dc 49 d0             	fmul   QWORD PTR [ecx-0x30]
 8051ea3:	de c7                	faddp  st(7),st
 8051ea5:	dd 41 88             	fld    QWORD PTR [ecx-0x78]
 8051ea8:	dc 49 b8             	fmul   QWORD PTR [ecx-0x48]
 8051eab:	de c3                	faddp  st(3),st
 8051ead:	dd 42 40             	fld    QWORD PTR [edx+0x40]
 8051eb0:	dc 49 a8             	fmul   QWORD PTR [ecx-0x58]
 8051eb3:	de c2                	faddp  st(2),st
 8051eb5:	dd 42 50             	fld    QWORD PTR [edx+0x50]
 8051eb8:	dc 49 90             	fmul   QWORD PTR [ecx-0x70]
 8051ebb:	de c5                	faddp  st(5),st
 8051ebd:	dc 25 68 3a 05 08    	fsub   QWORD PTR ds:0x8053a68
 8051ec3:	d9 cb                	fxch   st(3)
 8051ec5:	dd 5c 24 10          	fstp   QWORD PTR [esp+0x10]
 8051ec9:	dd 41 80             	fld    QWORD PTR [ecx-0x80]
 8051ecc:	dc 49 c8             	fmul   QWORD PTR [ecx-0x38]
 8051ecf:	de c6                	faddp  st(6),st
 8051ed1:	d9 c9                	fxch   st(1)
 8051ed3:	dc 0d 00 3a 05 08    	fmul   QWORD PTR ds:0x8053a00
 8051ed9:	dd 42 48             	fld    QWORD PTR [edx+0x48]
 8051edc:	dc 49 a0             	fmul   QWORD PTR [ecx-0x60]
 8051edf:	de c2                	faddp  st(2),st
 8051ee1:	d9 ca                	fxch   st(2)
 8051ee3:	dc c3                	fadd   st(3),st
 8051ee5:	de ec                	fsubp  st(4),st
 8051ee7:	dd 42 78             	fld    QWORD PTR [edx+0x78]
 8051eea:	dc 49 d8             	fmul   QWORD PTR [ecx-0x28]
 8051eed:	dd 41 88             	fld    QWORD PTR [ecx-0x78]
 8051ef0:	dc 49 c0             	fmul   QWORD PTR [ecx-0x40]
 8051ef3:	de c6                	faddp  st(6),st
 8051ef5:	dd 42 40             	fld    QWORD PTR [edx+0x40]
 8051ef8:	dc 49 b0             	fmul   QWORD PTR [ecx-0x50]
 8051efb:	de c3                	faddp  st(3),st
 8051efd:	dd 42 50             	fld    QWORD PTR [edx+0x50]
 8051f00:	dc 49 98             	fmul   QWORD PTR [ecx-0x68]
 8051f03:	de c2                	faddp  st(2),st
 8051f05:	dd 05 70 3a 05 08    	fld    QWORD PTR ds:0x8053a70
 8051f0b:	d8 c4                	fadd   st,st(4)
 8051f0d:	dd 41 80             	fld    QWORD PTR [ecx-0x80]
 8051f10:	dc 49 d0             	fmul   QWORD PTR [ecx-0x30]
 8051f13:	de c2                	faddp  st(2),st
 8051f15:	d9 ce                	fxch   st(6)
 8051f17:	dc 0d 00 3a 05 08    	fmul   QWORD PTR ds:0x8053a00
 8051f1d:	dd 42 48             	fld    QWORD PTR [edx+0x48]
 8051f20:	dc 49 a8             	fmul   QWORD PTR [ecx-0x58]
 8051f23:	de c4                	faddp  st(4),st
 8051f25:	dd 42 58             	fld    QWORD PTR [edx+0x58]
 8051f28:	dc 49 90             	fmul   QWORD PTR [ecx-0x70]
 8051f2b:	de c3                	faddp  st(3),st
 8051f2d:	d9 ce                	fxch   st(6)
 8051f2f:	dc 25 70 3a 05 08    	fsub   QWORD PTR ds:0x8053a70
 8051f35:	d9 cd                	fxch   st(5)
 8051f37:	dd 5c 24 18          	fstp   QWORD PTR [esp+0x18]
 8051f3b:	dd 41 88             	fld    QWORD PTR [ecx-0x78]
 8051f3e:	dc 49 c8             	fmul   QWORD PTR [ecx-0x38]
 8051f41:	de c1                	faddp  st(1),st
 8051f43:	dd 42 40             	fld    QWORD PTR [edx+0x40]
 8051f46:	dc 49 b8             	fmul   QWORD PTR [ecx-0x48]
 8051f49:	de c6                	faddp  st(6),st
 8051f4b:	dd 42 50             	fld    QWORD PTR [edx+0x50]
 8051f4e:	dc 49 a0             	fmul   QWORD PTR [ecx-0x60]
 8051f51:	de c3                	faddp  st(3),st
 8051f53:	d9 cc                	fxch   st(4)
 8051f55:	dc c1                	fadd   st(1),st
 8051f57:	de eb                	fsubp  st(3),st
 8051f59:	dd 41 80             	fld    QWORD PTR [ecx-0x80]
 8051f5c:	dc 49 d8             	fmul   QWORD PTR [ecx-0x28]
 8051f5f:	d9 cc                	fxch   st(4)
 8051f61:	dc 0d 00 3a 05 08    	fmul   QWORD PTR ds:0x8053a00
 8051f67:	dd 42 48             	fld    QWORD PTR [edx+0x48]
 8051f6a:	dc 49 b0             	fmul   QWORD PTR [ecx-0x50]
 8051f6d:	de c6                	faddp  st(6),st
 8051f6f:	dd 42 58             	fld    QWORD PTR [edx+0x58]
 8051f72:	dc 49 98             	fmul   QWORD PTR [ecx-0x68]
 8051f75:	de c3                	faddp  st(3),st
 8051f77:	dd 05 78 3a 05 08    	fld    QWORD PTR ds:0x8053a78
 8051f7d:	d8 c2                	fadd   st,st(2)
 8051f7f:	dd 41 88             	fld    QWORD PTR [ecx-0x78]
 8051f82:	dc 49 d0             	fmul   QWORD PTR [ecx-0x30]
 8051f85:	de c6                	faddp  st(6),st
 8051f87:	dd 42 40             	fld    QWORD PTR [edx+0x40]
 8051f8a:	dc 49 c0             	fmul   QWORD PTR [ecx-0x40]
 8051f8d:	de c2                	faddp  st(2),st
 8051f8f:	dd 42 50             	fld    QWORD PTR [edx+0x50]
 8051f92:	dc 49 a8             	fmul   QWORD PTR [ecx-0x58]
 8051f95:	de c7                	faddp  st(7),st
 8051f97:	dd 42 60             	fld    QWORD PTR [edx+0x60]
 8051f9a:	dc 49 90             	fmul   QWORD PTR [ecx-0x70]
 8051f9d:	de c4                	faddp  st(4),st
 8051f9f:	dc 25 78 3a 05 08    	fsub   QWORD PTR ds:0x8053a78
 8051fa5:	d9 cc                	fxch   st(4)
 8051fa7:	dd 5c 24 20          	fstp   QWORD PTR [esp+0x20]
 8051fab:	d9 cc                	fxch   st(4)
 8051fad:	dc 0d 00 3a 05 08    	fmul   QWORD PTR ds:0x8053a00
 8051fb3:	dd 42 48             	fld    QWORD PTR [edx+0x48]
 8051fb6:	dc 49 b8             	fmul   QWORD PTR [ecx-0x48]
 8051fb9:	de c5                	faddp  st(5),st
 8051fbb:	dd 42 58             	fld    QWORD PTR [edx+0x58]
 8051fbe:	dc 49 a0             	fmul   QWORD PTR [ecx-0x60]
 8051fc1:	de c6                	faddp  st(6),st
 8051fc3:	d9 cb                	fxch   st(3)
 8051fc5:	dc c2                	fadd   st(2),st
 8051fc7:	de e9                	fsubp  st(1),st
 8051fc9:	dd 42 40             	fld    QWORD PTR [edx+0x40]
 8051fcc:	dc 49 c8             	fmul   QWORD PTR [ecx-0x38]
 8051fcf:	de c3                	faddp  st(3),st
 8051fd1:	dd 42 50             	fld    QWORD PTR [edx+0x50]
 8051fd4:	dc 49 b0             	fmul   QWORD PTR [ecx-0x50]
 8051fd7:	de c4                	faddp  st(4),st
 8051fd9:	dd 42 60             	fld    QWORD PTR [edx+0x60]
 8051fdc:	dc 49 98             	fmul   QWORD PTR [ecx-0x68]
 8051fdf:	de c5                	faddp  st(5),st
 8051fe1:	dd 05 80 3a 05 08    	fld    QWORD PTR ds:0x8053a80
 8051fe7:	d8 c2                	fadd   st,st(2)
 8051fe9:	dd 42 48             	fld    QWORD PTR [edx+0x48]
 8051fec:	dc 49 c0             	fmul   QWORD PTR [ecx-0x40]
 8051fef:	de c4                	faddp  st(4),st
 8051ff1:	dd 42 58             	fld    QWORD PTR [edx+0x58]
 8051ff4:	dc 49 a8             	fmul   QWORD PTR [ecx-0x58]
 8051ff7:	de c5                	faddp  st(5),st
 8051ff9:	dd 42 68             	fld    QWORD PTR [edx+0x68]
 8051ffc:	dc 49 90             	fmul   QWORD PTR [ecx-0x70]
 8051fff:	de c6                	faddp  st(6),st
 8052001:	dc 25 80 3a 05 08    	fsub   QWORD PTR ds:0x8053a80
 8052007:	d9 c9                	fxch   st(1)
 8052009:	dd 5c 24 28          	fstp   QWORD PTR [esp+0x28]
 805200d:	dd 42 50             	fld    QWORD PTR [edx+0x50]
 8052010:	dc 49 b8             	fmul   QWORD PTR [ecx-0x48]
 8052013:	de c3                	faddp  st(3),st
 8052015:	dd 42 60             	fld    QWORD PTR [edx+0x60]
 8052018:	dc 49 a0             	fmul   QWORD PTR [ecx-0x60]
 805201b:	de c4                	faddp  st(4),st
 805201d:	dc c4                	fadd   st(4),st
 805201f:	de e9                	fsubp  st(1),st
 8052021:	dd 5c 24 30          	fstp   QWORD PTR [esp+0x30]
 8052025:	dd 42 58             	fld    QWORD PTR [edx+0x58]
 8052028:	dc 49 b0             	fmul   QWORD PTR [ecx-0x50]
 805202b:	de c1                	faddp  st(1),st
 805202d:	dd 42 68             	fld    QWORD PTR [edx+0x68]
 8052030:	dc 49 98             	fmul   QWORD PTR [ecx-0x68]
 8052033:	de c2                	faddp  st(2),st
 8052035:	dd 05 88 3a 05 08    	fld    QWORD PTR ds:0x8053a88
 805203b:	d8 c3                	fadd   st,st(3)
 805203d:	dd 42 60             	fld    QWORD PTR [edx+0x60]
 8052040:	dc 49 a8             	fmul   QWORD PTR [ecx-0x58]
 8052043:	de c2                	faddp  st(2),st
 8052045:	dd 42 70             	fld    QWORD PTR [edx+0x70]
 8052048:	dc 49 90             	fmul   QWORD PTR [ecx-0x70]
 805204b:	de c3                	faddp  st(3),st
 805204d:	dc 25 88 3a 05 08    	fsub   QWORD PTR ds:0x8053a88
 8052053:	dd 42 68             	fld    QWORD PTR [edx+0x68]
 8052056:	dc 49 a0             	fmul   QWORD PTR [ecx-0x60]
 8052059:	de c2                	faddp  st(2),st
 805205b:	dc c2                	fadd   st(2),st
 805205d:	de eb                	fsubp  st(3),st
 805205f:	d9 ca                	fxch   st(2)
 8052061:	dd 5a 18             	fstp   QWORD PTR [edx+0x18]
 8052064:	dd 42 70             	fld    QWORD PTR [edx+0x70]
 8052067:	dc 49 98             	fmul   QWORD PTR [ecx-0x68]
 805206a:	de c2                	faddp  st(2),st
 805206c:	dd 05 90 3a 05 08    	fld    QWORD PTR ds:0x8053a90
 8052072:	d8 c1                	fadd   st,st(1)
 8052074:	dd 42 78             	fld    QWORD PTR [edx+0x78]
 8052077:	dc 49 90             	fmul   QWORD PTR [ecx-0x70]
 805207a:	de c3                	faddp  st(3),st
 805207c:	dc 25 90 3a 05 08    	fsub   QWORD PTR ds:0x8053a90
 8052082:	dd 04 24             	fld    QWORD PTR [esp]
 8052085:	dd 44 24 08          	fld    QWORD PTR [esp+0x8]
 8052089:	d9 ca                	fxch   st(2)
 805208b:	dc c4                	fadd   st(4),st
 805208d:	de eb                	fsubp  st(3),st
 805208f:	dd 05 98 3a 05 08    	fld    QWORD PTR ds:0x8053a98
 8052095:	d8 c4                	fadd   st,st(4)
 8052097:	dc 25 98 3a 05 08    	fsub   QWORD PTR ds:0x8053a98
 805209d:	dc c1                	fadd   st(1),st
 805209f:	de ec                	fsubp  st(4),st
 80520a1:	dd 05 a0 3a 05 08    	fld    QWORD PTR ds:0x8053aa0
 80520a7:	d8 c1                	fadd   st,st(1)
 80520a9:	dc 25 a0 3a 05 08    	fsub   QWORD PTR ds:0x8053aa0
 80520af:	dc e9                	fsub   st(1),st
 80520b1:	de c2                	faddp  st(2),st
 80520b3:	d9 ca                	fxch   st(2)
 80520b5:	dd 5a 20             	fstp   QWORD PTR [edx+0x20]
 80520b8:	d9 ca                	fxch   st(2)
 80520ba:	dd 5a 30             	fstp   QWORD PTR [edx+0x30]
 80520bd:	dd 5a 38             	fstp   QWORD PTR [edx+0x38]
 80520c0:	dd 59 90             	fstp   QWORD PTR [ecx-0x70]
 80520c3:	dd 42 d0             	fld    QWORD PTR [edx-0x30]
 80520c6:	dc 42 40             	fadd   QWORD PTR [edx+0x40]
 80520c9:	dd 59 98             	fstp   QWORD PTR [ecx-0x68]
 80520cc:	dd 42 d8             	fld    QWORD PTR [edx-0x28]
 80520cf:	dc 42 48             	fadd   QWORD PTR [edx+0x48]
 80520d2:	dd 59 a0             	fstp   QWORD PTR [ecx-0x60]
 80520d5:	dd 42 e0             	fld    QWORD PTR [edx-0x20]
 80520d8:	dc 42 50             	fadd   QWORD PTR [edx+0x50]
 80520db:	dd 59 a8             	fstp   QWORD PTR [ecx-0x58]
 80520de:	dd 42 e8             	fld    QWORD PTR [edx-0x18]
 80520e1:	dc 42 58             	fadd   QWORD PTR [edx+0x58]
 80520e4:	dd 59 b0             	fstp   QWORD PTR [ecx-0x50]
 80520e7:	dd 42 f0             	fld    QWORD PTR [edx-0x10]
 80520ea:	dc 42 60             	fadd   QWORD PTR [edx+0x60]
 80520ed:	dd 5a f0             	fstp   QWORD PTR [edx-0x10]
 80520f0:	dd 42 f8             	fld    QWORD PTR [edx-0x8]
 80520f3:	dc 42 68             	fadd   QWORD PTR [edx+0x68]
 80520f6:	dd 5a f8             	fstp   QWORD PTR [edx-0x8]
 80520f9:	dd 02                	fld    QWORD PTR [edx]
 80520fb:	dc 42 70             	fadd   QWORD PTR [edx+0x70]
 80520fe:	dd 1a                	fstp   QWORD PTR [edx]
 8052100:	dd 42 08             	fld    QWORD PTR [edx+0x8]
 8052103:	dc 42 78             	fadd   QWORD PTR [edx+0x78]
 8052106:	dd 5a 08             	fstp   QWORD PTR [edx+0x8]
 8052109:	dd 42 10             	fld    QWORD PTR [edx+0x10]
 805210c:	dc 41 80             	fadd   QWORD PTR [ecx-0x80]
 805210f:	dd 5a 10             	fstp   QWORD PTR [edx+0x10]
 8052112:	dd 41 30             	fld    QWORD PTR [ecx+0x30]
 8052115:	dc 41 88             	fadd   QWORD PTR [ecx-0x78]
 8052118:	dd 5a 50             	fstp   QWORD PTR [edx+0x50]
 805211b:	dd 81 80 00 00 00    	fld    QWORD PTR [ecx+0x80]
 8052121:	dc 4a 80             	fmul   QWORD PTR [edx-0x80]
 8052124:	dc 0d 00 3a 05 08    	fmul   QWORD PTR ds:0x8053a00
 805212a:	dd 41 38             	fld    QWORD PTR [ecx+0x38]
 805212d:	dc 4c 24 78          	fmul   QWORD PTR [esp+0x78]
 8052131:	de c1                	faddp  st(1),st
 8052133:	dd 41 40             	fld    QWORD PTR [ecx+0x40]
 8052136:	dc 4c 24 70          	fmul   QWORD PTR [esp+0x70]
 805213a:	de c1                	faddp  st(1),st
 805213c:	dd 41 38             	fld    QWORD PTR [ecx+0x38]
 805213f:	dc 4a 80             	fmul   QWORD PTR [edx-0x80]
 8052142:	dd 41 48             	fld    QWORD PTR [ecx+0x48]
 8052145:	dc 4c 24 68          	fmul   QWORD PTR [esp+0x68]
 8052149:	de c2                	faddp  st(2),st
 805214b:	dd 41 40             	fld    QWORD PTR [ecx+0x40]
 805214e:	dc 4c 24 78          	fmul   QWORD PTR [esp+0x78]
 8052152:	de c1                	faddp  st(1),st
 8052154:	dd 41 50             	fld    QWORD PTR [ecx+0x50]
 8052157:	dc 4c 24 60          	fmul   QWORD PTR [esp+0x60]
 805215b:	de c2                	faddp  st(2),st
 805215d:	dd 41 48             	fld    QWORD PTR [ecx+0x48]
 8052160:	dc 4c 24 70          	fmul   QWORD PTR [esp+0x70]
 8052164:	de c1                	faddp  st(1),st
 8052166:	dd 41 58             	fld    QWORD PTR [ecx+0x58]
 8052169:	dc 4c 24 58          	fmul   QWORD PTR [esp+0x58]
 805216d:	de c2                	faddp  st(2),st
 805216f:	dd 41 50             	fld    QWORD PTR [ecx+0x50]
 8052172:	dc 4c 24 68          	fmul   QWORD PTR [esp+0x68]
 8052176:	de c1                	faddp  st(1),st
 8052178:	dd 41 40             	fld    QWORD PTR [ecx+0x40]
 805217b:	dc 4a 80             	fmul   QWORD PTR [edx-0x80]
 805217e:	dd 41 60             	fld    QWORD PTR [ecx+0x60]
 8052181:	dc 4c 24 50          	fmul   QWORD PTR [esp+0x50]
 8052185:	de c3                	faddp  st(3),st
 8052187:	dd 41 58             	fld    QWORD PTR [ecx+0x58]
 805218a:	dc 4c 24 60          	fmul   QWORD PTR [esp+0x60]
 805218e:	de c2                	faddp  st(2),st
 8052190:	dd 41 48             	fld    QWORD PTR [ecx+0x48]
 8052193:	dc 4c 24 78          	fmul   QWORD PTR [esp+0x78]
 8052197:	de c1                	faddp  st(1),st
 8052199:	dd 41 68             	fld    QWORD PTR [ecx+0x68]
 805219c:	dc 4c 24 48          	fmul   QWORD PTR [esp+0x48]
 80521a0:	de c3                	faddp  st(3),st
 80521a2:	dd 41 60             	fld    QWORD PTR [ecx+0x60]
 80521a5:	dc 4c 24 58          	fmul   QWORD PTR [esp+0x58]
 80521a9:	de c2                	faddp  st(2),st
 80521ab:	dd 41 50             	fld    QWORD PTR [ecx+0x50]
 80521ae:	dc 4c 24 70          	fmul   QWORD PTR [esp+0x70]
 80521b2:	de c1                	faddp  st(1),st
 80521b4:	dd 41 70             	fld    QWORD PTR [ecx+0x70]
 80521b7:	dc 4c 24 40          	fmul   QWORD PTR [esp+0x40]
 80521bb:	de c3                	faddp  st(3),st
 80521bd:	dd 41 68             	fld    QWORD PTR [ecx+0x68]
 80521c0:	dc 4c 24 50          	fmul   QWORD PTR [esp+0x50]
 80521c4:	de c2                	faddp  st(2),st
 80521c6:	dd 41 58             	fld    QWORD PTR [ecx+0x58]
 80521c9:	dc 4c 24 68          	fmul   QWORD PTR [esp+0x68]
 80521cd:	de c1                	faddp  st(1),st
 80521cf:	dd 41 78             	fld    QWORD PTR [ecx+0x78]
 80521d2:	dc 4c 24 38          	fmul   QWORD PTR [esp+0x38]
 80521d6:	de c3                	faddp  st(3),st
 80521d8:	dd 41 70             	fld    QWORD PTR [ecx+0x70]
 80521db:	dc 4c 24 48          	fmul   QWORD PTR [esp+0x48]
 80521df:	de c2                	faddp  st(2),st
 80521e1:	dd 41 60             	fld    QWORD PTR [ecx+0x60]
 80521e4:	dc 4c 24 60          	fmul   QWORD PTR [esp+0x60]
 80521e8:	de c1                	faddp  st(1),st
 80521ea:	dd 41 48             	fld    QWORD PTR [ecx+0x48]
 80521ed:	dc 4a 80             	fmul   QWORD PTR [edx-0x80]
 80521f0:	dd 41 68             	fld    QWORD PTR [ecx+0x68]
 80521f3:	dc 4c 24 58          	fmul   QWORD PTR [esp+0x58]
 80521f7:	de c2                	faddp  st(2),st
 80521f9:	dd 41 78             	fld    QWORD PTR [ecx+0x78]
 80521fc:	dc 4c 24 40          	fmul   QWORD PTR [esp+0x40]
 8052200:	de c3                	faddp  st(3),st
 8052202:	dd 05 a0 3a 05 08    	fld    QWORD PTR ds:0x8053aa0
 8052208:	d8 c4                	fadd   st,st(4)
 805220a:	dd 41 50             	fld    QWORD PTR [ecx+0x50]
 805220d:	dc 4c 24 78          	fmul   QWORD PTR [esp+0x78]
 8052211:	de c2                	faddp  st(2),st
 8052213:	dd 41 70             	fld    QWORD PTR [ecx+0x70]
 8052216:	dc 4c 24 50          	fmul   QWORD PTR [esp+0x50]
 805221a:	de c3                	faddp  st(3),st
 805221c:	dd 81 80 00 00 00    	fld    QWORD PTR [ecx+0x80]
 8052222:	dc 4c 24 38          	fmul   QWORD PTR [esp+0x38]
 8052226:	de c4                	faddp  st(4),st
 8052228:	dc 25 a0 3a 05 08    	fsub   QWORD PTR ds:0x8053aa0
 805222e:	dd 41 58             	fld    QWORD PTR [ecx+0x58]
 8052231:	dc 4c 24 70          	fmul   QWORD PTR [esp+0x70]
 8052235:	de c2                	faddp  st(2),st
 8052237:	dd 41 50             	fld    QWORD PTR [ecx+0x50]
 805223a:	dc 4a 80             	fmul   QWORD PTR [edx-0x80]
 805223d:	dd 41 78             	fld    QWORD PTR [ecx+0x78]
 8052240:	dc 4c 24 48          	fmul   QWORD PTR [esp+0x48]
 8052244:	de c4                	faddp  st(4),st
 8052246:	d9 c9                	fxch   st(1)
 8052248:	dc c4                	fadd   st(4),st
 805224a:	dd 41 60             	fld    QWORD PTR [ecx+0x60]
 805224d:	dc 4c 24 68          	fmul   QWORD PTR [esp+0x68]
 8052251:	de c3                	faddp  st(3),st
 8052253:	dd 41 58             	fld    QWORD PTR [ecx+0x58]
 8052256:	dc 4c 24 78          	fmul   QWORD PTR [esp+0x78]
 805225a:	de c2                	faddp  st(2),st
 805225c:	de ed                	fsubp  st(5),st
 805225e:	dd 05 a8 3a 05 08    	fld    QWORD PTR ds:0x8053aa8
 8052264:	d8 c4                	fadd   st,st(4)
 8052266:	dd 41 68             	fld    QWORD PTR [ecx+0x68]
 8052269:	dc 4c 24 60          	fmul   QWORD PTR [esp+0x60]
 805226d:	de c3                	faddp  st(3),st
 805226f:	dd 41 60             	fld    QWORD PTR [ecx+0x60]
 8052272:	dc 4c 24 70          	fmul   QWORD PTR [esp+0x70]
 8052276:	de c2                	faddp  st(2),st
 8052278:	dd 81 80 00 00 00    	fld    QWORD PTR [ecx+0x80]
 805227e:	dc 4c 24 40          	fmul   QWORD PTR [esp+0x40]
 8052282:	de c4                	faddp  st(4),st
 8052284:	dc 25 a8 3a 05 08    	fsub   QWORD PTR ds:0x8053aa8
 805228a:	dd 41 70             	fld    QWORD PTR [ecx+0x70]
 805228d:	dc 4c 24 58          	fmul   QWORD PTR [esp+0x58]
 8052291:	de c3                	faddp  st(3),st
 8052293:	dd 41 58             	fld    QWORD PTR [ecx+0x58]
 8052296:	dc 4a 80             	fmul   QWORD PTR [edx-0x80]
 8052299:	dd 41 68             	fld    QWORD PTR [ecx+0x68]
 805229c:	dc 4c 24 68          	fmul   QWORD PTR [esp+0x68]
 80522a0:	de c3                	faddp  st(3),st
 80522a2:	dd 41 78             	fld    QWORD PTR [ecx+0x78]
 80522a5:	dc 4c 24 50          	fmul   QWORD PTR [esp+0x50]
 80522a9:	de c4                	faddp  st(4),st
 80522ab:	d9 c9                	fxch   st(1)
 80522ad:	dc c4                	fadd   st(4),st
 80522af:	de ed                	fsubp  st(5),st
 80522b1:	d9 cd                	fxch   st(5)
 80522b3:	dd 1c 24             	fstp   QWORD PTR [esp]
 80522b6:	dd 41 60             	fld    QWORD PTR [ecx+0x60]
 80522b9:	dc 4c 24 78          	fmul   QWORD PTR [esp+0x78]
 80522bd:	de c5                	faddp  st(5),st
 80522bf:	dd 41 70             	fld    QWORD PTR [ecx+0x70]
 80522c2:	dc 4c 24 60          	fmul   QWORD PTR [esp+0x60]
 80522c6:	de c1                	faddp  st(1),st
 80522c8:	dd 81 80 00 00 00    	fld    QWORD PTR [ecx+0x80]
 80522ce:	dc 4c 24 48          	fmul   QWORD PTR [esp+0x48]
 80522d2:	de c2                	faddp  st(2),st
 80522d4:	d9 ca                	fxch   st(2)
 80522d6:	dc 0d 00 3a 05 08    	fmul   QWORD PTR ds:0x8053a00
 80522dc:	dd 41 68             	fld    QWORD PTR [ecx+0x68]
 80522df:	dc 4c 24 70          	fmul   QWORD PTR [esp+0x70]
 80522e3:	de c5                	faddp  st(5),st
 80522e5:	dd 41 78             	fld    QWORD PTR [ecx+0x78]
 80522e8:	dc 4c 24 58          	fmul   QWORD PTR [esp+0x58]
 80522ec:	de c3                	faddp  st(3),st
 80522ee:	d9 c9                	fxch   st(1)
 80522f0:	dc 0d 00 3a 05 08    	fmul   QWORD PTR ds:0x8053a00
 80522f6:	dd 41 38             	fld    QWORD PTR [ecx+0x38]
 80522f9:	dc 4c 24 38          	fmul   QWORD PTR [esp+0x38]
 80522fd:	de c2                	faddp  st(2),st
 80522ff:	d9 cb                	fxch   st(3)
 8052301:	dd 5c 24 08          	fstp   QWORD PTR [esp+0x8]
 8052305:	dd 41 60             	fld    QWORD PTR [ecx+0x60]
 8052308:	dc 4a 80             	fmul   QWORD PTR [edx-0x80]
 805230b:	dd 41 70             	fld    QWORD PTR [ecx+0x70]
 805230e:	dc 4c 24 68          	fmul   QWORD PTR [esp+0x68]
 8052312:	de c5                	faddp  st(5),st
 8052314:	dd 81 80 00 00 00    	fld    QWORD PTR [ecx+0x80]
 805231a:	dc 4c 24 50          	fmul   QWORD PTR [esp+0x50]
 805231e:	de c3                	faddp  st(3),st
 8052320:	dd 41 38             	fld    QWORD PTR [ecx+0x38]
 8052323:	dc 4c 24 40          	fmul   QWORD PTR [esp+0x40]
 8052327:	de c4                	faddp  st(4),st
 8052329:	dd 05 60 3a 05 08    	fld    QWORD PTR ds:0x8053a60
 805232f:	d8 c2                	fadd   st,st(2)
 8052331:	dd 41 68             	fld    QWORD PTR [ecx+0x68]
 8052334:	dc 4c 24 78          	fmul   QWORD PTR [esp+0x78]
 8052338:	de c2                	faddp  st(2),st
 805233a:	dd 41 78             	fld    QWORD PTR [ecx+0x78]
 805233d:	dc 4c 24 60          	fmul   QWORD PTR [esp+0x60]
 8052341:	de c6                	faddp  st(6),st
 8052343:	d9 cb                	fxch   st(3)
 8052345:	dc 0d 00 3a 05 08    	fmul   QWORD PTR ds:0x8053a00
 805234b:	dd 41 40             	fld    QWORD PTR [ecx+0x40]
 805234e:	dc 4c 24 38          	fmul   QWORD PTR [esp+0x38]
 8052352:	de c5                	faddp  st(5),st
 8052354:	d9 cb                	fxch   st(3)
 8052356:	dc 25 60 3a 05 08    	fsub   QWORD PTR ds:0x8053a60
 805235c:	dd 41 70             	fld    QWORD PTR [ecx+0x70]
 805235f:	dc 4c 24 70          	fmul   QWORD PTR [esp+0x70]
 8052363:	de c2                	faddp  st(2),st
 8052365:	dd 81 80 00 00 00    	fld    QWORD PTR [ecx+0x80]
 805236b:	dc 4c 24 58          	fmul   QWORD PTR [esp+0x58]
 805236f:	de c6                	faddp  st(6),st
 8052371:	dd 41 38             	fld    QWORD PTR [ecx+0x38]
 8052374:	dc 4c 24 48          	fmul   QWORD PTR [esp+0x48]
 8052378:	de c4                	faddp  st(4),st
 805237a:	dc c4                	fadd   st(4),st
 805237c:	de ea                	fsubp  st(2),st
 805237e:	dd 41 68             	fld    QWORD PTR [ecx+0x68]
 8052381:	dc 4a 80             	fmul   QWORD PTR [edx-0x80]
 8052384:	dd 41 78             	fld    QWORD PTR [ecx+0x78]
 8052387:	dc 4c 24 68          	fmul   QWORD PTR [esp+0x68]
 805238b:	de c2                	faddp  st(2),st
 805238d:	d9 cd                	fxch   st(5)
 805238f:	dc 0d 00 3a 05 08    	fmul   QWORD PTR ds:0x8053a00
 8052395:	dd 41 40             	fld    QWORD PTR [ecx+0x40]
 8052398:	dc 4c 24 40          	fmul   QWORD PTR [esp+0x40]
 805239c:	de c4                	faddp  st(4),st
 805239e:	dd 05 68 3a 05 08    	fld    QWORD PTR ds:0x8053a68
 80523a4:	d8 c5                	fadd   st,st(5)
 80523a6:	dd 41 70             	fld    QWORD PTR [ecx+0x70]
 80523a9:	dc 4c 24 78          	fmul   QWORD PTR [esp+0x78]
 80523ad:	de c7                	faddp  st(7),st
 80523af:	dd 81 80 00 00 00    	fld    QWORD PTR [ecx+0x80]
 80523b5:	dc 4c 24 60          	fmul   QWORD PTR [esp+0x60]
 80523b9:	de c3                	faddp  st(3),st
 80523bb:	dd 41 38             	fld    QWORD PTR [ecx+0x38]
 80523be:	dc 4c 24 50          	fmul   QWORD PTR [esp+0x50]
 80523c2:	de c2                	faddp  st(2),st
 80523c4:	dd 41 48             	fld    QWORD PTR [ecx+0x48]
 80523c7:	dc 4c 24 38          	fmul   QWORD PTR [esp+0x38]
 80523cb:	de c5                	faddp  st(5),st
 80523cd:	dc 25 68 3a 05 08    	fsub   QWORD PTR ds:0x8053a68
 80523d3:	d9 cb                	fxch   st(3)
 80523d5:	dd 5a d0             	fstp   QWORD PTR [edx-0x30]
 80523d8:	dd 41 78             	fld    QWORD PTR [ecx+0x78]
 80523db:	dc 4c 24 70          	fmul   QWORD PTR [esp+0x70]
 80523df:	de c6                	faddp  st(6),st
 80523e1:	d9 c9                	fxch   st(1)
 80523e3:	dc 0d 00 3a 05 08    	fmul   QWORD PTR ds:0x8053a00
 80523e9:	dd 41 40             	fld    QWORD PTR [ecx+0x40]
 80523ec:	dc 4c 24 48          	fmul   QWORD PTR [esp+0x48]
 80523f0:	de c2                	faddp  st(2),st
 80523f2:	d9 ca                	fxch   st(2)
 80523f4:	dc c3                	fadd   st(3),st
 80523f6:	de ec                	fsubp  st(4),st
 80523f8:	dd 41 70             	fld    QWORD PTR [ecx+0x70]
 80523fb:	dc 4a 80             	fmul   QWORD PTR [edx-0x80]
 80523fe:	dd 81 80 00 00 00    	fld    QWORD PTR [ecx+0x80]
 8052404:	dc 4c 24 68          	fmul   QWORD PTR [esp+0x68]
 8052408:	de c6                	faddp  st(6),st
 805240a:	dd 41 38             	fld    QWORD PTR [ecx+0x38]
 805240d:	dc 4c 24 58          	fmul   QWORD PTR [esp+0x58]
 8052411:	de c3                	faddp  st(3),st
 8052413:	dd 41 48             	fld    QWORD PTR [ecx+0x48]
 8052416:	dc 4c 24 40          	fmul   QWORD PTR [esp+0x40]
 805241a:	de c2                	faddp  st(2),st
 805241c:	dd 05 70 3a 05 08    	fld    QWORD PTR ds:0x8053a70
 8052422:	d8 c4                	fadd   st,st(4)
 8052424:	dd 41 78             	fld    QWORD PTR [ecx+0x78]
 8052427:	dc 4c 24 78          	fmul   QWORD PTR [esp+0x78]
 805242b:	de c2                	faddp  st(2),st
 805242d:	d9 ce                	fxch   st(6)
 805242f:	dc 0d 00 3a 05 08    	fmul   QWORD PTR ds:0x8053a00
 8052435:	dd 41 40             	fld    QWORD PTR [ecx+0x40]
 8052438:	dc 4c 24 50          	fmul   QWORD PTR [esp+0x50]
 805243c:	de c4                	faddp  st(4),st
 805243e:	dd 41 50             	fld    QWORD PTR [ecx+0x50]
 8052441:	dc 4c 24 38          	fmul   QWORD PTR [esp+0x38]
 8052445:	de c3                	faddp  st(3),st
 8052447:	d9 ce                	fxch   st(6)
 8052449:	dc 25 70 3a 05 08    	fsub   QWORD PTR ds:0x8053a70
 805244f:	d9 cd                	fxch   st(5)
 8052451:	dd 5a d8             	fstp   QWORD PTR [edx-0x28]
 8052454:	dd 81 80 00 00 00    	fld    QWORD PTR [ecx+0x80]
 805245a:	dc 4c 24 70          	fmul   QWORD PTR [esp+0x70]
 805245e:	de c1                	faddp  st(1),st
 8052460:	dd 41 38             	fld    QWORD PTR [ecx+0x38]
 8052463:	dc 4c 24 60          	fmul   QWORD PTR [esp+0x60]
 8052467:	de c6                	faddp  st(6),st
 8052469:	dd 41 48             	fld    QWORD PTR [ecx+0x48]
 805246c:	dc 4c 24 48          	fmul   QWORD PTR [esp+0x48]
 8052470:	de c3                	faddp  st(3),st
 8052472:	d9 cc                	fxch   st(4)
 8052474:	dc c1                	fadd   st(1),st
 8052476:	de eb                	fsubp  st(3),st
 8052478:	dd 41 78             	fld    QWORD PTR [ecx+0x78]
 805247b:	dc 4a 80             	fmul   QWORD PTR [edx-0x80]
 805247e:	d9 cc                	fxch   st(4)
 8052480:	dc 0d 00 3a 05 08    	fmul   QWORD PTR ds:0x8053a00
 8052486:	dd 41 40             	fld    QWORD PTR [ecx+0x40]
 8052489:	dc 4c 24 58          	fmul   QWORD PTR [esp+0x58]
 805248d:	de c6                	faddp  st(6),st
 805248f:	dd 41 50             	fld    QWORD PTR [ecx+0x50]
 8052492:	dc 4c 24 40          	fmul   QWORD PTR [esp+0x40]
 8052496:	de c3                	faddp  st(3),st
 8052498:	dd 05 78 3a 05 08    	fld    QWORD PTR ds:0x8053a78
 805249e:	d8 c2                	fadd   st,st(2)
 80524a0:	dd 81 80 00 00 00    	fld    QWORD PTR [ecx+0x80]
 80524a6:	dc 4c 24 78          	fmul   QWORD PTR [esp+0x78]
 80524aa:	de c6                	faddp  st(6),st
 80524ac:	dd 41 38             	fld    QWORD PTR [ecx+0x38]
 80524af:	dc 4c 24 68          	fmul   QWORD PTR [esp+0x68]
 80524b3:	de c2                	faddp  st(2),st
 80524b5:	dd 41 48             	fld    QWORD PTR [ecx+0x48]
 80524b8:	dc 4c 24 50          	fmul   QWORD PTR [esp+0x50]
 80524bc:	de c7                	faddp  st(7),st
 80524be:	dd 41 58             	fld    QWORD PTR [ecx+0x58]
 80524c1:	dc 4c 24 38          	fmul   QWORD PTR [esp+0x38]
 80524c5:	de c4                	faddp  st(4),st
 80524c7:	dc 25 78 3a 05 08    	fsub   QWORD PTR ds:0x8053a78
 80524cd:	d9 cc                	fxch   st(4)
 80524cf:	dd 5a e0             	fstp   QWORD PTR [edx-0x20]
 80524d2:	d9 cc                	fxch   st(4)
 80524d4:	dc 0d 00 3a 05 08    	fmul   QWORD PTR ds:0x8053a00
 80524da:	dd 41 40             	fld    QWORD PTR [ecx+0x40]
 80524dd:	dc 4c 24 60          	fmul   QWORD PTR [esp+0x60]
 80524e1:	de c5                	faddp  st(5),st
 80524e3:	dd 41 50             	fld    QWORD PTR [ecx+0x50]
 80524e6:	dc 4c 24 48          	fmul   QWORD PTR [esp+0x48]
 80524ea:	de c6                	faddp  st(6),st
 80524ec:	d9 cb                	fxch   st(3)
 80524ee:	dc c2                	fadd   st(2),st
 80524f0:	de e9                	fsubp  st(1),st
 80524f2:	dd 41 38             	fld    QWORD PTR [ecx+0x38]
 80524f5:	dc 4c 24 70          	fmul   QWORD PTR [esp+0x70]
 80524f9:	de c3                	faddp  st(3),st
 80524fb:	dd 41 48             	fld    QWORD PTR [ecx+0x48]
 80524fe:	dc 4c 24 58          	fmul   QWORD PTR [esp+0x58]
 8052502:	de c4                	faddp  st(4),st
 8052504:	dd 41 58             	fld    QWORD PTR [ecx+0x58]
 8052507:	dc 4c 24 40          	fmul   QWORD PTR [esp+0x40]
 805250b:	de c5                	faddp  st(5),st
 805250d:	dd 05 80 3a 05 08    	fld    QWORD PTR ds:0x8053a80
 8052513:	d8 c2                	fadd   st,st(2)
 8052515:	dd 41 40             	fld    QWORD PTR [ecx+0x40]
 8052518:	dc 4c 24 68          	fmul   QWORD PTR [esp+0x68]
 805251c:	de c4                	faddp  st(4),st
 805251e:	dd 41 50             	fld    QWORD PTR [ecx+0x50]
 8052521:	dc 4c 24 50          	fmul   QWORD PTR [esp+0x50]
 8052525:	de c5                	faddp  st(5),st
 8052527:	dd 41 60             	fld    QWORD PTR [ecx+0x60]
 805252a:	dc 4c 24 38          	fmul   QWORD PTR [esp+0x38]
 805252e:	de c6                	faddp  st(6),st
 8052530:	dc 25 80 3a 05 08    	fsub   QWORD PTR ds:0x8053a80
 8052536:	d9 c9                	fxch   st(1)
 8052538:	dd 5a e8             	fstp   QWORD PTR [edx-0x18]
 805253b:	dd 41 48             	fld    QWORD PTR [ecx+0x48]
 805253e:	dc 4c 24 60          	fmul   QWORD PTR [esp+0x60]
 8052542:	de c3                	faddp  st(3),st
 8052544:	dd 41 58             	fld    QWORD PTR [ecx+0x58]
 8052547:	dc 4c 24 48          	fmul   QWORD PTR [esp+0x48]
 805254b:	de c4                	faddp  st(4),st
 805254d:	dc c4                	fadd   st(4),st
 805254f:	de e9                	fsubp  st(1),st
 8052551:	dd 5a 60             	fstp   QWORD PTR [edx+0x60]
 8052554:	dd 41 50             	fld    QWORD PTR [ecx+0x50]
 8052557:	dc 4c 24 58          	fmul   QWORD PTR [esp+0x58]
 805255b:	de c1                	faddp  st(1),st
 805255d:	dd 41 60             	fld    QWORD PTR [ecx+0x60]
 8052560:	dc 4c 24 40          	fmul   QWORD PTR [esp+0x40]
 8052564:	de c2                	faddp  st(2),st
 8052566:	dd 05 88 3a 05 08    	fld    QWORD PTR ds:0x8053a88
 805256c:	d8 c3                	fadd   st,st(3)
 805256e:	dd 41 58             	fld    QWORD PTR [ecx+0x58]
 8052571:	dc 4c 24 50          	fmul   QWORD PTR [esp+0x50]
 8052575:	de c2                	faddp  st(2),st
 8052577:	dd 41 68             	fld    QWORD PTR [ecx+0x68]
 805257a:	dc 4c 24 38          	fmul   QWORD PTR [esp+0x38]
 805257e:	de c3                	faddp  st(3),st
 8052580:	dc 25 88 3a 05 08    	fsub   QWORD PTR ds:0x8053a88
 8052586:	dd 41 60             	fld    QWORD PTR [ecx+0x60]
 8052589:	dc 4c 24 48          	fmul   QWORD PTR [esp+0x48]
 805258d:	de c2                	faddp  st(2),st
 805258f:	dc c2                	fadd   st(2),st
 8052591:	de eb                	fsubp  st(3),st
 8052593:	d9 ca                	fxch   st(2)
 8052595:	dd 5a 68             	fstp   QWORD PTR [edx+0x68]
 8052598:	dd 41 68             	fld    QWORD PTR [ecx+0x68]
 805259b:	dc 4c 24 40          	fmul   QWORD PTR [esp+0x40]
 805259f:	de c2                	faddp  st(2),st
 80525a1:	dd 05 90 3a 05 08    	fld    QWORD PTR ds:0x8053a90
 80525a7:	d8 c1                	fadd   st,st(1)
 80525a9:	dd 41 70             	fld    QWORD PTR [ecx+0x70]
 80525ac:	dc 4c 24 38          	fmul   QWORD PTR [esp+0x38]
 80525b0:	de c3                	faddp  st(3),st
 80525b2:	dc 25 90 3a 05 08    	fsub   QWORD PTR ds:0x8053a90
 80525b8:	dd 04 24             	fld    QWORD PTR [esp]
 80525bb:	dd 44 24 08          	fld    QWORD PTR [esp+0x8]
 80525bf:	d9 ca                	fxch   st(2)
 80525c1:	dc c4                	fadd   st(4),st
 80525c3:	de eb                	fsubp  st(3),st
 80525c5:	dd 05 98 3a 05 08    	fld    QWORD PTR ds:0x8053a98
 80525cb:	d8 c4                	fadd   st,st(4)
 80525cd:	dc 25 98 3a 05 08    	fsub   QWORD PTR ds:0x8053a98
 80525d3:	dc c1                	fadd   st(1),st
 80525d5:	de ec                	fsubp  st(4),st
 80525d7:	dd 05 a0 3a 05 08    	fld    QWORD PTR ds:0x8053aa0
 80525dd:	d8 c1                	fadd   st,st(1)
 80525df:	dc 25 a0 3a 05 08    	fsub   QWORD PTR ds:0x8053aa0
 80525e5:	dc e9                	fsub   st(1),st
 80525e7:	de c2                	faddp  st(2),st
 80525e9:	d9 ca                	fxch   st(2)
 80525eb:	dd 5a 70             	fstp   QWORD PTR [edx+0x70]
 80525ee:	d9 ca                	fxch   st(2)
 80525f0:	dd 5a 78             	fstp   QWORD PTR [edx+0x78]
 80525f3:	dd 59 80             	fstp   QWORD PTR [ecx-0x80]
 80525f6:	dd 59 88             	fstp   QWORD PTR [ecx-0x78]
 80525f9:	dd 42 50             	fld    QWORD PTR [edx+0x50]
 80525fc:	dc 49 28             	fmul   QWORD PTR [ecx+0x28]
 80525ff:	dc 0d 00 3a 05 08    	fmul   QWORD PTR ds:0x8053a00
 8052605:	dd 41 98             	fld    QWORD PTR [ecx-0x68]
 8052608:	dc 49 20             	fmul   QWORD PTR [ecx+0x20]
 805260b:	de c1                	faddp  st(1),st
 805260d:	dd 41 a0             	fld    QWORD PTR [ecx-0x60]
 8052610:	dc 49 18             	fmul   QWORD PTR [ecx+0x18]
 8052613:	de c1                	faddp  st(1),st
 8052615:	dd 41 98             	fld    QWORD PTR [ecx-0x68]
 8052618:	dc 49 28             	fmul   QWORD PTR [ecx+0x28]
 805261b:	dd 41 a8             	fld    QWORD PTR [ecx-0x58]
 805261e:	dc 49 10             	fmul   QWORD PTR [ecx+0x10]
 8052621:	de c2                	faddp  st(2),st
 8052623:	dd 41 a0             	fld    QWORD PTR [ecx-0x60]
 8052626:	dc 49 20             	fmul   QWORD PTR [ecx+0x20]
 8052629:	de c1                	faddp  st(1),st
 805262b:	dd 41 b0             	fld    QWORD PTR [ecx-0x50]
 805262e:	dc 49 08             	fmul   QWORD PTR [ecx+0x8]
 8052631:	de c2                	faddp  st(2),st
 8052633:	dd 41 a8             	fld    QWORD PTR [ecx-0x58]
 8052636:	dc 49 18             	fmul   QWORD PTR [ecx+0x18]
 8052639:	de c1                	faddp  st(1),st
 805263b:	dd 42 f0             	fld    QWORD PTR [edx-0x10]
 805263e:	dc 09                	fmul   QWORD PTR [ecx]
 8052640:	de c2                	faddp  st(2),st
 8052642:	dd 41 b0             	fld    QWORD PTR [ecx-0x50]
 8052645:	dc 49 10             	fmul   QWORD PTR [ecx+0x10]
 8052648:	de c1                	faddp  st(1),st
 805264a:	dd 41 a0             	fld    QWORD PTR [ecx-0x60]
 805264d:	dc 49 28             	fmul   QWORD PTR [ecx+0x28]
 8052650:	dd 42 f8             	fld    QWORD PTR [edx-0x8]
 8052653:	dc 49 f8             	fmul   QWORD PTR [ecx-0x8]
 8052656:	de c3                	faddp  st(3),st
 8052658:	dd 42 f0             	fld    QWORD PTR [edx-0x10]
 805265b:	dc 49 08             	fmul   QWORD PTR [ecx+0x8]
 805265e:	de c2                	faddp  st(2),st
 8052660:	dd 41 a8             	fld    QWORD PTR [ecx-0x58]
 8052663:	dc 49 20             	fmul   QWORD PTR [ecx+0x20]
 8052666:	de c1                	faddp  st(1),st
 8052668:	dd 02                	fld    QWORD PTR [edx]
 805266a:	dc 49 f0             	fmul   QWORD PTR [ecx-0x10]
 805266d:	de c3                	faddp  st(3),st
 805266f:	dd 42 f8             	fld    QWORD PTR [edx-0x8]
 8052672:	dc 09                	fmul   QWORD PTR [ecx]
 8052674:	de c2                	faddp  st(2),st
 8052676:	dd 41 b0             	fld    QWORD PTR [ecx-0x50]
 8052679:	dc 49 18             	fmul   QWORD PTR [ecx+0x18]
 805267c:	de c1                	faddp  st(1),st
 805267e:	dd 42 08             	fld    QWORD PTR [edx+0x8]
 8052681:	dc 49 e8             	fmul   QWORD PTR [ecx-0x18]
 8052684:	de c3                	faddp  st(3),st
 8052686:	dd 02                	fld    QWORD PTR [edx]
 8052688:	dc 49 f8             	fmul   QWORD PTR [ecx-0x8]
 805268b:	de c2                	faddp  st(2),st
 805268d:	dd 42 f0             	fld    QWORD PTR [edx-0x10]
 8052690:	dc 49 10             	fmul   QWORD PTR [ecx+0x10]
 8052693:	de c1                	faddp  st(1),st
 8052695:	dd 42 10             	fld    QWORD PTR [edx+0x10]
 8052698:	dc 49 e0             	fmul   QWORD PTR [ecx-0x20]
 805269b:	de c3                	faddp  st(3),st
 805269d:	dd 42 08             	fld    QWORD PTR [edx+0x8]
 80526a0:	dc 49 f0             	fmul   QWORD PTR [ecx-0x10]
 80526a3:	de c2                	faddp  st(2),st
 80526a5:	dd 42 f8             	fld    QWORD PTR [edx-0x8]
 80526a8:	dc 49 08             	fmul   QWORD PTR [ecx+0x8]
 80526ab:	de c1                	faddp  st(1),st
 80526ad:	dd 41 a8             	fld    QWORD PTR [ecx-0x58]
 80526b0:	dc 49 28             	fmul   QWORD PTR [ecx+0x28]
 80526b3:	dd 02                	fld    QWORD PTR [edx]
 80526b5:	dc 09                	fmul   QWORD PTR [ecx]
 80526b7:	de c2                	faddp  st(2),st
 80526b9:	dd 42 10             	fld    QWORD PTR [edx+0x10]
 80526bc:	dc 49 e8             	fmul   QWORD PTR [ecx-0x18]
 80526bf:	de c3                	faddp  st(3),st
 80526c1:	dd 05 a0 3a 05 08    	fld    QWORD PTR ds:0x8053aa0
 80526c7:	d8 c4                	fadd   st,st(4)
 80526c9:	dd 41 b0             	fld    QWORD PTR [ecx-0x50]
 80526cc:	dc 49 20             	fmul   QWORD PTR [ecx+0x20]
 80526cf:	de c2                	faddp  st(2),st
 80526d1:	dd 42 08             	fld    QWORD PTR [edx+0x8]
 80526d4:	dc 49 f8             	fmul   QWORD PTR [ecx-0x8]
 80526d7:	de c3                	faddp  st(3),st
 80526d9:	dd 42 50             	fld    QWORD PTR [edx+0x50]
 80526dc:	dc 49 e0             	fmul   QWORD PTR [ecx-0x20]
 80526df:	de c4                	faddp  st(4),st
 80526e1:	dc 25 a0 3a 05 08    	fsub   QWORD PTR ds:0x8053aa0
 80526e7:	dd 42 f0             	fld    QWORD PTR [edx-0x10]
 80526ea:	dc 49 18             	fmul   QWORD PTR [ecx+0x18]
 80526ed:	de c2                	faddp  st(2),st
 80526ef:	dd 41 b0             	fld    QWORD PTR [ecx-0x50]
 80526f2:	dc 49 28             	fmul   QWORD PTR [ecx+0x28]
 80526f5:	dd 42 10             	fld    QWORD PTR [edx+0x10]
 80526f8:	dc 49 f0             	fmul   QWORD PTR [ecx-0x10]
 80526fb:	de c4                	faddp  st(4),st
 80526fd:	d9 c9                	fxch   st(1)
 80526ff:	dc c4                	fadd   st(4),st
 8052701:	dd 42 f8             	fld    QWORD PTR [edx-0x8]
 8052704:	dc 49 10             	fmul   QWORD PTR [ecx+0x10]
 8052707:	de c3                	faddp  st(3),st
 8052709:	dd 42 f0             	fld    QWORD PTR [edx-0x10]
 805270c:	dc 49 20             	fmul   QWORD PTR [ecx+0x20]
 805270f:	de c2                	faddp  st(2),st
 8052711:	de ed                	fsubp  st(5),st
 8052713:	dd 05 a8 3a 05 08    	fld    QWORD PTR ds:0x8053aa8
 8052719:	d8 c4                	fadd   st,st(4)
 805271b:	dd 02                	fld    QWORD PTR [edx]
 805271d:	dc 49 08             	fmul   QWORD PTR [ecx+0x8]
 8052720:	de c3                	faddp  st(3),st
 8052722:	dd 42 f8             	fld    QWORD PTR [edx-0x8]
 8052725:	dc 49 18             	fmul   QWORD PTR [ecx+0x18]
 8052728:	de c2                	faddp  st(2),st
 805272a:	dd 42 50             	fld    QWORD PTR [edx+0x50]
 805272d:	dc 49 e8             	fmul   QWORD PTR [ecx-0x18]
 8052730:	de c4                	faddp  st(4),st
 8052732:	dc 25 a8 3a 05 08    	fsub   QWORD PTR ds:0x8053aa8
 8052738:	dd 42 08             	fld    QWORD PTR [edx+0x8]
 805273b:	dc 09                	fmul   QWORD PTR [ecx]
 805273d:	de c3                	faddp  st(3),st
 805273f:	dd 42 f0             	fld    QWORD PTR [edx-0x10]
 8052742:	dc 49 28             	fmul   QWORD PTR [ecx+0x28]
 8052745:	dd 02                	fld    QWORD PTR [edx]
 8052747:	dc 49 10             	fmul   QWORD PTR [ecx+0x10]
 805274a:	de c3                	faddp  st(3),st
 805274c:	dd 42 10             	fld    QWORD PTR [edx+0x10]
 805274f:	dc 49 f8             	fmul   QWORD PTR [ecx-0x8]
 8052752:	de c4                	faddp  st(4),st
 8052754:	d9 c9                	fxch   st(1)
 8052756:	dc c4                	fadd   st(4),st
 8052758:	de ed                	fsubp  st(5),st
 805275a:	d9 cd                	fxch   st(5)
 805275c:	dd 1c 24             	fstp   QWORD PTR [esp]
 805275f:	dd 42 f8             	fld    QWORD PTR [edx-0x8]
 8052762:	dc 49 20             	fmul   QWORD PTR [ecx+0x20]
 8052765:	de c5                	faddp  st(5),st
 8052767:	dd 42 08             	fld    QWORD PTR [edx+0x8]
 805276a:	dc 49 08             	fmul   QWORD PTR [ecx+0x8]
 805276d:	de c1                	faddp  st(1),st
 805276f:	dd 42 50             	fld    QWORD PTR [edx+0x50]
 8052772:	dc 49 f0             	fmul   QWORD PTR [ecx-0x10]
 8052775:	de c2                	faddp  st(2),st
 8052777:	d9 ca                	fxch   st(2)
 8052779:	dc 0d 00 3a 05 08    	fmul   QWORD PTR ds:0x8053a00
 805277f:	dd 02                	fld    QWORD PTR [edx]
 8052781:	dc 49 18             	fmul   QWORD PTR [ecx+0x18]
 8052784:	de c5                	faddp  st(5),st
 8052786:	dd 42 10             	fld    QWORD PTR [edx+0x10]
 8052789:	dc 09                	fmul   QWORD PTR [ecx]
 805278b:	de c3                	faddp  st(3),st
 805278d:	d9 c9                	fxch   st(1)
 805278f:	dc 0d 00 3a 05 08    	fmul   QWORD PTR ds:0x8053a00
 8052795:	dd 41 98             	fld    QWORD PTR [ecx-0x68]
 8052798:	dc 49 e0             	fmul   QWORD PTR [ecx-0x20]
 805279b:	de c2                	faddp  st(2),st
 805279d:	d9 cb                	fxch   st(3)
 805279f:	dd 5c 24 08          	fstp   QWORD PTR [esp+0x8]
 80527a3:	dd 42 f8             	fld    QWORD PTR [edx-0x8]
 80527a6:	dc 49 28             	fmul   QWORD PTR [ecx+0x28]
 80527a9:	dd 42 08             	fld    QWORD PTR [edx+0x8]
 80527ac:	dc 49 10             	fmul   QWORD PTR [ecx+0x10]
 80527af:	de c5                	faddp  st(5),st
 80527b1:	dd 42 50             	fld    QWORD PTR [edx+0x50]
 80527b4:	dc 49 f8             	fmul   QWORD PTR [ecx-0x8]
 80527b7:	de c3                	faddp  st(3),st
 80527b9:	dd 41 98             	fld    QWORD PTR [ecx-0x68]
 80527bc:	dc 49 e8             	fmul   QWORD PTR [ecx-0x18]
 80527bf:	de c4                	faddp  st(4),st
 80527c1:	dd 05 60 3a 05 08    	fld    QWORD PTR ds:0x8053a60
 80527c7:	d8 c2                	fadd   st,st(2)
 80527c9:	dd 02                	fld    QWORD PTR [edx]
 80527cb:	dc 49 20             	fmul   QWORD PTR [ecx+0x20]
 80527ce:	de c2                	faddp  st(2),st
 80527d0:	dd 42 10             	fld    QWORD PTR [edx+0x10]
 80527d3:	dc 49 08             	fmul   QWORD PTR [ecx+0x8]
 80527d6:	de c6                	faddp  st(6),st
 80527d8:	d9 cb                	fxch   st(3)
 80527da:	dc 0d 00 3a 05 08    	fmul   QWORD PTR ds:0x8053a00
 80527e0:	dd 41 a0             	fld    QWORD PTR [ecx-0x60]
 80527e3:	dc 49 e0             	fmul   QWORD PTR [ecx-0x20]
 80527e6:	de c5                	faddp  st(5),st
 80527e8:	d9 cb                	fxch   st(3)
 80527ea:	dc 25 60 3a 05 08    	fsub   QWORD PTR ds:0x8053a60
 80527f0:	dd 42 08             	fld    QWORD PTR [edx+0x8]
 80527f3:	dc 49 18             	fmul   QWORD PTR [ecx+0x18]
 80527f6:	de c2                	faddp  st(2),st
 80527f8:	dd 42 50             	fld    QWORD PTR [edx+0x50]
 80527fb:	dc 09                	fmul   QWORD PTR [ecx]
 80527fd:	de c6                	faddp  st(6),st
 80527ff:	dd 41 98             	fld    QWORD PTR [ecx-0x68]
 8052802:	dc 49 f0             	fmul   QWORD PTR [ecx-0x10]
 8052805:	de c4                	faddp  st(4),st
 8052807:	dc c4                	fadd   st(4),st
 8052809:	de ea                	fsubp  st(2),st
 805280b:	dd 02                	fld    QWORD PTR [edx]
 805280d:	dc 49 28             	fmul   QWORD PTR [ecx+0x28]
 8052810:	dd 42 10             	fld    QWORD PTR [edx+0x10]
 8052813:	dc 49 10             	fmul   QWORD PTR [ecx+0x10]
 8052816:	de c2                	faddp  st(2),st
 8052818:	d9 cd                	fxch   st(5)
 805281a:	dc 0d 00 3a 05 08    	fmul   QWORD PTR ds:0x8053a00
 8052820:	dd 41 a0             	fld    QWORD PTR [ecx-0x60]
 8052823:	dc 49 e8             	fmul   QWORD PTR [ecx-0x18]
 8052826:	de c4                	faddp  st(4),st
 8052828:	dd 05 68 3a 05 08    	fld    QWORD PTR ds:0x8053a68
 805282e:	d8 c5                	fadd   st,st(5)
 8052830:	dd 42 08             	fld    QWORD PTR [edx+0x8]
 8052833:	dc 49 20             	fmul   QWORD PTR [ecx+0x20]
 8052836:	de c7                	faddp  st(7),st
 8052838:	dd 42 50             	fld    QWORD PTR [edx+0x50]
 805283b:	dc 49 08             	fmul   QWORD PTR [ecx+0x8]
 805283e:	de c3                	faddp  st(3),st
 8052840:	dd 41 98             	fld    QWORD PTR [ecx-0x68]
 8052843:	dc 49 f8             	fmul   QWORD PTR [ecx-0x8]
 8052846:	de c2                	faddp  st(2),st
 8052848:	dd 41 a8             	fld    QWORD PTR [ecx-0x58]
 805284b:	dc 49 e0             	fmul   QWORD PTR [ecx-0x20]
 805284e:	de c5                	faddp  st(5),st
 8052850:	dc 25 68 3a 05 08    	fsub   QWORD PTR ds:0x8053a68
 8052856:	d9 cb                	fxch   st(3)
 8052858:	dd 5a 40             	fstp   QWORD PTR [edx+0x40]
 805285b:	dd 42 10             	fld    QWORD PTR [edx+0x10]
 805285e:	dc 49 18             	fmul   QWORD PTR [ecx+0x18]
 8052861:	de c6                	faddp  st(6),st
 8052863:	d9 c9                	fxch   st(1)
 8052865:	dc 0d 00 3a 05 08    	fmul   QWORD PTR ds:0x8053a00
 805286b:	dd 41 a0             	fld    QWORD PTR [ecx-0x60]
 805286e:	dc 49 f0             	fmul   QWORD PTR [ecx-0x10]
 8052871:	de c2                	faddp  st(2),st
 8052873:	d9 ca                	fxch   st(2)
 8052875:	dc c3                	fadd   st(3),st
 8052877:	de ec                	fsubp  st(4),st
 8052879:	dd 42 08             	fld    QWORD PTR [edx+0x8]
 805287c:	dc 49 28             	fmul   QWORD PTR [ecx+0x28]
 805287f:	dd 42 50             	fld    QWORD PTR [edx+0x50]
 8052882:	dc 49 10             	fmul   QWORD PTR [ecx+0x10]
 8052885:	de c6                	faddp  st(6),st
 8052887:	dd 41 98             	fld    QWORD PTR [ecx-0x68]
 805288a:	dc 09                	fmul   QWORD PTR [ecx]
 805288c:	de c3                	faddp  st(3),st
 805288e:	dd 41 a8             	fld    QWORD PTR [ecx-0x58]
 8052891:	dc 49 e8             	fmul   QWORD PTR [ecx-0x18]
 8052894:	de c2                	faddp  st(2),st
 8052896:	dd 05 70 3a 05 08    	fld    QWORD PTR ds:0x8053a70
 805289c:	d8 c4                	fadd   st,st(4)
 805289e:	dd 42 10             	fld    QWORD PTR [edx+0x10]
 80528a1:	dc 49 20             	fmul   QWORD PTR [ecx+0x20]
 80528a4:	de c2                	faddp  st(2),st
 80528a6:	d9 ce                	fxch   st(6)
 80528a8:	dc 0d 00 3a 05 08    	fmul   QWORD PTR ds:0x8053a00
 80528ae:	dd 41 a0             	fld    QWORD PTR [ecx-0x60]
 80528b1:	dc 49 f8             	fmul   QWORD PTR [ecx-0x8]
 80528b4:	de c4                	faddp  st(4),st
 80528b6:	dd 41 b0             	fld    QWORD PTR [ecx-0x50]
 80528b9:	dc 49 e0             	fmul   QWORD PTR [ecx-0x20]
 80528bc:	de c3                	faddp  st(3),st
 80528be:	d9 ce                	fxch   st(6)
 80528c0:	dc 25 70 3a 05 08    	fsub   QWORD PTR ds:0x8053a70
 80528c6:	d9 cd                	fxch   st(5)
 80528c8:	dd 5a 48             	fstp   QWORD PTR [edx+0x48]
 80528cb:	dd 42 50             	fld    QWORD PTR [edx+0x50]
 80528ce:	dc 49 18             	fmul   QWORD PTR [ecx+0x18]
 80528d1:	de c1                	faddp  st(1),st
 80528d3:	dd 41 98             	fld    QWORD PTR [ecx-0x68]
 80528d6:	dc 49 08             	fmul   QWORD PTR [ecx+0x8]
 80528d9:	de c6                	faddp  st(6),st
 80528db:	dd 41 a8             	fld    QWORD PTR [ecx-0x58]
 80528de:	dc 49 f0             	fmul   QWORD PTR [ecx-0x10]
 80528e1:	de c3                	faddp  st(3),st
 80528e3:	d9 cc                	fxch   st(4)
 80528e5:	dc c1                	fadd   st(1),st
 80528e7:	de eb                	fsubp  st(3),st
 80528e9:	dd 42 10             	fld    QWORD PTR [edx+0x10]
 80528ec:	dc 49 28             	fmul   QWORD PTR [ecx+0x28]
 80528ef:	d9 cc                	fxch   st(4)
 80528f1:	dc 0d 00 3a 05 08    	fmul   QWORD PTR ds:0x8053a00
 80528f7:	dd 41 a0             	fld    QWORD PTR [ecx-0x60]
 80528fa:	dc 09                	fmul   QWORD PTR [ecx]
 80528fc:	de c6                	faddp  st(6),st
 80528fe:	dd 41 b0             	fld    QWORD PTR [ecx-0x50]
 8052901:	dc 49 e8             	fmul   QWORD PTR [ecx-0x18]
 8052904:	de c3                	faddp  st(3),st
 8052906:	dd 05 78 3a 05 08    	fld    QWORD PTR ds:0x8053a78
 805290c:	d8 c2                	fadd   st,st(2)
 805290e:	dd 42 50             	fld    QWORD PTR [edx+0x50]
 8052911:	dc 49 20             	fmul   QWORD PTR [ecx+0x20]
 8052914:	de c6                	faddp  st(6),st
 8052916:	dd 41 98             	fld    QWORD PTR [ecx-0x68]
 8052919:	dc 49 10             	fmul   QWORD PTR [ecx+0x10]
 805291c:	de c2                	faddp  st(2),st
 805291e:	dd 41 a8             	fld    QWORD PTR [ecx-0x58]
 8052921:	dc 49 f8             	fmul   QWORD PTR [ecx-0x8]
 8052924:	de c7                	faddp  st(7),st
 8052926:	dd 42 f0             	fld    QWORD PTR [edx-0x10]
 8052929:	dc 49 e0             	fmul   QWORD PTR [ecx-0x20]
 805292c:	de c4                	faddp  st(4),st
 805292e:	dc 25 78 3a 05 08    	fsub   QWORD PTR ds:0x8053a78
 8052934:	d9 cc                	fxch   st(4)
 8052936:	dd 5a 50             	fstp   QWORD PTR [edx+0x50]
 8052939:	d9 cc                	fxch   st(4)
 805293b:	dc 0d 00 3a 05 08    	fmul   QWORD PTR ds:0x8053a00
 8052941:	dd 41 a0             	fld    QWORD PTR [ecx-0x60]
 8052944:	dc 49 08             	fmul   QWORD PTR [ecx+0x8]
 8052947:	de c5                	faddp  st(5),st
 8052949:	dd 41 b0             	fld    QWORD PTR [ecx-0x50]
 805294c:	dc 49 f0             	fmul   QWORD PTR [ecx-0x10]
 805294f:	de c6                	faddp  st(6),st
 8052951:	d9 cb                	fxch   st(3)
 8052953:	dc c2                	fadd   st(2),st
 8052955:	de e9                	fsubp  st(1),st
 8052957:	dd 41 98             	fld    QWORD PTR [ecx-0x68]
 805295a:	dc 49 18             	fmul   QWORD PTR [ecx+0x18]
 805295d:	de c3                	faddp  st(3),st
 805295f:	dd 41 a8             	fld    QWORD PTR [ecx-0x58]
 8052962:	dc 09                	fmul   QWORD PTR [ecx]
 8052964:	de c4                	faddp  st(4),st
 8052966:	dd 42 f0             	fld    QWORD PTR [edx-0x10]
 8052969:	dc 49 e8             	fmul   QWORD PTR [ecx-0x18]
 805296c:	de c5                	faddp  st(5),st
 805296e:	dd 05 80 3a 05 08    	fld    QWORD PTR ds:0x8053a80
 8052974:	d8 c2                	fadd   st,st(2)
 8052976:	dd 41 a0             	fld    QWORD PTR [ecx-0x60]
 8052979:	dc 49 10             	fmul   QWORD PTR [ecx+0x10]
 805297c:	de c4                	faddp  st(4),st
 805297e:	dd 41 b0             	fld    QWORD PTR [ecx-0x50]
 8052981:	dc 49 f8             	fmul   QWORD PTR [ecx-0x8]
 8052984:	de c5                	faddp  st(5),st
 8052986:	dd 42 f8             	fld    QWORD PTR [edx-0x8]
 8052989:	dc 49 e0             	fmul   QWORD PTR [ecx-0x20]
 805298c:	de c6                	faddp  st(6),st
 805298e:	dc 25 80 3a 05 08    	fsub   QWORD PTR ds:0x8053a80
 8052994:	d9 c9                	fxch   st(1)
 8052996:	dd 5a 58             	fstp   QWORD PTR [edx+0x58]
 8052999:	dd 41 a8             	fld    QWORD PTR [ecx-0x58]
 805299c:	dc 49 08             	fmul   QWORD PTR [ecx+0x8]
 805299f:	de c3                	faddp  st(3),st
 80529a1:	dd 42 f0             	fld    QWORD PTR [edx-0x10]
 80529a4:	dc 49 f0             	fmul   QWORD PTR [ecx-0x10]
 80529a7:	de c4                	faddp  st(4),st
 80529a9:	dc c4                	fadd   st(4),st
 80529ab:	de e9                	fsubp  st(1),st
 80529ad:	dd 59 98             	fstp   QWORD PTR [ecx-0x68]
 80529b0:	dd 41 b0             	fld    QWORD PTR [ecx-0x50]
 80529b3:	dc 09                	fmul   QWORD PTR [ecx]
 80529b5:	de c1                	faddp  st(1),st
 80529b7:	dd 42 f8             	fld    QWORD PTR [edx-0x8]
 80529ba:	dc 49 e8             	fmul   QWORD PTR [ecx-0x18]
 80529bd:	de c2                	faddp  st(2),st
 80529bf:	dd 05 88 3a 05 08    	fld    QWORD PTR ds:0x8053a88
 80529c5:	d8 c3                	fadd   st,st(3)
 80529c7:	dd 42 f0             	fld    QWORD PTR [edx-0x10]
 80529ca:	dc 49 f8             	fmul   QWORD PTR [ecx-0x8]
 80529cd:	de c2                	faddp  st(2),st
 80529cf:	dd 02                	fld    QWORD PTR [edx]
 80529d1:	dc 49 e0             	fmul   QWORD PTR [ecx-0x20]
 80529d4:	de c3                	faddp  st(3),st
 80529d6:	dc 25 88 3a 05 08    	fsub   QWORD PTR ds:0x8053a88
 80529dc:	dd 42 f8             	fld    QWORD PTR [edx-0x8]
 80529df:	dc 49 f0             	fmul   QWORD PTR [ecx-0x10]
 80529e2:	de c2                	faddp  st(2),st
 80529e4:	dc c2                	fadd   st(2),st
 80529e6:	de eb                	fsubp  st(3),st
 80529e8:	d9 ca                	fxch   st(2)
 80529ea:	dd 59 a0             	fstp   QWORD PTR [ecx-0x60]
 80529ed:	dd 02                	fld    QWORD PTR [edx]
 80529ef:	dc 49 e8             	fmul   QWORD PTR [ecx-0x18]
 80529f2:	de c2                	faddp  st(2),st
 80529f4:	dd 05 90 3a 05 08    	fld    QWORD PTR ds:0x8053a90
 80529fa:	d8 c1                	fadd   st,st(1)
 80529fc:	dd 42 08             	fld    QWORD PTR [edx+0x8]
 80529ff:	dc 49 e0             	fmul   QWORD PTR [ecx-0x20]
 8052a02:	de c3                	faddp  st(3),st
 8052a04:	dc 25 90 3a 05 08    	fsub   QWORD PTR ds:0x8053a90
 8052a0a:	dd 04 24             	fld    QWORD PTR [esp]
 8052a0d:	dd 44 24 08          	fld    QWORD PTR [esp+0x8]
 8052a11:	d9 ca                	fxch   st(2)
 8052a13:	dc c4                	fadd   st(4),st
 8052a15:	de eb                	fsubp  st(3),st
 8052a17:	dd 05 98 3a 05 08    	fld    QWORD PTR ds:0x8053a98
 8052a1d:	d8 c4                	fadd   st,st(4)
 8052a1f:	dc 25 98 3a 05 08    	fsub   QWORD PTR ds:0x8053a98
 8052a25:	dc c1                	fadd   st(1),st
 8052a27:	de ec                	fsubp  st(4),st
 8052a29:	dd 05 a0 3a 05 08    	fld    QWORD PTR ds:0x8053aa0
 8052a2f:	d8 c1                	fadd   st,st(1)
 8052a31:	dc 25 a0 3a 05 08    	fsub   QWORD PTR ds:0x8053aa0
 8052a37:	dc e9                	fsub   st(1),st
 8052a39:	de c2                	faddp  st(2),st
 8052a3b:	d9 ca                	fxch   st(2)
 8052a3d:	dd 59 a8             	fstp   QWORD PTR [ecx-0x58]
 8052a40:	d9 ca                	fxch   st(2)
 8052a42:	dd 59 b0             	fstp   QWORD PTR [ecx-0x50]
 8052a45:	dd 59 b8             	fstp   QWORD PTR [ecx-0x48]
 8052a48:	dd 59 c0             	fstp   QWORD PTR [ecx-0x40]
 8052a4b:	dd 81 88 00 00 00    	fld    QWORD PTR [ecx+0x88]
 8052a51:	dd 42 88             	fld    QWORD PTR [edx-0x78]
 8052a54:	dd 44 24 10          	fld    QWORD PTR [esp+0x10]
 8052a58:	d8 e9                	fsubr  st,st(1)
 8052a5a:	d8 ca                	fmul   st,st(2)
 8052a5c:	dc e9                	fsub   st(1),st
 8052a5e:	dc 44 24 10          	fadd   QWORD PTR [esp+0x10]
 8052a62:	d9 c9                	fxch   st(1)
 8052a64:	dd 5a f0             	fstp   QWORD PTR [edx-0x10]
 8052a67:	dd 1c 24             	fstp   QWORD PTR [esp]
 8052a6a:	dd 42 90             	fld    QWORD PTR [edx-0x70]
 8052a6d:	dd 44 24 18          	fld    QWORD PTR [esp+0x18]
 8052a71:	d8 e9                	fsubr  st,st(1)
 8052a73:	d8 ca                	fmul   st,st(2)
 8052a75:	dc e9                	fsub   st(1),st
 8052a77:	dc 44 24 18          	fadd   QWORD PTR [esp+0x18]
 8052a7b:	d9 c9                	fxch   st(1)
 8052a7d:	dd 5a f8             	fstp   QWORD PTR [edx-0x8]
 8052a80:	dd 5c 24 08          	fstp   QWORD PTR [esp+0x8]
 8052a84:	dd 42 98             	fld    QWORD PTR [edx-0x68]
 8052a87:	dd 44 24 20          	fld    QWORD PTR [esp+0x20]
 8052a8b:	d8 e9                	fsubr  st,st(1)
 8052a8d:	d8 ca                	fmul   st,st(2)
 8052a8f:	dc e9                	fsub   st(1),st
 8052a91:	dc 44 24 20          	fadd   QWORD PTR [esp+0x20]
 8052a95:	d9 c9                	fxch   st(1)
 8052a97:	dd 1a                	fstp   QWORD PTR [edx]
 8052a99:	dd 5c 24 10          	fstp   QWORD PTR [esp+0x10]
 8052a9d:	dd 42 28             	fld    QWORD PTR [edx+0x28]
 8052aa0:	dd 44 24 28          	fld    QWORD PTR [esp+0x28]
 8052aa4:	d8 e9                	fsubr  st,st(1)
 8052aa6:	d8 ca                	fmul   st,st(2)
 8052aa8:	dc e9                	fsub   st(1),st
 8052aaa:	dc 44 24 28          	fadd   QWORD PTR [esp+0x28]
 8052aae:	d9 c9                	fxch   st(1)
 8052ab0:	dd 5a 08             	fstp   QWORD PTR [edx+0x8]
 8052ab3:	dd 5c 24 18          	fstp   QWORD PTR [esp+0x18]
 8052ab7:	dd 42 a0             	fld    QWORD PTR [edx-0x60]
 8052aba:	dd 44 24 30          	fld    QWORD PTR [esp+0x30]
 8052abe:	d8 e9                	fsubr  st,st(1)
 8052ac0:	d8 ca                	fmul   st,st(2)
 8052ac2:	dc e9                	fsub   st(1),st
 8052ac4:	dc 44 24 30          	fadd   QWORD PTR [esp+0x30]
 8052ac8:	d9 c9                	fxch   st(1)
 8052aca:	dd 5a 10             	fstp   QWORD PTR [edx+0x10]
 8052acd:	dd 5c 24 20          	fstp   QWORD PTR [esp+0x20]
 8052ad1:	dd 42 a8             	fld    QWORD PTR [edx-0x58]
 8052ad4:	dd 42 18             	fld    QWORD PTR [edx+0x18]
 8052ad7:	d8 e9                	fsubr  st,st(1)
 8052ad9:	d8 ca                	fmul   st,st(2)
 8052adb:	dc e9                	fsub   st(1),st
 8052add:	dc 42 18             	fadd   QWORD PTR [edx+0x18]
 8052ae0:	d9 c9                	fxch   st(1)
 8052ae2:	dd 5a 18             	fstp   QWORD PTR [edx+0x18]
 8052ae5:	dd 5c 24 28          	fstp   QWORD PTR [esp+0x28]
 8052ae9:	dd 42 b0             	fld    QWORD PTR [edx-0x50]
 8052aec:	dd 42 20             	fld    QWORD PTR [edx+0x20]
 8052aef:	d8 e9                	fsubr  st,st(1)
 8052af1:	d8 ca                	fmul   st,st(2)
 8052af3:	dc e9                	fsub   st(1),st
 8052af5:	dc 42 20             	fadd   QWORD PTR [edx+0x20]
 8052af8:	d9 c9                	fxch   st(1)
 8052afa:	dd 5a 20             	fstp   QWORD PTR [edx+0x20]
 8052afd:	dd 5c 24 30          	fstp   QWORD PTR [esp+0x30]
 8052b01:	dd 42 b8             	fld    QWORD PTR [edx-0x48]
 8052b04:	dd 42 30             	fld    QWORD PTR [edx+0x30]
 8052b07:	d8 e9                	fsubr  st,st(1)
 8052b09:	d8 ca                	fmul   st,st(2)
 8052b0b:	dc e9                	fsub   st(1),st
 8052b0d:	dc 42 30             	fadd   QWORD PTR [edx+0x30]
 8052b10:	d9 c9                	fxch   st(1)
 8052b12:	dd 5a 28             	fstp   QWORD PTR [edx+0x28]
 8052b15:	dd 5a 88             	fstp   QWORD PTR [edx-0x78]
 8052b18:	dd 42 c0             	fld    QWORD PTR [edx-0x40]
 8052b1b:	dd 42 38             	fld    QWORD PTR [edx+0x38]
 8052b1e:	d8 e9                	fsubr  st,st(1)
 8052b20:	d8 ca                	fmul   st,st(2)
 8052b22:	dc e9                	fsub   st(1),st
 8052b24:	dc 42 38             	fadd   QWORD PTR [edx+0x38]
 8052b27:	d9 c9                	fxch   st(1)
 8052b29:	dd 5a 30             	fstp   QWORD PTR [edx+0x30]
 8052b2c:	dd 5a 90             	fstp   QWORD PTR [edx-0x70]
 8052b2f:	dd 42 c8             	fld    QWORD PTR [edx-0x38]
 8052b32:	dd 41 90             	fld    QWORD PTR [ecx-0x70]
 8052b35:	d8 e9                	fsubr  st,st(1)
 8052b37:	d8 ca                	fmul   st,st(2)
 8052b39:	dc e9                	fsub   st(1),st
 8052b3b:	dc 41 90             	fadd   QWORD PTR [ecx-0x70]
 8052b3e:	d9 c9                	fxch   st(1)
 8052b40:	dd 5a 38             	fstp   QWORD PTR [edx+0x38]
 8052b43:	dd 5a 98             	fstp   QWORD PTR [edx-0x68]
 8052b46:	dd 42 d0             	fld    QWORD PTR [edx-0x30]
 8052b49:	dd 42 40             	fld    QWORD PTR [edx+0x40]
 8052b4c:	d8 e9                	fsubr  st,st(1)
 8052b4e:	d8 ca                	fmul   st,st(2)
 8052b50:	dc e9                	fsub   st(1),st
 8052b52:	dc 42 40             	fadd   QWORD PTR [edx+0x40]
 8052b55:	d9 c9                	fxch   st(1)
 8052b57:	dd 5a 40             	fstp   QWORD PTR [edx+0x40]
 8052b5a:	dd 5a a0             	fstp   QWORD PTR [edx-0x60]
 8052b5d:	dd 42 d8             	fld    QWORD PTR [edx-0x28]
 8052b60:	dd 42 48             	fld    QWORD PTR [edx+0x48]
 8052b63:	d8 e9                	fsubr  st,st(1)
 8052b65:	d8 ca                	fmul   st,st(2)
 8052b67:	dc e9                	fsub   st(1),st
 8052b69:	dc 42 48             	fadd   QWORD PTR [edx+0x48]
 8052b6c:	d9 c9                	fxch   st(1)
 8052b6e:	dd 5a 48             	fstp   QWORD PTR [edx+0x48]
 8052b71:	dd 5a a8             	fstp   QWORD PTR [edx-0x58]
 8052b74:	dd 42 e0             	fld    QWORD PTR [edx-0x20]
 8052b77:	dd 42 50             	fld    QWORD PTR [edx+0x50]
 8052b7a:	d8 e9                	fsubr  st,st(1)
 8052b7c:	d8 ca                	fmul   st,st(2)
 8052b7e:	dc e9                	fsub   st(1),st
 8052b80:	dc 42 50             	fadd   QWORD PTR [edx+0x50]
 8052b83:	d9 c9                	fxch   st(1)
 8052b85:	dd 5a 50             	fstp   QWORD PTR [edx+0x50]
 8052b88:	dd 5a b0             	fstp   QWORD PTR [edx-0x50]
 8052b8b:	dd 42 e8             	fld    QWORD PTR [edx-0x18]
 8052b8e:	dd 42 58             	fld    QWORD PTR [edx+0x58]
 8052b91:	d8 e9                	fsubr  st,st(1)
 8052b93:	d8 ca                	fmul   st,st(2)
 8052b95:	dc e9                	fsub   st(1),st
 8052b97:	dc 42 58             	fadd   QWORD PTR [edx+0x58]
 8052b9a:	d9 c9                	fxch   st(1)
 8052b9c:	dd 5a 58             	fstp   QWORD PTR [edx+0x58]
 8052b9f:	dd 5a b8             	fstp   QWORD PTR [edx-0x48]
 8052ba2:	dd 42 60             	fld    QWORD PTR [edx+0x60]
 8052ba5:	dd 41 98             	fld    QWORD PTR [ecx-0x68]
 8052ba8:	d8 e9                	fsubr  st,st(1)
 8052baa:	d8 ca                	fmul   st,st(2)
 8052bac:	dc e9                	fsub   st(1),st
 8052bae:	dc 41 98             	fadd   QWORD PTR [ecx-0x68]
 8052bb1:	d9 c9                	fxch   st(1)
 8052bb3:	dd 5a 60             	fstp   QWORD PTR [edx+0x60]
 8052bb6:	dd 5a c0             	fstp   QWORD PTR [edx-0x40]
 8052bb9:	dd 42 68             	fld    QWORD PTR [edx+0x68]
 8052bbc:	dd 41 a0             	fld    QWORD PTR [ecx-0x60]
 8052bbf:	d8 e9                	fsubr  st,st(1)
 8052bc1:	d8 ca                	fmul   st,st(2)
 8052bc3:	dc e9                	fsub   st(1),st
 8052bc5:	dc 41 a0             	fadd   QWORD PTR [ecx-0x60]
 8052bc8:	d9 c9                	fxch   st(1)
 8052bca:	dd 5a 68             	fstp   QWORD PTR [edx+0x68]
 8052bcd:	dd 5a c8             	fstp   QWORD PTR [edx-0x38]
 8052bd0:	dd 42 70             	fld    QWORD PTR [edx+0x70]
 8052bd3:	dd 41 a8             	fld    QWORD PTR [ecx-0x58]
 8052bd6:	d8 e9                	fsubr  st,st(1)
 8052bd8:	d8 ca                	fmul   st,st(2)
 8052bda:	dc e9                	fsub   st(1),st
 8052bdc:	dc 41 a8             	fadd   QWORD PTR [ecx-0x58]
 8052bdf:	d9 c9                	fxch   st(1)
 8052be1:	dd 5a 70             	fstp   QWORD PTR [edx+0x70]
 8052be4:	dd 5a d0             	fstp   QWORD PTR [edx-0x30]
 8052be7:	dd 42 78             	fld    QWORD PTR [edx+0x78]
 8052bea:	dd 41 b0             	fld    QWORD PTR [ecx-0x50]
 8052bed:	d8 e9                	fsubr  st,st(1)
 8052bef:	d8 ca                	fmul   st,st(2)
 8052bf1:	dc e9                	fsub   st(1),st
 8052bf3:	dc 41 b0             	fadd   QWORD PTR [ecx-0x50]
 8052bf6:	d9 c9                	fxch   st(1)
 8052bf8:	dd 5a 78             	fstp   QWORD PTR [edx+0x78]
 8052bfb:	dd 5a d8             	fstp   QWORD PTR [edx-0x28]
 8052bfe:	dd 41 80             	fld    QWORD PTR [ecx-0x80]
 8052c01:	dd 41 b8             	fld    QWORD PTR [ecx-0x48]
 8052c04:	d8 e9                	fsubr  st,st(1)
 8052c06:	d8 ca                	fmul   st,st(2)
 8052c08:	dc e9                	fsub   st(1),st
 8052c0a:	dc 41 b8             	fadd   QWORD PTR [ecx-0x48]
 8052c0d:	d9 c9                	fxch   st(1)
 8052c0f:	dd 59 80             	fstp   QWORD PTR [ecx-0x80]
 8052c12:	dd 5a e0             	fstp   QWORD PTR [edx-0x20]
 8052c15:	dd 41 88             	fld    QWORD PTR [ecx-0x78]
 8052c18:	dd 41 c0             	fld    QWORD PTR [ecx-0x40]
 8052c1b:	d8 e9                	fsubr  st,st(1)
 8052c1d:	de ca                	fmulp  st(2),st
 8052c1f:	d8 e1                	fsub   st,st(1)
 8052c21:	d9 c9                	fxch   st(1)
 8052c23:	dc 41 c0             	fadd   QWORD PTR [ecx-0x40]
 8052c26:	d9 c9                	fxch   st(1)
 8052c28:	dd 59 88             	fstp   QWORD PTR [ecx-0x78]
 8052c2b:	dd 5a e8             	fstp   QWORD PTR [edx-0x18]
 8052c2e:	8b b1 b4 00 00 00    	mov    esi,DWORD PTR [ecx+0xb4]
 8052c34:	8b a9 b8 00 00 00    	mov    ebp,DWORD PTR [ecx+0xb8]
 8052c3a:	83 ed 01             	sub    ebp,0x1
 8052c3d:	0f 87 75 d4 ff ff    	ja     80500b8
 8052c43:	8b b9 bc 00 00 00    	mov    edi,DWORD PTR [ecx+0xbc]
 8052c49:	83 ef 04             	sub    edi,0x4
 8052c4c:	72 0d                	jb     8052c5b
 8052c4e:	8b 34 3b             	mov    esi,DWORD PTR [ebx+edi]
 8052c51:	bd 20 00 00 00       	mov    ebp,0x20
 8052c56:	e9 57 d4 ff ff       	jmp    80500b2

08052c5b <._done>:
 8052c5b:	8b 44 04 04          	mov    eax,DWORD PTR [esp+eax+0x4]
 8052c5f:	dd 04 24             	fld    QWORD PTR [esp]
 8052c62:	dd 18                	fstp   QWORD PTR [eax]
 8052c64:	dd 44 24 08          	fld    QWORD PTR [esp+0x8]
 8052c68:	dd 58 08             	fstp   QWORD PTR [eax+0x8]
 8052c6b:	dd 44 24 10          	fld    QWORD PTR [esp+0x10]
 8052c6f:	dd 58 10             	fstp   QWORD PTR [eax+0x10]
 8052c72:	dd 44 24 18          	fld    QWORD PTR [esp+0x18]
 8052c76:	dd 58 18             	fstp   QWORD PTR [eax+0x18]
 8052c79:	dd 44 24 20          	fld    QWORD PTR [esp+0x20]
 8052c7d:	dd 58 20             	fstp   QWORD PTR [eax+0x20]
 8052c80:	dd 44 24 28          	fld    QWORD PTR [esp+0x28]
 8052c84:	dd 58 28             	fstp   QWORD PTR [eax+0x28]
 8052c87:	dd 44 24 30          	fld    QWORD PTR [esp+0x30]
 8052c8b:	dd 58 30             	fstp   QWORD PTR [eax+0x30]
 8052c8e:	dd 42 88             	fld    QWORD PTR [edx-0x78]
 8052c91:	dd 58 38             	fstp   QWORD PTR [eax+0x38]
 8052c94:	dd 42 90             	fld    QWORD PTR [edx-0x70]
 8052c97:	dd 58 40             	fstp   QWORD PTR [eax+0x40]
 8052c9a:	dd 42 98             	fld    QWORD PTR [edx-0x68]
 8052c9d:	dd 58 48             	fstp   QWORD PTR [eax+0x48]
 8052ca0:	dd 42 a0             	fld    QWORD PTR [edx-0x60]
 8052ca3:	dd 58 50             	fstp   QWORD PTR [eax+0x50]
 8052ca6:	dd 42 a8             	fld    QWORD PTR [edx-0x58]
 8052ca9:	dd 58 58             	fstp   QWORD PTR [eax+0x58]
 8052cac:	dd 42 b0             	fld    QWORD PTR [edx-0x50]
 8052caf:	dd 58 60             	fstp   QWORD PTR [eax+0x60]
 8052cb2:	dd 42 b8             	fld    QWORD PTR [edx-0x48]
 8052cb5:	dd 58 68             	fstp   QWORD PTR [eax+0x68]
 8052cb8:	dd 42 c0             	fld    QWORD PTR [edx-0x40]
 8052cbb:	dd 58 70             	fstp   QWORD PTR [eax+0x70]
 8052cbe:	dd 42 c8             	fld    QWORD PTR [edx-0x38]
 8052cc1:	dd 58 78             	fstp   QWORD PTR [eax+0x78]
 8052cc4:	dd 42 d0             	fld    QWORD PTR [edx-0x30]
 8052cc7:	dd 98 80 00 00 00    	fstp   QWORD PTR [eax+0x80]
 8052ccd:	dd 42 d8             	fld    QWORD PTR [edx-0x28]
 8052cd0:	dd 98 88 00 00 00    	fstp   QWORD PTR [eax+0x88]
 8052cd6:	dd 42 e0             	fld    QWORD PTR [edx-0x20]
 8052cd9:	dd 98 90 00 00 00    	fstp   QWORD PTR [eax+0x90]
 8052cdf:	dd 42 e8             	fld    QWORD PTR [edx-0x18]
 8052ce2:	dd 98 98 00 00 00    	fstp   QWORD PTR [eax+0x98]
 8052ce8:	8b 81 a0 00 00 00    	mov    eax,DWORD PTR [ecx+0xa0]
 8052cee:	8b 99 a4 00 00 00    	mov    ebx,DWORD PTR [ecx+0xa4]
 8052cf4:	8b b1 a8 00 00 00    	mov    esi,DWORD PTR [ecx+0xa8]
 8052cfa:	8b b9 ac 00 00 00    	mov    edi,DWORD PTR [ecx+0xac]
 8052d00:	8b a9 b0 00 00 00    	mov    ebp,DWORD PTR [ecx+0xb0]
 8052d06:	01 c4                	add    esp,eax
 8052d08:	c3                   	ret
 8052d09:	66 90                	xchg   ax,ax
 8052d0b:	66 90                	xchg   ax,ax
 8052d0d:	66 90                	xchg   ax,ax
 8052d0f:	66 90                	xchg   ax,ax
 8052d11:	66 90                	xchg   ax,ax
 8052d13:	66 90                	xchg   ax,ax
 8052d15:	66 90                	xchg   ax,ax
 8052d17:	66 90                	xchg   ax,ax
 8052d19:	66 90                	xchg   ax,ax
 8052d1b:	66 90                	xchg   ax,ax
 8052d1d:	66 90                	xchg   ax,ax
 8052d1f:	90                   	nop

08052d20 <_curve25519_athlon_mult>:
 8052d20:	89 e0                	mov    eax,esp
 8052d22:	83 e0 1f             	and    eax,0x1f
 8052d25:	83 c0 20             	add    eax,0x20
 8052d28:	29 c4                	sub    esp,eax
 8052d2a:	89 2c 24             	mov    DWORD PTR [esp],ebp
 8052d2d:	8b 4c 04 04          	mov    ecx,DWORD PTR [esp+eax+0x4]
 8052d31:	8b 54 04 08          	mov    edx,DWORD PTR [esp+eax+0x8]
 8052d35:	8b 6c 04 0c          	mov    ebp,DWORD PTR [esp+eax+0xc]
 8052d39:	dd 42 48             	fld    QWORD PTR [edx+0x48]
 8052d3c:	dc 4d 48             	fmul   QWORD PTR [ebp+0x48]
 8052d3f:	dc 0d 00 3a 05 08    	fmul   QWORD PTR ds:0x8053a00
 8052d45:	dd 02                	fld    QWORD PTR [edx]
 8052d47:	dc 4d 40             	fmul   QWORD PTR [ebp+0x40]
 8052d4a:	de c1                	faddp  st(1),st
 8052d4c:	dd 42 08             	fld    QWORD PTR [edx+0x8]
 8052d4f:	dc 4d 38             	fmul   QWORD PTR [ebp+0x38]
 8052d52:	de c1                	faddp  st(1),st
 8052d54:	dd 02                	fld    QWORD PTR [edx]
 8052d56:	dc 4d 48             	fmul   QWORD PTR [ebp+0x48]
 8052d59:	dd 42 10             	fld    QWORD PTR [edx+0x10]
 8052d5c:	dc 4d 30             	fmul   QWORD PTR [ebp+0x30]
 8052d5f:	de c2                	faddp  st(2),st
 8052d61:	dd 42 08             	fld    QWORD PTR [edx+0x8]
 8052d64:	dc 4d 40             	fmul   QWORD PTR [ebp+0x40]
 8052d67:	de c1                	faddp  st(1),st
 8052d69:	dd 42 18             	fld    QWORD PTR [edx+0x18]
 8052d6c:	dc 4d 28             	fmul   QWORD PTR [ebp+0x28]
 8052d6f:	de c2                	faddp  st(2),st
 8052d71:	dd 42 10             	fld    QWORD PTR [edx+0x10]
 8052d74:	dc 4d 38             	fmul   QWORD PTR [ebp+0x38]
 8052d77:	de c1                	faddp  st(1),st
 8052d79:	dd 42 20             	fld    QWORD PTR [edx+0x20]
 8052d7c:	dc 4d 20             	fmul   QWORD PTR [ebp+0x20]
 8052d7f:	de c2                	faddp  st(2),st
 8052d81:	dd 42 18             	fld    QWORD PTR [edx+0x18]
 8052d84:	dc 4d 30             	fmul   QWORD PTR [ebp+0x30]
 8052d87:	de c1                	faddp  st(1),st
 8052d89:	dd 42 08             	fld    QWORD PTR [edx+0x8]
 8052d8c:	dc 4d 48             	fmul   QWORD PTR [ebp+0x48]
 8052d8f:	dd 42 28             	fld    QWORD PTR [edx+0x28]
 8052d92:	dc 4d 18             	fmul   QWORD PTR [ebp+0x18]
 8052d95:	de c3                	faddp  st(3),st
 8052d97:	dd 42 20             	fld    QWORD PTR [edx+0x20]
 8052d9a:	dc 4d 28             	fmul   QWORD PTR [ebp+0x28]
 8052d9d:	de c2                	faddp  st(2),st
 8052d9f:	dd 42 10             	fld    QWORD PTR [edx+0x10]
 8052da2:	dc 4d 40             	fmul   QWORD PTR [ebp+0x40]
 8052da5:	de c1                	faddp  st(1),st
 8052da7:	dd 42 30             	fld    QWORD PTR [edx+0x30]
 8052daa:	dc 4d 10             	fmul   QWORD PTR [ebp+0x10]
 8052dad:	de c3                	faddp  st(3),st
 8052daf:	dd 42 28             	fld    QWORD PTR [edx+0x28]
 8052db2:	dc 4d 20             	fmul   QWORD PTR [ebp+0x20]
 8052db5:	de c2                	faddp  st(2),st
 8052db7:	dd 42 18             	fld    QWORD PTR [edx+0x18]
 8052dba:	dc 4d 38             	fmul   QWORD PTR [ebp+0x38]
 8052dbd:	de c1                	faddp  st(1),st
 8052dbf:	dd 42 38             	fld    QWORD PTR [edx+0x38]
 8052dc2:	dc 4d 08             	fmul   QWORD PTR [ebp+0x8]
 8052dc5:	de c3                	faddp  st(3),st
 8052dc7:	dd 42 30             	fld    QWORD PTR [edx+0x30]
 8052dca:	dc 4d 18             	fmul   QWORD PTR [ebp+0x18]
 8052dcd:	de c2                	faddp  st(2),st
 8052dcf:	dd 42 20             	fld    QWORD PTR [edx+0x20]
 8052dd2:	dc 4d 30             	fmul   QWORD PTR [ebp+0x30]
 8052dd5:	de c1                	faddp  st(1),st
 8052dd7:	dd 42 40             	fld    QWORD PTR [edx+0x40]
 8052dda:	dc 4d 00             	fmul   QWORD PTR [ebp]
 8052ddd:	de c3                	faddp  st(3),st
 8052ddf:	dd 42 38             	fld    QWORD PTR [edx+0x38]
 8052de2:	dc 4d 10             	fmul   QWORD PTR [ebp+0x10]
 8052de5:	de c2                	faddp  st(2),st
 8052de7:	dd 42 28             	fld    QWORD PTR [edx+0x28]
 8052dea:	dc 4d 28             	fmul   QWORD PTR [ebp+0x28]
 8052ded:	de c1                	faddp  st(1),st
 8052def:	dd 42 10             	fld    QWORD PTR [edx+0x10]
 8052df2:	dc 4d 48             	fmul   QWORD PTR [ebp+0x48]
 8052df5:	dd 42 30             	fld    QWORD PTR [edx+0x30]
 8052df8:	dc 4d 20             	fmul   QWORD PTR [ebp+0x20]
 8052dfb:	de c2                	faddp  st(2),st
 8052dfd:	dd 42 40             	fld    QWORD PTR [edx+0x40]
 8052e00:	dc 4d 08             	fmul   QWORD PTR [ebp+0x8]
 8052e03:	de c3                	faddp  st(3),st
 8052e05:	dd 05 a0 3a 05 08    	fld    QWORD PTR ds:0x8053aa0
 8052e0b:	d8 c4                	fadd   st,st(4)
 8052e0d:	dd 42 18             	fld    QWORD PTR [edx+0x18]
 8052e10:	dc 4d 40             	fmul   QWORD PTR [ebp+0x40]
 8052e13:	de c2                	faddp  st(2),st
 8052e15:	dd 42 38             	fld    QWORD PTR [edx+0x38]
 8052e18:	dc 4d 18             	fmul   QWORD PTR [ebp+0x18]
 8052e1b:	de c3                	faddp  st(3),st
 8052e1d:	dd 42 48             	fld    QWORD PTR [edx+0x48]
 8052e20:	dc 4d 00             	fmul   QWORD PTR [ebp]
 8052e23:	de c4                	faddp  st(4),st
 8052e25:	dc 25 a0 3a 05 08    	fsub   QWORD PTR ds:0x8053aa0
 8052e2b:	dd 42 20             	fld    QWORD PTR [edx+0x20]
 8052e2e:	dc 4d 38             	fmul   QWORD PTR [ebp+0x38]
 8052e31:	de c2                	faddp  st(2),st
 8052e33:	dd 42 18             	fld    QWORD PTR [edx+0x18]
 8052e36:	dc 4d 48             	fmul   QWORD PTR [ebp+0x48]
 8052e39:	dd 42 40             	fld    QWORD PTR [edx+0x40]
 8052e3c:	dc 4d 10             	fmul   QWORD PTR [ebp+0x10]
 8052e3f:	de c4                	faddp  st(4),st
 8052e41:	d9 c9                	fxch   st(1)
 8052e43:	dc c4                	fadd   st(4),st
 8052e45:	dd 42 28             	fld    QWORD PTR [edx+0x28]
 8052e48:	dc 4d 30             	fmul   QWORD PTR [ebp+0x30]
 8052e4b:	de c3                	faddp  st(3),st
 8052e4d:	dd 42 20             	fld    QWORD PTR [edx+0x20]
 8052e50:	dc 4d 40             	fmul   QWORD PTR [ebp+0x40]
 8052e53:	de c2                	faddp  st(2),st
 8052e55:	de ed                	fsubp  st(5),st
 8052e57:	dd 05 a8 3a 05 08    	fld    QWORD PTR ds:0x8053aa8
 8052e5d:	d8 c4                	fadd   st,st(4)
 8052e5f:	dd 42 30             	fld    QWORD PTR [edx+0x30]
 8052e62:	dc 4d 28             	fmul   QWORD PTR [ebp+0x28]
 8052e65:	de c3                	faddp  st(3),st
 8052e67:	dd 42 28             	fld    QWORD PTR [edx+0x28]
 8052e6a:	dc 4d 38             	fmul   QWORD PTR [ebp+0x38]
 8052e6d:	de c2                	faddp  st(2),st
 8052e6f:	dd 42 48             	fld    QWORD PTR [edx+0x48]
 8052e72:	dc 4d 08             	fmul   QWORD PTR [ebp+0x8]
 8052e75:	de c4                	faddp  st(4),st
 8052e77:	dc 25 a8 3a 05 08    	fsub   QWORD PTR ds:0x8053aa8
 8052e7d:	dd 42 38             	fld    QWORD PTR [edx+0x38]
 8052e80:	dc 4d 20             	fmul   QWORD PTR [ebp+0x20]
 8052e83:	de c3                	faddp  st(3),st
 8052e85:	dd 42 20             	fld    QWORD PTR [edx+0x20]
 8052e88:	dc 4d 48             	fmul   QWORD PTR [ebp+0x48]
 8052e8b:	dd 42 30             	fld    QWORD PTR [edx+0x30]
 8052e8e:	dc 4d 30             	fmul   QWORD PTR [ebp+0x30]
 8052e91:	de c3                	faddp  st(3),st
 8052e93:	dd 42 40             	fld    QWORD PTR [edx+0x40]
 8052e96:	dc 4d 18             	fmul   QWORD PTR [ebp+0x18]
 8052e99:	de c4                	faddp  st(4),st
 8052e9b:	d9 c9                	fxch   st(1)
 8052e9d:	dc c4                	fadd   st(4),st
 8052e9f:	de ed                	fsubp  st(5),st
 8052ea1:	d9 cd                	fxch   st(5)
 8052ea3:	dd 59 40             	fstp   QWORD PTR [ecx+0x40]
 8052ea6:	dd 42 28             	fld    QWORD PTR [edx+0x28]
 8052ea9:	dc 4d 40             	fmul   QWORD PTR [ebp+0x40]
 8052eac:	de c5                	faddp  st(5),st
 8052eae:	dd 42 38             	fld    QWORD PTR [edx+0x38]
 8052eb1:	dc 4d 28             	fmul   QWORD PTR [ebp+0x28]
 8052eb4:	de c1                	faddp  st(1),st
 8052eb6:	dd 42 48             	fld    QWORD PTR [edx+0x48]
 8052eb9:	dc 4d 10             	fmul   QWORD PTR [ebp+0x10]
 8052ebc:	de c2                	faddp  st(2),st
 8052ebe:	d9 ca                	fxch   st(2)
 8052ec0:	dc 0d 00 3a 05 08    	fmul   QWORD PTR ds:0x8053a00
 8052ec6:	dd 42 30             	fld    QWORD PTR [edx+0x30]
 8052ec9:	dc 4d 38             	fmul   QWORD PTR [ebp+0x38]
 8052ecc:	de c5                	faddp  st(5),st
 8052ece:	dd 42 40             	fld    QWORD PTR [edx+0x40]
 8052ed1:	dc 4d 20             	fmul   QWORD PTR [ebp+0x20]
 8052ed4:	de c3                	faddp  st(3),st
 8052ed6:	d9 c9                	fxch   st(1)
 8052ed8:	dc 0d 00 3a 05 08    	fmul   QWORD PTR ds:0x8053a00
 8052ede:	dd 02                	fld    QWORD PTR [edx]
 8052ee0:	dc 4d 00             	fmul   QWORD PTR [ebp]
 8052ee3:	de c2                	faddp  st(2),st
 8052ee5:	d9 cb                	fxch   st(3)
 8052ee7:	dd 59 48             	fstp   QWORD PTR [ecx+0x48]
 8052eea:	dd 42 28             	fld    QWORD PTR [edx+0x28]
 8052eed:	dc 4d 48             	fmul   QWORD PTR [ebp+0x48]
 8052ef0:	dd 42 38             	fld    QWORD PTR [edx+0x38]
 8052ef3:	dc 4d 30             	fmul   QWORD PTR [ebp+0x30]
 8052ef6:	de c5                	faddp  st(5),st
 8052ef8:	dd 42 48             	fld    QWORD PTR [edx+0x48]
 8052efb:	dc 4d 18             	fmul   QWORD PTR [ebp+0x18]
 8052efe:	de c3                	faddp  st(3),st
 8052f00:	dd 02                	fld    QWORD PTR [edx]
 8052f02:	dc 4d 08             	fmul   QWORD PTR [ebp+0x8]
 8052f05:	de c4                	faddp  st(4),st
 8052f07:	dd 05 60 3a 05 08    	fld    QWORD PTR ds:0x8053a60
 8052f0d:	d8 c2                	fadd   st,st(2)
 8052f0f:	dd 42 30             	fld    QWORD PTR [edx+0x30]
 8052f12:	dc 4d 40             	fmul   QWORD PTR [ebp+0x40]
 8052f15:	de c2                	faddp  st(2),st
 8052f17:	dd 42 40             	fld    QWORD PTR [edx+0x40]
 8052f1a:	dc 4d 28             	fmul   QWORD PTR [ebp+0x28]
 8052f1d:	de c6                	faddp  st(6),st
 8052f1f:	d9 cb                	fxch   st(3)
 8052f21:	dc 0d 00 3a 05 08    	fmul   QWORD PTR ds:0x8053a00
 8052f27:	dd 42 08             	fld    QWORD PTR [edx+0x8]
 8052f2a:	dc 4d 00             	fmul   QWORD PTR [ebp]
 8052f2d:	de c5                	faddp  st(5),st
 8052f2f:	d9 cb                	fxch   st(3)
 8052f31:	dc 25 60 3a 05 08    	fsub   QWORD PTR ds:0x8053a60
 8052f37:	dd 42 38             	fld    QWORD PTR [edx+0x38]
 8052f3a:	dc 4d 38             	fmul   QWORD PTR [ebp+0x38]
 8052f3d:	de c2                	faddp  st(2),st
 8052f3f:	dd 42 48             	fld    QWORD PTR [edx+0x48]
 8052f42:	dc 4d 20             	fmul   QWORD PTR [ebp+0x20]
 8052f45:	de c6                	faddp  st(6),st
 8052f47:	dd 02                	fld    QWORD PTR [edx]
 8052f49:	dc 4d 10             	fmul   QWORD PTR [ebp+0x10]
 8052f4c:	de c4                	faddp  st(4),st
 8052f4e:	dc c4                	fadd   st(4),st
 8052f50:	de ea                	fsubp  st(2),st
 8052f52:	dd 42 30             	fld    QWORD PTR [edx+0x30]
 8052f55:	dc 4d 48             	fmul   QWORD PTR [ebp+0x48]
 8052f58:	dd 42 40             	fld    QWORD PTR [edx+0x40]
 8052f5b:	dc 4d 30             	fmul   QWORD PTR [ebp+0x30]
 8052f5e:	de c2                	faddp  st(2),st
 8052f60:	d9 cd                	fxch   st(5)
 8052f62:	dc 0d 00 3a 05 08    	fmul   QWORD PTR ds:0x8053a00
 8052f68:	dd 42 08             	fld    QWORD PTR [edx+0x8]
 8052f6b:	dc 4d 08             	fmul   QWORD PTR [ebp+0x8]
 8052f6e:	de c4                	faddp  st(4),st
 8052f70:	dd 05 68 3a 05 08    	fld    QWORD PTR ds:0x8053a68
 8052f76:	d8 c5                	fadd   st,st(5)
 8052f78:	dd 42 38             	fld    QWORD PTR [edx+0x38]
 8052f7b:	dc 4d 40             	fmul   QWORD PTR [ebp+0x40]
 8052f7e:	de c7                	faddp  st(7),st
 8052f80:	dd 42 48             	fld    QWORD PTR [edx+0x48]
 8052f83:	dc 4d 28             	fmul   QWORD PTR [ebp+0x28]
 8052f86:	de c3                	faddp  st(3),st
 8052f88:	dd 02                	fld    QWORD PTR [edx]
 8052f8a:	dc 4d 18             	fmul   QWORD PTR [ebp+0x18]
 8052f8d:	de c2                	faddp  st(2),st
 8052f8f:	dd 42 10             	fld    QWORD PTR [edx+0x10]
 8052f92:	dc 4d 00             	fmul   QWORD PTR [ebp]
 8052f95:	de c5                	faddp  st(5),st
 8052f97:	dc 25 68 3a 05 08    	fsub   QWORD PTR ds:0x8053a68
 8052f9d:	d9 cb                	fxch   st(3)
 8052f9f:	dd 19                	fstp   QWORD PTR [ecx]
 8052fa1:	dd 42 40             	fld    QWORD PTR [edx+0x40]
 8052fa4:	dc 4d 38             	fmul   QWORD PTR [ebp+0x38]
 8052fa7:	de c6                	faddp  st(6),st
 8052fa9:	d9 c9                	fxch   st(1)
 8052fab:	dc 0d 00 3a 05 08    	fmul   QWORD PTR ds:0x8053a00
 8052fb1:	dd 42 08             	fld    QWORD PTR [edx+0x8]
 8052fb4:	dc 4d 10             	fmul   QWORD PTR [ebp+0x10]
 8052fb7:	de c2                	faddp  st(2),st
 8052fb9:	d9 ca                	fxch   st(2)
 8052fbb:	dc c3                	fadd   st(3),st
 8052fbd:	de ec                	fsubp  st(4),st
 8052fbf:	dd 42 38             	fld    QWORD PTR [edx+0x38]
 8052fc2:	dc 4d 48             	fmul   QWORD PTR [ebp+0x48]
 8052fc5:	dd 42 48             	fld    QWORD PTR [edx+0x48]
 8052fc8:	dc 4d 30             	fmul   QWORD PTR [ebp+0x30]
 8052fcb:	de c6                	faddp  st(6),st
 8052fcd:	dd 02                	fld    QWORD PTR [edx]
 8052fcf:	dc 4d 20             	fmul   QWORD PTR [ebp+0x20]
 8052fd2:	de c3                	faddp  st(3),st
 8052fd4:	dd 42 10             	fld    QWORD PTR [edx+0x10]
 8052fd7:	dc 4d 08             	fmul   QWORD PTR [ebp+0x8]
 8052fda:	de c2                	faddp  st(2),st
 8052fdc:	dd 05 70 3a 05 08    	fld    QWORD PTR ds:0x8053a70
 8052fe2:	d8 c4                	fadd   st,st(4)
 8052fe4:	dd 42 40             	fld    QWORD PTR [edx+0x40]
 8052fe7:	dc 4d 40             	fmul   QWORD PTR [ebp+0x40]
 8052fea:	de c2                	faddp  st(2),st
 8052fec:	d9 ce                	fxch   st(6)
 8052fee:	dc 0d 00 3a 05 08    	fmul   QWORD PTR ds:0x8053a00
 8052ff4:	dd 42 08             	fld    QWORD PTR [edx+0x8]
 8052ff7:	dc 4d 18             	fmul   QWORD PTR [ebp+0x18]
 8052ffa:	de c4                	faddp  st(4),st
 8052ffc:	dd 42 18             	fld    QWORD PTR [edx+0x18]
 8052fff:	dc 4d 00             	fmul   QWORD PTR [ebp]
 8053002:	de c3                	faddp  st(3),st
 8053004:	d9 ce                	fxch   st(6)
 8053006:	dc 25 70 3a 05 08    	fsub   QWORD PTR ds:0x8053a70
 805300c:	d9 cd                	fxch   st(5)
 805300e:	dd 59 08             	fstp   QWORD PTR [ecx+0x8]
 8053011:	dd 42 48             	fld    QWORD PTR [edx+0x48]
 8053014:	dc 4d 38             	fmul   QWORD PTR [ebp+0x38]
 8053017:	de c1                	faddp  st(1),st
 8053019:	dd 02                	fld    QWORD PTR [edx]
 805301b:	dc 4d 28             	fmul   QWORD PTR [ebp+0x28]
 805301e:	de c6                	faddp  st(6),st
 8053020:	dd 42 10             	fld    QWORD PTR [edx+0x10]
 8053023:	dc 4d 10             	fmul   QWORD PTR [ebp+0x10]
 8053026:	de c3                	faddp  st(3),st
 8053028:	d9 cc                	fxch   st(4)
 805302a:	dc c1                	fadd   st(1),st
 805302c:	de eb                	fsubp  st(3),st
 805302e:	dd 42 40             	fld    QWORD PTR [edx+0x40]
 8053031:	dc 4d 48             	fmul   QWORD PTR [ebp+0x48]
 8053034:	d9 cc                	fxch   st(4)
 8053036:	dc 0d 00 3a 05 08    	fmul   QWORD PTR ds:0x8053a00
 805303c:	dd 42 08             	fld    QWORD PTR [edx+0x8]
 805303f:	dc 4d 20             	fmul   QWORD PTR [ebp+0x20]
 8053042:	de c6                	faddp  st(6),st
 8053044:	dd 42 18             	fld    QWORD PTR [edx+0x18]
 8053047:	dc 4d 08             	fmul   QWORD PTR [ebp+0x8]
 805304a:	de c3                	faddp  st(3),st
 805304c:	dd 05 78 3a 05 08    	fld    QWORD PTR ds:0x8053a78
 8053052:	d8 c2                	fadd   st,st(2)
 8053054:	dd 42 48             	fld    QWORD PTR [edx+0x48]
 8053057:	dc 4d 40             	fmul   QWORD PTR [ebp+0x40]
 805305a:	de c6                	faddp  st(6),st
 805305c:	dd 02                	fld    QWORD PTR [edx]
 805305e:	dc 4d 30             	fmul   QWORD PTR [ebp+0x30]
 8053061:	de c2                	faddp  st(2),st
 8053063:	dd 42 10             	fld    QWORD PTR [edx+0x10]
 8053066:	dc 4d 18             	fmul   QWORD PTR [ebp+0x18]
 8053069:	de c7                	faddp  st(7),st
 805306b:	dd 42 20             	fld    QWORD PTR [edx+0x20]
 805306e:	dc 4d 00             	fmul   QWORD PTR [ebp]
 8053071:	de c4                	faddp  st(4),st
 8053073:	dc 25 78 3a 05 08    	fsub   QWORD PTR ds:0x8053a78
 8053079:	d9 cc                	fxch   st(4)
 805307b:	dd 59 10             	fstp   QWORD PTR [ecx+0x10]
 805307e:	d9 cc                	fxch   st(4)
 8053080:	dc 0d 00 3a 05 08    	fmul   QWORD PTR ds:0x8053a00
 8053086:	dd 42 08             	fld    QWORD PTR [edx+0x8]
 8053089:	dc 4d 28             	fmul   QWORD PTR [ebp+0x28]
 805308c:	de c5                	faddp  st(5),st
 805308e:	dd 42 18             	fld    QWORD PTR [edx+0x18]
 8053091:	dc 4d 10             	fmul   QWORD PTR [ebp+0x10]
 8053094:	de c6                	faddp  st(6),st
 8053096:	d9 cb                	fxch   st(3)
 8053098:	dc c2                	fadd   st(2),st
 805309a:	de e9                	fsubp  st(1),st
 805309c:	dd 02                	fld    QWORD PTR [edx]
 805309e:	dc 4d 38             	fmul   QWORD PTR [ebp+0x38]
 80530a1:	de c3                	faddp  st(3),st
 80530a3:	dd 42 10             	fld    QWORD PTR [edx+0x10]
 80530a6:	dc 4d 20             	fmul   QWORD PTR [ebp+0x20]
 80530a9:	de c4                	faddp  st(4),st
 80530ab:	dd 42 20             	fld    QWORD PTR [edx+0x20]
 80530ae:	dc 4d 08             	fmul   QWORD PTR [ebp+0x8]
 80530b1:	de c5                	faddp  st(5),st
 80530b3:	dd 05 80 3a 05 08    	fld    QWORD PTR ds:0x8053a80
 80530b9:	d8 c2                	fadd   st,st(2)
 80530bb:	dd 42 08             	fld    QWORD PTR [edx+0x8]
 80530be:	dc 4d 30             	fmul   QWORD PTR [ebp+0x30]
 80530c1:	de c4                	faddp  st(4),st
 80530c3:	dd 42 18             	fld    QWORD PTR [edx+0x18]
 80530c6:	dc 4d 18             	fmul   QWORD PTR [ebp+0x18]
 80530c9:	de c5                	faddp  st(5),st
 80530cb:	dd 42 28             	fld    QWORD PTR [edx+0x28]
 80530ce:	dc 4d 00             	fmul   QWORD PTR [ebp]
 80530d1:	de c6                	faddp  st(6),st
 80530d3:	dc 25 80 3a 05 08    	fsub   QWORD PTR ds:0x8053a80
 80530d9:	d9 c9                	fxch   st(1)
 80530db:	dd 59 18             	fstp   QWORD PTR [ecx+0x18]
 80530de:	dd 42 10             	fld    QWORD PTR [edx+0x10]
 80530e1:	dc 4d 28             	fmul   QWORD PTR [ebp+0x28]
 80530e4:	de c3                	faddp  st(3),st
 80530e6:	dd 42 20             	fld    QWORD PTR [edx+0x20]
 80530e9:	dc 4d 10             	fmul   QWORD PTR [ebp+0x10]
 80530ec:	de c4                	faddp  st(4),st
 80530ee:	dc c4                	fadd   st(4),st
 80530f0:	de e9                	fsubp  st(1),st
 80530f2:	dd 59 20             	fstp   QWORD PTR [ecx+0x20]
 80530f5:	dd 42 18             	fld    QWORD PTR [edx+0x18]
 80530f8:	dc 4d 20             	fmul   QWORD PTR [ebp+0x20]
 80530fb:	de c1                	faddp  st(1),st
 80530fd:	dd 42 28             	fld    QWORD PTR [edx+0x28]
 8053100:	dc 4d 08             	fmul   QWORD PTR [ebp+0x8]
 8053103:	de c2                	faddp  st(2),st
 8053105:	dd 05 88 3a 05 08    	fld    QWORD PTR ds:0x8053a88
 805310b:	d8 c3                	fadd   st,st(3)
 805310d:	dd 42 20             	fld    QWORD PTR [edx+0x20]
 8053110:	dc 4d 18             	fmul   QWORD PTR [ebp+0x18]
 8053113:	de c2                	faddp  st(2),st
 8053115:	dd 42 30             	fld    QWORD PTR [edx+0x30]
 8053118:	dc 4d 00             	fmul   QWORD PTR [ebp]
 805311b:	de c3                	faddp  st(3),st
 805311d:	dc 25 88 3a 05 08    	fsub   QWORD PTR ds:0x8053a88
 8053123:	dd 42 28             	fld    QWORD PTR [edx+0x28]
 8053126:	dc 4d 10             	fmul   QWORD PTR [ebp+0x10]
 8053129:	de c2                	faddp  st(2),st
 805312b:	dc c2                	fadd   st(2),st
 805312d:	de eb                	fsubp  st(3),st
 805312f:	d9 ca                	fxch   st(2)
 8053131:	dd 59 28             	fstp   QWORD PTR [ecx+0x28]
 8053134:	dd 42 30             	fld    QWORD PTR [edx+0x30]
 8053137:	dc 4d 08             	fmul   QWORD PTR [ebp+0x8]
 805313a:	de c2                	faddp  st(2),st
 805313c:	dd 05 90 3a 05 08    	fld    QWORD PTR ds:0x8053a90
 8053142:	d8 c1                	fadd   st,st(1)
 8053144:	dd 42 38             	fld    QWORD PTR [edx+0x38]
 8053147:	dc 4d 00             	fmul   QWORD PTR [ebp]
 805314a:	de c3                	faddp  st(3),st
 805314c:	dc 25 90 3a 05 08    	fsub   QWORD PTR ds:0x8053a90
 8053152:	dd 41 40             	fld    QWORD PTR [ecx+0x40]
 8053155:	dd 41 48             	fld    QWORD PTR [ecx+0x48]
 8053158:	d9 ca                	fxch   st(2)
 805315a:	dc c4                	fadd   st(4),st
 805315c:	de eb                	fsubp  st(3),st
 805315e:	dd 05 98 3a 05 08    	fld    QWORD PTR ds:0x8053a98
 8053164:	d8 c4                	fadd   st,st(4)
 8053166:	dc 25 98 3a 05 08    	fsub   QWORD PTR ds:0x8053a98
 805316c:	dc c1                	fadd   st(1),st
 805316e:	de ec                	fsubp  st(4),st
 8053170:	dd 05 a0 3a 05 08    	fld    QWORD PTR ds:0x8053aa0
 8053176:	d8 c1                	fadd   st,st(1)
 8053178:	dc 25 a0 3a 05 08    	fsub   QWORD PTR ds:0x8053aa0
 805317e:	dc e9                	fsub   st(1),st
 8053180:	de c2                	faddp  st(2),st
 8053182:	d9 ca                	fxch   st(2)
 8053184:	dd 59 30             	fstp   QWORD PTR [ecx+0x30]
 8053187:	d9 ca                	fxch   st(2)
 8053189:	dd 59 38             	fstp   QWORD PTR [ecx+0x38]
 805318c:	dd 59 40             	fstp   QWORD PTR [ecx+0x40]
 805318f:	dd 59 48             	fstp   QWORD PTR [ecx+0x48]
 8053192:	8b 2c 24             	mov    ebp,DWORD PTR [esp]
 8053195:	01 c4                	add    esp,eax
 8053197:	c3                   	ret
 8053198:	66 90                	xchg   ax,ax
 805319a:	66 90                	xchg   ax,ax
 805319c:	66 90                	xchg   ax,ax
 805319e:	66 90                	xchg   ax,ax

080531a0 <_curve25519_athlon_square>:
 80531a0:	89 e0                	mov    eax,esp
 80531a2:	83 e0 1f             	and    eax,0x1f
 80531a5:	83 c0 40             	add    eax,0x40
 80531a8:	29 c4                	sub    esp,eax
 80531aa:	8b 54 04 08          	mov    edx,DWORD PTR [esp+eax+0x8]
 80531ae:	8b 4c 04 04          	mov    ecx,DWORD PTR [esp+eax+0x4]
 80531b2:	dd 42 48             	fld    QWORD PTR [edx+0x48]
 80531b5:	d8 c8                	fmul   st,st(0)
 80531b7:	dd 02                	fld    QWORD PTR [edx]
 80531b9:	d8 c0                	fadd   st,st(0)
 80531bb:	dd 42 08             	fld    QWORD PTR [edx+0x8]
 80531be:	d8 c0                	fadd   st,st(0)
 80531c0:	dd 42 10             	fld    QWORD PTR [edx+0x10]
 80531c3:	d8 c0                	fadd   st,st(0)
 80531c5:	dd 42 38             	fld    QWORD PTR [edx+0x38]
 80531c8:	d9 cc                	fxch   st(4)
 80531ca:	dc 0d 00 3a 05 08    	fmul   QWORD PTR ds:0x8053a00
 80531d0:	dd 42 48             	fld    QWORD PTR [edx+0x48]
 80531d3:	d8 cc                	fmul   st,st(4)
 80531d5:	dd 42 40             	fld    QWORD PTR [edx+0x40]
 80531d8:	d8 cc                	fmul   st,st(4)
 80531da:	de c1                	faddp  st(1),st
 80531dc:	d9 cc                	fxch   st(4)
 80531de:	dd 14 24             	fst    QWORD PTR [esp]
 80531e1:	d9 cb                	fxch   st(3)
 80531e3:	dd 54 24 08          	fst    QWORD PTR [esp+0x8]
 80531e7:	d9 cb                	fxch   st(3)
 80531e9:	dc 4a 40             	fmul   QWORD PTR [edx+0x40]
 80531ec:	de c1                	faddp  st(1),st
 80531ee:	dd 42 30             	fld    QWORD PTR [edx+0x30]
 80531f1:	d9 cd                	fxch   st(5)
 80531f3:	dc cb                	fmul   st(3),st
 80531f5:	d9 cb                	fxch   st(3)
 80531f7:	de c1                	faddp  st(1),st
 80531f9:	d9 ca                	fxch   st(2)
 80531fb:	d8 c0                	fadd   st,st(0)
 80531fd:	dd 42 38             	fld    QWORD PTR [edx+0x38]
 8053200:	d8 ca                	fmul   st,st(2)
 8053202:	de c4                	faddp  st(4),st
 8053204:	d9 c9                	fxch   st(1)
 8053206:	dd 54 24 10          	fst    QWORD PTR [esp+0x10]
 805320a:	dd 42 28             	fld    QWORD PTR [edx+0x28]
 805320d:	d9 cd                	fxch   st(5)
 805320f:	dc c9                	fmul   st(1),st
 8053211:	d9 c9                	fxch   st(1)
 8053213:	de c3                	faddp  st(3),st
 8053215:	d8 c0                	fadd   st,st(0)
 8053217:	dd 5c 24 30          	fstp   QWORD PTR [esp+0x30]
 805321b:	dd 42 18             	fld    QWORD PTR [edx+0x18]
 805321e:	d8 c0                	fadd   st,st(0)
 8053220:	dd 54 24 18          	fst    QWORD PTR [esp+0x18]
 8053224:	dd 42 30             	fld    QWORD PTR [edx+0x30]
 8053227:	d8 c9                	fmul   st,st(1)
 8053229:	de c4                	faddp  st(4),st
 805322b:	d8 cc                	fmul   st,st(4)
 805322d:	de c2                	faddp  st(2),st
 805322f:	d9 cb                	fxch   st(3)
 8053231:	d8 c0                	fadd   st,st(0)
 8053233:	dd 5c 24 28          	fstp   QWORD PTR [esp+0x28]
 8053237:	dd 42 20             	fld    QWORD PTR [edx+0x20]
 805323a:	d8 c8                	fmul   st,st(0)
 805323c:	de c1                	faddp  st(1),st
 805323e:	dd 05 a0 3a 05 08    	fld    QWORD PTR ds:0x8053aa0
 8053244:	d8 c1                	fadd   st,st(1)
 8053246:	dc 25 a0 3a 05 08    	fsub   QWORD PTR ds:0x8053aa0
 805324c:	dc e9                	fsub   st(1),st
 805324e:	dd 44 24 08          	fld    QWORD PTR [esp+0x8]
 8053252:	dd 42 48             	fld    QWORD PTR [edx+0x48]
 8053255:	dc c9                	fmul   st(1),st
 8053257:	dd 44 24 10          	fld    QWORD PTR [esp+0x10]
 805325b:	dc c9                	fmul   st(1),st
 805325d:	dd 42 40             	fld    QWORD PTR [edx+0x40]
 8053260:	dc c9                	fmul   st(1),st
 8053262:	d9 c9                	fxch   st(1)
 8053264:	de c3                	faddp  st(3),st
 8053266:	dd 44 24 18          	fld    QWORD PTR [esp+0x18]
 805326a:	dc c9                	fmul   st(1),st
 805326c:	d9 c9                	fxch   st(1)
 805326e:	de c2                	faddp  st(2),st
 8053270:	dd 42 20             	fld    QWORD PTR [edx+0x20]
 8053273:	d8 c0                	fadd   st,st(0)
 8053275:	dd 54 24 20          	fst    QWORD PTR [esp+0x20]
 8053279:	dc 4a 28             	fmul   QWORD PTR [edx+0x28]
 805327c:	de c6                	faddp  st(6),st
 805327e:	d9 cb                	fxch   st(3)
 8053280:	de c5                	faddp  st(5),st
 8053282:	dd 05 a8 3a 05 08    	fld    QWORD PTR ds:0x8053aa8
 8053288:	d8 c5                	fadd   st,st(5)
 805328a:	dc 25 a8 3a 05 08    	fsub   QWORD PTR ds:0x8053aa8
 8053290:	dc ed                	fsub   st(5),st
 8053292:	dd 42 38             	fld    QWORD PTR [edx+0x38]
 8053295:	dc cc                	fmul   st(4),st
 8053297:	d9 cc                	fxch   st(4)
 8053299:	de c3                	faddp  st(3),st
 805329b:	dd 44 24 20          	fld    QWORD PTR [esp+0x20]
 805329f:	dc cc                	fmul   st(4),st
 80532a1:	d9 cc                	fxch   st(4)
 80532a3:	de c2                	faddp  st(2),st
 80532a5:	dd 42 30             	fld    QWORD PTR [edx+0x30]
 80532a8:	dc cc                	fmul   st(4),st
 80532aa:	d9 cc                	fxch   st(4)
 80532ac:	de c3                	faddp  st(3),st
 80532ae:	d9 cb                	fxch   st(3)
 80532b0:	dc 4c 24 28          	fmul   QWORD PTR [esp+0x28]
 80532b4:	de c1                	faddp  st(1),st
 80532b6:	d9 cb                	fxch   st(3)
 80532b8:	dd 59 40             	fstp   QWORD PTR [ecx+0x40]
 80532bb:	dd 42 28             	fld    QWORD PTR [edx+0x28]
 80532be:	d8 c8                	fmul   st,st(0)
 80532c0:	de c1                	faddp  st(1),st
 80532c2:	d9 ca                	fxch   st(2)
 80532c4:	dc 0d 00 3a 05 08    	fmul   QWORD PTR ds:0x8053a00
 80532ca:	d9 cb                	fxch   st(3)
 80532cc:	dd 59 48             	fstp   QWORD PTR [ecx+0x48]
 80532cf:	de c1                	faddp  st(1),st
 80532d1:	dc 0d 00 3a 05 08    	fmul   QWORD PTR ds:0x8053a00
 80532d7:	dd 44 24 18          	fld    QWORD PTR [esp+0x18]
 80532db:	dc 4a 48             	fmul   QWORD PTR [edx+0x48]
 80532de:	dd 02                	fld    QWORD PTR [edx]
 80532e0:	d8 c8                	fmul   st,st(0)
 80532e2:	de c2                	faddp  st(2),st
 80532e4:	dd 44 24 20          	fld    QWORD PTR [esp+0x20]
 80532e8:	dc 4a 40             	fmul   QWORD PTR [edx+0x40]
 80532eb:	de c1                	faddp  st(1),st
 80532ed:	dd 04 24             	fld    QWORD PTR [esp]
 80532f0:	dc 4a 08             	fmul   QWORD PTR [edx+0x8]
 80532f3:	de c3                	faddp  st(3),st
 80532f5:	dd 44 24 28          	fld    QWORD PTR [esp+0x28]
 80532f9:	dc 4a 38             	fmul   QWORD PTR [edx+0x38]
 80532fc:	de c1                	faddp  st(1),st
 80532fe:	dd 05 60 3a 05 08    	fld    QWORD PTR ds:0x8053a60
 8053304:	d8 c2                	fadd   st,st(2)
 8053306:	dc 25 60 3a 05 08    	fsub   QWORD PTR ds:0x8053a60
 805330c:	dc ea                	fsub   st(2),st
 805330e:	de c3                	faddp  st(3),st
 8053310:	dd 05 68 3a 05 08    	fld    QWORD PTR ds:0x8053a68
 8053316:	d8 c3                	fadd   st,st(3)
 8053318:	dc 25 68 3a 05 08    	fsub   QWORD PTR ds:0x8053a68
 805331e:	dc eb                	fsub   st(3),st
 8053320:	dd 42 30             	fld    QWORD PTR [edx+0x30]
 8053323:	d8 c8                	fmul   st,st(0)
 8053325:	de c2                	faddp  st(2),st
 8053327:	d9 c9                	fxch   st(1)
 8053329:	dc 0d 00 3a 05 08    	fmul   QWORD PTR ds:0x8053a00
 805332f:	dd 04 24             	fld    QWORD PTR [esp]
 8053332:	dc 4a 10             	fmul   QWORD PTR [edx+0x10]
 8053335:	de c1                	faddp  st(1),st
 8053337:	dd 42 08             	fld    QWORD PTR [edx+0x8]
 805333a:	d8 c8                	fmul   st,st(0)
 805333c:	de c1                	faddp  st(1),st
 805333e:	de c1                	faddp  st(1),st
 8053340:	dd 05 70 3a 05 08    	fld    QWORD PTR ds:0x8053a70
 8053346:	d8 c1                	fadd   st,st(1)
 8053348:	dc 25 70 3a 05 08    	fsub   QWORD PTR ds:0x8053a70
 805334e:	dc e9                	fsub   st(1),st
 8053350:	d9 ca                	fxch   st(2)
 8053352:	dd 19                	fstp   QWORD PTR [ecx]
 8053354:	dd 44 24 20          	fld    QWORD PTR [esp+0x20]
 8053358:	dc 4a 48             	fmul   QWORD PTR [edx+0x48]
 805335b:	dd 44 24 28          	fld    QWORD PTR [esp+0x28]
 805335f:	dc 4a 40             	fmul   QWORD PTR [edx+0x40]
 8053362:	de c1                	faddp  st(1),st
 8053364:	dd 44 24 30          	fld    QWORD PTR [esp+0x30]
 8053368:	dc 4a 38             	fmul   QWORD PTR [edx+0x38]
 805336b:	de c1                	faddp  st(1),st
 805336d:	dc 0d 00 3a 05 08    	fmul   QWORD PTR ds:0x8053a00
 8053373:	dd 04 24             	fld    QWORD PTR [esp]
 8053376:	dc 4a 18             	fmul   QWORD PTR [edx+0x18]
 8053379:	de c1                	faddp  st(1),st
 805337b:	dd 44 24 08          	fld    QWORD PTR [esp+0x8]
 805337f:	dc 4a 10             	fmul   QWORD PTR [edx+0x10]
 8053382:	de c1                	faddp  st(1),st
 8053384:	de c2                	faddp  st(2),st
 8053386:	dd 05 78 3a 05 08    	fld    QWORD PTR ds:0x8053a78
 805338c:	d8 c2                	fadd   st,st(2)
 805338e:	dc 25 78 3a 05 08    	fsub   QWORD PTR ds:0x8053a78
 8053394:	dc ea                	fsub   st(2),st
 8053396:	d9 cb                	fxch   st(3)
 8053398:	dd 59 08             	fstp   QWORD PTR [ecx+0x8]
 805339b:	dd 44 24 28          	fld    QWORD PTR [esp+0x28]
 805339f:	dc 4a 48             	fmul   QWORD PTR [edx+0x48]
 80533a2:	dd 44 24 30          	fld    QWORD PTR [esp+0x30]
 80533a6:	dc 4a 40             	fmul   QWORD PTR [edx+0x40]
 80533a9:	de c1                	faddp  st(1),st
 80533ab:	dd 42 38             	fld    QWORD PTR [edx+0x38]
 80533ae:	d8 c8                	fmul   st,st(0)
 80533b0:	de c1                	faddp  st(1),st
 80533b2:	dc 0d 00 3a 05 08    	fmul   QWORD PTR ds:0x8053a00
 80533b8:	dd 04 24             	fld    QWORD PTR [esp]
 80533bb:	dc 4a 20             	fmul   QWORD PTR [edx+0x20]
 80533be:	de c1                	faddp  st(1),st
 80533c0:	dd 44 24 08          	fld    QWORD PTR [esp+0x8]
 80533c4:	dc 4a 18             	fmul   QWORD PTR [edx+0x18]
 80533c7:	de c1                	faddp  st(1),st
 80533c9:	dd 42 10             	fld    QWORD PTR [edx+0x10]
 80533cc:	d8 c8                	fmul   st,st(0)
 80533ce:	de c1                	faddp  st(1),st
 80533d0:	de c3                	faddp  st(3),st
 80533d2:	dd 05 80 3a 05 08    	fld    QWORD PTR ds:0x8053a80
 80533d8:	d8 c3                	fadd   st,st(3)
 80533da:	dc 25 80 3a 05 08    	fsub   QWORD PTR ds:0x8053a80
 80533e0:	dc eb                	fsub   st(3),st
 80533e2:	d9 c9                	fxch   st(1)
 80533e4:	dd 59 10             	fstp   QWORD PTR [ecx+0x10]
 80533e7:	dd 44 24 30          	fld    QWORD PTR [esp+0x30]
 80533eb:	dd 42 48             	fld    QWORD PTR [edx+0x48]
 80533ee:	dc c9                	fmul   st(1),st
 80533f0:	d8 cd                	fmul   st,st(5)
 80533f2:	d9 cd                	fxch   st(5)
 80533f4:	dc 4a 40             	fmul   QWORD PTR [edx+0x40]
 80533f7:	de c1                	faddp  st(1),st
 80533f9:	dc 0d 00 3a 05 08    	fmul   QWORD PTR ds:0x8053a00
 80533ff:	dd 04 24             	fld    QWORD PTR [esp]
 8053402:	dc 4a 28             	fmul   QWORD PTR [edx+0x28]
 8053405:	de c1                	faddp  st(1),st
 8053407:	dd 44 24 08          	fld    QWORD PTR [esp+0x8]
 805340b:	dc 4a 20             	fmul   QWORD PTR [edx+0x20]
 805340e:	de c1                	faddp  st(1),st
 8053410:	dd 44 24 10          	fld    QWORD PTR [esp+0x10]
 8053414:	dc 4a 18             	fmul   QWORD PTR [edx+0x18]
 8053417:	de c1                	faddp  st(1),st
 8053419:	de c1                	faddp  st(1),st
 805341b:	dd 05 88 3a 05 08    	fld    QWORD PTR ds:0x8053a88
 8053421:	d8 c1                	fadd   st,st(1)
 8053423:	dc 25 88 3a 05 08    	fsub   QWORD PTR ds:0x8053a88
 8053429:	dc e9                	fsub   st(1),st
 805342b:	d9 ca                	fxch   st(2)
 805342d:	dd 59 18             	fstp   QWORD PTR [ecx+0x18]
 8053430:	dd 42 40             	fld    QWORD PTR [edx+0x40]
 8053433:	d8 c8                	fmul   st,st(0)
 8053435:	de c4                	faddp  st(4),st
 8053437:	d9 cb                	fxch   st(3)
 8053439:	dc 0d 00 3a 05 08    	fmul   QWORD PTR ds:0x8053a00
 805343f:	dd 04 24             	fld    QWORD PTR [esp]
 8053442:	dc 4a 30             	fmul   QWORD PTR [edx+0x30]
 8053445:	de c1                	faddp  st(1),st
 8053447:	dd 44 24 08          	fld    QWORD PTR [esp+0x8]
 805344b:	dc 4a 28             	fmul   QWORD PTR [edx+0x28]
 805344e:	de c1                	faddp  st(1),st
 8053450:	dd 44 24 10          	fld    QWORD PTR [esp+0x10]
 8053454:	dc 4a 20             	fmul   QWORD PTR [edx+0x20]
 8053457:	de c1                	faddp  st(1),st
 8053459:	dd 42 18             	fld    QWORD PTR [edx+0x18]
 805345c:	d8 c8                	fmul   st,st(0)
 805345e:	de c1                	faddp  st(1),st
 8053460:	de c1                	faddp  st(1),st
 8053462:	dd 05 90 3a 05 08    	fld    QWORD PTR ds:0x8053a90
 8053468:	d8 c1                	fadd   st,st(1)
 805346a:	dc 25 90 3a 05 08    	fsub   QWORD PTR ds:0x8053a90
 8053470:	dc e9                	fsub   st(1),st
 8053472:	dd 42 40             	fld    QWORD PTR [edx+0x40]
 8053475:	d8 c0                	fadd   st,st(0)
 8053477:	dc 4a 48             	fmul   QWORD PTR [edx+0x48]
 805347a:	dc 0d 00 3a 05 08    	fmul   QWORD PTR ds:0x8053a00
 8053480:	dd 04 24             	fld    QWORD PTR [esp]
 8053483:	dc 4a 38             	fmul   QWORD PTR [edx+0x38]
 8053486:	de c1                	faddp  st(1),st
 8053488:	dd 44 24 08          	fld    QWORD PTR [esp+0x8]
 805348c:	dc 4a 30             	fmul   QWORD PTR [edx+0x30]
 805348f:	de c1                	faddp  st(1),st
 8053491:	dd 44 24 10          	fld    QWORD PTR [esp+0x10]
 8053495:	dc 4a 28             	fmul   QWORD PTR [edx+0x28]
 8053498:	de c1                	faddp  st(1),st
 805349a:	dd 44 24 18          	fld    QWORD PTR [esp+0x18]
 805349e:	dc 4a 20             	fmul   QWORD PTR [edx+0x20]
 80534a1:	de c1                	faddp  st(1),st
 80534a3:	de c1                	faddp  st(1),st
 80534a5:	dd 05 98 3a 05 08    	fld    QWORD PTR ds:0x8053a98
 80534ab:	d8 c1                	fadd   st,st(1)
 80534ad:	dc 25 98 3a 05 08    	fsub   QWORD PTR ds:0x8053a98
 80534b3:	dc e9                	fsub   st(1),st
 80534b5:	dd 41 40             	fld    QWORD PTR [ecx+0x40]
 80534b8:	de c1                	faddp  st(1),st
 80534ba:	dd 05 a0 3a 05 08    	fld    QWORD PTR ds:0x8053aa0
 80534c0:	d8 c1                	fadd   st,st(1)
 80534c2:	dd 41 48             	fld    QWORD PTR [ecx+0x48]
 80534c5:	d9 c9                	fxch   st(1)
 80534c7:	dc 25 a0 3a 05 08    	fsub   QWORD PTR ds:0x8053aa0
 80534cd:	dc ea                	fsub   st(2),st
 80534cf:	de c1                	faddp  st(1),st
 80534d1:	d9 cc                	fxch   st(4)
 80534d3:	dd 59 20             	fstp   QWORD PTR [ecx+0x20]
 80534d6:	d9 cc                	fxch   st(4)
 80534d8:	dd 59 28             	fstp   QWORD PTR [ecx+0x28]
 80534db:	d9 c9                	fxch   st(1)
 80534dd:	dd 59 30             	fstp   QWORD PTR [ecx+0x30]
 80534e0:	dd 59 38             	fstp   QWORD PTR [ecx+0x38]
 80534e3:	d9 c9                	fxch   st(1)
 80534e5:	dd 59 40             	fstp   QWORD PTR [ecx+0x40]
 80534e8:	dd 59 48             	fstp   QWORD PTR [ecx+0x48]
 80534eb:	01 c4                	add    esp,eax
 80534ed:	c3                   	ret
 80534ee:	66 90                	xchg   ax,ax
 80534f0:	66 90                	xchg   ax,ax
 80534f2:	66 90                	xchg   ax,ax
 80534f4:	66 90                	xchg   ax,ax
 80534f6:	66 90                	xchg   ax,ax
 80534f8:	66 90                	xchg   ax,ax
 80534fa:	66 90                	xchg   ax,ax
 80534fc:	66 90                	xchg   ax,ax
 80534fe:	66 90                	xchg   ax,ax

08053500 <_curve25519_athlon_todouble>:
 8053500:	89 e0                	mov    eax,esp
 8053502:	83 e0 1f             	and    eax,0x1f
 8053505:	83 c0 60             	add    eax,0x60
 8053508:	29 c4                	sub    esp,eax
 805350a:	8b 4c 04 08          	mov    ecx,DWORD PTR [esp+eax+0x8]
 805350e:	8b 11                	mov    edx,DWORD PTR [ecx]
 8053510:	c7 44 24 04 00 00 30 	mov    DWORD PTR [esp+0x4],0x43300000
 8053517:	43 
 8053518:	89 14 24             	mov    DWORD PTR [esp],edx
 805351b:	8b 51 04             	mov    edx,DWORD PTR [ecx+0x4]
 805351e:	81 e2 ff ff ff 00    	and    edx,0xffffff
 8053524:	c7 44 24 0c 00 00 30 	mov    DWORD PTR [esp+0xc],0x45300000
 805352b:	45 
 805352c:	89 54 24 08          	mov    DWORD PTR [esp+0x8],edx
 8053530:	8b 51 07             	mov    edx,DWORD PTR [ecx+0x7]
 8053533:	81 e2 ff ff ff 00    	and    edx,0xffffff
 8053539:	c7 44 24 14 00 00 b0 	mov    DWORD PTR [esp+0x14],0x46b00000
 8053540:	46 
 8053541:	89 54 24 10          	mov    DWORD PTR [esp+0x10],edx
 8053545:	8b 51 0a             	mov    edx,DWORD PTR [ecx+0xa]
 8053548:	81 e2 ff ff ff 00    	and    edx,0xffffff
 805354e:	c7 44 24 1c 00 00 30 	mov    DWORD PTR [esp+0x1c],0x48300000
 8053555:	48 
 8053556:	89 54 24 18          	mov    DWORD PTR [esp+0x18],edx
 805355a:	8b 51 0d             	mov    edx,DWORD PTR [ecx+0xd]
 805355d:	81 e2 ff ff ff 00    	and    edx,0xffffff
 8053563:	c7 44 24 24 00 00 b0 	mov    DWORD PTR [esp+0x24],0x49b00000
 805356a:	49 
 805356b:	89 54 24 20          	mov    DWORD PTR [esp+0x20],edx
 805356f:	8b 51 10             	mov    edx,DWORD PTR [ecx+0x10]
 8053572:	c7 44 24 2c 00 00 30 	mov    DWORD PTR [esp+0x2c],0x4b300000
 8053579:	4b 
 805357a:	89 54 24 28          	mov    DWORD PTR [esp+0x28],edx
 805357e:	8b 51 14             	mov    edx,DWORD PTR [ecx+0x14]
 8053581:	81 e2 ff ff ff 00    	and    edx,0xffffff
 8053587:	c7 44 24 34 00 00 30 	mov    DWORD PTR [esp+0x34],0x4d300000
 805358e:	4d 
 805358f:	89 54 24 30          	mov    DWORD PTR [esp+0x30],edx
 8053593:	8b 51 17             	mov    edx,DWORD PTR [ecx+0x17]
 8053596:	81 e2 ff ff ff 00    	and    edx,0xffffff
 805359c:	c7 44 24 3c 00 00 b0 	mov    DWORD PTR [esp+0x3c],0x4eb00000
 80535a3:	4e 
 80535a4:	89 54 24 38          	mov    DWORD PTR [esp+0x38],edx
 80535a8:	8b 51 1a             	mov    edx,DWORD PTR [ecx+0x1a]
 80535ab:	81 e2 ff ff ff 00    	and    edx,0xffffff
 80535b1:	c7 44 24 44 00 00 30 	mov    DWORD PTR [esp+0x44],0x50300000
 80535b8:	50 
 80535b9:	89 54 24 40          	mov    DWORD PTR [esp+0x40],edx
 80535bd:	8b 49 1c             	mov    ecx,DWORD PTR [ecx+0x1c]
 80535c0:	c1 e9 08             	shr    ecx,0x8
 80535c3:	81 e1 ff ff 7f 00    	and    ecx,0x7fffff
 80535c9:	c7 44 24 4c 00 00 b0 	mov    DWORD PTR [esp+0x4c],0x51b00000
 80535d0:	51 
 80535d1:	89 4c 24 48          	mov    DWORD PTR [esp+0x48],ecx
 80535d5:	8b 4c 04 04          	mov    ecx,DWORD PTR [esp+eax+0x4]
 80535d9:	dd 44 24 48          	fld    QWORD PTR [esp+0x48]
 80535dd:	dc 25 58 3a 05 08    	fsub   QWORD PTR ds:0x8053a58
 80535e3:	dd 05 a8 3a 05 08    	fld    QWORD PTR ds:0x8053aa8
 80535e9:	d8 c1                	fadd   st,st(1)
 80535eb:	dc 25 a8 3a 05 08    	fsub   QWORD PTR ds:0x8053aa8
 80535f1:	dc e9                	fsub   st(1),st
 80535f3:	dd 04 24             	fld    QWORD PTR [esp]
 80535f6:	dc 25 10 3a 05 08    	fsub   QWORD PTR ds:0x8053a10
 80535fc:	d9 c9                	fxch   st(1)
 80535fe:	dc 0d 00 3a 05 08    	fmul   QWORD PTR ds:0x8053a00
 8053604:	de c1                	faddp  st(1),st
 8053606:	dd 05 60 3a 05 08    	fld    QWORD PTR ds:0x8053a60
 805360c:	d8 c1                	fadd   st,st(1)
 805360e:	dc 25 60 3a 05 08    	fsub   QWORD PTR ds:0x8053a60
 8053614:	dc e9                	fsub   st(1),st
 8053616:	d9 c9                	fxch   st(1)
 8053618:	dd 19                	fstp   QWORD PTR [ecx]
 805361a:	dd 44 24 08          	fld    QWORD PTR [esp+0x8]
 805361e:	dc 25 18 3a 05 08    	fsub   QWORD PTR ds:0x8053a18
 8053624:	de c1                	faddp  st(1),st
 8053626:	dd 05 68 3a 05 08    	fld    QWORD PTR ds:0x8053a68
 805362c:	d8 c1                	fadd   st,st(1)
 805362e:	dc 25 68 3a 05 08    	fsub   QWORD PTR ds:0x8053a68
 8053634:	dc e9                	fsub   st(1),st
 8053636:	d9 c9                	fxch   st(1)
 8053638:	dd 59 08             	fstp   QWORD PTR [ecx+0x8]
 805363b:	dd 44 24 10          	fld    QWORD PTR [esp+0x10]
 805363f:	dc 25 20 3a 05 08    	fsub   QWORD PTR ds:0x8053a20
 8053645:	de c1                	faddp  st(1),st
 8053647:	dd 05 70 3a 05 08    	fld    QWORD PTR ds:0x8053a70
 805364d:	d8 c1                	fadd   st,st(1)
 805364f:	dc 25 70 3a 05 08    	fsub   QWORD PTR ds:0x8053a70
 8053655:	dc e9                	fsub   st(1),st
 8053657:	d9 c9                	fxch   st(1)
 8053659:	dd 59 10             	fstp   QWORD PTR [ecx+0x10]
 805365c:	dd 44 24 18          	fld    QWORD PTR [esp+0x18]
 8053660:	dc 25 28 3a 05 08    	fsub   QWORD PTR ds:0x8053a28
 8053666:	de c1                	faddp  st(1),st
 8053668:	dd 05 78 3a 05 08    	fld    QWORD PTR ds:0x8053a78
 805366e:	d8 c1                	fadd   st,st(1)
 8053670:	dc 25 78 3a 05 08    	fsub   QWORD PTR ds:0x8053a78
 8053676:	dc e9                	fsub   st(1),st
 8053678:	d9 c9                	fxch   st(1)
 805367a:	dd 59 18             	fstp   QWORD PTR [ecx+0x18]
 805367d:	dd 44 24 20          	fld    QWORD PTR [esp+0x20]
 8053681:	dc 25 30 3a 05 08    	fsub   QWORD PTR ds:0x8053a30
 8053687:	de c1                	faddp  st(1),st
 8053689:	dd 05 80 3a 05 08    	fld    QWORD PTR ds:0x8053a80
 805368f:	d8 c1                	fadd   st,st(1)
 8053691:	dc 25 80 3a 05 08    	fsub   QWORD PTR ds:0x8053a80
 8053697:	dc e9                	fsub   st(1),st
 8053699:	d9 c9                	fxch   st(1)
 805369b:	dd 59 20             	fstp   QWORD PTR [ecx+0x20]
 805369e:	dd 44 24 28          	fld    QWORD PTR [esp+0x28]
 80536a2:	dc 25 38 3a 05 08    	fsub   QWORD PTR ds:0x8053a38
 80536a8:	de c1                	faddp  st(1),st
 80536aa:	dd 05 88 3a 05 08    	fld    QWORD PTR ds:0x8053a88
 80536b0:	d8 c1                	fadd   st,st(1)
 80536b2:	dc 25 88 3a 05 08    	fsub   QWORD PTR ds:0x8053a88
 80536b8:	dc e9                	fsub   st(1),st
 80536ba:	d9 c9                	fxch   st(1)
 80536bc:	dd 59 28             	fstp   QWORD PTR [ecx+0x28]
 80536bf:	dd 44 24 30          	fld    QWORD PTR [esp+0x30]
 80536c3:	dc 25 40 3a 05 08    	fsub   QWORD PTR ds:0x8053a40
 80536c9:	de c1                	faddp  st(1),st
 80536cb:	dd 05 90 3a 05 08    	fld    QWORD PTR ds:0x8053a90
 80536d1:	d8 c1                	fadd   st,st(1)
 80536d3:	dc 25 90 3a 05 08    	fsub   QWORD PTR ds:0x8053a90
 80536d9:	dc e9                	fsub   st(1),st
 80536db:	d9 c9                	fxch   st(1)
 80536dd:	dd 59 30             	fstp   QWORD PTR [ecx+0x30]
 80536e0:	dd 44 24 38          	fld    QWORD PTR [esp+0x38]
 80536e4:	dc 25 48 3a 05 08    	fsub   QWORD PTR ds:0x8053a48
 80536ea:	de c1                	faddp  st(1),st
 80536ec:	dd 05 98 3a 05 08    	fld    QWORD PTR ds:0x8053a98
 80536f2:	d8 c1                	fadd   st,st(1)
 80536f4:	dc 25 98 3a 05 08    	fsub   QWORD PTR ds:0x8053a98
 80536fa:	dc e9                	fsub   st(1),st
 80536fc:	d9 c9                	fxch   st(1)
 80536fe:	dd 59 38             	fstp   QWORD PTR [ecx+0x38]
 8053701:	dd 44 24 40          	fld    QWORD PTR [esp+0x40]
 8053705:	dc 25 50 3a 05 08    	fsub   QWORD PTR ds:0x8053a50
 805370b:	de c1                	faddp  st(1),st
 805370d:	dd 05 a0 3a 05 08    	fld    QWORD PTR ds:0x8053aa0
 8053713:	d8 c1                	fadd   st,st(1)
 8053715:	dc 25 a0 3a 05 08    	fsub   QWORD PTR ds:0x8053aa0
 805371b:	dc e9                	fsub   st(1),st
 805371d:	d9 c9                	fxch   st(1)
 805371f:	dd 59 40             	fstp   QWORD PTR [ecx+0x40]
 8053722:	de c1                	faddp  st(1),st
 8053724:	dd 59 48             	fstp   QWORD PTR [ecx+0x48]
 8053727:	01 c4                	add    esp,eax
 8053729:	c3                   	ret
 805372a:	66 90                	xchg   ax,ax
 805372c:	66 90                	xchg   ax,ax
 805372e:	66 90                	xchg   ax,ax

08053730 <_cpucycles_athlon>:
 8053730:	0f 31                	rdtsc
 8053732:	c3                   	ret
 8053733:	66 90                	xchg   ax,ax
 8053735:	66 90                	xchg   ax,ax
 8053737:	66 90                	xchg   ax,ax
 8053739:	66 90                	xchg   ax,ax
 805373b:	66 90                	xchg   ax,ax
 805373d:	66 90                	xchg   ax,ax
 805373f:	90                   	nop

08053740 <__libc_csu_init>:
 8053740:	55                   	push   ebp
 8053741:	57                   	push   edi
 8053742:	31 ff                	xor    edi,edi
 8053744:	56                   	push   esi
 8053745:	53                   	push   ebx
 8053746:	e8 45 51 ff ff       	call   8048890
 805374b:	81 c3 b5 28 00 00    	add    ebx,0x28b5
 8053751:	83 ec 1c             	sub    esp,0x1c
 8053754:	8b 6c 24 30          	mov    ebp,DWORD PTR [esp+0x30]
 8053758:	8d b3 0c ff ff ff    	lea    esi,[ebx-0xf4]
 805375e:	e8 35 4d ff ff       	call   8048498
 8053763:	8d 83 08 ff ff ff    	lea    eax,[ebx-0xf8]
 8053769:	29 c6                	sub    esi,eax
 805376b:	c1 fe 02             	sar    esi,0x2
 805376e:	85 f6                	test   esi,esi
 8053770:	74 27                	je     8053799
 8053772:	8d b6 00 00 00 00    	lea    esi,[esi]
 8053778:	8b 44 24 38          	mov    eax,DWORD PTR [esp+0x38]
 805377c:	89 2c 24             	mov    DWORD PTR [esp],ebp
 805377f:	89 44 24 08          	mov    DWORD PTR [esp+0x8],eax
 8053783:	8b 44 24 34          	mov    eax,DWORD PTR [esp+0x34]
 8053787:	89 44 24 04          	mov    DWORD PTR [esp+0x4],eax
 805378b:	ff 94 bb 08 ff ff ff 	call   DWORD PTR [ebx+edi*4-0xf8]
 8053792:	83 c7 01             	add    edi,0x1
 8053795:	39 f7                	cmp    edi,esi
 8053797:	75 df                	jne    8053778
 8053799:	83 c4 1c             	add    esp,0x1c
 805379c:	5b                   	pop    ebx
 805379d:	5e                   	pop    esi
 805379e:	5f                   	pop    edi
 805379f:	5d                   	pop    ebp
 80537a0:	c3                   	ret
 80537a1:	eb 0d                	jmp    80537b0
 80537a3:	90                   	nop
 80537a4:	90                   	nop
 80537a5:	90                   	nop
 80537a6:	90                   	nop
 80537a7:	90                   	nop
 80537a8:	90                   	nop
 80537a9:	90                   	nop
 80537aa:	90                   	nop
 80537ab:	90                   	nop
 80537ac:	90                   	nop
 80537ad:	90                   	nop
 80537ae:	90                   	nop
 80537af:	90                   	nop

080537b0 <__libc_csu_fini>:
 80537b0:	f3 c3                	repz   ret

Disassembly of section .fini:

080537b4 <_fini>:
 80537b4:	53                   	push   ebx
 80537b5:	83 ec 08             	sub    esp,0x8
 80537b8:	e8 d3 50 ff ff       	call   8048890
 80537bd:	81 c3 43 28 00 00    	add    ebx,0x2843
 80537c3:	83 c4 08             	add    esp,0x8
 80537c6:	5b                   	pop    ebx
 80537c7:	c3                   	ret

