Disassembly of section .init:

08048498 <_init>:
 8048498:	53                   	push   ebx
 8048499:	83 ec 08             	sub    esp,0x8
 804849c:	e8 ef 03 00 00       	call   8048890
 80484a1:	81 c3 5f db 00 00    	add    ebx,0xdb5f
 80484a7:	8b 83 fc ff ff ff    	mov    eax,DWORD PTR [ebx-0x4]
 80484ad:	85 c0                	test   eax,eax
 80484af:	74 05                	je     80484b6
 80484b1:	e8 5a 00 00 00       	call   8048510
 80484b6:	83 c4 08             	add    esp,0x8
 80484b9:	5b                   	pop    ebx
 80484ba:	c3                   	ret

Disassembly of section .plt:
 80484c0:	ff 35 04 60 05 08    	push   DWORD PTR ds:0x8056004
 80484c6:	ff 25 08 60 05 08    	jmp    DWORD PTR ds:0x8056008
 80484cc:	00 00                	add    BYTE PTR [eax],al
 80484ce:	00 00                	add    BYTE PTR [eax],al
 80484d0:	ff 25 0c 60 05 08    	jmp    DWORD PTR ds:0x805600c
 80484d6:	68 00 00 00 00       	push   0x0
 80484db:	e9 e0 ff ff ff       	jmp    80484c0
 80484e0:	ff 25 10 60 05 08    	jmp    DWORD PTR ds:0x8056010
 80484e6:	68 08 00 00 00       	push   0x8
 80484eb:	e9 d0 ff ff ff       	jmp    80484c0
 80484f0:	ff 25 14 60 05 08    	jmp    DWORD PTR ds:0x8056014
 80484f6:	68 10 00 00 00       	push   0x10
 80484fb:	e9 c0 ff ff ff       	jmp    80484c0
 8048500:	ff 25 18 60 05 08    	jmp    DWORD PTR ds:0x8056018
 8048506:	68 18 00 00 00       	push   0x18
 804850b:	e9 b0 ff ff ff       	jmp    80484c0
 8048510:	ff 25 1c 60 05 08    	jmp    DWORD PTR ds:0x805601c
 8048516:	68 20 00 00 00       	push   0x20
 804851b:	e9 a0 ff ff ff       	jmp    80484c0
 8048520:	ff 25 20 60 05 08    	jmp    DWORD PTR ds:0x8056020
 8048526:	68 28 00 00 00       	push   0x28
 804852b:	e9 90 ff ff ff       	jmp    80484c0
 8048530:	ff 25 24 60 05 08    	jmp    DWORD PTR ds:0x8056024
 8048536:	68 30 00 00 00       	push   0x30
 804853b:	e9 80 ff ff ff       	jmp    80484c0
 8048540:	ff 25 28 60 05 08    	jmp    DWORD PTR ds:0x8056028
 8048546:	68 38 00 00 00       	push   0x38
 804854b:	e9 70 ff ff ff       	jmp    80484c0
 8048550:	ff 25 2c 60 05 08    	jmp    DWORD PTR ds:0x805602c
 8048556:	68 40 00 00 00       	push   0x40
 804855b:	e9 60 ff ff ff       	jmp    80484c0
 8048560:	ff 25 30 60 05 08    	jmp    DWORD PTR ds:0x8056030
 8048566:	68 48 00 00 00       	push   0x48
 804856b:	e9 50 ff ff ff       	jmp    80484c0
 8048570:	ff 25 34 60 05 08    	jmp    DWORD PTR ds:0x8056034
 8048576:	68 50 00 00 00       	push   0x50
 804857b:	e9 40 ff ff ff       	jmp    80484c0
 8048580:	ff 25 38 60 05 08    	jmp    DWORD PTR ds:0x8056038
 8048586:	68 58 00 00 00       	push   0x58
 804858b:	e9 30 ff ff ff       	jmp    80484c0
 8048590:	ff 25 3c 60 05 08    	jmp    DWORD PTR ds:0x805603c
 8048596:	68 60 00 00 00       	push   0x60
 804859b:	e9 20 ff ff ff       	jmp    80484c0
 80485a0:	ff 25 40 60 05 08    	jmp    DWORD PTR ds:0x8056040
 80485a6:	68 68 00 00 00       	push   0x68
 80485ab:	e9 10 ff ff ff       	jmp    80484c0

Disassembly of section .text:

080485c0 <checkPowerOfTwo.part.0>:
 80485c0:	83 ec 1c             	sub    esp,0x1c
 80485c3:	c7 44 24 0c 8d 39 05 	mov    DWORD PTR [esp+0xc],0x805398d
 80485ca:	08 
 80485cb:	c7 44 24 08 28 00 00 	mov    DWORD PTR [esp+0x8],0x28
 80485d2:	00 
 80485d3:	c7 44 24 04 e0 38 05 	mov    DWORD PTR [esp+0x4],0x80538e0
 80485da:	08 
 80485db:	c7 04 24 84 39 05 08 	mov    DWORD PTR [esp],0x8053984
 80485e2:	e8 a9 ff ff ff       	call   8048590
 80485e7:	66 90                	xchg   ax,ax
 80485e9:	66 90                	xchg   ax,ax
 80485eb:	66 90                	xchg   ax,ax
 80485ed:	66 90                	xchg   ax,ax
 80485ef:	90                   	nop

080485f0 <main>:
 80485f0:	55                   	push   ebp
 80485f1:	89 e5                	mov    ebp,esp
 80485f3:	57                   	push   edi
 80485f4:	56                   	push   esi
 80485f5:	31 f6                	xor    esi,esi
 80485f7:	53                   	push   ebx
 80485f8:	31 db                	xor    ebx,ebx
 80485fa:	83 e4 f0             	and    esp,0xf0
 80485fd:	83 ec 20             	sub    esp,0x20
 8048600:	c7 44 24 0c 9d 39 05 	mov    DWORD PTR [esp+0xc],0x805399d
 8048607:	08 
 8048608:	c7 44 24 08 ae 39 05 	mov    DWORD PTR [esp+0x8],0x80539ae
 804860f:	08 
 8048610:	c7 44 24 04 c0 39 05 	mov    DWORD PTR [esp+0x4],0x80539c0
 8048617:	08 
 8048618:	c7 04 24 01 00 00 00 	mov    DWORD PTR [esp],0x1
 804861f:	e8 3c ff ff ff       	call   8048560
 8048624:	e8 07 b1 00 00       	call   8053730
 8048629:	c7 44 24 04 00 00 00 	mov    DWORD PTR [esp+0x4],0x0
 8048630:	00 
 8048631:	c7 04 24 40 62 07 08 	mov    DWORD PTR [esp],0x8076240
 8048638:	a3 30 62 05 08       	mov    ds:0x8056230,eax
 804863d:	89 15 34 62 05 08    	mov    DWORD PTR ds:0x8056234,edx
 8048643:	e8 a8 fe ff ff       	call   80484f0
 8048648:	e8 33 ff ff ff       	call   8048580
 804864d:	83 c3 01             	add    ebx,0x1
 8048650:	81 fb 00 00 02 00    	cmp    ebx,0x20000
 8048656:	88 86 40 62 05 08    	mov    BYTE PTR [esi+0x8056240],al
 804865c:	89 de                	mov    esi,ebx
 804865e:	75 e8                	jne    8048648
 8048660:	bb 0a 00 00 00       	mov    ebx,0xa
 8048665:	8d 76 00             	lea    esi,[esi]
 8048668:	31 f6                	xor    esi,esi
 804866a:	8d b6 00 00 00 00    	lea    esi,[esi]
 8048670:	e8 bb b0 00 00       	call   8053730
 8048675:	89 04 f5 80 61 05 08 	mov    DWORD PTR [esi*8+0x8056180],eax
 804867c:	89 14 f5 84 61 05 08 	mov    DWORD PTR [esi*8+0x8056184],edx
 8048683:	83 c6 01             	add    esi,0x1
 8048686:	83 fe 15             	cmp    esi,0x15
 8048689:	75 e5                	jne    8048670
 804868b:	31 ff                	xor    edi,edi
 804868d:	be 40 62 05 08       	mov    esi,0x8056240
 8048692:	8d b6 00 00 00 00    	lea    esi,[esi]
 8048698:	e8 93 b0 00 00       	call   8053730
 804869d:	89 34 24             	mov    DWORD PTR [esp],esi
 80486a0:	89 04 fd 80 61 05 08 	mov    DWORD PTR [edi*8+0x8056180],eax
 80486a7:	8d 46 40             	lea    eax,[esi+0x40]
 80486aa:	89 44 24 08          	mov    DWORD PTR [esp+0x8],eax
 80486ae:	8d 46 20             	lea    eax,[esi+0x20]
 80486b1:	83 ee 80             	sub    esi,0x80
 80486b4:	89 44 24 04          	mov    DWORD PTR [esp+0x4],eax
 80486b8:	89 14 fd 84 61 05 08 	mov    DWORD PTR [edi*8+0x8056184],edx
 80486bf:	83 c7 01             	add    edi,0x1
 80486c2:	e8 09 75 00 00       	call   804fbd0
 80486c7:	81 fe c0 6c 05 08    	cmp    esi,0x8056cc0
 80486cd:	75 c9                	jne    8048698
 80486cf:	31 f6                	xor    esi,esi
 80486d1:	8d b4 26 00 00 00 00 	lea    esi,[esi]
 80486d8:	83 c6 01             	add    esi,0x1
 80486db:	8b 04 f5 80 61 05 08 	mov    eax,DWORD PTR [esi*8+0x8056180]
 80486e2:	8b 14 f5 84 61 05 08 	mov    edx,DWORD PTR [esi*8+0x8056184]
 80486e9:	2b 04 f5 78 61 05 08 	sub    eax,DWORD PTR [esi*8+0x8056178]
 80486f0:	1b 14 f5 7c 61 05 08 	sbb    edx,DWORD PTR [esi*8+0x805617c]
 80486f7:	c7 44 24 04 c7 39 05 	mov    DWORD PTR [esp+0x4],0x80539c7
 80486fe:	08 
 80486ff:	89 44 24 08          	mov    DWORD PTR [esp+0x8],eax
 8048703:	89 54 24 0c          	mov    DWORD PTR [esp+0xc],edx
 8048707:	c7 04 24 01 00 00 00 	mov    DWORD PTR [esp],0x1
 804870e:	e8 4d fe ff ff       	call   8048560
 8048713:	83 fe 14             	cmp    esi,0x14
 8048716:	75 c0                	jne    80486d8
 8048718:	c7 04 24 0a 00 00 00 	mov    DWORD PTR [esp],0xa
 804871f:	e8 1c fe ff ff       	call   8048540
 8048724:	a1 a0 60 05 08       	mov    eax,ds:0x80560a0
 8048729:	89 04 24             	mov    DWORD PTR [esp],eax
 804872c:	e8 9f fd ff ff       	call   80484d0
 8048731:	31 d2                	xor    edx,edx
 8048733:	31 c0                	xor    eax,eax
 8048735:	8d 76 00             	lea    esi,[esi]
 8048738:	0f b6 8a c0 62 05 08 	movzx  ecx,BYTE PTR [edx+0x80562c0]
 804873f:	83 c0 01             	add    eax,0x1
 8048742:	3d 80 ff 01 00       	cmp    eax,0x1ff80
 8048747:	88 8a 40 62 05 08    	mov    BYTE PTR [edx+0x8056240],cl
 804874d:	89 c2                	mov    edx,eax
 804874f:	75 e7                	jne    8048738
 8048751:	83 eb 01             	sub    ebx,0x1
 8048754:	0f 85 0e ff ff ff    	jne    8048668
 804875a:	e8 d1 af 00 00       	call   8053730
 804875f:	bb 40 42 0f 00       	mov    ebx,0xf4240
 8048764:	c7 44 24 04 00 00 00 	mov    DWORD PTR [esp+0x4],0x0
 804876b:	00 
 804876c:	c7 04 24 60 61 05 08 	mov    DWORD PTR [esp],0x8056160
 8048773:	89 15 2c 62 05 08    	mov    DWORD PTR ds:0x805622c,edx
 8048779:	a3 28 62 05 08       	mov    ds:0x8056228,eax
 804877e:	e8 6d fd ff ff       	call   80484f0
 8048783:	a1 28 62 05 08       	mov    eax,ds:0x8056228
 8048788:	8b 15 2c 62 05 08    	mov    edx,DWORD PTR ds:0x805622c
 804878e:	2b 05 30 62 05 08    	sub    eax,DWORD PTR ds:0x8056230
 8048794:	1b 15 34 62 05 08    	sbb    edx,DWORD PTR ds:0x8056234
 804879a:	c7 44 24 04 ce 39 05 	mov    DWORD PTR [esp+0x4],0x80539ce
 80487a1:	08 
 80487a2:	89 44 24 08          	mov    DWORD PTR [esp+0x8],eax
 80487a6:	89 54 24 0c          	mov    DWORD PTR [esp+0xc],edx
 80487aa:	c7 04 24 01 00 00 00 	mov    DWORD PTR [esp],0x1
 80487b1:	e8 aa fd ff ff       	call   8048560
 80487b6:	a1 60 61 05 08       	mov    eax,ds:0x8056160
 80487bb:	2b 05 40 62 07 08    	sub    eax,DWORD PTR ds:0x8076240
 80487c1:	8b 35 64 61 05 08    	mov    esi,DWORD PTR ds:0x8056164
 80487c7:	2b 35 44 62 07 08    	sub    esi,DWORD PTR ds:0x8076244
 80487cd:	f7 eb                	imul   ebx
 80487cf:	c7 44 24 04 db 39 05 	mov    DWORD PTR [esp+0x4],0x80539db
 80487d6:	08 
 80487d7:	89 f7                	mov    edi,esi
 80487d9:	c1 ff 1f             	sar    edi,0x1f
 80487dc:	01 f0                	add    eax,esi
 80487de:	11 fa                	adc    edx,edi
 80487e0:	89 54 24 0c          	mov    DWORD PTR [esp+0xc],edx
 80487e4:	89 44 24 08          	mov    DWORD PTR [esp+0x8],eax
 80487e8:	c7 04 24 01 00 00 00 	mov    DWORD PTR [esp],0x1
 80487ef:	e8 6c fd ff ff       	call   8048560
 80487f4:	a1 60 61 05 08       	mov    eax,ds:0x8056160
 80487f9:	2b 05 40 62 07 08    	sub    eax,DWORD PTR ds:0x8076240
 80487ff:	8b 35 28 62 05 08    	mov    esi,DWORD PTR ds:0x8056228
 8048805:	8b 3d 2c 62 05 08    	mov    edi,DWORD PTR ds:0x805622c
 804880b:	8b 0d 64 61 05 08    	mov    ecx,DWORD PTR ds:0x8056164
 8048811:	2b 35 30 62 05 08    	sub    esi,DWORD PTR ds:0x8056230
 8048817:	1b 3d 34 62 05 08    	sbb    edi,DWORD PTR ds:0x8056234
 804881d:	f7 eb                	imul   ebx
 804881f:	2b 0d 44 62 07 08    	sub    ecx,DWORD PTR ds:0x8076244
 8048825:	89 74 24 18          	mov    DWORD PTR [esp+0x18],esi
 8048829:	89 7c 24 1c          	mov    DWORD PTR [esp+0x1c],edi
 804882d:	89 cb                	mov    ebx,ecx
 804882f:	df 6c 24 18          	fild   QWORD PTR [esp+0x18]
 8048833:	c1 fb 1f             	sar    ebx,0x1f
 8048836:	01 c8                	add    eax,ecx
 8048838:	11 da                	adc    edx,ebx
 804883a:	89 44 24 18          	mov    DWORD PTR [esp+0x18],eax
 804883e:	89 54 24 1c          	mov    DWORD PTR [esp+0x1c],edx
 8048842:	df 6c 24 18          	fild   QWORD PTR [esp+0x18]
 8048846:	de f9                	fdivp  st(1),st
 8048848:	c7 44 24 04 e7 39 05 	mov    DWORD PTR [esp+0x4],0x80539e7
 804884f:	08 
 8048850:	c7 04 24 01 00 00 00 	mov    DWORD PTR [esp],0x1
 8048857:	dd 5c 24 08          	fstp   QWORD PTR [esp+0x8]
 804885b:	e8 00 fd ff ff       	call   8048560
 8048860:	8d 65 f4             	lea    esp,[ebp-0xc]
 8048863:	31 c0                	xor    eax,eax
 8048865:	5b                   	pop    ebx
 8048866:	5e                   	pop    esi
 8048867:	5f                   	pop    edi
 8048868:	5d                   	pop    ebp
 8048869:	c3                   	ret

0804886a <_start>:
 804886a:	31 ed                	xor    ebp,ebp
 804886c:	5e                   	pop    esi
 804886d:	89 e1                	mov    ecx,esp
 804886f:	83 e4 f0             	and    esp,0xf0
 8048872:	50                   	push   eax
 8048873:	54                   	push   esp
 8048874:	52                   	push   edx
 8048875:	68 b0 37 05 08       	push   0x80537b0
 804887a:	68 40 37 05 08       	push   0x8053740
 804887f:	51                   	push   ecx
 8048880:	56                   	push   esi
 8048881:	68 f0 85 04 08       	push   0x80485f0
 8048886:	e8 a5 fc ff ff       	call   8048530
 804888b:	f4                   	hlt
 804888c:	66 90                	xchg   ax,ax
 804888e:	66 90                	xchg   ax,ax

08048890 <__x86.get_pc_thunk.bx>:
 8048890:	8b 1c 24             	mov    ebx,DWORD PTR [esp]
 8048893:	c3                   	ret
 8048894:	66 90                	xchg   ax,ax
 8048896:	66 90                	xchg   ax,ax
 8048898:	66 90                	xchg   ax,ax
 804889a:	66 90                	xchg   ax,ax
 804889c:	66 90                	xchg   ax,ax
 804889e:	66 90                	xchg   ax,ax

080488a0 <deregister_tm_clones>:
 80488a0:	b8 7b 60 05 08       	mov    eax,0x805607b
 80488a5:	2d 78 60 05 08       	sub    eax,0x8056078
 80488aa:	83 f8 06             	cmp    eax,0x6
 80488ad:	77 01                	ja     80488b0
 80488af:	c3                   	ret
 80488b0:	b8 00 00 00 00       	mov    eax,0x0
 80488b5:	85 c0                	test   eax,eax
 80488b7:	74 f6                	je     80488af
 80488b9:	55                   	push   ebp
 80488ba:	89 e5                	mov    ebp,esp
 80488bc:	83 ec 18             	sub    esp,0x18
 80488bf:	c7 04 24 78 60 05 08 	mov    DWORD PTR [esp],0x8056078
 80488c6:	ff d0                	call   eax
 80488c8:	c9                   	leave
 80488c9:	c3                   	ret
 80488ca:	8d b6 00 00 00 00    	lea    esi,[esi]

080488d0 <register_tm_clones>:
 80488d0:	b8 78 60 05 08       	mov    eax,0x8056078
 80488d5:	2d 78 60 05 08       	sub    eax,0x8056078
 80488da:	c1 f8 02             	sar    eax,0x2
 80488dd:	89 c2                	mov    edx,eax
 80488df:	c1 ea 1f             	shr    edx,0x1f
 80488e2:	01 d0                	add    eax,edx
 80488e4:	d1 f8                	sar    eax,1
 80488e6:	75 01                	jne    80488e9
 80488e8:	c3                   	ret
 80488e9:	ba 00 00 00 00       	mov    edx,0x0
 80488ee:	85 d2                	test   edx,edx
 80488f0:	74 f6                	je     80488e8
 80488f2:	55                   	push   ebp
 80488f3:	89 e5                	mov    ebp,esp
 80488f5:	83 ec 18             	sub    esp,0x18
 80488f8:	89 44 24 04          	mov    DWORD PTR [esp+0x4],eax
 80488fc:	c7 04 24 78 60 05 08 	mov    DWORD PTR [esp],0x8056078
 8048903:	ff d2                	call   edx
 8048905:	c9                   	leave
 8048906:	c3                   	ret
 8048907:	89 f6                	mov    esi,esi
 8048909:	8d bc 27 00 00 00 00 	lea    edi,[edi]

08048910 <__do_global_dtors_aux>:
 8048910:	80 3d a4 60 05 08 00 	cmp    BYTE PTR ds:0x80560a4,0x0
 8048917:	75 13                	jne    804892c
 8048919:	55                   	push   ebp
 804891a:	89 e5                	mov    ebp,esp
 804891c:	83 ec 08             	sub    esp,0x8
 804891f:	e8 7c ff ff ff       	call   80488a0
 8048924:	c6 05 a4 60 05 08 01 	mov    BYTE PTR ds:0x80560a4,0x1
 804892b:	c9                   	leave
 804892c:	f3 c3                	repz   ret
 804892e:	66 90                	xchg   ax,ax

08048930 <frame_dummy>:
 8048930:	a1 10 5f 05 08       	mov    eax,ds:0x8055f10
 8048935:	85 c0                	test   eax,eax
 8048937:	74 1f                	je     8048958
 8048939:	b8 00 00 00 00       	mov    eax,0x0
 804893e:	85 c0                	test   eax,eax
 8048940:	74 16                	je     8048958
 8048942:	55                   	push   ebp
 8048943:	89 e5                	mov    ebp,esp
 8048945:	83 ec 18             	sub    esp,0x18
 8048948:	c7 04 24 10 5f 05 08 	mov    DWORD PTR [esp],0x8055f10
 804894f:	ff d0                	call   eax
 8048951:	c9                   	leave
 8048952:	e9 79 ff ff ff       	jmp    80488d0
 8048957:	90                   	nop
 8048958:	e9 73 ff ff ff       	jmp    80488d0
 804895d:	66 90                	xchg   ax,ax
 804895f:	90                   	nop

08048960 <GenRandLeaf>:
 8048960:	83 ec 0c             	sub    esp,0xc
 8048963:	e8 e8 fb ff ff       	call   8048550
 8048968:	99                   	cdq
 8048969:	f7 3d 2c 61 05 08    	idiv   DWORD PTR ds:0x805612c
 804896f:	83 c4 0c             	add    esp,0xc
 8048972:	89 d0                	mov    eax,edx
 8048974:	c3                   	ret
 8048975:	8d 74 26 00          	lea    esi,[esi]
 8048979:	8d bc 27 00 00 00 00 	lea    edi,[edi]

08048980 <PushBack>:
 8048980:	55                   	push   ebp
 8048981:	57                   	push   edi
 8048982:	56                   	push   esi
 8048983:	53                   	push   ebx
 8048984:	83 ec 1c             	sub    esp,0x1c
 8048987:	8b 5c 24 3c          	mov    ebx,DWORD PTR [esp+0x3c]
 804898b:	8b 44 24 30          	mov    eax,DWORD PTR [esp+0x30]
 804898f:	8b 6c 24 34          	mov    ebp,DWORD PTR [esp+0x34]
 8048993:	8b 74 24 38          	mov    esi,DWORD PTR [esp+0x38]
 8048997:	89 5c 24 04          	mov    DWORD PTR [esp+0x4],ebx
 804899b:	89 04 24             	mov    DWORD PTR [esp],eax
 804899e:	e8 9d 0f 00 00       	call   8049940
 80489a3:	89 5c 24 04          	mov    DWORD PTR [esp+0x4],ebx
 80489a7:	89 2c 24             	mov    DWORD PTR [esp],ebp
 80489aa:	89 c7                	mov    edi,eax
 80489ac:	e8 8f 0f 00 00       	call   8049940
 80489b1:	89 c2                	mov    edx,eax
 80489b3:	31 fa                	xor    edx,edi
 80489b5:	89 d0                	mov    eax,edx
 80489b7:	f7 d8                	neg    eax
 80489b9:	21 d0                	and    eax,edx
 80489bb:	83 e8 01             	sub    eax,0x1
 80489be:	85 db                	test   ebx,ebx
 80489c0:	89 44 24 0c          	mov    DWORD PTR [esp+0xc],eax
 80489c4:	7e 7c                	jle    8048a42
 80489c6:	8b 3d 24 61 05 08    	mov    edi,DWORD PTR ds:0x8056124
 80489cc:	31 c9                	xor    ecx,ecx
 80489ce:	31 c0                	xor    eax,eax
 80489d0:	ba 01 00 00 00       	mov    edx,0x1
 80489d5:	8d 76 00             	lea    esi,[esi]
 80489d8:	89 d5                	mov    ebp,edx
 80489da:	d3 e5                	shl    ebp,cl
 80489dc:	01 c5                	add    ebp,eax
 80489de:	39 3c 8e             	cmp    DWORD PTR [esi+ecx*4],edi
 80489e1:	0f 44 c5             	cmove  eax,ebp
 80489e4:	83 c1 01             	add    ecx,0x1
 80489e7:	39 d9                	cmp    ecx,ebx
 80489e9:	75 ed                	jne    80489d8
 80489eb:	f7 d0                	not    eax
 80489ed:	8b 7c 24 0c          	mov    edi,DWORD PTR [esp+0xc]
 80489f1:	89 5c 24 04          	mov    DWORD PTR [esp+0x4],ebx
 80489f5:	21 f8                	and    eax,edi
 80489f7:	89 04 24             	mov    DWORD PTR [esp],eax
 80489fa:	e8 41 0f 00 00       	call   8049940
 80489ff:	89 5c 24 04          	mov    DWORD PTR [esp+0x4],ebx
 8048a03:	89 c2                	mov    edx,eax
 8048a05:	f7 da                	neg    edx
 8048a07:	21 c2                	and    edx,eax
 8048a09:	89 14 24             	mov    DWORD PTR [esp],edx
 8048a0c:	e8 2f 0f 00 00       	call   8049940
 8048a11:	85 ff                	test   edi,edi
 8048a13:	75 0a                	jne    8048a1f
 8048a15:	8b 3d 24 61 05 08    	mov    edi,DWORD PTR ds:0x8056124
 8048a1b:	39 3e                	cmp    DWORD PTR [esi],edi
 8048a1d:	7c 19                	jl     8048a38
 8048a1f:	85 c0                	test   eax,eax
 8048a21:	74 26                	je     8048a49
 8048a23:	89 44 24 30          	mov    DWORD PTR [esp+0x30],eax
 8048a27:	83 c4 1c             	add    esp,0x1c
 8048a2a:	5b                   	pop    ebx
 8048a2b:	5e                   	pop    esi
 8048a2c:	5f                   	pop    edi
 8048a2d:	5d                   	pop    ebp
 8048a2e:	e9 ed 0e 00 00       	jmp    8049920
 8048a33:	90                   	nop
 8048a34:	8d 74 26 00          	lea    esi,[esi]
 8048a38:	31 c0                	xor    eax,eax
 8048a3a:	83 c4 1c             	add    esp,0x1c
 8048a3d:	5b                   	pop    ebx
 8048a3e:	5e                   	pop    esi
 8048a3f:	5f                   	pop    edi
 8048a40:	5d                   	pop    ebp
 8048a41:	c3                   	ret
 8048a42:	b8 ff ff ff ff       	mov    eax,0xffffffff
 8048a47:	eb a4                	jmp    80489ed
 8048a49:	b8 ff ff ff ff       	mov    eax,0xffffffff
 8048a4e:	eb ea                	jmp    8048a3a

08048a50 <Init_Stash>:
 8048a50:	53                   	push   ebx
 8048a51:	83 ec 18             	sub    esp,0x18
 8048a54:	8b 5c 24 20          	mov    ebx,DWORD PTR [esp+0x20]
 8048a58:	c7 04 24 10 00 00 00 	mov    DWORD PTR [esp],0x10
 8048a5f:	89 5c 24 04          	mov    DWORD PTR [esp+0x4],ebx
 8048a63:	89 1d 3c 61 05 08    	mov    DWORD PTR ds:0x805613c,ebx
 8048a69:	e8 32 fb ff ff       	call   80485a0
 8048a6e:	a3 40 61 05 08       	mov    ds:0x8056140,eax
 8048a73:	a1 20 61 05 08       	mov    eax,ds:0x8056120
 8048a78:	c1 e0 02             	shl    eax,0x2
 8048a7b:	0f af c3             	imul   eax,ebx
 8048a7e:	89 04 24             	mov    DWORD PTR [esp],eax
 8048a81:	e8 7a fa ff ff       	call   8048500
 8048a86:	a3 44 61 05 08       	mov    ds:0x8056144,eax
 8048a8b:	83 c4 18             	add    esp,0x18
 8048a8e:	5b                   	pop    ebx
 8048a8f:	c3                   	ret

08048a90 <Init_PosMap>:
 8048a90:	83 ec 1c             	sub    esp,0x1c
 8048a93:	8b 44 24 20          	mov    eax,DWORD PTR [esp+0x20]
 8048a97:	c7 04 24 02 00 00 00 	mov    DWORD PTR [esp],0x2
 8048a9e:	89 44 24 04          	mov    DWORD PTR [esp+0x4],eax
 8048aa2:	a3 34 61 05 08       	mov    ds:0x8056134,eax
 8048aa7:	e8 f4 fa ff ff       	call   80485a0
 8048aac:	a3 38 61 05 08       	mov    ds:0x8056138,eax
 8048ab1:	83 c4 1c             	add    esp,0x1c
 8048ab4:	c3                   	ret
 8048ab5:	8d 74 26 00          	lea    esi,[esi]
 8048ab9:	8d bc 27 00 00 00 00 	lea    edi,[edi]

08048ac0 <Init_ORAM_Controller>:
 8048ac0:	57                   	push   edi
 8048ac1:	56                   	push   esi
 8048ac2:	53                   	push   ebx
 8048ac3:	bb 01 00 00 00       	mov    ebx,0x1
 8048ac8:	83 ec 10             	sub    esp,0x10
 8048acb:	89 df                	mov    edi,ebx
 8048acd:	8b 44 24 24          	mov    eax,DWORD PTR [esp+0x24]
 8048ad1:	8b 4c 24 28          	mov    ecx,DWORD PTR [esp+0x28]
 8048ad5:	8b 54 24 20          	mov    edx,DWORD PTR [esp+0x20]
 8048ad9:	8b 74 24 30          	mov    esi,DWORD PTR [esp+0x30]
 8048add:	89 0d 20 61 05 08    	mov    DWORD PTR ds:0x8056120,ecx
 8048ae3:	89 c1                	mov    ecx,eax
 8048ae5:	d3 e7                	shl    edi,cl
 8048ae7:	89 f9                	mov    ecx,edi
 8048ae9:	83 e9 01             	sub    ecx,0x1
 8048aec:	89 0d 28 61 05 08    	mov    DWORD PTR ds:0x8056128,ecx
 8048af2:	8d 48 ff             	lea    ecx,[eax-0x1]
 8048af5:	0f af c2             	imul   eax,edx
 8048af8:	03 44 24 2c          	add    eax,DWORD PTR [esp+0x2c]
 8048afc:	d3 e3                	shl    ebx,cl
 8048afe:	89 15 24 61 05 08    	mov    DWORD PTR ds:0x8056124,edx
 8048b04:	89 04 24             	mov    DWORD PTR [esp],eax
 8048b07:	89 1d 2c 61 05 08    	mov    DWORD PTR ds:0x805612c,ebx
 8048b0d:	e8 5e 0e 00 00       	call   8049970
 8048b12:	89 74 24 04          	mov    DWORD PTR [esp+0x4],esi
 8048b16:	c7 04 24 02 00 00 00 	mov    DWORD PTR [esp],0x2
 8048b1d:	89 35 34 61 05 08    	mov    DWORD PTR ds:0x8056134,esi
 8048b23:	89 c3                	mov    ebx,eax
 8048b25:	e8 76 fa ff ff       	call   80485a0
 8048b2a:	89 5c 24 04          	mov    DWORD PTR [esp+0x4],ebx
 8048b2e:	c7 04 24 10 00 00 00 	mov    DWORD PTR [esp],0x10
 8048b35:	89 1d 3c 61 05 08    	mov    DWORD PTR ds:0x805613c,ebx
 8048b3b:	a3 38 61 05 08       	mov    ds:0x8056138,eax
 8048b40:	e8 5b fa ff ff       	call   80485a0
 8048b45:	a3 40 61 05 08       	mov    ds:0x8056140,eax
 8048b4a:	a1 20 61 05 08       	mov    eax,ds:0x8056120
 8048b4f:	c1 e0 02             	shl    eax,0x2
 8048b52:	0f af c3             	imul   eax,ebx
 8048b55:	89 04 24             	mov    DWORD PTR [esp],eax
 8048b58:	e8 a3 f9 ff ff       	call   8048500
 8048b5d:	a3 44 61 05 08       	mov    ds:0x8056144,eax
 8048b62:	83 c4 10             	add    esp,0x10
 8048b65:	5b                   	pop    ebx
 8048b66:	5e                   	pop    esi
 8048b67:	5f                   	pop    edi
 8048b68:	c3                   	ret
 8048b69:	8d b4 26 00 00 00 00 	lea    esi,[esi]

08048b70 <Init_ORAM_Tree>:
 8048b70:	57                   	push   edi
 8048b71:	56                   	push   esi
 8048b72:	53                   	push   ebx
 8048b73:	83 ec 10             	sub    esp,0x10
 8048b76:	8b 74 24 20          	mov    esi,DWORD PTR [esp+0x20]
 8048b7a:	8b 44 24 28          	mov    eax,DWORD PTR [esp+0x28]
 8048b7e:	8b 5c 24 24          	mov    ebx,DWORD PTR [esp+0x24]
 8048b82:	8d 78 03             	lea    edi,[eax+0x3]
 8048b85:	8d 04 b5 00 00 00 00 	lea    eax,[esi*4]
 8048b8c:	89 d9                	mov    ecx,ebx
 8048b8e:	0f af c7             	imul   eax,edi
 8048b91:	89 1d 00 61 05 08    	mov    DWORD PTR ds:0x8056100,ebx
 8048b97:	d3 e0                	shl    eax,cl
 8048b99:	89 04 24             	mov    DWORD PTR [esp],eax
 8048b9c:	e8 5f f9 ff ff       	call   8048500
 8048ba1:	89 d9                	mov    ecx,ebx
 8048ba3:	d3 e6                	shl    esi,cl
 8048ba5:	85 f6                	test   esi,esi
 8048ba7:	a3 04 61 05 08       	mov    ds:0x8056104,eax
 8048bac:	7e 07                	jle    8048bb5
 8048bae:	c7 04 b8 00 00 00 00 	mov    DWORD PTR [eax+edi*4],0x0
 8048bb5:	83 c4 10             	add    esp,0x10
 8048bb8:	5b                   	pop    ebx
 8048bb9:	5e                   	pop    esi
 8048bba:	5f                   	pop    edi
 8048bbb:	c3                   	ret
 8048bbc:	8d 74 26 00          	lea    esi,[esi]

08048bc0 <Init_ORAM>:
 8048bc0:	55                   	push   ebp
 8048bc1:	57                   	push   edi
 8048bc2:	56                   	push   esi
 8048bc3:	53                   	push   ebx
 8048bc4:	83 ec 1c             	sub    esp,0x1c
 8048bc7:	a1 5c 60 05 08       	mov    eax,ds:0x805605c
 8048bcc:	8b 6c 24 34          	mov    ebp,DWORD PTR [esp+0x34]
 8048bd0:	8b 5c 24 30          	mov    ebx,DWORD PTR [esp+0x30]
 8048bd4:	89 04 24             	mov    DWORD PTR [esp],eax
 8048bd7:	e8 44 f9 ff ff       	call   8048520
 8048bdc:	89 2c 24             	mov    DWORD PTR [esp],ebp
 8048bdf:	e8 3c 0d 00 00       	call   8049920
 8048be4:	83 f8 0f             	cmp    eax,0xf
 8048be7:	89 c7                	mov    edi,eax
 8048be9:	0f 8f 2b 01 00 00    	jg     8048d1a
 8048bef:	8b 44 24 38          	mov    eax,DWORD PTR [esp+0x38]
 8048bf3:	89 f9                	mov    ecx,edi
 8048bf5:	89 1d 24 61 05 08    	mov    DWORD PTR ds:0x8056124,ebx
 8048bfb:	a3 20 61 05 08       	mov    ds:0x8056120,eax
 8048c00:	b8 01 00 00 00       	mov    eax,0x1
 8048c05:	89 c2                	mov    edx,eax
 8048c07:	d3 e2                	shl    edx,cl
 8048c09:	89 d1                	mov    ecx,edx
 8048c0b:	83 e9 01             	sub    ecx,0x1
 8048c0e:	89 0d 28 61 05 08    	mov    DWORD PTR ds:0x8056128,ecx
 8048c14:	8d 4f ff             	lea    ecx,[edi-0x1]
 8048c17:	d3 e0                	shl    eax,cl
 8048c19:	a3 2c 61 05 08       	mov    ds:0x805612c,eax
 8048c1e:	89 f8                	mov    eax,edi
 8048c20:	0f af c3             	imul   eax,ebx
 8048c23:	03 44 24 3c          	add    eax,DWORD PTR [esp+0x3c]
 8048c27:	89 04 24             	mov    DWORD PTR [esp],eax
 8048c2a:	e8 41 0d 00 00       	call   8049970
 8048c2f:	89 6c 24 04          	mov    DWORD PTR [esp+0x4],ebp
 8048c33:	c7 04 24 02 00 00 00 	mov    DWORD PTR [esp],0x2
 8048c3a:	89 2d 34 61 05 08    	mov    DWORD PTR ds:0x8056134,ebp
 8048c40:	89 c6                	mov    esi,eax
 8048c42:	e8 59 f9 ff ff       	call   80485a0
 8048c47:	89 74 24 04          	mov    DWORD PTR [esp+0x4],esi
 8048c4b:	c7 04 24 10 00 00 00 	mov    DWORD PTR [esp],0x10
 8048c52:	89 35 3c 61 05 08    	mov    DWORD PTR ds:0x805613c,esi
 8048c58:	a3 38 61 05 08       	mov    ds:0x8056138,eax
 8048c5d:	e8 3e f9 ff ff       	call   80485a0
 8048c62:	a3 40 61 05 08       	mov    ds:0x8056140,eax
 8048c67:	a1 20 61 05 08       	mov    eax,ds:0x8056120
 8048c6c:	c1 e0 02             	shl    eax,0x2
 8048c6f:	0f af c6             	imul   eax,esi
 8048c72:	89 04 24             	mov    DWORD PTR [esp],eax
 8048c75:	e8 86 f8 ff ff       	call   8048500
 8048c7a:	89 f9                	mov    ecx,edi
 8048c7c:	89 3d 00 61 05 08    	mov    DWORD PTR ds:0x8056100,edi
 8048c82:	a3 44 61 05 08       	mov    ds:0x8056144,eax
 8048c87:	8b 44 24 38          	mov    eax,DWORD PTR [esp+0x38]
 8048c8b:	8d 68 03             	lea    ebp,[eax+0x3]
 8048c8e:	89 e8                	mov    eax,ebp
 8048c90:	0f af c3             	imul   eax,ebx
 8048c93:	c1 e0 02             	shl    eax,0x2
 8048c96:	d3 e0                	shl    eax,cl
 8048c98:	89 04 24             	mov    DWORD PTR [esp],eax
 8048c9b:	e8 60 f8 ff ff       	call   8048500
 8048ca0:	89 f9                	mov    ecx,edi
 8048ca2:	d3 e3                	shl    ebx,cl
 8048ca4:	85 db                	test   ebx,ebx
 8048ca6:	a3 04 61 05 08       	mov    ds:0x8056104,eax
 8048cab:	7e 07                	jle    8048cb4
 8048cad:	c7 04 a8 00 00 00 00 	mov    DWORD PTR [eax+ebp*4],0x0
 8048cb4:	a1 24 61 05 08       	mov    eax,ds:0x8056124
 8048cb9:	c1 e0 02             	shl    eax,0x2
 8048cbc:	0f af c7             	imul   eax,edi
 8048cbf:	89 04 24             	mov    DWORD PTR [esp],eax
 8048cc2:	e8 39 f8 ff ff       	call   8048500
 8048cc7:	8d 14 bd 00 00 00 00 	lea    edx,[edi*4]
 8048cce:	89 14 24             	mov    DWORD PTR [esp],edx
 8048cd1:	a3 ac 60 05 08       	mov    ds:0x80560ac,eax
 8048cd6:	e8 25 f8 ff ff       	call   8048500
 8048cdb:	a3 a8 60 05 08       	mov    ds:0x80560a8,eax
 8048ce0:	8b 44 24 40          	mov    eax,DWORD PTR [esp+0x40]
 8048ce4:	85 c0                	test   eax,eax
 8048ce6:	74 20                	je     8048d08
 8048ce8:	83 7c 24 40 01       	cmp    DWORD PTR [esp+0x40],0x1
 8048ced:	75 4f                	jne    8048d3e
 8048cef:	c7 05 08 61 05 08 d0 	mov    DWORD PTR ds:0x8056108,0x804f7d0
 8048cf6:	f7 04 08 
 8048cf9:	83 c4 1c             	add    esp,0x1c
 8048cfc:	5b                   	pop    ebx
 8048cfd:	5e                   	pop    esi
 8048cfe:	5f                   	pop    edi
 8048cff:	5d                   	pop    ebp
 8048d00:	c3                   	ret
 8048d01:	8d b4 26 00 00 00 00 	lea    esi,[esi]
 8048d08:	c7 05 08 61 05 08 10 	mov    DWORD PTR ds:0x8056108,0x804bc10
 8048d0f:	bc 04 08 
 8048d12:	83 c4 1c             	add    esp,0x1c
 8048d15:	5b                   	pop    ebx
 8048d16:	5e                   	pop    esi
 8048d17:	5f                   	pop    edi
 8048d18:	5d                   	pop    ebp
 8048d19:	c3                   	ret
 8048d1a:	c7 44 24 0c d5 38 05 	mov    DWORD PTR [esp+0xc],0x80538d5
 8048d21:	08 
 8048d22:	c7 44 24 08 9f 00 00 	mov    DWORD PTR [esp+0x8],0x9f
 8048d29:	00 
 8048d2a:	c7 44 24 04 e8 37 05 	mov    DWORD PTR [esp+0x4],0x80537e8
 8048d31:	08 
 8048d32:	c7 04 24 90 38 05 08 	mov    DWORD PTR [esp],0x8053890
 8048d39:	e8 52 f8 ff ff       	call   8048590
 8048d3e:	c7 44 24 0c d5 38 05 	mov    DWORD PTR [esp+0xc],0x80538d5
 8048d45:	08 
 8048d46:	c7 44 24 08 ae 00 00 	mov    DWORD PTR [esp+0x8],0xae
 8048d4d:	00 
 8048d4e:	c7 44 24 04 e8 37 05 	mov    DWORD PTR [esp+0x4],0x80537e8
 8048d55:	08 
 8048d56:	c7 04 24 a1 38 05 08 	mov    DWORD PTR [esp],0x80538a1
 8048d5d:	e8 2e f8 ff ff       	call   8048590
 8048d62:	8d b4 26 00 00 00 00 	lea    esi,[esi]
 8048d69:	8d bc 27 00 00 00 00 	lea    edi,[edi]

08048d70 <Free_ORAM>:
 8048d70:	83 ec 1c             	sub    esp,0x1c
 8048d73:	a1 38 61 05 08       	mov    eax,ds:0x8056138
 8048d78:	89 04 24             	mov    DWORD PTR [esp],eax
 8048d7b:	e8 60 f7 ff ff       	call   80484e0
 8048d80:	a1 40 61 05 08       	mov    eax,ds:0x8056140
 8048d85:	89 04 24             	mov    DWORD PTR [esp],eax
 8048d88:	e8 53 f7 ff ff       	call   80484e0
 8048d8d:	a1 44 61 05 08       	mov    eax,ds:0x8056144
 8048d92:	89 04 24             	mov    DWORD PTR [esp],eax
 8048d95:	e8 46 f7 ff ff       	call   80484e0
 8048d9a:	a1 04 61 05 08       	mov    eax,ds:0x8056104
 8048d9f:	89 04 24             	mov    DWORD PTR [esp],eax
 8048da2:	e8 39 f7 ff ff       	call   80484e0
 8048da7:	a1 ac 60 05 08       	mov    eax,ds:0x80560ac
 8048dac:	89 04 24             	mov    DWORD PTR [esp],eax
 8048daf:	e8 2c f7 ff ff       	call   80484e0
 8048db4:	a1 a8 60 05 08       	mov    eax,ds:0x80560a8
 8048db9:	89 04 24             	mov    DWORD PTR [esp],eax
 8048dbc:	e8 1f f7 ff ff       	call   80484e0
 8048dc1:	83 c4 1c             	add    esp,0x1c
 8048dc4:	c3                   	ret
 8048dc5:	8d 74 26 00          	lea    esi,[esi]
 8048dc9:	8d bc 27 00 00 00 00 	lea    edi,[edi]

08048dd0 <Retrieve_LeafLabel>:
 8048dd0:	55                   	push   ebp
 8048dd1:	57                   	push   edi
 8048dd2:	56                   	push   esi
 8048dd3:	53                   	push   ebx
 8048dd4:	83 ec 4c             	sub    esp,0x4c
 8048dd7:	a1 34 61 05 08       	mov    eax,ds:0x8056134
 8048ddc:	85 c0                	test   eax,eax
 8048dde:	0f 8e bb 00 00 00    	jle    8048e9f
 8048de4:	31 f6                	xor    esi,esi
 8048de6:	c7 44 24 2c 00 00 00 	mov    DWORD PTR [esp+0x2c],0x0
 8048ded:	00 
 8048dee:	66 90                	xchg   ax,ax
 8048df0:	a1 38 61 05 08       	mov    eax,ds:0x8056138
 8048df5:	b9 4c 60 05 08       	mov    ecx,0x805604c
 8048dfa:	8d 54 24 3c          	lea    edx,[esp+0x3c]
 8048dfe:	8d 3c 70             	lea    edi,[eax+esi*2]
 8048e01:	a1 50 60 05 08       	mov    eax,ds:0x8056050
 8048e06:	0f b7 2f             	movzx  ebp,WORD PTR [edi]
 8048e09:	21 e8                	and    eax,ebp
 8048e0b:	23 2d 4c 60 05 08    	and    ebp,DWORD PTR ds:0x805604c
 8048e11:	39 74 24 64          	cmp    DWORD PTR [esp+0x64],esi
 8048e15:	89 44 24 38          	mov    DWORD PTR [esp+0x38],eax
 8048e19:	89 6c 24 3c          	mov    DWORD PTR [esp+0x3c],ebp
 8048e1d:	0f 94 c0             	sete   al
 8048e20:	31 db                	xor    ebx,ebx
 8048e22:	85 ed                	test   ebp,ebp
 8048e24:	0f 94 c3             	sete   bl
 8048e27:	88 44 24 10          	mov    BYTE PTR [esp+0x10],al
 8048e2b:	23 5c 24 10          	and    ebx,DWORD PTR [esp+0x10]
 8048e2f:	09 5c 24 2c          	or     DWORD PTR [esp+0x2c],ebx
 8048e33:	8b 02                	mov    eax,DWORD PTR [edx]
 8048e35:	85 db                	test   ebx,ebx
 8048e37:	0f 45 01             	cmovne eax,DWORD PTR [ecx]
 8048e3a:	89 02                	mov    DWORD PTR [edx],eax
 8048e3c:	31 db                	xor    ebx,ebx
 8048e3e:	85 ed                	test   ebp,ebp
 8048e40:	0f b6 6c 24 10       	movzx  ebp,BYTE PTR [esp+0x10]
 8048e45:	0f 95 c3             	setne  bl
 8048e48:	8b 54 24 68          	mov    edx,DWORD PTR [esp+0x68]
 8048e4c:	8d 4c 24 38          	lea    ecx,[esp+0x38]
 8048e50:	21 eb                	and    ebx,ebp
 8048e52:	8b 02                	mov    eax,DWORD PTR [edx]
 8048e54:	85 db                	test   ebx,ebx
 8048e56:	0f 45 01             	cmovne eax,DWORD PTR [ecx]
 8048e59:	89 02                	mov    DWORD PTR [edx],eax
 8048e5b:	89 e8                	mov    eax,ebp
 8048e5d:	8b 4c 24 6c          	mov    ecx,DWORD PTR [esp+0x6c]
 8048e61:	0f b6 d8             	movzx  ebx,al
 8048e64:	8d 54 24 38          	lea    edx,[esp+0x38]
 8048e68:	8b 02                	mov    eax,DWORD PTR [edx]
 8048e6a:	85 db                	test   ebx,ebx
 8048e6c:	0f 45 01             	cmovne eax,DWORD PTR [ecx]
 8048e6f:	89 02                	mov    DWORD PTR [edx],eax
 8048e71:	8b 44 24 38          	mov    eax,DWORD PTR [esp+0x38]
 8048e75:	83 c6 01             	add    esi,0x1
 8048e78:	66 0b 44 24 3c       	or     ax,WORD PTR [esp+0x3c]
 8048e7d:	39 35 34 61 05 08    	cmp    DWORD PTR ds:0x8056134,esi
 8048e83:	66 89 07             	mov    WORD PTR [edi],ax
 8048e86:	0f 8f 64 ff ff ff    	jg     8048df0
 8048e8c:	f6 44 24 2c 01       	test   BYTE PTR [esp+0x2c],0x1
 8048e91:	75 16                	jne    8048ea9
 8048e93:	8b 44 24 2c          	mov    eax,DWORD PTR [esp+0x2c]
 8048e97:	83 c4 4c             	add    esp,0x4c
 8048e9a:	5b                   	pop    ebx
 8048e9b:	5e                   	pop    esi
 8048e9c:	5f                   	pop    edi
 8048e9d:	5d                   	pop    ebp
 8048e9e:	c3                   	ret
 8048e9f:	c7 44 24 2c 00 00 00 	mov    DWORD PTR [esp+0x2c],0x0
 8048ea6:	00 
 8048ea7:	eb ea                	jmp    8048e93
 8048ea9:	83 7c 24 60 01       	cmp    DWORD PTR [esp+0x60],0x1
 8048eae:	75 e3                	jne    8048e93
 8048eb0:	a1 80 60 05 08       	mov    eax,ds:0x8056080
 8048eb5:	c7 44 24 08 44 38 05 	mov    DWORD PTR [esp+0x8],0x8053844
 8048ebc:	08 
 8048ebd:	c7 44 24 04 01 00 00 	mov    DWORD PTR [esp+0x4],0x1
 8048ec4:	00 
 8048ec5:	89 04 24             	mov    DWORD PTR [esp],eax
 8048ec8:	e8 a3 f6 ff ff       	call   8048570
 8048ecd:	c7 44 24 0c c2 38 05 	mov    DWORD PTR [esp+0xc],0x80538c2
 8048ed4:	08 
 8048ed5:	c7 44 24 08 eb 00 00 	mov    DWORD PTR [esp+0x8],0xeb
 8048edc:	00 
 8048edd:	c7 44 24 04 e8 37 05 	mov    DWORD PTR [esp+0x4],0x80537e8
 8048ee4:	08 
 8048ee5:	c7 04 24 a1 38 05 08 	mov    DWORD PTR [esp],0x80538a1
 8048eec:	e8 9f f6 ff ff       	call   8048590
 8048ef1:	eb 0d                	jmp    8048f00
 8048ef3:	90                   	nop
 8048ef4:	90                   	nop
 8048ef5:	90                   	nop
 8048ef6:	90                   	nop
 8048ef7:	90                   	nop
 8048ef8:	90                   	nop
 8048ef9:	90                   	nop
 8048efa:	90                   	nop
 8048efb:	90                   	nop
 8048efc:	90                   	nop
 8048efd:	90                   	nop
 8048efe:	90                   	nop
 8048eff:	90                   	nop

08048f00 <Fetch_Blocks>:
 8048f00:	55                   	push   ebp
 8048f01:	57                   	push   edi
 8048f02:	56                   	push   esi
 8048f03:	53                   	push   ebx
 8048f04:	83 ec 3c             	sub    esp,0x3c
 8048f07:	a1 00 61 05 08       	mov    eax,ds:0x8056100
 8048f0c:	83 e8 01             	sub    eax,0x1
 8048f0f:	89 44 24 04          	mov    DWORD PTR [esp+0x4],eax
 8048f13:	8b 44 24 5c          	mov    eax,DWORD PTR [esp+0x5c]
 8048f17:	89 04 24             	mov    DWORD PTR [esp],eax
 8048f1a:	e8 21 0a 00 00       	call   8049940
 8048f1f:	8b 0d 00 61 05 08    	mov    ecx,DWORD PTR ds:0x8056100
 8048f25:	85 c9                	test   ecx,ecx
 8048f27:	89 44 24 20          	mov    DWORD PTR [esp+0x20],eax
 8048f2b:	0f 8e 08 01 00 00    	jle    8049039
 8048f31:	a1 04 61 05 08       	mov    eax,ds:0x8056104
 8048f36:	8b 2d 24 61 05 08    	mov    ebp,DWORD PTR ds:0x8056124
 8048f3c:	c7 44 24 24 00 00 00 	mov    DWORD PTR [esp+0x24],0x0
 8048f43:	00 
 8048f44:	c7 44 24 14 01 00 00 	mov    DWORD PTR [esp+0x14],0x1
 8048f4b:	00 
 8048f4c:	89 44 24 18          	mov    DWORD PTR [esp+0x18],eax
 8048f50:	a1 40 61 05 08       	mov    eax,ds:0x8056140
 8048f55:	c7 44 24 0c 00 00 00 	mov    DWORD PTR [esp+0xc],0x0
 8048f5c:	00 
 8048f5d:	89 44 24 28          	mov    DWORD PTR [esp+0x28],eax
 8048f61:	a1 44 61 05 08       	mov    eax,ds:0x8056144
 8048f66:	89 44 24 1c          	mov    DWORD PTR [esp+0x1c],eax
 8048f6a:	85 ed                	test   ebp,ebp
 8048f6c:	0f 8e 93 00 00 00    	jle    8049005
 8048f72:	8b 54 24 0c          	mov    edx,DWORD PTR [esp+0xc]
 8048f76:	8b 7c 24 28          	mov    edi,DWORD PTR [esp+0x28]
 8048f7a:	a1 20 61 05 08       	mov    eax,ds:0x8056120
 8048f7f:	c1 e2 04             	shl    edx,0x4
 8048f82:	8d 5c 17 04          	lea    ebx,[edi+edx+0x4]
 8048f86:	31 ff                	xor    edi,edi
 8048f88:	8b 54 24 14          	mov    edx,DWORD PTR [esp+0x14]
 8048f8c:	8d 48 03             	lea    ecx,[eax+0x3]
 8048f8f:	0f af d5             	imul   edx,ebp
 8048f92:	01 fa                	add    edx,edi
 8048f94:	0f af d1             	imul   edx,ecx
 8048f97:	8b 4c 24 18          	mov    ecx,DWORD PTR [esp+0x18]
 8048f9b:	c1 e2 02             	shl    edx,0x2
 8048f9e:	8d 34 11             	lea    esi,[ecx+edx]
 8048fa1:	8d 4c 11 0c          	lea    ecx,[ecx+edx+0xc]
 8048fa5:	8b 54 24 1c          	mov    edx,DWORD PTR [esp+0x1c]
 8048fa9:	89 4c 24 10          	mov    DWORD PTR [esp+0x10],ecx
 8048fad:	8b 4c 24 0c          	mov    ecx,DWORD PTR [esp+0xc]
 8048fb1:	0f af c8             	imul   ecx,eax
 8048fb4:	85 c0                	test   eax,eax
 8048fb6:	8d 0c 8a             	lea    ecx,[edx+ecx*4]
 8048fb9:	8b 16                	mov    edx,DWORD PTR [esi]
 8048fbb:	89 13                	mov    DWORD PTR [ebx],edx
 8048fbd:	8b 56 04             	mov    edx,DWORD PTR [esi+0x4]
 8048fc0:	89 53 04             	mov    DWORD PTR [ebx+0x4],edx
 8048fc3:	8b 56 08             	mov    edx,DWORD PTR [esi+0x8]
 8048fc6:	89 53 08             	mov    DWORD PTR [ebx+0x8],edx
 8048fc9:	c7 06 00 00 00 00    	mov    DWORD PTR [esi],0x0
 8048fcf:	7e 1f                	jle    8048ff0
 8048fd1:	8b 54 24 10          	mov    edx,DWORD PTR [esp+0x10]
 8048fd5:	31 f6                	xor    esi,esi
 8048fd7:	90                   	nop
 8048fd8:	8b 04 b2             	mov    eax,DWORD PTR [edx+esi*4]
 8048fdb:	89 04 b1             	mov    DWORD PTR [ecx+esi*4],eax
 8048fde:	a1 20 61 05 08       	mov    eax,ds:0x8056120
 8048fe3:	83 c6 01             	add    esi,0x1
 8048fe6:	39 f0                	cmp    eax,esi
 8048fe8:	7f ee                	jg     8048fd8
 8048fea:	8b 2d 24 61 05 08    	mov    ebp,DWORD PTR ds:0x8056124
 8048ff0:	83 c7 01             	add    edi,0x1
 8048ff3:	83 c3 10             	add    ebx,0x10
 8048ff6:	83 44 24 0c 01       	add    DWORD PTR [esp+0xc],0x1
 8048ffb:	39 ef                	cmp    edi,ebp
 8048ffd:	7c 89                	jl     8048f88
 8048fff:	8b 0d 00 61 05 08    	mov    ecx,DWORD PTR ds:0x8056100
 8049005:	8b 7c 24 20          	mov    edi,DWORD PTR [esp+0x20]
 8049009:	8b 5c 24 14          	mov    ebx,DWORD PTR [esp+0x14]
 804900d:	83 44 24 24 01       	add    DWORD PTR [esp+0x24],0x1
 8049012:	89 fa                	mov    edx,edi
 8049014:	89 f8                	mov    eax,edi
 8049016:	c1 ea 1f             	shr    edx,0x1f
 8049019:	01 d0                	add    eax,edx
 804901b:	83 e0 01             	and    eax,0x1
 804901e:	01 54 24 20          	add    DWORD PTR [esp+0x20],edx
 8049022:	29 d0                	sub    eax,edx
 8049024:	d1 7c 24 20          	sar    DWORD PTR [esp+0x20],1
 8049028:	39 4c 24 24          	cmp    DWORD PTR [esp+0x24],ecx
 804902c:	8d 04 58             	lea    eax,[eax+ebx*2]
 804902f:	89 44 24 14          	mov    DWORD PTR [esp+0x14],eax
 8049033:	0f 8c 31 ff ff ff    	jl     8048f6a
 8049039:	8b 15 3c 61 05 08    	mov    edx,DWORD PTR ds:0x805613c
 804903f:	85 d2                	test   edx,edx
 8049041:	0f 8e 87 01 00 00    	jle    80491ce
 8049047:	83 7c 24 50 01       	cmp    DWORD PTR [esp+0x50],0x1
 804904c:	8b 7c 24 58          	mov    edi,DWORD PTR [esp+0x58]
 8049050:	c7 44 24 14 00 00 00 	mov    DWORD PTR [esp+0x14],0x0
 8049057:	00 
 8049058:	0f 94 c0             	sete   al
 804905b:	83 7c 24 50 02       	cmp    DWORD PTR [esp+0x50],0x2
 8049060:	0f b6 c0             	movzx  eax,al
 8049063:	89 44 24 28          	mov    DWORD PTR [esp+0x28],eax
 8049067:	c7 44 24 24 00 00 00 	mov    DWORD PTR [esp+0x24],0x0
 804906e:	00 
 804906f:	0f 94 c0             	sete   al
 8049072:	0f b6 c0             	movzx  eax,al
 8049075:	89 44 24 2c          	mov    DWORD PTR [esp+0x2c],eax
 8049079:	8b 54 24 14          	mov    edx,DWORD PTR [esp+0x14]
 804907d:	8b 5c 24 54          	mov    ebx,DWORD PTR [esp+0x54]
 8049081:	89 d0                	mov    eax,edx
 8049083:	c1 e0 04             	shl    eax,0x4
 8049086:	89 44 24 10          	mov    DWORD PTR [esp+0x10],eax
 804908a:	a1 40 61 05 08       	mov    eax,ds:0x8056140
 804908f:	01 44 24 10          	add    DWORD PTR [esp+0x10],eax
 8049093:	0f af 15 20 61 05 08 	imul   edx,DWORD PTR ds:0x8056120
 804909a:	a1 44 61 05 08       	mov    eax,ds:0x8056144
 804909f:	8d 2c 90             	lea    ebp,[eax+edx*4]
 80490a2:	8b 44 24 10          	mov    eax,DWORD PTR [esp+0x10]
 80490a6:	39 58 08             	cmp    DWORD PTR [eax+0x8],ebx
 80490a9:	0f 84 3f 01 00 00    	je     80491ee
 80490af:	c7 44 24 20 00 00 00 	mov    DWORD PTR [esp+0x20],0x0
 80490b6:	00 
 80490b7:	31 db                	xor    ebx,ebx
 80490b9:	c7 44 24 18 00 00 00 	mov    DWORD PTR [esp+0x18],0x0
 80490c0:	00 
 80490c1:	8b 44 24 10          	mov    eax,DWORD PTR [esp+0x10]
 80490c5:	8d 4c 24 60          	lea    ecx,[esp+0x60]
 80490c9:	8d 50 0c             	lea    edx,[eax+0xc]
 80490cc:	89 54 24 1c          	mov    DWORD PTR [esp+0x1c],edx
 80490d0:	8b 02                	mov    eax,DWORD PTR [edx]
 80490d2:	85 db                	test   ebx,ebx
 80490d4:	0f 45 01             	cmovne eax,DWORD PTR [ecx]
 80490d7:	89 02                	mov    DWORD PTR [edx],eax
 80490d9:	a1 20 61 05 08       	mov    eax,ds:0x8056120
 80490de:	31 f6                	xor    esi,esi
 80490e0:	8d 1c 85 00 00 00 00 	lea    ebx,[eax*4]
 80490e7:	85 c0                	test   eax,eax
 80490e9:	89 5c 24 0c          	mov    DWORD PTR [esp+0xc],ebx
 80490ed:	8b 5c 24 18          	mov    ebx,DWORD PTR [esp+0x18]
 80490f1:	7e 4e                	jle    8049141
 80490f3:	90                   	nop
 80490f4:	8d 74 26 00          	lea    esi,[esi]
 80490f8:	8d 0c 2e             	lea    ecx,[esi+ebp]
 80490fb:	8d 14 3e             	lea    edx,[esi+edi]
 80490fe:	8b 02                	mov    eax,DWORD PTR [edx]
 8049100:	85 db                	test   ebx,ebx
 8049102:	0f 45 01             	cmovne eax,DWORD PTR [ecx]
 8049105:	89 02                	mov    DWORD PTR [edx],eax
 8049107:	83 c6 04             	add    esi,0x4
 804910a:	3b 74 24 0c          	cmp    esi,DWORD PTR [esp+0xc]
 804910e:	75 e8                	jne    80490f8
 8049110:	a1 20 61 05 08       	mov    eax,ds:0x8056120
 8049115:	85 c0                	test   eax,eax
 8049117:	7e 28                	jle    8049141
 8049119:	8b 5c 24 20          	mov    ebx,DWORD PTR [esp+0x20]
 804911d:	c1 e0 02             	shl    eax,0x2
 8049120:	31 f6                	xor    esi,esi
 8049122:	89 44 24 0c          	mov    DWORD PTR [esp+0xc],eax
 8049126:	66 90                	xchg   ax,ax
 8049128:	8d 0c 37             	lea    ecx,[edi+esi]
 804912b:	8d 54 35 00          	lea    edx,[ebp+esi]
 804912f:	8b 02                	mov    eax,DWORD PTR [edx]
 8049131:	85 db                	test   ebx,ebx
 8049133:	0f 45 01             	cmovne eax,DWORD PTR [ecx]
 8049136:	89 02                	mov    DWORD PTR [edx],eax
 8049138:	83 c6 04             	add    esi,0x4
 804913b:	3b 74 24 0c          	cmp    esi,DWORD PTR [esp+0xc]
 804913f:	75 e7                	jne    8049128
 8049141:	8b 44 24 64          	mov    eax,DWORD PTR [esp+0x64]
 8049145:	85 c0                	test   eax,eax
 8049147:	0f 85 89 00 00 00    	jne    80491d6
 804914d:	8b 74 24 10          	mov    esi,DWORD PTR [esp+0x10]
 8049151:	31 db                	xor    ebx,ebx
 8049153:	09 5c 24 24          	or     DWORD PTR [esp+0x24],ebx
 8049157:	b9 58 60 05 08       	mov    ecx,0x8056058
 804915c:	8d 56 04             	lea    edx,[esi+0x4]
 804915f:	8b 02                	mov    eax,DWORD PTR [edx]
 8049161:	85 db                	test   ebx,ebx
 8049163:	0f 45 01             	cmovne eax,DWORD PTR [ecx]
 8049166:	89 02                	mov    DWORD PTR [edx],eax
 8049168:	8d 56 08             	lea    edx,[esi+0x8]
 804916b:	8d 4c 24 54          	lea    ecx,[esp+0x54]
 804916f:	8b 02                	mov    eax,DWORD PTR [edx]
 8049171:	85 db                	test   ebx,ebx
 8049173:	0f 45 01             	cmovne eax,DWORD PTR [ecx]
 8049176:	89 02                	mov    DWORD PTR [edx],eax
 8049178:	8d 4c 24 60          	lea    ecx,[esp+0x60]
 804917c:	8b 54 24 1c          	mov    edx,DWORD PTR [esp+0x1c]
 8049180:	8b 02                	mov    eax,DWORD PTR [edx]
 8049182:	85 db                	test   ebx,ebx
 8049184:	0f 45 01             	cmovne eax,DWORD PTR [ecx]
 8049187:	89 02                	mov    DWORD PTR [edx],eax
 8049189:	a1 20 61 05 08       	mov    eax,ds:0x8056120
 804918e:	31 f6                	xor    esi,esi
 8049190:	8d 0c 85 00 00 00 00 	lea    ecx,[eax*4]
 8049197:	85 c0                	test   eax,eax
 8049199:	89 4c 24 0c          	mov    DWORD PTR [esp+0xc],ecx
 804919d:	7e 1a                	jle    80491b9
 804919f:	90                   	nop
 80491a0:	8d 0c 37             	lea    ecx,[edi+esi]
 80491a3:	8d 54 35 00          	lea    edx,[ebp+esi]
 80491a7:	8b 02                	mov    eax,DWORD PTR [edx]
 80491a9:	85 db                	test   ebx,ebx
 80491ab:	0f 45 01             	cmovne eax,DWORD PTR [ecx]
 80491ae:	89 02                	mov    DWORD PTR [edx],eax
 80491b0:	83 c6 04             	add    esi,0x4
 80491b3:	3b 74 24 0c          	cmp    esi,DWORD PTR [esp+0xc]
 80491b7:	75 e7                	jne    80491a0
 80491b9:	83 44 24 14 01       	add    DWORD PTR [esp+0x14],0x1
 80491be:	8b 44 24 14          	mov    eax,DWORD PTR [esp+0x14]
 80491c2:	39 05 3c 61 05 08    	cmp    DWORD PTR ds:0x805613c,eax
 80491c8:	0f 8f ab fe ff ff    	jg     8049079
 80491ce:	83 c4 3c             	add    esp,0x3c
 80491d1:	5b                   	pop    ebx
 80491d2:	5e                   	pop    esi
 80491d3:	5f                   	pop    edi
 80491d4:	5d                   	pop    ebp
 80491d5:	c3                   	ret
 80491d6:	8b 44 24 10          	mov    eax,DWORD PTR [esp+0x10]
 80491da:	8b 5c 24 24          	mov    ebx,DWORD PTR [esp+0x24]
 80491de:	0b 58 04             	or     ebx,DWORD PTR [eax+0x4]
 80491e1:	89 c6                	mov    esi,eax
 80491e3:	0f 94 c3             	sete   bl
 80491e6:	0f b6 db             	movzx  ebx,bl
 80491e9:	e9 65 ff ff ff       	jmp    8049153
 80491ee:	8b 40 04             	mov    eax,DWORD PTR [eax+0x4]
 80491f1:	85 c0                	test   eax,eax
 80491f3:	89 44 24 18          	mov    DWORD PTR [esp+0x18],eax
 80491f7:	74 1a                	je     8049213
 80491f9:	8b 44 24 28          	mov    eax,DWORD PTR [esp+0x28]
 80491fd:	bb 01 00 00 00       	mov    ebx,0x1
 8049202:	89 44 24 18          	mov    DWORD PTR [esp+0x18],eax
 8049206:	8b 44 24 2c          	mov    eax,DWORD PTR [esp+0x2c]
 804920a:	89 44 24 20          	mov    DWORD PTR [esp+0x20],eax
 804920e:	e9 ae fe ff ff       	jmp    80490c1
 8049213:	c7 44 24 20 00 00 00 	mov    DWORD PTR [esp+0x20],0x0
 804921a:	00 
 804921b:	31 db                	xor    ebx,ebx
 804921d:	e9 9f fe ff ff       	jmp    80490c1
 8049222:	8d b4 26 00 00 00 00 	lea    esi,[esi]
 8049229:	8d bc 27 00 00 00 00 	lea    edi,[edi]

08049230 <Store_Blocks>:
 8049230:	55                   	push   ebp
 8049231:	57                   	push   edi
 8049232:	56                   	push   esi
 8049233:	53                   	push   ebx
 8049234:	83 ec 7c             	sub    esp,0x7c
 8049237:	8b 15 00 61 05 08    	mov    edx,DWORD PTR ds:0x8056100
 804923d:	a1 24 61 05 08       	mov    eax,ds:0x8056124
 8049242:	0f af c2             	imul   eax,edx
 8049245:	85 c0                	test   eax,eax
 8049247:	7e 25                	jle    804926e
 8049249:	8b 1d ac 60 05 08    	mov    ebx,DWORD PTR ds:0x80560ac
 804924f:	31 c0                	xor    eax,eax
 8049251:	c7 04 83 ff ff ff ff 	mov    DWORD PTR [ebx+eax*4],0xffffffff
 8049258:	8b 15 00 61 05 08    	mov    edx,DWORD PTR ds:0x8056100
 804925e:	83 c0 01             	add    eax,0x1
 8049261:	8b 0d 24 61 05 08    	mov    ecx,DWORD PTR ds:0x8056124
 8049267:	0f af ca             	imul   ecx,edx
 804926a:	39 c1                	cmp    ecx,eax
 804926c:	7f e3                	jg     8049251
 804926e:	85 d2                	test   edx,edx
 8049270:	7e 1c                	jle    804928e
 8049272:	8b 0d a8 60 05 08    	mov    ecx,DWORD PTR ds:0x80560a8
 8049278:	31 c0                	xor    eax,eax
 804927a:	c7 04 81 00 00 00 00 	mov    DWORD PTR [ecx+eax*4],0x0
 8049281:	8b 15 00 61 05 08    	mov    edx,DWORD PTR ds:0x8056100
 8049287:	83 c0 01             	add    eax,0x1
 804928a:	39 c2                	cmp    edx,eax
 804928c:	7f ec                	jg     804927a
 804928e:	a1 3c 61 05 08       	mov    eax,ds:0x805613c
 8049293:	c7 44 24 5c 00 00 00 	mov    DWORD PTR [esp+0x5c],0x0
 804929a:	00 
 804929b:	85 c0                	test   eax,eax
 804929d:	0f 8e 7b 01 00 00    	jle    804941e
 80492a3:	31 c9                	xor    ecx,ecx
 80492a5:	8d 6c 24 60          	lea    ebp,[esp+0x60]
 80492a9:	89 c8                	mov    eax,ecx
 80492ab:	eb 06                	jmp    80492b3
 80492ad:	8b 15 00 61 05 08    	mov    edx,DWORD PTR ds:0x8056100
 80492b3:	c1 e0 04             	shl    eax,0x4
 80492b6:	03 05 40 61 05 08    	add    eax,DWORD PTR ds:0x8056140
 80492bc:	8b 58 04             	mov    ebx,DWORD PTR [eax+0x4]
 80492bf:	89 54 24 0c          	mov    DWORD PTR [esp+0xc],edx
 80492c3:	8b 15 a8 60 05 08    	mov    edx,DWORD PTR ds:0x80560a8
 80492c9:	89 54 24 08          	mov    DWORD PTR [esp+0x8],edx
 80492cd:	8b 40 0c             	mov    eax,DWORD PTR [eax+0xc]
 80492d0:	89 44 24 04          	mov    DWORD PTR [esp+0x4],eax
 80492d4:	8b 84 24 90 00 00 00 	mov    eax,DWORD PTR [esp+0x90]
 80492db:	89 04 24             	mov    DWORD PTR [esp],eax
 80492de:	e8 9d f6 ff ff       	call   8048980
 80492e3:	89 6c 24 0c          	mov    DWORD PTR [esp+0xc],ebp
 80492e7:	c7 44 24 08 01 00 00 	mov    DWORD PTR [esp+0x8],0x1
 80492ee:	00 
 80492ef:	c7 44 24 60 00 00 00 	mov    DWORD PTR [esp+0x60],0x0
 80492f6:	00 
 80492f7:	89 c7                	mov    edi,eax
 80492f9:	f7 d0                	not    eax
 80492fb:	c1 e8 1f             	shr    eax,0x1f
 80492fe:	85 db                	test   ebx,ebx
 8049300:	0f 95 c3             	setne  bl
 8049303:	89 de                	mov    esi,ebx
 8049305:	21 c6                	and    esi,eax
 8049307:	89 f0                	mov    eax,esi
 8049309:	0f b6 d8             	movzx  ebx,al
 804930c:	a1 00 61 05 08       	mov    eax,ds:0x8056100
 8049311:	89 7c 24 10          	mov    DWORD PTR [esp+0x10],edi
 8049315:	89 44 24 04          	mov    DWORD PTR [esp+0x4],eax
 8049319:	a1 a8 60 05 08       	mov    eax,ds:0x80560a8
 804931e:	89 04 24             	mov    DWORD PTR [esp],eax
 8049321:	e8 fa 04 00 00       	call   8049820
 8049326:	a1 24 61 05 08       	mov    eax,ds:0x8056124
 804932b:	8d 4c 24 5c          	lea    ecx,[esp+0x5c]
 804932f:	c7 44 24 68 00 00 00 	mov    DWORD PTR [esp+0x68],0x0
 8049336:	00 
 8049337:	8d 54 24 68          	lea    edx,[esp+0x68]
 804933b:	0f af c7             	imul   eax,edi
 804933e:	03 44 24 60          	add    eax,DWORD PTR [esp+0x60]
 8049342:	89 44 24 64          	mov    DWORD PTR [esp+0x64],eax
 8049346:	8b 02                	mov    eax,DWORD PTR [edx]
 8049348:	85 db                	test   ebx,ebx
 804934a:	0f 45 01             	cmovne eax,DWORD PTR [ecx]
 804934d:	89 02                	mov    DWORD PTR [edx],eax
 804934f:	8b 44 24 64          	mov    eax,DWORD PTR [esp+0x64]
 8049353:	89 54 24 0c          	mov    DWORD PTR [esp+0xc],edx
 8049357:	c7 44 24 08 01 00 00 	mov    DWORD PTR [esp+0x8],0x1
 804935e:	00 
 804935f:	89 44 24 10          	mov    DWORD PTR [esp+0x10],eax
 8049363:	a1 00 61 05 08       	mov    eax,ds:0x8056100
 8049368:	0f af 05 24 61 05 08 	imul   eax,DWORD PTR ds:0x8056124
 804936f:	89 44 24 04          	mov    DWORD PTR [esp+0x4],eax
 8049373:	a1 ac 60 05 08       	mov    eax,ds:0x80560ac
 8049378:	89 04 24             	mov    DWORD PTR [esp],eax
 804937b:	e8 20 05 00 00       	call   80498a0
 8049380:	8b 44 24 60          	mov    eax,DWORD PTR [esp+0x60]
 8049384:	8d 4c 24 6c          	lea    ecx,[esp+0x6c]
 8049388:	89 ea                	mov    edx,ebp
 804938a:	83 c0 01             	add    eax,0x1
 804938d:	89 44 24 6c          	mov    DWORD PTR [esp+0x6c],eax
 8049391:	8b 02                	mov    eax,DWORD PTR [edx]
 8049393:	85 db                	test   ebx,ebx
 8049395:	0f 45 01             	cmovne eax,DWORD PTR [ecx]
 8049398:	89 02                	mov    DWORD PTR [edx],eax
 804939a:	a1 00 61 05 08       	mov    eax,ds:0x8056100
 804939f:	89 7c 24 10          	mov    DWORD PTR [esp+0x10],edi
 80493a3:	89 6c 24 0c          	mov    DWORD PTR [esp+0xc],ebp
 80493a7:	c7 44 24 08 01 00 00 	mov    DWORD PTR [esp+0x8],0x1
 80493ae:	00 
 80493af:	89 44 24 04          	mov    DWORD PTR [esp+0x4],eax
 80493b3:	a1 a8 60 05 08       	mov    eax,ds:0x80560a8
 80493b8:	89 04 24             	mov    DWORD PTR [esp],eax
 80493bb:	e8 e0 04 00 00       	call   80498a0
 80493c0:	8b 54 24 5c          	mov    edx,DWORD PTR [esp+0x5c]
 80493c4:	8d 4c 24 64          	lea    ecx,[esp+0x64]
 80493c8:	c1 e2 04             	shl    edx,0x4
 80493cb:	03 15 40 61 05 08    	add    edx,DWORD PTR ds:0x8056140
 80493d1:	8b 02                	mov    eax,DWORD PTR [edx]
 80493d3:	85 db                	test   ebx,ebx
 80493d5:	0f 45 01             	cmovne eax,DWORD PTR [ecx]
 80493d8:	89 02                	mov    DWORD PTR [edx],eax
 80493da:	8b 54 24 5c          	mov    edx,DWORD PTR [esp+0x5c]
 80493de:	89 f3                	mov    ebx,esi
 80493e0:	b9 54 60 05 08       	mov    ecx,0x8056054
 80493e5:	83 f3 01             	xor    ebx,0x1
 80493e8:	0f b6 db             	movzx  ebx,bl
 80493eb:	c1 e2 04             	shl    edx,0x4
 80493ee:	03 15 40 61 05 08    	add    edx,DWORD PTR ds:0x8056140
 80493f4:	8b 02                	mov    eax,DWORD PTR [edx]
 80493f6:	85 db                	test   ebx,ebx
 80493f8:	0f 45 01             	cmovne eax,DWORD PTR [ecx]
 80493fb:	89 02                	mov    DWORD PTR [edx],eax
 80493fd:	8b 44 24 5c          	mov    eax,DWORD PTR [esp+0x5c]
 8049401:	8b 15 3c 61 05 08    	mov    edx,DWORD PTR ds:0x805613c
 8049407:	83 c0 01             	add    eax,0x1
 804940a:	39 c2                	cmp    edx,eax
 804940c:	89 44 24 5c          	mov    DWORD PTR [esp+0x5c],eax
 8049410:	0f 8f 97 fe ff ff    	jg     80492ad
 8049416:	89 d0                	mov    eax,edx
 8049418:	8b 15 00 61 05 08    	mov    edx,DWORD PTR ds:0x8056100
 804941e:	8b 35 24 61 05 08    	mov    esi,DWORD PTR ds:0x8056124
 8049424:	c7 44 24 6c 00 00 00 	mov    DWORD PTR [esp+0x6c],0x0
 804942b:	00 
 804942c:	89 f1                	mov    ecx,esi
 804942e:	0f af ca             	imul   ecx,edx
 8049431:	85 c9                	test   ecx,ecx
 8049433:	0f 8e 8c 00 00 00    	jle    80494c5
 8049439:	31 db                	xor    ebx,ebx
 804943b:	8d 4c 24 6c          	lea    ecx,[esp+0x6c]
 804943f:	8b 3d ac 60 05 08    	mov    edi,DWORD PTR ds:0x80560ac
 8049445:	83 3c 9f ff          	cmp    DWORD PTR [edi+ebx*4],0xff
 8049449:	0f 94 44 24 30       	sete   BYTE PTR [esp+0x30]
 804944e:	85 c0                	test   eax,eax
 8049450:	7e 5f                	jle    80494b1
 8049452:	31 ed                	xor    ebp,ebp
 8049454:	31 ff                	xor    edi,edi
 8049456:	31 f6                	xor    esi,esi
 8049458:	8b 15 40 61 05 08    	mov    edx,DWORD PTR ds:0x8056140
 804945e:	01 ea                	add    edx,ebp
 8049460:	f7 c6 01 00 00 00    	test   esi,0x1
 8049466:	0f 85 ec 01 00 00    	jne    8049658
 804946c:	80 7c 24 30 00       	cmp    BYTE PTR [esp+0x30],0x0
 8049471:	0f 84 e1 01 00 00    	je     8049658
 8049477:	8b 42 04             	mov    eax,DWORD PTR [edx+0x4]
 804947a:	bb 01 00 00 00       	mov    ebx,0x1
 804947f:	85 c0                	test   eax,eax
 8049481:	0f 85 d1 01 00 00    	jne    8049658
 8049487:	8b 02                	mov    eax,DWORD PTR [edx]
 8049489:	85 db                	test   ebx,ebx
 804948b:	0f 45 01             	cmovne eax,DWORD PTR [ecx]
 804948e:	89 02                	mov    DWORD PTR [edx],eax
 8049490:	a1 3c 61 05 08       	mov    eax,ds:0x805613c
 8049495:	83 c7 01             	add    edi,0x1
 8049498:	09 de                	or     esi,ebx
 804949a:	83 c5 10             	add    ebp,0x10
 804949d:	39 f8                	cmp    eax,edi
 804949f:	7f b7                	jg     8049458
 80494a1:	8b 15 00 61 05 08    	mov    edx,DWORD PTR ds:0x8056100
 80494a7:	8b 35 24 61 05 08    	mov    esi,DWORD PTR ds:0x8056124
 80494ad:	8b 5c 24 6c          	mov    ebx,DWORD PTR [esp+0x6c]
 80494b1:	89 d7                	mov    edi,edx
 80494b3:	83 c3 01             	add    ebx,0x1
 80494b6:	0f af fe             	imul   edi,esi
 80494b9:	89 5c 24 6c          	mov    DWORD PTR [esp+0x6c],ebx
 80494bd:	39 df                	cmp    edi,ebx
 80494bf:	0f 8f 7a ff ff ff    	jg     804943f
 80494c5:	89 44 24 08          	mov    DWORD PTR [esp+0x8],eax
 80494c9:	a1 44 61 05 08       	mov    eax,ds:0x8056144
 80494ce:	8b 15 20 61 05 08    	mov    edx,DWORD PTR ds:0x8056120
 80494d4:	c7 44 24 1c 04 00 00 	mov    DWORD PTR [esp+0x1c],0x4
 80494db:	00 
 80494dc:	c7 44 24 18 01 00 00 	mov    DWORD PTR [esp+0x18],0x1
 80494e3:	00 
 80494e4:	89 44 24 04          	mov    DWORD PTR [esp+0x4],eax
 80494e8:	a1 40 61 05 08       	mov    eax,ds:0x8056140
 80494ed:	89 54 24 20          	mov    DWORD PTR [esp+0x20],edx
 80494f1:	c7 44 24 14 01 00 00 	mov    DWORD PTR [esp+0x14],0x1
 80494f8:	00 
 80494f9:	c7 44 24 10 01 00 00 	mov    DWORD PTR [esp+0x10],0x1
 8049500:	00 
 8049501:	89 04 24             	mov    DWORD PTR [esp],eax
 8049504:	c7 44 24 0c 00 00 00 	mov    DWORD PTR [esp+0xc],0x0
 804950b:	00 
 804950c:	ff 15 08 61 05 08    	call   DWORD PTR ds:0x8056108
 8049512:	a1 00 61 05 08       	mov    eax,ds:0x8056100
 8049517:	83 e8 01             	sub    eax,0x1
 804951a:	89 44 24 04          	mov    DWORD PTR [esp+0x4],eax
 804951e:	8b 84 24 90 00 00 00 	mov    eax,DWORD PTR [esp+0x90]
 8049525:	89 04 24             	mov    DWORD PTR [esp],eax
 8049528:	e8 13 04 00 00       	call   8049940
 804952d:	8b 0d 00 61 05 08    	mov    ecx,DWORD PTR ds:0x8056100
 8049533:	85 c9                	test   ecx,ecx
 8049535:	89 44 24 44          	mov    DWORD PTR [esp+0x44],eax
 8049539:	0f 8e 0a 01 00 00    	jle    8049649
 804953f:	a1 04 61 05 08       	mov    eax,ds:0x8056104
 8049544:	8b 2d 24 61 05 08    	mov    ebp,DWORD PTR ds:0x8056124
 804954a:	c7 44 24 48 00 00 00 	mov    DWORD PTR [esp+0x48],0x0
 8049551:	00 
 8049552:	c7 44 24 38 01 00 00 	mov    DWORD PTR [esp+0x38],0x1
 8049559:	00 
 804955a:	89 44 24 3c          	mov    DWORD PTR [esp+0x3c],eax
 804955e:	a1 40 61 05 08       	mov    eax,ds:0x8056140
 8049563:	c7 44 24 30 00 00 00 	mov    DWORD PTR [esp+0x30],0x0
 804956a:	00 
 804956b:	89 44 24 4c          	mov    DWORD PTR [esp+0x4c],eax
 804956f:	a1 44 61 05 08       	mov    eax,ds:0x8056144
 8049574:	89 44 24 40          	mov    DWORD PTR [esp+0x40],eax
 8049578:	85 ed                	test   ebp,ebp
 804957a:	0f 8e 95 00 00 00    	jle    8049615
 8049580:	8b 54 24 30          	mov    edx,DWORD PTR [esp+0x30]
 8049584:	8b 74 24 4c          	mov    esi,DWORD PTR [esp+0x4c]
 8049588:	a1 20 61 05 08       	mov    eax,ds:0x8056120
 804958d:	c1 e2 04             	shl    edx,0x4
 8049590:	8d 5c 16 04          	lea    ebx,[esi+edx+0x4]
 8049594:	31 f6                	xor    esi,esi
 8049596:	66 90                	xchg   ax,ax
 8049598:	8b 54 24 38          	mov    edx,DWORD PTR [esp+0x38]
 804959c:	8d 48 03             	lea    ecx,[eax+0x3]
 804959f:	0f af d5             	imul   edx,ebp
 80495a2:	01 f2                	add    edx,esi
 80495a4:	0f af d1             	imul   edx,ecx
 80495a7:	8b 4c 24 3c          	mov    ecx,DWORD PTR [esp+0x3c]
 80495ab:	c1 e2 02             	shl    edx,0x2
 80495ae:	8d 3c 11             	lea    edi,[ecx+edx]
 80495b1:	8d 4c 11 0c          	lea    ecx,[ecx+edx+0xc]
 80495b5:	8b 54 24 40          	mov    edx,DWORD PTR [esp+0x40]
 80495b9:	89 4c 24 34          	mov    DWORD PTR [esp+0x34],ecx
 80495bd:	8b 4c 24 30          	mov    ecx,DWORD PTR [esp+0x30]
 80495c1:	0f af c8             	imul   ecx,eax
 80495c4:	85 c0                	test   eax,eax
 80495c6:	8d 0c 8a             	lea    ecx,[edx+ecx*4]
 80495c9:	8b 13                	mov    edx,DWORD PTR [ebx]
 80495cb:	89 17                	mov    DWORD PTR [edi],edx
 80495cd:	8b 53 04             	mov    edx,DWORD PTR [ebx+0x4]
 80495d0:	89 57 04             	mov    DWORD PTR [edi+0x4],edx
 80495d3:	8b 53 08             	mov    edx,DWORD PTR [ebx+0x8]
 80495d6:	89 57 08             	mov    DWORD PTR [edi+0x8],edx
 80495d9:	c7 03 00 00 00 00    	mov    DWORD PTR [ebx],0x0
 80495df:	7e 1f                	jle    8049600
 80495e1:	8b 54 24 34          	mov    edx,DWORD PTR [esp+0x34]
 80495e5:	31 ff                	xor    edi,edi
 80495e7:	90                   	nop
 80495e8:	8b 04 b9             	mov    eax,DWORD PTR [ecx+edi*4]
 80495eb:	89 04 ba             	mov    DWORD PTR [edx+edi*4],eax
 80495ee:	a1 20 61 05 08       	mov    eax,ds:0x8056120
 80495f3:	83 c7 01             	add    edi,0x1
 80495f6:	39 f8                	cmp    eax,edi
 80495f8:	7f ee                	jg     80495e8
 80495fa:	8b 2d 24 61 05 08    	mov    ebp,DWORD PTR ds:0x8056124
 8049600:	83 c6 01             	add    esi,0x1
 8049603:	83 c3 10             	add    ebx,0x10
 8049606:	83 44 24 30 01       	add    DWORD PTR [esp+0x30],0x1
 804960b:	39 ee                	cmp    esi,ebp
 804960d:	7c 89                	jl     8049598
 804960f:	8b 0d 00 61 05 08    	mov    ecx,DWORD PTR ds:0x8056100
 8049615:	8b 74 24 44          	mov    esi,DWORD PTR [esp+0x44]
 8049619:	8b 5c 24 38          	mov    ebx,DWORD PTR [esp+0x38]
 804961d:	83 44 24 48 01       	add    DWORD PTR [esp+0x48],0x1
 8049622:	89 f2                	mov    edx,esi
 8049624:	89 f0                	mov    eax,esi
 8049626:	c1 ea 1f             	shr    edx,0x1f
 8049629:	01 d0                	add    eax,edx
 804962b:	83 e0 01             	and    eax,0x1
 804962e:	01 54 24 44          	add    DWORD PTR [esp+0x44],edx
 8049632:	29 d0                	sub    eax,edx
 8049634:	d1 7c 24 44          	sar    DWORD PTR [esp+0x44],1
 8049638:	39 4c 24 48          	cmp    DWORD PTR [esp+0x48],ecx
 804963c:	8d 04 58             	lea    eax,[eax+ebx*2]
 804963f:	89 44 24 38          	mov    DWORD PTR [esp+0x38],eax
 8049643:	0f 8c 2f ff ff ff    	jl     8049578
 8049649:	83 c4 7c             	add    esp,0x7c
 804964c:	5b                   	pop    ebx
 804964d:	5e                   	pop    esi
 804964e:	5f                   	pop    edi
 804964f:	5d                   	pop    ebp
 8049650:	c3                   	ret
 8049651:	8d b4 26 00 00 00 00 	lea    esi,[esi]
 8049658:	31 db                	xor    ebx,ebx
 804965a:	e9 28 fe ff ff       	jmp    8049487
 804965f:	90                   	nop

08049660 <Access_ORAM>:
 8049660:	56                   	push   esi
 8049661:	53                   	push   ebx
 8049662:	83 ec 34             	sub    esp,0x34
 8049665:	8b 74 24 40          	mov    esi,DWORD PTR [esp+0x40]
 8049669:	8b 5c 24 44          	mov    ebx,DWORD PTR [esp+0x44]
 804966d:	8d 46 ff             	lea    eax,[esi-0x1]
 8049670:	83 f8 01             	cmp    eax,0x1
 8049673:	0f 87 d0 00 00 00    	ja     8049749
 8049679:	85 db                	test   ebx,ebx
 804967b:	78 7e                	js     80496fb
 804967d:	3b 1d 34 61 05 08    	cmp    ebx,DWORD PTR ds:0x8056134
 8049683:	7d 76                	jge    80496fb
 8049685:	e8 c6 ee ff ff       	call   8048550
 804968a:	99                   	cdq
 804968b:	f7 3d 2c 61 05 08    	idiv   DWORD PTR ds:0x805612c
 8049691:	89 54 24 28          	mov    DWORD PTR [esp+0x28],edx
 8049695:	e8 b6 ee ff ff       	call   8048550
 804969a:	89 5c 24 04          	mov    DWORD PTR [esp+0x4],ebx
 804969e:	89 34 24             	mov    DWORD PTR [esp],esi
 80496a1:	99                   	cdq
 80496a2:	f7 3d 2c 61 05 08    	idiv   DWORD PTR ds:0x805612c
 80496a8:	8d 44 24 2c          	lea    eax,[esp+0x2c]
 80496ac:	89 44 24 0c          	mov    DWORD PTR [esp+0xc],eax
 80496b0:	8d 44 24 28          	lea    eax,[esp+0x28]
 80496b4:	89 44 24 08          	mov    DWORD PTR [esp+0x8],eax
 80496b8:	89 54 24 2c          	mov    DWORD PTR [esp+0x2c],edx
 80496bc:	e8 0f f7 ff ff       	call   8048dd0
 80496c1:	89 5c 24 04          	mov    DWORD PTR [esp+0x4],ebx
 80496c5:	89 34 24             	mov    DWORD PTR [esp],esi
 80496c8:	89 44 24 14          	mov    DWORD PTR [esp+0x14],eax
 80496cc:	8b 44 24 2c          	mov    eax,DWORD PTR [esp+0x2c]
 80496d0:	89 44 24 10          	mov    DWORD PTR [esp+0x10],eax
 80496d4:	8b 44 24 28          	mov    eax,DWORD PTR [esp+0x28]
 80496d8:	89 44 24 0c          	mov    DWORD PTR [esp+0xc],eax
 80496dc:	8b 44 24 48          	mov    eax,DWORD PTR [esp+0x48]
 80496e0:	89 44 24 08          	mov    DWORD PTR [esp+0x8],eax
 80496e4:	e8 17 f8 ff ff       	call   8048f00
 80496e9:	8b 44 24 28          	mov    eax,DWORD PTR [esp+0x28]
 80496ed:	89 04 24             	mov    DWORD PTR [esp],eax
 80496f0:	e8 3b fb ff ff       	call   8049230
 80496f5:	83 c4 34             	add    esp,0x34
 80496f8:	5b                   	pop    ebx
 80496f9:	5e                   	pop    esi
 80496fa:	c3                   	ret
 80496fb:	a1 34 61 05 08       	mov    eax,ds:0x8056134
 8049700:	89 5c 24 0c          	mov    DWORD PTR [esp+0xc],ebx
 8049704:	c7 44 24 08 64 38 05 	mov    DWORD PTR [esp+0x8],0x8053864
 804970b:	08 
 804970c:	c7 44 24 04 01 00 00 	mov    DWORD PTR [esp+0x4],0x1
 8049713:	00 
 8049714:	89 44 24 10          	mov    DWORD PTR [esp+0x10],eax
 8049718:	a1 80 60 05 08       	mov    eax,ds:0x8056080
 804971d:	89 04 24             	mov    DWORD PTR [esp],eax
 8049720:	e8 4b ee ff ff       	call   8048570
 8049725:	c7 44 24 0c b6 38 05 	mov    DWORD PTR [esp+0xc],0x80538b6
 804972c:	08 
 804972d:	c7 44 24 08 a6 01 00 	mov    DWORD PTR [esp+0x8],0x1a6
 8049734:	00 
 8049735:	c7 44 24 04 e8 37 05 	mov    DWORD PTR [esp+0x4],0x80537e8
 804973c:	08 
 804973d:	c7 04 24 a1 38 05 08 	mov    DWORD PTR [esp],0x80538a1
 8049744:	e8 47 ee ff ff       	call   8048590
 8049749:	c7 44 24 0c b6 38 05 	mov    DWORD PTR [esp+0xc],0x80538b6
 8049750:	08 
 8049751:	c7 44 24 08 a3 01 00 	mov    DWORD PTR [esp+0x8],0x1a3
 8049758:	00 
 8049759:	c7 44 24 04 e8 37 05 	mov    DWORD PTR [esp+0x4],0x80537e8
 8049760:	08 
 8049761:	c7 04 24 a3 38 05 08 	mov    DWORD PTR [esp],0x80538a3
 8049768:	e8 23 ee ff ff       	call   8048590
 804976d:	8d 76 00             	lea    esi,[esi]

08049770 <Func_Time_Measure_Begin>:
 8049770:	f3 c3                	repz   ret
 8049772:	8d b4 26 00 00 00 00 	lea    esi,[esi]
 8049779:	8d bc 27 00 00 00 00 	lea    edi,[edi]

08049780 <Print_Func_Time_Stats>:
 8049780:	f3 c3                	repz   ret
 8049782:	8d b4 26 00 00 00 00 	lea    esi,[esi]
 8049789:	8d bc 27 00 00 00 00 	lea    edi,[edi]

08049790 <Print_All>:
 8049790:	f3 c3                	repz   ret
 8049792:	8d b4 26 00 00 00 00 	lea    esi,[esi]
 8049799:	8d bc 27 00 00 00 00 	lea    edi,[edi]

080497a0 <Print_ORAM>:
 80497a0:	f3 c3                	repz   ret
 80497a2:	8d b4 26 00 00 00 00 	lea    esi,[esi]
 80497a9:	8d bc 27 00 00 00 00 	lea    edi,[edi]

080497b0 <Print_Stash>:
 80497b0:	f3 c3                	repz   ret
 80497b2:	8d b4 26 00 00 00 00 	lea    esi,[esi]
 80497b9:	8d bc 27 00 00 00 00 	lea    edi,[edi]

080497c0 <Print_PosMap>:
 80497c0:	f3 c3                	repz   ret
 80497c2:	8d b4 26 00 00 00 00 	lea    esi,[esi]
 80497c9:	8d bc 27 00 00 00 00 	lea    edi,[edi]

080497d0 <Stash_Full>:
 80497d0:	8b 0d 3c 61 05 08    	mov    ecx,DWORD PTR ds:0x805613c
 80497d6:	85 c9                	test   ecx,ecx
 80497d8:	7e 31                	jle    804980b
 80497da:	53                   	push   ebx
 80497db:	8b 1d 40 61 05 08    	mov    ebx,DWORD PTR ds:0x8056140
 80497e1:	8b 43 04             	mov    eax,DWORD PTR [ebx+0x4]
 80497e4:	85 c0                	test   eax,eax
 80497e6:	74 21                	je     8049809
 80497e8:	31 d2                	xor    edx,edx
 80497ea:	eb 11                	jmp    80497fd
 80497ec:	8d 74 26 00          	lea    esi,[esi]
 80497f0:	89 d0                	mov    eax,edx
 80497f2:	c1 e0 04             	shl    eax,0x4
 80497f5:	8b 44 03 04          	mov    eax,DWORD PTR [ebx+eax+0x4]
 80497f9:	85 c0                	test   eax,eax
 80497fb:	74 0c                	je     8049809
 80497fd:	83 c2 01             	add    edx,0x1
 8049800:	39 ca                	cmp    edx,ecx
 8049802:	75 ec                	jne    80497f0
 8049804:	b8 01 00 00 00       	mov    eax,0x1
 8049809:	5b                   	pop    ebx
 804980a:	c3                   	ret
 804980b:	b8 01 00 00 00       	mov    eax,0x1
 8049810:	c3                   	ret
 8049811:	66 90                	xchg   ax,ax
 8049813:	66 90                	xchg   ax,ax
 8049815:	66 90                	xchg   ax,ax
 8049817:	66 90                	xchg   ax,ax
 8049819:	66 90                	xchg   ax,ax
 804981b:	66 90                	xchg   ax,ax
 804981d:	66 90                	xchg   ax,ax
 804981f:	90                   	nop

08049820 <ScanORAM_Read>:
 8049820:	55                   	push   ebp
 8049821:	57                   	push   edi
 8049822:	56                   	push   esi
 8049823:	53                   	push   ebx
 8049824:	83 ec 08             	sub    esp,0x8
 8049827:	8b 44 24 24          	mov    eax,DWORD PTR [esp+0x24]
 804982b:	8b 54 24 20          	mov    edx,DWORD PTR [esp+0x20]
 804982f:	8b 6c 24 28          	mov    ebp,DWORD PTR [esp+0x28]
 8049833:	8b 7c 24 1c          	mov    edi,DWORD PTR [esp+0x1c]
 8049837:	c1 e0 02             	shl    eax,0x2
 804983a:	85 d2                	test   edx,edx
 804983c:	89 04 24             	mov    DWORD PTR [esp],eax
 804983f:	c7 44 24 04 00 00 00 	mov    DWORD PTR [esp+0x4],0x0
 8049846:	00 
 8049847:	7e 49                	jle    8049892
 8049849:	8b 44 24 04          	mov    eax,DWORD PTR [esp+0x4]
 804984d:	8d 76 00             	lea    esi,[esi]
 8049850:	31 db                	xor    ebx,ebx
 8049852:	3b 44 24 2c          	cmp    eax,DWORD PTR [esp+0x2c]
 8049856:	8b 44 24 24          	mov    eax,DWORD PTR [esp+0x24]
 804985a:	0f 94 c3             	sete   bl
 804985d:	31 f6                	xor    esi,esi
 804985f:	85 c0                	test   eax,eax
 8049861:	7e 1d                	jle    8049880
 8049863:	90                   	nop
 8049864:	8d 74 26 00          	lea    esi,[esi]
 8049868:	8d 0c 37             	lea    ecx,[edi+esi]
 804986b:	8d 54 35 00          	lea    edx,[ebp+esi]
 804986f:	8b 02                	mov    eax,DWORD PTR [edx]
 8049871:	85 db                	test   ebx,ebx
 8049873:	0f 45 01             	cmovne eax,DWORD PTR [ecx]
 8049876:	89 02                	mov    DWORD PTR [edx],eax
 8049878:	83 c6 04             	add    esi,0x4
 804987b:	39 34 24             	cmp    DWORD PTR [esp],esi
 804987e:	75 e8                	jne    8049868
 8049880:	83 44 24 04 01       	add    DWORD PTR [esp+0x4],0x1
 8049885:	8b 44 24 04          	mov    eax,DWORD PTR [esp+0x4]
 8049889:	03 3c 24             	add    edi,DWORD PTR [esp]
 804988c:	3b 44 24 20          	cmp    eax,DWORD PTR [esp+0x20]
 8049890:	75 be                	jne    8049850
 8049892:	83 c4 08             	add    esp,0x8
 8049895:	5b                   	pop    ebx
 8049896:	5e                   	pop    esi
 8049897:	5f                   	pop    edi
 8049898:	5d                   	pop    ebp
 8049899:	c3                   	ret
 804989a:	8d b6 00 00 00 00    	lea    esi,[esi]

080498a0 <ScanORAM_Write>:
 80498a0:	55                   	push   ebp
 80498a1:	57                   	push   edi
 80498a2:	56                   	push   esi
 80498a3:	53                   	push   ebx
 80498a4:	83 ec 08             	sub    esp,0x8
 80498a7:	8b 44 24 24          	mov    eax,DWORD PTR [esp+0x24]
 80498ab:	8b 54 24 20          	mov    edx,DWORD PTR [esp+0x20]
 80498af:	8b 6c 24 28          	mov    ebp,DWORD PTR [esp+0x28]
 80498b3:	8b 7c 24 1c          	mov    edi,DWORD PTR [esp+0x1c]
 80498b7:	c1 e0 02             	shl    eax,0x2
 80498ba:	85 d2                	test   edx,edx
 80498bc:	89 04 24             	mov    DWORD PTR [esp],eax
 80498bf:	c7 44 24 04 00 00 00 	mov    DWORD PTR [esp+0x4],0x0
 80498c6:	00 
 80498c7:	7e 49                	jle    8049912
 80498c9:	8b 44 24 04          	mov    eax,DWORD PTR [esp+0x4]
 80498cd:	8d 76 00             	lea    esi,[esi]
 80498d0:	31 db                	xor    ebx,ebx
 80498d2:	3b 44 24 2c          	cmp    eax,DWORD PTR [esp+0x2c]
 80498d6:	8b 44 24 24          	mov    eax,DWORD PTR [esp+0x24]
 80498da:	0f 94 c3             	sete   bl
 80498dd:	31 f6                	xor    esi,esi
 80498df:	85 c0                	test   eax,eax
 80498e1:	7e 1d                	jle    8049900
 80498e3:	90                   	nop
 80498e4:	8d 74 26 00          	lea    esi,[esi]
 80498e8:	8d 4c 35 00          	lea    ecx,[ebp+esi]
 80498ec:	8d 14 37             	lea    edx,[edi+esi]
 80498ef:	8b 02                	mov    eax,DWORD PTR [edx]
 80498f1:	85 db                	test   ebx,ebx
 80498f3:	0f 45 01             	cmovne eax,DWORD PTR [ecx]
 80498f6:	89 02                	mov    DWORD PTR [edx],eax
 80498f8:	83 c6 04             	add    esi,0x4
 80498fb:	39 34 24             	cmp    DWORD PTR [esp],esi
 80498fe:	75 e8                	jne    80498e8
 8049900:	83 44 24 04 01       	add    DWORD PTR [esp+0x4],0x1
 8049905:	8b 44 24 04          	mov    eax,DWORD PTR [esp+0x4]
 8049909:	03 3c 24             	add    edi,DWORD PTR [esp]
 804990c:	3b 44 24 20          	cmp    eax,DWORD PTR [esp+0x20]
 8049910:	75 be                	jne    80498d0
 8049912:	83 c4 08             	add    esp,0x8
 8049915:	5b                   	pop    ebx
 8049916:	5e                   	pop    esi
 8049917:	5f                   	pop    edi
 8049918:	5d                   	pop    ebp
 8049919:	c3                   	ret
 804991a:	66 90                	xchg   ax,ax
 804991c:	66 90                	xchg   ax,ax
 804991e:	66 90                	xchg   ax,ax

08049920 <log_2>:
 8049920:	8b 44 24 04          	mov    eax,DWORD PTR [esp+0x4]
 8049924:	8d 54 00 ff          	lea    edx,[eax+eax-0x1]
 8049928:	31 c0                	xor    eax,eax
 804992a:	d1 ea                	shr    edx,1
 804992c:	74 0b                	je     8049939
 804992e:	66 90                	xchg   ax,ax
 8049930:	83 c0 01             	add    eax,0x1
 8049933:	d1 ea                	shr    edx,1
 8049935:	75 f9                	jne    8049930
 8049937:	f3 c3                	repz   ret
 8049939:	f3 c3                	repz   ret
 804993b:	90                   	nop
 804993c:	8d 74 26 00          	lea    esi,[esi]

08049940 <bitwiseReverse>:
 8049940:	56                   	push   esi
 8049941:	53                   	push   ebx
 8049942:	8b 74 24 10          	mov    esi,DWORD PTR [esp+0x10]
 8049946:	8b 54 24 0c          	mov    edx,DWORD PTR [esp+0xc]
 804994a:	85 f6                	test   esi,esi
 804994c:	7e 1e                	jle    804996c
 804994e:	31 c9                	xor    ecx,ecx
 8049950:	31 c0                	xor    eax,eax
 8049952:	8d b6 00 00 00 00    	lea    esi,[esi]
 8049958:	89 d3                	mov    ebx,edx
 804995a:	83 c1 01             	add    ecx,0x1
 804995d:	83 e3 01             	and    ebx,0x1
 8049960:	d1 ea                	shr    edx,1
 8049962:	39 f1                	cmp    ecx,esi
 8049964:	8d 04 43             	lea    eax,[ebx+eax*2]
 8049967:	75 ef                	jne    8049958
 8049969:	5b                   	pop    ebx
 804996a:	5e                   	pop    esi
 804996b:	c3                   	ret
 804996c:	31 c0                	xor    eax,eax
 804996e:	eb f9                	jmp    8049969

08049970 <roundToPowerOf2>:
 8049970:	8b 44 24 04          	mov    eax,DWORD PTR [esp+0x4]
 8049974:	d1 f8                	sar    eax,1
 8049976:	74 17                	je     804998f
 8049978:	b9 01 00 00 00       	mov    ecx,0x1
 804997d:	8d 76 00             	lea    esi,[esi]
 8049980:	83 c1 01             	add    ecx,0x1
 8049983:	d1 f8                	sar    eax,1
 8049985:	75 f9                	jne    8049980
 8049987:	b8 01 00 00 00       	mov    eax,0x1
 804998c:	d3 e0                	shl    eax,cl
 804998e:	c3                   	ret
 804998f:	b8 02 00 00 00       	mov    eax,0x2
 8049994:	c3                   	ret
 8049995:	66 90                	xchg   ax,ax
 8049997:	66 90                	xchg   ax,ax
 8049999:	66 90                	xchg   ax,ax
 804999b:	66 90                	xchg   ax,ax
 804999d:	66 90                	xchg   ax,ax
 804999f:	90                   	nop

080499a0 <rdtsc>:
 80499a0:	0f 31                	rdtsc
 80499a2:	c3                   	ret
 80499a3:	8d b6 00 00 00 00    	lea    esi,[esi]
 80499a9:	8d bc 27 00 00 00 00 	lea    edi,[edi]

080499b0 <cmov>:
 80499b0:	53                   	push   ebx
 80499b1:	8b 54 24 10          	mov    edx,DWORD PTR [esp+0x10]
 80499b5:	8b 4c 24 0c          	mov    ecx,DWORD PTR [esp+0xc]
 80499b9:	8b 5c 24 08          	mov    ebx,DWORD PTR [esp+0x8]
 80499bd:	8b 02                	mov    eax,DWORD PTR [edx]
 80499bf:	85 db                	test   ebx,ebx
 80499c1:	0f 45 01             	cmovne eax,DWORD PTR [ecx]
 80499c4:	89 02                	mov    DWORD PTR [edx],eax
 80499c6:	5b                   	pop    ebx
 80499c7:	c3                   	ret
 80499c8:	90                   	nop
 80499c9:	8d b4 26 00 00 00 00 	lea    esi,[esi]

080499d0 <cmovn>:
 80499d0:	55                   	push   ebp
 80499d1:	57                   	push   edi
 80499d2:	56                   	push   esi
 80499d3:	31 f6                	xor    esi,esi
 80499d5:	53                   	push   ebx
 80499d6:	83 ec 04             	sub    esp,0x4
 80499d9:	8b 44 24 24          	mov    eax,DWORD PTR [esp+0x24]
 80499dd:	8b 5c 24 18          	mov    ebx,DWORD PTR [esp+0x18]
 80499e1:	8b 7c 24 1c          	mov    edi,DWORD PTR [esp+0x1c]
 80499e5:	8b 6c 24 20          	mov    ebp,DWORD PTR [esp+0x20]
 80499e9:	8d 14 85 00 00 00 00 	lea    edx,[eax*4]
 80499f0:	85 c0                	test   eax,eax
 80499f2:	89 14 24             	mov    DWORD PTR [esp],edx
 80499f5:	7e 19                	jle    8049a10
 80499f7:	90                   	nop
 80499f8:	8d 0c 37             	lea    ecx,[edi+esi]
 80499fb:	8d 54 35 00          	lea    edx,[ebp+esi]
 80499ff:	8b 02                	mov    eax,DWORD PTR [edx]
 8049a01:	85 db                	test   ebx,ebx
 8049a03:	0f 45 01             	cmovne eax,DWORD PTR [ecx]
 8049a06:	89 02                	mov    DWORD PTR [edx],eax
 8049a08:	83 c6 04             	add    esi,0x4
 8049a0b:	3b 34 24             	cmp    esi,DWORD PTR [esp]
 8049a0e:	75 e8                	jne    80499f8
 8049a10:	83 c4 04             	add    esp,0x4
 8049a13:	5b                   	pop    ebx
 8049a14:	5e                   	pop    esi
 8049a15:	5f                   	pop    edi
 8049a16:	5d                   	pop    ebp
 8049a17:	c3                   	ret
 8049a18:	66 90                	xchg   ax,ax
 8049a1a:	66 90                	xchg   ax,ax
 8049a1c:	66 90                	xchg   ax,ax
 8049a1e:	66 90                	xchg   ax,ax

08049a20 <Merge_Block>:
 8049a20:	55                   	push   ebp
 8049a21:	57                   	push   edi
 8049a22:	56                   	push   esi
 8049a23:	89 c6                	mov    esi,eax
 8049a25:	53                   	push   ebx
 8049a26:	89 d3                	mov    ebx,edx
 8049a28:	83 ec 28             	sub    esp,0x28
 8049a2b:	89 44 24 24          	mov    DWORD PTR [esp+0x24],eax
 8049a2f:	89 c8                	mov    eax,ecx
 8049a31:	29 d0                	sub    eax,edx
 8049a33:	89 54 24 10          	mov    DWORD PTR [esp+0x10],edx
 8049a37:	8d 50 01             	lea    edx,[eax+0x1]
 8049a3a:	29 4c 24 3c          	sub    DWORD PTR [esp+0x3c],ecx
 8049a3e:	85 d2                	test   edx,edx
 8049a40:	89 4c 24 14          	mov    DWORD PTR [esp+0x14],ecx
 8049a44:	89 14 24             	mov    DWORD PTR [esp],edx
 8049a47:	7e 5c                	jle    8049aa5
 8049a49:	8b 15 68 60 05 08    	mov    edx,DWORD PTR ds:0x8056068
 8049a4f:	31 ff                	xor    edi,edi
 8049a51:	a1 d8 60 05 08       	mov    eax,ds:0x80560d8
 8049a56:	89 44 24 0c          	mov    DWORD PTR [esp+0xc],eax
 8049a5a:	8d 04 95 00 00 00 00 	lea    eax,[edx*4]
 8049a61:	89 44 24 08          	mov    DWORD PTR [esp+0x8],eax
 8049a65:	89 d8                	mov    eax,ebx
 8049a67:	0f af c2             	imul   eax,edx
 8049a6a:	8d 2c 86             	lea    ebp,[esi+eax*4]
 8049a6d:	31 f6                	xor    esi,esi
 8049a6f:	90                   	nop
 8049a70:	85 d2                	test   edx,edx
 8049a72:	7e 25                	jle    8049a99
 8049a74:	8b 4c 24 0c          	mov    ecx,DWORD PTR [esp+0xc]
 8049a78:	8d 1c 2e             	lea    ebx,[esi+ebp]
 8049a7b:	31 c0                	xor    eax,eax
 8049a7d:	89 74 24 04          	mov    DWORD PTR [esp+0x4],esi
 8049a81:	01 f1                	add    ecx,esi
 8049a83:	90                   	nop
 8049a84:	8d 74 26 00          	lea    esi,[esi]
 8049a88:	8b 34 83             	mov    esi,DWORD PTR [ebx+eax*4]
 8049a8b:	89 34 81             	mov    DWORD PTR [ecx+eax*4],esi
 8049a8e:	83 c0 01             	add    eax,0x1
 8049a91:	39 d0                	cmp    eax,edx
 8049a93:	75 f3                	jne    8049a88
 8049a95:	8b 74 24 04          	mov    esi,DWORD PTR [esp+0x4]
 8049a99:	83 c7 01             	add    edi,0x1
 8049a9c:	03 74 24 08          	add    esi,DWORD PTR [esp+0x8]
 8049aa0:	3b 3c 24             	cmp    edi,DWORD PTR [esp]
 8049aa3:	75 cb                	jne    8049a70
 8049aa5:	8b 7c 24 3c          	mov    edi,DWORD PTR [esp+0x3c]
 8049aa9:	85 ff                	test   edi,edi
 8049aab:	0f 8e 6c 02 00 00    	jle    8049d1d
 8049ab1:	a1 68 60 05 08       	mov    eax,ds:0x8056068
 8049ab6:	31 f6                	xor    esi,esi
 8049ab8:	8b 3d d4 60 05 08    	mov    edi,DWORD PTR ds:0x80560d4
 8049abe:	8b 54 24 14          	mov    edx,DWORD PTR [esp+0x14]
 8049ac2:	89 7c 24 04          	mov    DWORD PTR [esp+0x4],edi
 8049ac6:	8d 3c 85 00 00 00 00 	lea    edi,[eax*4]
 8049acd:	83 c2 01             	add    edx,0x1
 8049ad0:	89 7c 24 0c          	mov    DWORD PTR [esp+0xc],edi
 8049ad4:	0f af d0             	imul   edx,eax
 8049ad7:	8b 7c 24 24          	mov    edi,DWORD PTR [esp+0x24]
 8049adb:	8d 2c 97             	lea    ebp,[edi+edx*4]
 8049ade:	31 ff                	xor    edi,edi
 8049ae0:	85 c0                	test   eax,eax
 8049ae2:	7e 25                	jle    8049b09
 8049ae4:	8b 4c 24 04          	mov    ecx,DWORD PTR [esp+0x4]
 8049ae8:	8d 1c 2e             	lea    ebx,[esi+ebp]
 8049aeb:	31 d2                	xor    edx,edx
 8049aed:	89 74 24 08          	mov    DWORD PTR [esp+0x8],esi
 8049af1:	01 f1                	add    ecx,esi
 8049af3:	90                   	nop
 8049af4:	8d 74 26 00          	lea    esi,[esi]
 8049af8:	8b 34 93             	mov    esi,DWORD PTR [ebx+edx*4]
 8049afb:	89 34 91             	mov    DWORD PTR [ecx+edx*4],esi
 8049afe:	83 c2 01             	add    edx,0x1
 8049b01:	39 c2                	cmp    edx,eax
 8049b03:	75 f3                	jne    8049af8
 8049b05:	8b 74 24 08          	mov    esi,DWORD PTR [esp+0x8]
 8049b09:	83 c7 01             	add    edi,0x1
 8049b0c:	03 74 24 0c          	add    esi,DWORD PTR [esp+0xc]
 8049b10:	3b 7c 24 3c          	cmp    edi,DWORD PTR [esp+0x3c]
 8049b14:	75 ca                	jne    8049ae0
 8049b16:	8b 34 24             	mov    esi,DWORD PTR [esp]
 8049b19:	85 f6                	test   esi,esi
 8049b1b:	0f 8e fc 01 00 00    	jle    8049d1d
 8049b21:	8b 3d d8 60 05 08    	mov    edi,DWORD PTR ds:0x80560d8
 8049b27:	31 ed                	xor    ebp,ebp
 8049b29:	8b 54 24 10          	mov    edx,DWORD PTR [esp+0x10]
 8049b2d:	89 7c 24 14          	mov    DWORD PTR [esp+0x14],edi
 8049b31:	8b 3d bc 60 05 08    	mov    edi,DWORD PTR ds:0x80560bc
 8049b37:	0f af d0             	imul   edx,eax
 8049b3a:	89 7c 24 1c          	mov    DWORD PTR [esp+0x1c],edi
 8049b3e:	8b 3d c8 60 05 08    	mov    edi,DWORD PTR ds:0x80560c8
 8049b44:	89 7c 24 20          	mov    DWORD PTR [esp+0x20],edi
 8049b48:	8b 7c 24 24          	mov    edi,DWORD PTR [esp+0x24]
 8049b4c:	8d 14 97             	lea    edx,[edi+edx*4]
 8049b4f:	31 ff                	xor    edi,edi
 8049b51:	8d b4 26 00 00 00 00 	lea    esi,[esi]
 8049b58:	8b 74 24 1c          	mov    esi,DWORD PTR [esp+0x1c]
 8049b5c:	89 eb                	mov    ebx,ebp
 8049b5e:	0f af d8             	imul   ebx,eax
 8049b61:	89 f1                	mov    ecx,esi
 8049b63:	01 d9                	add    ecx,ebx
 8049b65:	89 5c 24 18          	mov    DWORD PTR [esp+0x18],ebx
 8049b69:	8b 5c 24 14          	mov    ebx,DWORD PTR [esp+0x14]
 8049b6d:	8b 0c 8b             	mov    ecx,DWORD PTR [ebx+ecx*4]
 8049b70:	8b 5c 24 04          	mov    ebx,DWORD PTR [esp+0x4]
 8049b74:	89 4c 24 08          	mov    DWORD PTR [esp+0x8],ecx
 8049b78:	89 f9                	mov    ecx,edi
 8049b7a:	0f af c8             	imul   ecx,eax
 8049b7d:	01 ce                	add    esi,ecx
 8049b7f:	8b 34 b3             	mov    esi,DWORD PTR [ebx+esi*4]
 8049b82:	39 74 24 08          	cmp    DWORD PTR [esp+0x8],esi
 8049b86:	0f 8e 54 01 00 00    	jle    8049ce0
 8049b8c:	8b 5c 24 20          	mov    ebx,DWORD PTR [esp+0x20]
 8049b90:	85 db                	test   ebx,ebx
 8049b92:	0f 85 5d 01 00 00    	jne    8049cf5
 8049b98:	8b 4c 24 18          	mov    ecx,DWORD PTR [esp+0x18]
 8049b9c:	8b 5c 24 14          	mov    ebx,DWORD PTR [esp+0x14]
 8049ba0:	8d 1c 8b             	lea    ebx,[ebx+ecx*4]
 8049ba3:	31 c9                	xor    ecx,ecx
 8049ba5:	85 c0                	test   eax,eax
 8049ba7:	7e 14                	jle    8049bbd
 8049ba9:	8d b4 26 00 00 00 00 	lea    esi,[esi]
 8049bb0:	8b 34 8b             	mov    esi,DWORD PTR [ebx+ecx*4]
 8049bb3:	89 34 8a             	mov    DWORD PTR [edx+ecx*4],esi
 8049bb6:	83 c1 01             	add    ecx,0x1
 8049bb9:	39 c1                	cmp    ecx,eax
 8049bbb:	75 f3                	jne    8049bb0
 8049bbd:	83 c5 01             	add    ebp,0x1
 8049bc0:	83 44 24 10 01       	add    DWORD PTR [esp+0x10],0x1
 8049bc5:	03 54 24 0c          	add    edx,DWORD PTR [esp+0xc]
 8049bc9:	3b 7c 24 3c          	cmp    edi,DWORD PTR [esp+0x3c]
 8049bcd:	7d 05                	jge    8049bd4
 8049bcf:	3b 2c 24             	cmp    ebp,DWORD PTR [esp]
 8049bd2:	7c 84                	jl     8049b58
 8049bd4:	39 2c 24             	cmp    DWORD PTR [esp],ebp
 8049bd7:	0f 8e 88 00 00 00    	jle    8049c65
 8049bdd:	8b 15 68 60 05 08    	mov    edx,DWORD PTR ds:0x8056068
 8049be3:	31 f6                	xor    esi,esi
 8049be5:	89 7c 24 18          	mov    DWORD PTR [esp+0x18],edi
 8049be9:	89 6c 24 14          	mov    DWORD PTR [esp+0x14],ebp
 8049bed:	8d 04 95 00 00 00 00 	lea    eax,[edx*4]
 8049bf4:	89 d1                	mov    ecx,edx
 8049bf6:	0f af cd             	imul   ecx,ebp
 8049bf9:	89 44 24 08          	mov    DWORD PTR [esp+0x8],eax
 8049bfd:	a1 d8 60 05 08       	mov    eax,ds:0x80560d8
 8049c02:	8d 04 88             	lea    eax,[eax+ecx*4]
 8049c05:	8b 4c 24 24          	mov    ecx,DWORD PTR [esp+0x24]
 8049c09:	89 c3                	mov    ebx,eax
 8049c0b:	8b 44 24 10          	mov    eax,DWORD PTR [esp+0x10]
 8049c0f:	89 df                	mov    edi,ebx
 8049c11:	0f af c2             	imul   eax,edx
 8049c14:	8d 04 81             	lea    eax,[ecx+eax*4]
 8049c17:	89 44 24 0c          	mov    DWORD PTR [esp+0xc],eax
 8049c1b:	90                   	nop
 8049c1c:	8d 74 26 00          	lea    esi,[esi]
 8049c20:	85 d2                	test   edx,edx
 8049c22:	7e 25                	jle    8049c49
 8049c24:	8b 44 24 0c          	mov    eax,DWORD PTR [esp+0xc]
 8049c28:	8d 1c 3e             	lea    ebx,[esi+edi]
 8049c2b:	89 74 24 04          	mov    DWORD PTR [esp+0x4],esi
 8049c2f:	8d 0c 06             	lea    ecx,[esi+eax]
 8049c32:	31 c0                	xor    eax,eax
 8049c34:	8d 74 26 00          	lea    esi,[esi]
 8049c38:	8b 34 83             	mov    esi,DWORD PTR [ebx+eax*4]
 8049c3b:	89 34 81             	mov    DWORD PTR [ecx+eax*4],esi
 8049c3e:	83 c0 01             	add    eax,0x1
 8049c41:	39 d0                	cmp    eax,edx
 8049c43:	75 f3                	jne    8049c38
 8049c45:	8b 74 24 04          	mov    esi,DWORD PTR [esp+0x4]
 8049c49:	83 c5 01             	add    ebp,0x1
 8049c4c:	03 74 24 08          	add    esi,DWORD PTR [esp+0x8]
 8049c50:	3b 2c 24             	cmp    ebp,DWORD PTR [esp]
 8049c53:	75 cb                	jne    8049c20
 8049c55:	01 6c 24 10          	add    DWORD PTR [esp+0x10],ebp
 8049c59:	8b 44 24 14          	mov    eax,DWORD PTR [esp+0x14]
 8049c5d:	8b 7c 24 18          	mov    edi,DWORD PTR [esp+0x18]
 8049c61:	29 44 24 10          	sub    DWORD PTR [esp+0x10],eax
 8049c65:	39 7c 24 3c          	cmp    DWORD PTR [esp+0x3c],edi
 8049c69:	7e 6a                	jle    8049cd5
 8049c6b:	8b 15 68 60 05 08    	mov    edx,DWORD PTR ds:0x8056068
 8049c71:	31 f6                	xor    esi,esi
 8049c73:	8b 5c 24 24          	mov    ebx,DWORD PTR [esp+0x24]
 8049c77:	8d 04 95 00 00 00 00 	lea    eax,[edx*4]
 8049c7e:	89 d1                	mov    ecx,edx
 8049c80:	89 44 24 04          	mov    DWORD PTR [esp+0x4],eax
 8049c84:	0f af cf             	imul   ecx,edi
 8049c87:	a1 d4 60 05 08       	mov    eax,ds:0x80560d4
 8049c8c:	8d 2c 88             	lea    ebp,[eax+ecx*4]
 8049c8f:	8b 44 24 10          	mov    eax,DWORD PTR [esp+0x10]
 8049c93:	0f af c2             	imul   eax,edx
 8049c96:	8d 04 83             	lea    eax,[ebx+eax*4]
 8049c99:	89 44 24 08          	mov    DWORD PTR [esp+0x8],eax
 8049c9d:	8d 76 00             	lea    esi,[esi]
 8049ca0:	85 d2                	test   edx,edx
 8049ca2:	7e 24                	jle    8049cc8
 8049ca4:	8b 44 24 08          	mov    eax,DWORD PTR [esp+0x8]
 8049ca8:	8d 1c 2e             	lea    ebx,[esi+ebp]
 8049cab:	89 34 24             	mov    DWORD PTR [esp],esi
 8049cae:	8d 0c 06             	lea    ecx,[esi+eax]
 8049cb1:	31 c0                	xor    eax,eax
 8049cb3:	90                   	nop
 8049cb4:	8d 74 26 00          	lea    esi,[esi]
 8049cb8:	8b 34 83             	mov    esi,DWORD PTR [ebx+eax*4]
 8049cbb:	89 34 81             	mov    DWORD PTR [ecx+eax*4],esi
 8049cbe:	83 c0 01             	add    eax,0x1
 8049cc1:	39 d0                	cmp    eax,edx
 8049cc3:	75 f3                	jne    8049cb8
 8049cc5:	8b 34 24             	mov    esi,DWORD PTR [esp]
 8049cc8:	83 c7 01             	add    edi,0x1
 8049ccb:	03 74 24 04          	add    esi,DWORD PTR [esp+0x4]
 8049ccf:	3b 7c 24 3c          	cmp    edi,DWORD PTR [esp+0x3c]
 8049cd3:	75 cb                	jne    8049ca0
 8049cd5:	83 c4 28             	add    esp,0x28
 8049cd8:	5b                   	pop    ebx
 8049cd9:	5e                   	pop    esi
 8049cda:	5f                   	pop    edi
 8049cdb:	5d                   	pop    ebp
 8049cdc:	c3                   	ret
 8049cdd:	8d 76 00             	lea    esi,[esi]
 8049ce0:	83 7c 24 20 01       	cmp    DWORD PTR [esp+0x20],0x1
 8049ce5:	0f 84 ad fe ff ff    	je     8049b98
 8049ceb:	39 74 24 08          	cmp    DWORD PTR [esp+0x8],esi
 8049cef:	0f 8d 97 fe ff ff    	jge    8049b8c
 8049cf5:	8b 5c 24 04          	mov    ebx,DWORD PTR [esp+0x4]
 8049cf9:	8d 1c 8b             	lea    ebx,[ebx+ecx*4]
 8049cfc:	31 c9                	xor    ecx,ecx
 8049cfe:	85 c0                	test   eax,eax
 8049d00:	7e 13                	jle    8049d15
 8049d02:	8d b6 00 00 00 00    	lea    esi,[esi]
 8049d08:	8b 34 8b             	mov    esi,DWORD PTR [ebx+ecx*4]
 8049d0b:	89 34 8a             	mov    DWORD PTR [edx+ecx*4],esi
 8049d0e:	83 c1 01             	add    ecx,0x1
 8049d11:	39 c1                	cmp    ecx,eax
 8049d13:	75 f3                	jne    8049d08
 8049d15:	83 c7 01             	add    edi,0x1
 8049d18:	e9 a3 fe ff ff       	jmp    8049bc0
 8049d1d:	31 ff                	xor    edi,edi
 8049d1f:	31 ed                	xor    ebp,ebp
 8049d21:	e9 ae fe ff ff       	jmp    8049bd4
 8049d26:	8d 76 00             	lea    esi,[esi]
 8049d29:	8d bc 27 00 00 00 00 	lea    edi,[edi]

08049d30 <Merge_General>:
 8049d30:	55                   	push   ebp
 8049d31:	57                   	push   edi
 8049d32:	56                   	push   esi
 8049d33:	89 c6                	mov    esi,eax
 8049d35:	53                   	push   ebx
 8049d36:	89 d3                	mov    ebx,edx
 8049d38:	83 ec 34             	sub    esp,0x34
 8049d3b:	89 44 24 2c          	mov    DWORD PTR [esp+0x2c],eax
 8049d3f:	89 c8                	mov    eax,ecx
 8049d41:	29 d0                	sub    eax,edx
 8049d43:	89 54 24 1c          	mov    DWORD PTR [esp+0x1c],edx
 8049d47:	8d 50 01             	lea    edx,[eax+0x1]
 8049d4a:	29 4c 24 48          	sub    DWORD PTR [esp+0x48],ecx
 8049d4e:	85 d2                	test   edx,edx
 8049d50:	89 4c 24 10          	mov    DWORD PTR [esp+0x10],ecx
 8049d54:	89 14 24             	mov    DWORD PTR [esp],edx
 8049d57:	7e 5c                	jle    8049db5
 8049d59:	8b 15 68 60 05 08    	mov    edx,DWORD PTR ds:0x8056068
 8049d5f:	31 ff                	xor    edi,edi
 8049d61:	a1 d8 60 05 08       	mov    eax,ds:0x80560d8
 8049d66:	89 44 24 0c          	mov    DWORD PTR [esp+0xc],eax
 8049d6a:	8d 04 95 00 00 00 00 	lea    eax,[edx*4]
 8049d71:	89 44 24 08          	mov    DWORD PTR [esp+0x8],eax
 8049d75:	89 d8                	mov    eax,ebx
 8049d77:	0f af c2             	imul   eax,edx
 8049d7a:	8d 2c 86             	lea    ebp,[esi+eax*4]
 8049d7d:	31 f6                	xor    esi,esi
 8049d7f:	90                   	nop
 8049d80:	85 d2                	test   edx,edx
 8049d82:	7e 25                	jle    8049da9
 8049d84:	8b 4c 24 0c          	mov    ecx,DWORD PTR [esp+0xc]
 8049d88:	8d 1c 2e             	lea    ebx,[esi+ebp]
 8049d8b:	31 c0                	xor    eax,eax
 8049d8d:	89 74 24 04          	mov    DWORD PTR [esp+0x4],esi
 8049d91:	01 f1                	add    ecx,esi
 8049d93:	90                   	nop
 8049d94:	8d 74 26 00          	lea    esi,[esi]
 8049d98:	8b 34 83             	mov    esi,DWORD PTR [ebx+eax*4]
 8049d9b:	89 34 81             	mov    DWORD PTR [ecx+eax*4],esi
 8049d9e:	83 c0 01             	add    eax,0x1
 8049da1:	39 d0                	cmp    eax,edx
 8049da3:	75 f3                	jne    8049d98
 8049da5:	8b 74 24 04          	mov    esi,DWORD PTR [esp+0x4]
 8049da9:	83 c7 01             	add    edi,0x1
 8049dac:	03 74 24 08          	add    esi,DWORD PTR [esp+0x8]
 8049db0:	3b 3c 24             	cmp    edi,DWORD PTR [esp]
 8049db3:	75 cb                	jne    8049d80
 8049db5:	8b 6c 24 48          	mov    ebp,DWORD PTR [esp+0x48]
 8049db9:	85 ed                	test   ebp,ebp
 8049dbb:	0f 8e cf 02 00 00    	jle    804a090
 8049dc1:	a1 68 60 05 08       	mov    eax,ds:0x8056068
 8049dc6:	31 f6                	xor    esi,esi
 8049dc8:	8b 3d d4 60 05 08    	mov    edi,DWORD PTR ds:0x80560d4
 8049dce:	8b 54 24 10          	mov    edx,DWORD PTR [esp+0x10]
 8049dd2:	89 7c 24 04          	mov    DWORD PTR [esp+0x4],edi
 8049dd6:	8d 3c 85 00 00 00 00 	lea    edi,[eax*4]
 8049ddd:	83 c2 01             	add    edx,0x1
 8049de0:	89 7c 24 0c          	mov    DWORD PTR [esp+0xc],edi
 8049de4:	0f af d0             	imul   edx,eax
 8049de7:	8b 7c 24 2c          	mov    edi,DWORD PTR [esp+0x2c]
 8049deb:	8d 2c 97             	lea    ebp,[edi+edx*4]
 8049dee:	31 ff                	xor    edi,edi
 8049df0:	85 c0                	test   eax,eax
 8049df2:	7e 25                	jle    8049e19
 8049df4:	8b 4c 24 04          	mov    ecx,DWORD PTR [esp+0x4]
 8049df8:	8d 1c 2e             	lea    ebx,[esi+ebp]
 8049dfb:	31 d2                	xor    edx,edx
 8049dfd:	89 74 24 08          	mov    DWORD PTR [esp+0x8],esi
 8049e01:	01 f1                	add    ecx,esi
 8049e03:	90                   	nop
 8049e04:	8d 74 26 00          	lea    esi,[esi]
 8049e08:	8b 34 93             	mov    esi,DWORD PTR [ebx+edx*4]
 8049e0b:	89 34 91             	mov    DWORD PTR [ecx+edx*4],esi
 8049e0e:	83 c2 01             	add    edx,0x1
 8049e11:	39 c2                	cmp    edx,eax
 8049e13:	75 f3                	jne    8049e08
 8049e15:	8b 74 24 08          	mov    esi,DWORD PTR [esp+0x8]
 8049e19:	83 c7 01             	add    edi,0x1
 8049e1c:	03 74 24 0c          	add    esi,DWORD PTR [esp+0xc]
 8049e20:	3b 7c 24 48          	cmp    edi,DWORD PTR [esp+0x48]
 8049e24:	75 ca                	jne    8049df0
 8049e26:	8b 3c 24             	mov    edi,DWORD PTR [esp]
 8049e29:	85 ff                	test   edi,edi
 8049e2b:	0f 8e 5f 02 00 00    	jle    804a090
 8049e31:	8b 3d d8 60 05 08    	mov    edi,DWORD PTR ds:0x80560d8
 8049e37:	31 ed                	xor    ebp,ebp
 8049e39:	8b 54 24 1c          	mov    edx,DWORD PTR [esp+0x1c]
 8049e3d:	89 7c 24 18          	mov    DWORD PTR [esp+0x18],edi
 8049e41:	8b 3d b8 60 05 08    	mov    edi,DWORD PTR ds:0x80560b8
 8049e47:	0f af d0             	imul   edx,eax
 8049e4a:	89 7c 24 20          	mov    DWORD PTR [esp+0x20],edi
 8049e4e:	8b 3d c4 60 05 08    	mov    edi,DWORD PTR ds:0x80560c4
 8049e54:	89 7c 24 24          	mov    DWORD PTR [esp+0x24],edi
 8049e58:	8b 3d b4 60 05 08    	mov    edi,DWORD PTR ds:0x80560b4
 8049e5e:	89 7c 24 28          	mov    DWORD PTR [esp+0x28],edi
 8049e62:	8b 3d c0 60 05 08    	mov    edi,DWORD PTR ds:0x80560c0
 8049e68:	89 7c 24 30          	mov    DWORD PTR [esp+0x30],edi
 8049e6c:	8b 7c 24 2c          	mov    edi,DWORD PTR [esp+0x2c]
 8049e70:	8d 14 97             	lea    edx,[edi+edx*4]
 8049e73:	31 ff                	xor    edi,edi
 8049e75:	8d 76 00             	lea    esi,[esi]
 8049e78:	8b 74 24 20          	mov    esi,DWORD PTR [esp+0x20]
 8049e7c:	89 eb                	mov    ebx,ebp
 8049e7e:	0f af d8             	imul   ebx,eax
 8049e81:	89 54 24 14          	mov    DWORD PTR [esp+0x14],edx
 8049e85:	89 44 24 10          	mov    DWORD PTR [esp+0x10],eax
 8049e89:	89 f1                	mov    ecx,esi
 8049e8b:	01 d9                	add    ecx,ebx
 8049e8d:	89 ca                	mov    edx,ecx
 8049e8f:	89 f9                	mov    ecx,edi
 8049e91:	0f af c8             	imul   ecx,eax
 8049e94:	8b 44 24 18          	mov    eax,DWORD PTR [esp+0x18]
 8049e98:	89 5c 24 08          	mov    DWORD PTR [esp+0x8],ebx
 8049e9c:	8d 1c 31             	lea    ebx,[ecx+esi]
 8049e9f:	89 d6                	mov    esi,edx
 8049ea1:	8b 54 24 04          	mov    edx,DWORD PTR [esp+0x4]
 8049ea5:	8b 14 9a             	mov    edx,DWORD PTR [edx+ebx*4]
 8049ea8:	39 14 b0             	cmp    DWORD PTR [eax+esi*4],edx
 8049eab:	8b 44 24 10          	mov    eax,DWORD PTR [esp+0x10]
 8049eaf:	8b 54 24 14          	mov    edx,DWORD PTR [esp+0x14]
 8049eb3:	0f 8d 4f 01 00 00    	jge    804a008
 8049eb9:	83 7c 24 24 01       	cmp    DWORD PTR [esp+0x24],0x1
 8049ebe:	0f 84 52 01 00 00    	je     804a016
 8049ec4:	8b 5c 24 04          	mov    ebx,DWORD PTR [esp+0x4]
 8049ec8:	8d 1c 8b             	lea    ebx,[ebx+ecx*4]
 8049ecb:	31 c9                	xor    ecx,ecx
 8049ecd:	85 c0                	test   eax,eax
 8049ecf:	7e 14                	jle    8049ee5
 8049ed1:	8d b4 26 00 00 00 00 	lea    esi,[esi]
 8049ed8:	8b 34 8b             	mov    esi,DWORD PTR [ebx+ecx*4]
 8049edb:	89 34 8a             	mov    DWORD PTR [edx+ecx*4],esi
 8049ede:	83 c1 01             	add    ecx,0x1
 8049ee1:	39 c1                	cmp    ecx,eax
 8049ee3:	75 f3                	jne    8049ed8
 8049ee5:	83 c7 01             	add    edi,0x1
 8049ee8:	83 44 24 1c 01       	add    DWORD PTR [esp+0x1c],0x1
 8049eed:	03 54 24 0c          	add    edx,DWORD PTR [esp+0xc]
 8049ef1:	3b 7c 24 48          	cmp    edi,DWORD PTR [esp+0x48]
 8049ef5:	7d 09                	jge    8049f00
 8049ef7:	3b 2c 24             	cmp    ebp,DWORD PTR [esp]
 8049efa:	0f 8c 78 ff ff ff    	jl     8049e78
 8049f00:	39 2c 24             	cmp    DWORD PTR [esp],ebp
 8049f03:	0f 8e 84 00 00 00    	jle    8049f8d
 8049f09:	8b 15 68 60 05 08    	mov    edx,DWORD PTR ds:0x8056068
 8049f0f:	31 f6                	xor    esi,esi
 8049f11:	89 7c 24 14          	mov    DWORD PTR [esp+0x14],edi
 8049f15:	89 6c 24 10          	mov    DWORD PTR [esp+0x10],ebp
 8049f19:	8d 04 95 00 00 00 00 	lea    eax,[edx*4]
 8049f20:	89 d1                	mov    ecx,edx
 8049f22:	0f af cd             	imul   ecx,ebp
 8049f25:	89 44 24 08          	mov    DWORD PTR [esp+0x8],eax
 8049f29:	a1 d8 60 05 08       	mov    eax,ds:0x80560d8
 8049f2e:	8d 04 88             	lea    eax,[eax+ecx*4]
 8049f31:	8b 4c 24 2c          	mov    ecx,DWORD PTR [esp+0x2c]
 8049f35:	89 c3                	mov    ebx,eax
 8049f37:	8b 44 24 1c          	mov    eax,DWORD PTR [esp+0x1c]
 8049f3b:	89 df                	mov    edi,ebx
 8049f3d:	0f af c2             	imul   eax,edx
 8049f40:	8d 04 81             	lea    eax,[ecx+eax*4]
 8049f43:	89 44 24 0c          	mov    DWORD PTR [esp+0xc],eax
 8049f47:	90                   	nop
 8049f48:	85 d2                	test   edx,edx
 8049f4a:	7e 25                	jle    8049f71
 8049f4c:	8b 44 24 0c          	mov    eax,DWORD PTR [esp+0xc]
 8049f50:	8d 1c 3e             	lea    ebx,[esi+edi]
 8049f53:	89 74 24 04          	mov    DWORD PTR [esp+0x4],esi
 8049f57:	8d 0c 06             	lea    ecx,[esi+eax]
 8049f5a:	31 c0                	xor    eax,eax
 8049f5c:	8d 74 26 00          	lea    esi,[esi]
 8049f60:	8b 34 83             	mov    esi,DWORD PTR [ebx+eax*4]
 8049f63:	89 34 81             	mov    DWORD PTR [ecx+eax*4],esi
 8049f66:	83 c0 01             	add    eax,0x1
 8049f69:	39 d0                	cmp    eax,edx
 8049f6b:	75 f3                	jne    8049f60
 8049f6d:	8b 74 24 04          	mov    esi,DWORD PTR [esp+0x4]
 8049f71:	83 c5 01             	add    ebp,0x1
 8049f74:	03 74 24 08          	add    esi,DWORD PTR [esp+0x8]
 8049f78:	3b 2c 24             	cmp    ebp,DWORD PTR [esp]
 8049f7b:	75 cb                	jne    8049f48
 8049f7d:	01 6c 24 1c          	add    DWORD PTR [esp+0x1c],ebp
 8049f81:	8b 44 24 10          	mov    eax,DWORD PTR [esp+0x10]
 8049f85:	8b 7c 24 14          	mov    edi,DWORD PTR [esp+0x14]
 8049f89:	29 44 24 1c          	sub    DWORD PTR [esp+0x1c],eax
 8049f8d:	39 7c 24 48          	cmp    DWORD PTR [esp+0x48],edi
 8049f91:	7e 6a                	jle    8049ffd
 8049f93:	8b 15 68 60 05 08    	mov    edx,DWORD PTR ds:0x8056068
 8049f99:	31 f6                	xor    esi,esi
 8049f9b:	8b 5c 24 2c          	mov    ebx,DWORD PTR [esp+0x2c]
 8049f9f:	8d 04 95 00 00 00 00 	lea    eax,[edx*4]
 8049fa6:	89 d1                	mov    ecx,edx
 8049fa8:	89 44 24 04          	mov    DWORD PTR [esp+0x4],eax
 8049fac:	0f af cf             	imul   ecx,edi
 8049faf:	a1 d4 60 05 08       	mov    eax,ds:0x80560d4
 8049fb4:	8d 2c 88             	lea    ebp,[eax+ecx*4]
 8049fb7:	8b 44 24 1c          	mov    eax,DWORD PTR [esp+0x1c]
 8049fbb:	0f af c2             	imul   eax,edx
 8049fbe:	8d 04 83             	lea    eax,[ebx+eax*4]
 8049fc1:	89 44 24 08          	mov    DWORD PTR [esp+0x8],eax
 8049fc5:	8d 76 00             	lea    esi,[esi]
 8049fc8:	85 d2                	test   edx,edx
 8049fca:	7e 24                	jle    8049ff0
 8049fcc:	8b 44 24 08          	mov    eax,DWORD PTR [esp+0x8]
 8049fd0:	8d 1c 2e             	lea    ebx,[esi+ebp]
 8049fd3:	89 34 24             	mov    DWORD PTR [esp],esi
 8049fd6:	8d 0c 06             	lea    ecx,[esi+eax]
 8049fd9:	31 c0                	xor    eax,eax
 8049fdb:	90                   	nop
 8049fdc:	8d 74 26 00          	lea    esi,[esi]
 8049fe0:	8b 34 83             	mov    esi,DWORD PTR [ebx+eax*4]
 8049fe3:	89 34 81             	mov    DWORD PTR [ecx+eax*4],esi
 8049fe6:	83 c0 01             	add    eax,0x1
 8049fe9:	39 d0                	cmp    eax,edx
 8049feb:	75 f3                	jne    8049fe0
 8049fed:	8b 34 24             	mov    esi,DWORD PTR [esp]
 8049ff0:	83 c7 01             	add    edi,0x1
 8049ff3:	03 74 24 04          	add    esi,DWORD PTR [esp+0x4]
 8049ff7:	3b 7c 24 48          	cmp    edi,DWORD PTR [esp+0x48]
 8049ffb:	75 cb                	jne    8049fc8
 8049ffd:	83 c4 34             	add    esp,0x34
 804a000:	5b                   	pop    ebx
 804a001:	5e                   	pop    esi
 804a002:	5f                   	pop    edi
 804a003:	5d                   	pop    ebp
 804a004:	c3                   	ret
 804a005:	8d 76 00             	lea    esi,[esi]
 804a008:	7e 33                	jle    804a03d
 804a00a:	8b 74 24 24          	mov    esi,DWORD PTR [esp+0x24]
 804a00e:	85 f6                	test   esi,esi
 804a010:	0f 85 ae fe ff ff    	jne    8049ec4
 804a016:	8b 4c 24 18          	mov    ecx,DWORD PTR [esp+0x18]
 804a01a:	8b 5c 24 08          	mov    ebx,DWORD PTR [esp+0x8]
 804a01e:	8d 1c 99             	lea    ebx,[ecx+ebx*4]
 804a021:	31 c9                	xor    ecx,ecx
 804a023:	85 c0                	test   eax,eax
 804a025:	7e 0e                	jle    804a035
 804a027:	90                   	nop
 804a028:	8b 34 8b             	mov    esi,DWORD PTR [ebx+ecx*4]
 804a02b:	89 34 8a             	mov    DWORD PTR [edx+ecx*4],esi
 804a02e:	83 c1 01             	add    ecx,0x1
 804a031:	39 c1                	cmp    ecx,eax
 804a033:	75 f3                	jne    804a028
 804a035:	83 c5 01             	add    ebp,0x1
 804a038:	e9 ab fe ff ff       	jmp    8049ee8
 804a03d:	0f 85 81 fe ff ff    	jne    8049ec4
 804a043:	89 44 24 10          	mov    DWORD PTR [esp+0x10],eax
 804a047:	8b 74 24 28          	mov    esi,DWORD PTR [esp+0x28]
 804a04b:	8b 44 24 18          	mov    eax,DWORD PTR [esp+0x18]
 804a04f:	03 74 24 08          	add    esi,DWORD PTR [esp+0x8]
 804a053:	8b 34 b0             	mov    esi,DWORD PTR [eax+esi*4]
 804a056:	8b 44 24 04          	mov    eax,DWORD PTR [esp+0x4]
 804a05a:	89 f3                	mov    ebx,esi
 804a05c:	8b 74 24 28          	mov    esi,DWORD PTR [esp+0x28]
 804a060:	01 ce                	add    esi,ecx
 804a062:	8b 34 b0             	mov    esi,DWORD PTR [eax+esi*4]
 804a065:	8b 44 24 10          	mov    eax,DWORD PTR [esp+0x10]
 804a069:	39 f3                	cmp    ebx,esi
 804a06b:	7e 0d                	jle    804a07a
 804a06d:	8b 5c 24 30          	mov    ebx,DWORD PTR [esp+0x30]
 804a071:	85 db                	test   ebx,ebx
 804a073:	74 a1                	je     804a016
 804a075:	e9 4a fe ff ff       	jmp    8049ec4
 804a07a:	83 7c 24 30 01       	cmp    DWORD PTR [esp+0x30],0x1
 804a07f:	74 95                	je     804a016
 804a081:	39 f3                	cmp    ebx,esi
 804a083:	0f 8c 3b fe ff ff    	jl     8049ec4
 804a089:	eb e2                	jmp    804a06d
 804a08b:	90                   	nop
 804a08c:	8d 74 26 00          	lea    esi,[esi]
 804a090:	31 ff                	xor    edi,edi
 804a092:	31 ed                	xor    ebp,ebp
 804a094:	e9 67 fe ff ff       	jmp    8049f00
 804a099:	8d b4 26 00 00 00 00 	lea    esi,[esi]

0804a0a0 <Merge_TwoArray>:
 804a0a0:	55                   	push   ebp
 804a0a1:	89 d5                	mov    ebp,edx
 804a0a3:	57                   	push   edi
 804a0a4:	89 cf                	mov    edi,ecx
 804a0a6:	56                   	push   esi
 804a0a7:	53                   	push   ebx
 804a0a8:	89 c3                	mov    ebx,eax
 804a0aa:	83 ec 40             	sub    esp,0x40
 804a0ad:	89 44 24 34          	mov    DWORD PTR [esp+0x34],eax
 804a0b1:	8b 44 24 54          	mov    eax,DWORD PTR [esp+0x54]
 804a0b5:	89 54 24 38          	mov    DWORD PTR [esp+0x38],edx
 804a0b9:	89 4c 24 20          	mov    DWORD PTR [esp+0x20],ecx
 804a0bd:	29 c8                	sub    eax,ecx
 804a0bf:	8d 70 01             	lea    esi,[eax+0x1]
 804a0c2:	8b 44 24 54          	mov    eax,DWORD PTR [esp+0x54]
 804a0c6:	29 44 24 58          	sub    DWORD PTR [esp+0x58],eax
 804a0ca:	85 f6                	test   esi,esi
 804a0cc:	89 74 24 08          	mov    DWORD PTR [esp+0x8],esi
 804a0d0:	0f 8e c9 00 00 00    	jle    804a19f
 804a0d6:	a1 d8 60 05 08       	mov    eax,ds:0x80560d8
 804a0db:	31 f6                	xor    esi,esi
 804a0dd:	8b 15 60 60 05 08    	mov    edx,DWORD PTR ds:0x8056060
 804a0e3:	8b 0d 64 60 05 08    	mov    ecx,DWORD PTR ds:0x8056064
 804a0e9:	c7 04 24 00 00 00 00 	mov    DWORD PTR [esp],0x0
 804a0f0:	89 44 24 24          	mov    DWORD PTR [esp+0x24],eax
 804a0f4:	a1 d0 60 05 08       	mov    eax,ds:0x80560d0
 804a0f9:	89 44 24 18          	mov    DWORD PTR [esp+0x18],eax
 804a0fd:	8d 04 95 00 00 00 00 	lea    eax,[edx*4]
 804a104:	89 44 24 0c          	mov    DWORD PTR [esp+0xc],eax
 804a108:	8d 04 8d 00 00 00 00 	lea    eax,[ecx*4]
 804a10f:	89 44 24 10          	mov    DWORD PTR [esp+0x10],eax
 804a113:	89 f8                	mov    eax,edi
 804a115:	0f af c1             	imul   eax,ecx
 804a118:	8d 04 83             	lea    eax,[ebx+eax*4]
 804a11b:	89 44 24 1c          	mov    DWORD PTR [esp+0x1c],eax
 804a11f:	89 f8                	mov    eax,edi
 804a121:	31 ff                	xor    edi,edi
 804a123:	0f af c2             	imul   eax,edx
 804a126:	8d 44 85 00          	lea    eax,[ebp+eax*4]
 804a12a:	89 44 24 14          	mov    DWORD PTR [esp+0x14],eax
 804a12e:	66 90                	xchg   ax,ax
 804a130:	85 c9                	test   ecx,ecx
 804a132:	7e 26                	jle    804a15a
 804a134:	8b 44 24 1c          	mov    eax,DWORD PTR [esp+0x1c]
 804a138:	8b 5c 24 24          	mov    ebx,DWORD PTR [esp+0x24]
 804a13c:	89 54 24 04          	mov    DWORD PTR [esp+0x4],edx
 804a140:	8d 2c 07             	lea    ebp,[edi+eax]
 804a143:	31 c0                	xor    eax,eax
 804a145:	01 fb                	add    ebx,edi
 804a147:	90                   	nop
 804a148:	8b 54 85 00          	mov    edx,DWORD PTR [ebp+eax*4]
 804a14c:	89 14 83             	mov    DWORD PTR [ebx+eax*4],edx
 804a14f:	83 c0 01             	add    eax,0x1
 804a152:	39 c8                	cmp    eax,ecx
 804a154:	75 f2                	jne    804a148
 804a156:	8b 54 24 04          	mov    edx,DWORD PTR [esp+0x4]
 804a15a:	8b 44 24 14          	mov    eax,DWORD PTR [esp+0x14]
 804a15e:	8b 5c 24 18          	mov    ebx,DWORD PTR [esp+0x18]
 804a162:	8d 2c 06             	lea    ebp,[esi+eax]
 804a165:	31 c0                	xor    eax,eax
 804a167:	01 f3                	add    ebx,esi
 804a169:	85 d2                	test   edx,edx
 804a16b:	7e 1d                	jle    804a18a
 804a16d:	89 4c 24 04          	mov    DWORD PTR [esp+0x4],ecx
 804a171:	8d b4 26 00 00 00 00 	lea    esi,[esi]
 804a178:	8b 4c 85 00          	mov    ecx,DWORD PTR [ebp+eax*4]
 804a17c:	89 0c 83             	mov    DWORD PTR [ebx+eax*4],ecx
 804a17f:	83 c0 01             	add    eax,0x1
 804a182:	39 d0                	cmp    eax,edx
 804a184:	75 f2                	jne    804a178
 804a186:	8b 4c 24 04          	mov    ecx,DWORD PTR [esp+0x4]
 804a18a:	83 04 24 01          	add    DWORD PTR [esp],0x1
 804a18e:	8b 44 24 08          	mov    eax,DWORD PTR [esp+0x8]
 804a192:	03 74 24 0c          	add    esi,DWORD PTR [esp+0xc]
 804a196:	03 7c 24 10          	add    edi,DWORD PTR [esp+0x10]
 804a19a:	39 04 24             	cmp    DWORD PTR [esp],eax
 804a19d:	75 91                	jne    804a130
 804a19f:	8b 7c 24 58          	mov    edi,DWORD PTR [esp+0x58]
 804a1a3:	85 ff                	test   edi,edi
 804a1a5:	0f 8e 44 04 00 00    	jle    804a5ef
 804a1ab:	8b 3d d4 60 05 08    	mov    edi,DWORD PTR ds:0x80560d4
 804a1b1:	31 f6                	xor    esi,esi
 804a1b3:	8b 15 60 60 05 08    	mov    edx,DWORD PTR ds:0x8056060
 804a1b9:	a1 64 60 05 08       	mov    eax,ds:0x8056064
 804a1be:	c7 04 24 00 00 00 00 	mov    DWORD PTR [esp],0x0
 804a1c5:	89 7c 24 0c          	mov    DWORD PTR [esp+0xc],edi
 804a1c9:	8b 3d cc 60 05 08    	mov    edi,DWORD PTR ds:0x80560cc
 804a1cf:	89 c3                	mov    ebx,eax
 804a1d1:	89 7c 24 1c          	mov    DWORD PTR [esp+0x1c],edi
 804a1d5:	8d 3c 95 00 00 00 00 	lea    edi,[edx*4]
 804a1dc:	89 7c 24 14          	mov    DWORD PTR [esp+0x14],edi
 804a1e0:	8d 3c 85 00 00 00 00 	lea    edi,[eax*4]
 804a1e7:	89 7c 24 18          	mov    DWORD PTR [esp+0x18],edi
 804a1eb:	8b 7c 24 54          	mov    edi,DWORD PTR [esp+0x54]
 804a1ef:	8d 4f 01             	lea    ecx,[edi+0x1]
 804a1f2:	8b 7c 24 34          	mov    edi,DWORD PTR [esp+0x34]
 804a1f6:	0f af d9             	imul   ebx,ecx
 804a1f9:	0f af ca             	imul   ecx,edx
 804a1fc:	8d 3c 9f             	lea    edi,[edi+ebx*4]
 804a1ff:	89 7c 24 24          	mov    DWORD PTR [esp+0x24],edi
 804a203:	8b 7c 24 38          	mov    edi,DWORD PTR [esp+0x38]
 804a207:	8d 3c 8f             	lea    edi,[edi+ecx*4]
 804a20a:	89 7c 24 10          	mov    DWORD PTR [esp+0x10],edi
 804a20e:	31 ff                	xor    edi,edi
 804a210:	85 c0                	test   eax,eax
 804a212:	7e 26                	jle    804a23a
 804a214:	8b 5c 24 24          	mov    ebx,DWORD PTR [esp+0x24]
 804a218:	31 c9                	xor    ecx,ecx
 804a21a:	89 54 24 04          	mov    DWORD PTR [esp+0x4],edx
 804a21e:	8d 2c 1f             	lea    ebp,[edi+ebx]
 804a221:	8b 5c 24 0c          	mov    ebx,DWORD PTR [esp+0xc]
 804a225:	01 fb                	add    ebx,edi
 804a227:	90                   	nop
 804a228:	8b 54 8d 00          	mov    edx,DWORD PTR [ebp+ecx*4]
 804a22c:	89 14 8b             	mov    DWORD PTR [ebx+ecx*4],edx
 804a22f:	83 c1 01             	add    ecx,0x1
 804a232:	39 c1                	cmp    ecx,eax
 804a234:	75 f2                	jne    804a228
 804a236:	8b 54 24 04          	mov    edx,DWORD PTR [esp+0x4]
 804a23a:	8b 5c 24 10          	mov    ebx,DWORD PTR [esp+0x10]
 804a23e:	31 c9                	xor    ecx,ecx
 804a240:	8d 2c 1e             	lea    ebp,[esi+ebx]
 804a243:	8b 5c 24 1c          	mov    ebx,DWORD PTR [esp+0x1c]
 804a247:	01 f3                	add    ebx,esi
 804a249:	85 d2                	test   edx,edx
 804a24b:	7e 1d                	jle    804a26a
 804a24d:	89 44 24 04          	mov    DWORD PTR [esp+0x4],eax
 804a251:	8d b4 26 00 00 00 00 	lea    esi,[esi]
 804a258:	8b 44 8d 00          	mov    eax,DWORD PTR [ebp+ecx*4]
 804a25c:	89 04 8b             	mov    DWORD PTR [ebx+ecx*4],eax
 804a25f:	83 c1 01             	add    ecx,0x1
 804a262:	39 d1                	cmp    ecx,edx
 804a264:	75 f2                	jne    804a258
 804a266:	8b 44 24 04          	mov    eax,DWORD PTR [esp+0x4]
 804a26a:	83 04 24 01          	add    DWORD PTR [esp],0x1
 804a26e:	8b 1c 24             	mov    ebx,DWORD PTR [esp]
 804a271:	03 74 24 14          	add    esi,DWORD PTR [esp+0x14]
 804a275:	03 7c 24 18          	add    edi,DWORD PTR [esp+0x18]
 804a279:	3b 5c 24 58          	cmp    ebx,DWORD PTR [esp+0x58]
 804a27d:	75 91                	jne    804a210
 804a27f:	8b 74 24 08          	mov    esi,DWORD PTR [esp+0x8]
 804a283:	85 f6                	test   esi,esi
 804a285:	0f 8e 64 03 00 00    	jle    804a5ef
 804a28b:	8b 3d d8 60 05 08    	mov    edi,DWORD PTR ds:0x80560d8
 804a291:	8b 74 24 38          	mov    esi,DWORD PTR [esp+0x38]
 804a295:	c7 04 24 00 00 00 00 	mov    DWORD PTR [esp],0x0
 804a29c:	c7 44 24 04 00 00 00 	mov    DWORD PTR [esp+0x4],0x0
 804a2a3:	00 
 804a2a4:	89 7c 24 24          	mov    DWORD PTR [esp+0x24],edi
 804a2a8:	8b 3d bc 60 05 08    	mov    edi,DWORD PTR ds:0x80560bc
 804a2ae:	89 7c 24 2c          	mov    DWORD PTR [esp+0x2c],edi
 804a2b2:	8b 3d c8 60 05 08    	mov    edi,DWORD PTR ds:0x80560c8
 804a2b8:	89 7c 24 30          	mov    DWORD PTR [esp+0x30],edi
 804a2bc:	8b 3d d0 60 05 08    	mov    edi,DWORD PTR ds:0x80560d0
 804a2c2:	89 7c 24 3c          	mov    DWORD PTR [esp+0x3c],edi
 804a2c6:	8b 7c 24 20          	mov    edi,DWORD PTR [esp+0x20]
 804a2ca:	89 f9                	mov    ecx,edi
 804a2cc:	0f af ca             	imul   ecx,edx
 804a2cf:	8d 2c 8e             	lea    ebp,[esi+ecx*4]
 804a2d2:	89 f9                	mov    ecx,edi
 804a2d4:	8b 7c 24 34          	mov    edi,DWORD PTR [esp+0x34]
 804a2d8:	0f af c8             	imul   ecx,eax
 804a2db:	8d 0c 8f             	lea    ecx,[edi+ecx*4]
 804a2de:	89 d7                	mov    edi,edx
 804a2e0:	8b 5c 24 04          	mov    ebx,DWORD PTR [esp+0x4]
 804a2e4:	8b 74 24 2c          	mov    esi,DWORD PTR [esp+0x2c]
 804a2e8:	0f af d8             	imul   ebx,eax
 804a2eb:	8d 14 33             	lea    edx,[ebx+esi]
 804a2ee:	89 5c 24 28          	mov    DWORD PTR [esp+0x28],ebx
 804a2f2:	8b 5c 24 24          	mov    ebx,DWORD PTR [esp+0x24]
 804a2f6:	8b 14 93             	mov    edx,DWORD PTR [ebx+edx*4]
 804a2f9:	8b 5c 24 0c          	mov    ebx,DWORD PTR [esp+0xc]
 804a2fd:	89 54 24 10          	mov    DWORD PTR [esp+0x10],edx
 804a301:	8b 14 24             	mov    edx,DWORD PTR [esp]
 804a304:	0f af d0             	imul   edx,eax
 804a307:	01 d6                	add    esi,edx
 804a309:	8b 34 b3             	mov    esi,DWORD PTR [ebx+esi*4]
 804a30c:	39 74 24 10          	cmp    DWORD PTR [esp+0x10],esi
 804a310:	0f 8e 7a 02 00 00    	jle    804a590
 804a316:	8b 5c 24 30          	mov    ebx,DWORD PTR [esp+0x30]
 804a31a:	85 db                	test   ebx,ebx
 804a31c:	0f 85 83 02 00 00    	jne    804a5a5
 804a322:	8b 74 24 24          	mov    esi,DWORD PTR [esp+0x24]
 804a326:	31 d2                	xor    edx,edx
 804a328:	85 c0                	test   eax,eax
 804a32a:	8b 5c 24 28          	mov    ebx,DWORD PTR [esp+0x28]
 804a32e:	8d 1c 9e             	lea    ebx,[esi+ebx*4]
 804a331:	7e 12                	jle    804a345
 804a333:	90                   	nop
 804a334:	8d 74 26 00          	lea    esi,[esi]
 804a338:	8b 34 93             	mov    esi,DWORD PTR [ebx+edx*4]
 804a33b:	89 34 91             	mov    DWORD PTR [ecx+edx*4],esi
 804a33e:	83 c2 01             	add    edx,0x1
 804a341:	39 c2                	cmp    edx,eax
 804a343:	75 f3                	jne    804a338
 804a345:	85 ff                	test   edi,edi
 804a347:	7e 25                	jle    804a36e
 804a349:	8b 54 24 04          	mov    edx,DWORD PTR [esp+0x4]
 804a34d:	8b 74 24 3c          	mov    esi,DWORD PTR [esp+0x3c]
 804a351:	0f af d7             	imul   edx,edi
 804a354:	8d 1c 96             	lea    ebx,[esi+edx*4]
 804a357:	31 d2                	xor    edx,edx
 804a359:	8d b4 26 00 00 00 00 	lea    esi,[esi]
 804a360:	8b 34 93             	mov    esi,DWORD PTR [ebx+edx*4]
 804a363:	89 74 95 00          	mov    DWORD PTR [ebp+edx*4],esi
 804a367:	83 c2 01             	add    edx,0x1
 804a36a:	39 fa                	cmp    edx,edi
 804a36c:	75 f2                	jne    804a360
 804a36e:	83 44 24 04 01       	add    DWORD PTR [esp+0x4],0x1
 804a373:	8b 34 24             	mov    esi,DWORD PTR [esp]
 804a376:	83 44 24 20 01       	add    DWORD PTR [esp+0x20],0x1
 804a37b:	03 6c 24 14          	add    ebp,DWORD PTR [esp+0x14]
 804a37f:	03 4c 24 18          	add    ecx,DWORD PTR [esp+0x18]
 804a383:	3b 74 24 58          	cmp    esi,DWORD PTR [esp+0x58]
 804a387:	7d 0e                	jge    804a397
 804a389:	8b 74 24 08          	mov    esi,DWORD PTR [esp+0x8]
 804a38d:	39 74 24 04          	cmp    DWORD PTR [esp+0x4],esi
 804a391:	0f 8c 49 ff ff ff    	jl     804a2e0
 804a397:	8b 44 24 04          	mov    eax,DWORD PTR [esp+0x4]
 804a39b:	39 44 24 08          	cmp    DWORD PTR [esp+0x8],eax
 804a39f:	0f 8e f4 00 00 00    	jle    804a499
 804a3a5:	8b 15 60 60 05 08    	mov    edx,DWORD PTR ds:0x8056060
 804a3ab:	89 c3                	mov    ebx,eax
 804a3ad:	8b 0d 64 60 05 08    	mov    ecx,DWORD PTR ds:0x8056064
 804a3b3:	89 44 24 2c          	mov    DWORD PTR [esp+0x2c],eax
 804a3b7:	8b 74 24 20          	mov    esi,DWORD PTR [esp+0x20]
 804a3bb:	8d 3c 95 00 00 00 00 	lea    edi,[edx*4]
 804a3c2:	89 7c 24 14          	mov    DWORD PTR [esp+0x14],edi
 804a3c6:	8d 3c 8d 00 00 00 00 	lea    edi,[ecx*4]
 804a3cd:	0f af d9             	imul   ebx,ecx
 804a3d0:	89 7c 24 18          	mov    DWORD PTR [esp+0x18],edi
 804a3d4:	89 c7                	mov    edi,eax
 804a3d6:	a1 d8 60 05 08       	mov    eax,ds:0x80560d8
 804a3db:	8d 04 98             	lea    eax,[eax+ebx*4]
 804a3de:	8b 5c 24 34          	mov    ebx,DWORD PTR [esp+0x34]
 804a3e2:	89 44 24 28          	mov    DWORD PTR [esp+0x28],eax
 804a3e6:	89 f0                	mov    eax,esi
 804a3e8:	0f af c1             	imul   eax,ecx
 804a3eb:	8d 04 83             	lea    eax,[ebx+eax*4]
 804a3ee:	89 fb                	mov    ebx,edi
 804a3f0:	8b 7c 24 38          	mov    edi,DWORD PTR [esp+0x38]
 804a3f4:	89 44 24 24          	mov    DWORD PTR [esp+0x24],eax
 804a3f8:	0f af da             	imul   ebx,edx
 804a3fb:	a1 d0 60 05 08       	mov    eax,ds:0x80560d0
 804a400:	8d 04 98             	lea    eax,[eax+ebx*4]
 804a403:	89 44 24 10          	mov    DWORD PTR [esp+0x10],eax
 804a407:	89 f0                	mov    eax,esi
 804a409:	31 f6                	xor    esi,esi
 804a40b:	0f af c2             	imul   eax,edx
 804a40e:	8d 04 87             	lea    eax,[edi+eax*4]
 804a411:	31 ff                	xor    edi,edi
 804a413:	89 44 24 1c          	mov    DWORD PTR [esp+0x1c],eax
 804a417:	90                   	nop
 804a418:	85 c9                	test   ecx,ecx
 804a41a:	7e 26                	jle    804a442
 804a41c:	8b 44 24 28          	mov    eax,DWORD PTR [esp+0x28]
 804a420:	89 54 24 0c          	mov    DWORD PTR [esp+0xc],edx
 804a424:	8d 2c 07             	lea    ebp,[edi+eax]
 804a427:	8b 44 24 24          	mov    eax,DWORD PTR [esp+0x24]
 804a42b:	8d 1c 07             	lea    ebx,[edi+eax]
 804a42e:	31 c0                	xor    eax,eax
 804a430:	8b 54 85 00          	mov    edx,DWORD PTR [ebp+eax*4]
 804a434:	89 14 83             	mov    DWORD PTR [ebx+eax*4],edx
 804a437:	83 c0 01             	add    eax,0x1
 804a43a:	39 c8                	cmp    eax,ecx
 804a43c:	75 f2                	jne    804a430
 804a43e:	8b 54 24 0c          	mov    edx,DWORD PTR [esp+0xc]
 804a442:	8b 44 24 10          	mov    eax,DWORD PTR [esp+0x10]
 804a446:	8d 2c 06             	lea    ebp,[esi+eax]
 804a449:	8b 44 24 1c          	mov    eax,DWORD PTR [esp+0x1c]
 804a44d:	8d 1c 06             	lea    ebx,[esi+eax]
 804a450:	31 c0                	xor    eax,eax
 804a452:	85 d2                	test   edx,edx
 804a454:	7e 1c                	jle    804a472
 804a456:	89 4c 24 0c          	mov    DWORD PTR [esp+0xc],ecx
 804a45a:	8d b6 00 00 00 00    	lea    esi,[esi]
 804a460:	8b 4c 85 00          	mov    ecx,DWORD PTR [ebp+eax*4]
 804a464:	89 0c 83             	mov    DWORD PTR [ebx+eax*4],ecx
 804a467:	83 c0 01             	add    eax,0x1
 804a46a:	39 d0                	cmp    eax,edx
 804a46c:	75 f2                	jne    804a460
 804a46e:	8b 4c 24 0c          	mov    ecx,DWORD PTR [esp+0xc]
 804a472:	83 44 24 04 01       	add    DWORD PTR [esp+0x4],0x1
 804a477:	8b 44 24 08          	mov    eax,DWORD PTR [esp+0x8]
 804a47b:	03 74 24 14          	add    esi,DWORD PTR [esp+0x14]
 804a47f:	03 7c 24 18          	add    edi,DWORD PTR [esp+0x18]
 804a483:	39 44 24 04          	cmp    DWORD PTR [esp+0x4],eax
 804a487:	75 8f                	jne    804a418
 804a489:	8b 44 24 04          	mov    eax,DWORD PTR [esp+0x4]
 804a48d:	01 44 24 20          	add    DWORD PTR [esp+0x20],eax
 804a491:	8b 44 24 2c          	mov    eax,DWORD PTR [esp+0x2c]
 804a495:	29 44 24 20          	sub    DWORD PTR [esp+0x20],eax
 804a499:	8b 04 24             	mov    eax,DWORD PTR [esp]
 804a49c:	39 44 24 58          	cmp    DWORD PTR [esp+0x58],eax
 804a4a0:	0f 8e e1 00 00 00    	jle    804a587
 804a4a6:	8b 15 60 60 05 08    	mov    edx,DWORD PTR ds:0x8056060
 804a4ac:	89 c3                	mov    ebx,eax
 804a4ae:	8b 0d 64 60 05 08    	mov    ecx,DWORD PTR ds:0x8056064
 804a4b4:	8b 74 24 20          	mov    esi,DWORD PTR [esp+0x20]
 804a4b8:	8d 3c 95 00 00 00 00 	lea    edi,[edx*4]
 804a4bf:	89 7c 24 10          	mov    DWORD PTR [esp+0x10],edi
 804a4c3:	8d 3c 8d 00 00 00 00 	lea    edi,[ecx*4]
 804a4ca:	0f af d9             	imul   ebx,ecx
 804a4cd:	89 7c 24 14          	mov    DWORD PTR [esp+0x14],edi
 804a4d1:	89 c7                	mov    edi,eax
 804a4d3:	a1 d4 60 05 08       	mov    eax,ds:0x80560d4
 804a4d8:	8d 04 98             	lea    eax,[eax+ebx*4]
 804a4db:	8b 5c 24 34          	mov    ebx,DWORD PTR [esp+0x34]
 804a4df:	89 44 24 18          	mov    DWORD PTR [esp+0x18],eax
 804a4e3:	89 f0                	mov    eax,esi
 804a4e5:	0f af c1             	imul   eax,ecx
 804a4e8:	8d 04 83             	lea    eax,[ebx+eax*4]
 804a4eb:	89 fb                	mov    ebx,edi
 804a4ed:	8b 7c 24 38          	mov    edi,DWORD PTR [esp+0x38]
 804a4f1:	89 44 24 1c          	mov    DWORD PTR [esp+0x1c],eax
 804a4f5:	0f af da             	imul   ebx,edx
 804a4f8:	a1 cc 60 05 08       	mov    eax,ds:0x80560cc
 804a4fd:	8d 04 98             	lea    eax,[eax+ebx*4]
 804a500:	89 44 24 08          	mov    DWORD PTR [esp+0x8],eax
 804a504:	89 f0                	mov    eax,esi
 804a506:	31 f6                	xor    esi,esi
 804a508:	0f af c2             	imul   eax,edx
 804a50b:	8d 04 87             	lea    eax,[edi+eax*4]
 804a50e:	31 ff                	xor    edi,edi
 804a510:	89 44 24 0c          	mov    DWORD PTR [esp+0xc],eax
 804a514:	8d 74 26 00          	lea    esi,[esi]
 804a518:	85 c9                	test   ecx,ecx
 804a51a:	7e 26                	jle    804a542
 804a51c:	8b 44 24 18          	mov    eax,DWORD PTR [esp+0x18]
 804a520:	89 54 24 04          	mov    DWORD PTR [esp+0x4],edx
 804a524:	8d 2c 07             	lea    ebp,[edi+eax]
 804a527:	8b 44 24 1c          	mov    eax,DWORD PTR [esp+0x1c]
 804a52b:	8d 1c 07             	lea    ebx,[edi+eax]
 804a52e:	31 c0                	xor    eax,eax
 804a530:	8b 54 85 00          	mov    edx,DWORD PTR [ebp+eax*4]
 804a534:	89 14 83             	mov    DWORD PTR [ebx+eax*4],edx
 804a537:	83 c0 01             	add    eax,0x1
 804a53a:	39 c8                	cmp    eax,ecx
 804a53c:	75 f2                	jne    804a530
 804a53e:	8b 54 24 04          	mov    edx,DWORD PTR [esp+0x4]
 804a542:	8b 44 24 08          	mov    eax,DWORD PTR [esp+0x8]
 804a546:	8d 2c 06             	lea    ebp,[esi+eax]
 804a549:	8b 44 24 0c          	mov    eax,DWORD PTR [esp+0xc]
 804a54d:	8d 1c 06             	lea    ebx,[esi+eax]
 804a550:	31 c0                	xor    eax,eax
 804a552:	85 d2                	test   edx,edx
 804a554:	7e 1c                	jle    804a572
 804a556:	89 4c 24 04          	mov    DWORD PTR [esp+0x4],ecx
 804a55a:	8d b6 00 00 00 00    	lea    esi,[esi]
 804a560:	8b 4c 85 00          	mov    ecx,DWORD PTR [ebp+eax*4]
 804a564:	89 0c 83             	mov    DWORD PTR [ebx+eax*4],ecx
 804a567:	83 c0 01             	add    eax,0x1
 804a56a:	39 d0                	cmp    eax,edx
 804a56c:	75 f2                	jne    804a560
 804a56e:	8b 4c 24 04          	mov    ecx,DWORD PTR [esp+0x4]
 804a572:	83 04 24 01          	add    DWORD PTR [esp],0x1
 804a576:	8b 04 24             	mov    eax,DWORD PTR [esp]
 804a579:	03 74 24 10          	add    esi,DWORD PTR [esp+0x10]
 804a57d:	03 7c 24 14          	add    edi,DWORD PTR [esp+0x14]
 804a581:	3b 44 24 58          	cmp    eax,DWORD PTR [esp+0x58]
 804a585:	75 91                	jne    804a518
 804a587:	83 c4 40             	add    esp,0x40
 804a58a:	5b                   	pop    ebx
 804a58b:	5e                   	pop    esi
 804a58c:	5f                   	pop    edi
 804a58d:	5d                   	pop    ebp
 804a58e:	c3                   	ret
 804a58f:	90                   	nop
 804a590:	83 7c 24 30 01       	cmp    DWORD PTR [esp+0x30],0x1
 804a595:	0f 84 87 fd ff ff    	je     804a322
 804a59b:	39 74 24 10          	cmp    DWORD PTR [esp+0x10],esi
 804a59f:	0f 8d 71 fd ff ff    	jge    804a316
 804a5a5:	8b 74 24 0c          	mov    esi,DWORD PTR [esp+0xc]
 804a5a9:	8d 1c 96             	lea    ebx,[esi+edx*4]
 804a5ac:	31 d2                	xor    edx,edx
 804a5ae:	85 c0                	test   eax,eax
 804a5b0:	7e 13                	jle    804a5c5
 804a5b2:	8d b6 00 00 00 00    	lea    esi,[esi]
 804a5b8:	8b 34 93             	mov    esi,DWORD PTR [ebx+edx*4]
 804a5bb:	89 34 91             	mov    DWORD PTR [ecx+edx*4],esi
 804a5be:	83 c2 01             	add    edx,0x1
 804a5c1:	39 c2                	cmp    edx,eax
 804a5c3:	75 f3                	jne    804a5b8
 804a5c5:	85 ff                	test   edi,edi
 804a5c7:	7e 1d                	jle    804a5e6
 804a5c9:	8b 14 24             	mov    edx,DWORD PTR [esp]
 804a5cc:	8b 74 24 1c          	mov    esi,DWORD PTR [esp+0x1c]
 804a5d0:	0f af d7             	imul   edx,edi
 804a5d3:	8d 1c 96             	lea    ebx,[esi+edx*4]
 804a5d6:	31 d2                	xor    edx,edx
 804a5d8:	8b 34 93             	mov    esi,DWORD PTR [ebx+edx*4]
 804a5db:	89 74 95 00          	mov    DWORD PTR [ebp+edx*4],esi
 804a5df:	83 c2 01             	add    edx,0x1
 804a5e2:	39 fa                	cmp    edx,edi
 804a5e4:	75 f2                	jne    804a5d8
 804a5e6:	83 04 24 01          	add    DWORD PTR [esp],0x1
 804a5ea:	e9 84 fd ff ff       	jmp    804a373
 804a5ef:	c7 04 24 00 00 00 00 	mov    DWORD PTR [esp],0x0
 804a5f6:	c7 44 24 04 00 00 00 	mov    DWORD PTR [esp+0x4],0x0
 804a5fd:	00 
 804a5fe:	e9 94 fd ff ff       	jmp    804a397
 804a603:	8d b6 00 00 00 00    	lea    esi,[esi]
 804a609:	8d bc 27 00 00 00 00 	lea    edi,[edi]

0804a610 <Merge_TwoArray_TwoKey>:
 804a610:	55                   	push   ebp
 804a611:	89 d5                	mov    ebp,edx
 804a613:	57                   	push   edi
 804a614:	56                   	push   esi
 804a615:	89 ce                	mov    esi,ecx
 804a617:	53                   	push   ebx
 804a618:	89 c3                	mov    ebx,eax
 804a61a:	83 ec 4c             	sub    esp,0x4c
 804a61d:	89 44 24 40          	mov    DWORD PTR [esp+0x40],eax
 804a621:	8b 44 24 60          	mov    eax,DWORD PTR [esp+0x60]
 804a625:	89 54 24 44          	mov    DWORD PTR [esp+0x44],edx
 804a629:	89 4c 24 2c          	mov    DWORD PTR [esp+0x2c],ecx
 804a62d:	29 c8                	sub    eax,ecx
 804a62f:	8d 78 01             	lea    edi,[eax+0x1]
 804a632:	8b 44 24 60          	mov    eax,DWORD PTR [esp+0x60]
 804a636:	29 44 24 64          	sub    DWORD PTR [esp+0x64],eax
 804a63a:	85 ff                	test   edi,edi
 804a63c:	89 7c 24 08          	mov    DWORD PTR [esp+0x8],edi
 804a640:	0f 8e c9 00 00 00    	jle    804a70f
 804a646:	a1 d8 60 05 08       	mov    eax,ds:0x80560d8
 804a64b:	31 ff                	xor    edi,edi
 804a64d:	8b 15 60 60 05 08    	mov    edx,DWORD PTR ds:0x8056060
 804a653:	8b 0d 64 60 05 08    	mov    ecx,DWORD PTR ds:0x8056064
 804a659:	c7 04 24 00 00 00 00 	mov    DWORD PTR [esp],0x0
 804a660:	89 44 24 20          	mov    DWORD PTR [esp+0x20],eax
 804a664:	a1 d0 60 05 08       	mov    eax,ds:0x80560d0
 804a669:	89 44 24 18          	mov    DWORD PTR [esp+0x18],eax
 804a66d:	8d 04 95 00 00 00 00 	lea    eax,[edx*4]
 804a674:	89 44 24 0c          	mov    DWORD PTR [esp+0xc],eax
 804a678:	8d 04 8d 00 00 00 00 	lea    eax,[ecx*4]
 804a67f:	89 44 24 10          	mov    DWORD PTR [esp+0x10],eax
 804a683:	89 f0                	mov    eax,esi
 804a685:	0f af c1             	imul   eax,ecx
 804a688:	8d 04 83             	lea    eax,[ebx+eax*4]
 804a68b:	89 44 24 1c          	mov    DWORD PTR [esp+0x1c],eax
 804a68f:	89 f0                	mov    eax,esi
 804a691:	31 f6                	xor    esi,esi
 804a693:	0f af c2             	imul   eax,edx
 804a696:	8d 44 85 00          	lea    eax,[ebp+eax*4]
 804a69a:	89 44 24 14          	mov    DWORD PTR [esp+0x14],eax
 804a69e:	66 90                	xchg   ax,ax
 804a6a0:	85 c9                	test   ecx,ecx
 804a6a2:	7e 26                	jle    804a6ca
 804a6a4:	8b 44 24 1c          	mov    eax,DWORD PTR [esp+0x1c]
 804a6a8:	8b 5c 24 20          	mov    ebx,DWORD PTR [esp+0x20]
 804a6ac:	89 54 24 04          	mov    DWORD PTR [esp+0x4],edx
 804a6b0:	8d 2c 07             	lea    ebp,[edi+eax]
 804a6b3:	31 c0                	xor    eax,eax
 804a6b5:	01 fb                	add    ebx,edi
 804a6b7:	90                   	nop
 804a6b8:	8b 54 85 00          	mov    edx,DWORD PTR [ebp+eax*4]
 804a6bc:	89 14 83             	mov    DWORD PTR [ebx+eax*4],edx
 804a6bf:	83 c0 01             	add    eax,0x1
 804a6c2:	39 c8                	cmp    eax,ecx
 804a6c4:	75 f2                	jne    804a6b8
 804a6c6:	8b 54 24 04          	mov    edx,DWORD PTR [esp+0x4]
 804a6ca:	8b 44 24 14          	mov    eax,DWORD PTR [esp+0x14]
 804a6ce:	8b 5c 24 18          	mov    ebx,DWORD PTR [esp+0x18]
 804a6d2:	8d 2c 06             	lea    ebp,[esi+eax]
 804a6d5:	31 c0                	xor    eax,eax
 804a6d7:	01 f3                	add    ebx,esi
 804a6d9:	85 d2                	test   edx,edx
 804a6db:	7e 1d                	jle    804a6fa
 804a6dd:	89 4c 24 04          	mov    DWORD PTR [esp+0x4],ecx
 804a6e1:	8d b4 26 00 00 00 00 	lea    esi,[esi]
 804a6e8:	8b 4c 85 00          	mov    ecx,DWORD PTR [ebp+eax*4]
 804a6ec:	89 0c 83             	mov    DWORD PTR [ebx+eax*4],ecx
 804a6ef:	83 c0 01             	add    eax,0x1
 804a6f2:	39 d0                	cmp    eax,edx
 804a6f4:	75 f2                	jne    804a6e8
 804a6f6:	8b 4c 24 04          	mov    ecx,DWORD PTR [esp+0x4]
 804a6fa:	83 04 24 01          	add    DWORD PTR [esp],0x1
 804a6fe:	8b 44 24 08          	mov    eax,DWORD PTR [esp+0x8]
 804a702:	03 74 24 0c          	add    esi,DWORD PTR [esp+0xc]
 804a706:	03 7c 24 10          	add    edi,DWORD PTR [esp+0x10]
 804a70a:	39 04 24             	cmp    DWORD PTR [esp],eax
 804a70d:	75 91                	jne    804a6a0
 804a70f:	8b 44 24 64          	mov    eax,DWORD PTR [esp+0x64]
 804a713:	85 c0                	test   eax,eax
 804a715:	0f 8e b5 04 00 00    	jle    804abd0
 804a71b:	8b 35 d4 60 05 08    	mov    esi,DWORD PTR ds:0x80560d4
 804a721:	31 ff                	xor    edi,edi
 804a723:	8b 15 60 60 05 08    	mov    edx,DWORD PTR ds:0x8056060
 804a729:	a1 64 60 05 08       	mov    eax,ds:0x8056064
 804a72e:	c7 04 24 00 00 00 00 	mov    DWORD PTR [esp],0x0
 804a735:	89 74 24 0c          	mov    DWORD PTR [esp+0xc],esi
 804a739:	8b 35 cc 60 05 08    	mov    esi,DWORD PTR ds:0x80560cc
 804a73f:	89 c3                	mov    ebx,eax
 804a741:	89 74 24 28          	mov    DWORD PTR [esp+0x28],esi
 804a745:	8d 34 95 00 00 00 00 	lea    esi,[edx*4]
 804a74c:	89 74 24 14          	mov    DWORD PTR [esp+0x14],esi
 804a750:	8d 34 85 00 00 00 00 	lea    esi,[eax*4]
 804a757:	89 74 24 18          	mov    DWORD PTR [esp+0x18],esi
 804a75b:	8b 74 24 60          	mov    esi,DWORD PTR [esp+0x60]
 804a75f:	8d 4e 01             	lea    ecx,[esi+0x1]
 804a762:	8b 74 24 40          	mov    esi,DWORD PTR [esp+0x40]
 804a766:	0f af d9             	imul   ebx,ecx
 804a769:	0f af ca             	imul   ecx,edx
 804a76c:	8d 34 9e             	lea    esi,[esi+ebx*4]
 804a76f:	89 74 24 1c          	mov    DWORD PTR [esp+0x1c],esi
 804a773:	8b 74 24 44          	mov    esi,DWORD PTR [esp+0x44]
 804a777:	8d 34 8e             	lea    esi,[esi+ecx*4]
 804a77a:	89 74 24 10          	mov    DWORD PTR [esp+0x10],esi
 804a77e:	31 f6                	xor    esi,esi
 804a780:	85 c0                	test   eax,eax
 804a782:	7e 26                	jle    804a7aa
 804a784:	8b 5c 24 1c          	mov    ebx,DWORD PTR [esp+0x1c]
 804a788:	31 c9                	xor    ecx,ecx
 804a78a:	89 54 24 04          	mov    DWORD PTR [esp+0x4],edx
 804a78e:	8d 2c 1f             	lea    ebp,[edi+ebx]
 804a791:	8b 5c 24 0c          	mov    ebx,DWORD PTR [esp+0xc]
 804a795:	01 fb                	add    ebx,edi
 804a797:	90                   	nop
 804a798:	8b 54 8d 00          	mov    edx,DWORD PTR [ebp+ecx*4]
 804a79c:	89 14 8b             	mov    DWORD PTR [ebx+ecx*4],edx
 804a79f:	83 c1 01             	add    ecx,0x1
 804a7a2:	39 c1                	cmp    ecx,eax
 804a7a4:	75 f2                	jne    804a798
 804a7a6:	8b 54 24 04          	mov    edx,DWORD PTR [esp+0x4]
 804a7aa:	8b 5c 24 10          	mov    ebx,DWORD PTR [esp+0x10]
 804a7ae:	31 c9                	xor    ecx,ecx
 804a7b0:	8d 2c 1e             	lea    ebp,[esi+ebx]
 804a7b3:	8b 5c 24 28          	mov    ebx,DWORD PTR [esp+0x28]
 804a7b7:	01 f3                	add    ebx,esi
 804a7b9:	85 d2                	test   edx,edx
 804a7bb:	7e 1d                	jle    804a7da
 804a7bd:	89 44 24 04          	mov    DWORD PTR [esp+0x4],eax
 804a7c1:	8d b4 26 00 00 00 00 	lea    esi,[esi]
 804a7c8:	8b 44 8d 00          	mov    eax,DWORD PTR [ebp+ecx*4]
 804a7cc:	89 04 8b             	mov    DWORD PTR [ebx+ecx*4],eax
 804a7cf:	83 c1 01             	add    ecx,0x1
 804a7d2:	39 d1                	cmp    ecx,edx
 804a7d4:	75 f2                	jne    804a7c8
 804a7d6:	8b 44 24 04          	mov    eax,DWORD PTR [esp+0x4]
 804a7da:	83 04 24 01          	add    DWORD PTR [esp],0x1
 804a7de:	8b 1c 24             	mov    ebx,DWORD PTR [esp]
 804a7e1:	03 74 24 14          	add    esi,DWORD PTR [esp+0x14]
 804a7e5:	03 7c 24 18          	add    edi,DWORD PTR [esp+0x18]
 804a7e9:	3b 5c 24 64          	cmp    ebx,DWORD PTR [esp+0x64]
 804a7ed:	75 91                	jne    804a780
 804a7ef:	8b 6c 24 08          	mov    ebp,DWORD PTR [esp+0x8]
 804a7f3:	85 ed                	test   ebp,ebp
 804a7f5:	0f 8e d5 03 00 00    	jle    804abd0
 804a7fb:	8b 35 d8 60 05 08    	mov    esi,DWORD PTR ds:0x80560d8
 804a801:	8b 5c 24 2c          	mov    ebx,DWORD PTR [esp+0x2c]
 804a805:	c7 04 24 00 00 00 00 	mov    DWORD PTR [esp],0x0
 804a80c:	c7 44 24 04 00 00 00 	mov    DWORD PTR [esp+0x4],0x0
 804a813:	00 
 804a814:	89 74 24 24          	mov    DWORD PTR [esp+0x24],esi
 804a818:	8b 35 b8 60 05 08    	mov    esi,DWORD PTR ds:0x80560b8
 804a81e:	89 d9                	mov    ecx,ebx
 804a820:	0f af ca             	imul   ecx,edx
 804a823:	0f af d8             	imul   ebx,eax
 804a826:	89 74 24 30          	mov    DWORD PTR [esp+0x30],esi
 804a82a:	8b 35 c4 60 05 08    	mov    esi,DWORD PTR ds:0x80560c4
 804a830:	89 74 24 34          	mov    DWORD PTR [esp+0x34],esi
 804a834:	8b 35 b4 60 05 08    	mov    esi,DWORD PTR ds:0x80560b4
 804a83a:	89 74 24 3c          	mov    DWORD PTR [esp+0x3c],esi
 804a83e:	8b 35 c0 60 05 08    	mov    esi,DWORD PTR ds:0x80560c0
 804a844:	89 74 24 48          	mov    DWORD PTR [esp+0x48],esi
 804a848:	8b 35 d0 60 05 08    	mov    esi,DWORD PTR ds:0x80560d0
 804a84e:	89 74 24 38          	mov    DWORD PTR [esp+0x38],esi
 804a852:	8b 74 24 44          	mov    esi,DWORD PTR [esp+0x44]
 804a856:	8d 0c 8e             	lea    ecx,[esi+ecx*4]
 804a859:	8b 74 24 40          	mov    esi,DWORD PTR [esp+0x40]
 804a85d:	8d 2c 9e             	lea    ebp,[esi+ebx*4]
 804a860:	8b 7c 24 04          	mov    edi,DWORD PTR [esp+0x4]
 804a864:	8b 74 24 30          	mov    esi,DWORD PTR [esp+0x30]
 804a868:	89 54 24 20          	mov    DWORD PTR [esp+0x20],edx
 804a86c:	89 44 24 1c          	mov    DWORD PTR [esp+0x1c],eax
 804a870:	0f af f8             	imul   edi,eax
 804a873:	8d 1c 37             	lea    ebx,[edi+esi]
 804a876:	89 da                	mov    edx,ebx
 804a878:	8b 1c 24             	mov    ebx,DWORD PTR [esp]
 804a87b:	89 7c 24 10          	mov    DWORD PTR [esp+0x10],edi
 804a87f:	0f af d8             	imul   ebx,eax
 804a882:	8b 44 24 24          	mov    eax,DWORD PTR [esp+0x24]
 804a886:	8d 3c 33             	lea    edi,[ebx+esi]
 804a889:	89 d6                	mov    esi,edx
 804a88b:	8b 54 24 0c          	mov    edx,DWORD PTR [esp+0xc]
 804a88f:	8b 14 ba             	mov    edx,DWORD PTR [edx+edi*4]
 804a892:	39 14 b0             	cmp    DWORD PTR [eax+esi*4],edx
 804a895:	8b 44 24 1c          	mov    eax,DWORD PTR [esp+0x1c]
 804a899:	8b 54 24 20          	mov    edx,DWORD PTR [esp+0x20]
 804a89d:	0f 8d 75 02 00 00    	jge    804ab18
 804a8a3:	83 7c 24 34 01       	cmp    DWORD PTR [esp+0x34],0x1
 804a8a8:	0f 84 78 02 00 00    	je     804ab26
 804a8ae:	8b 74 24 0c          	mov    esi,DWORD PTR [esp+0xc]
 804a8b2:	8d 34 9e             	lea    esi,[esi+ebx*4]
 804a8b5:	31 db                	xor    ebx,ebx
 804a8b7:	85 c0                	test   eax,eax
 804a8b9:	7e 13                	jle    804a8ce
 804a8bb:	90                   	nop
 804a8bc:	8d 74 26 00          	lea    esi,[esi]
 804a8c0:	8b 3c 9e             	mov    edi,DWORD PTR [esi+ebx*4]
 804a8c3:	89 7c 9d 00          	mov    DWORD PTR [ebp+ebx*4],edi
 804a8c7:	83 c3 01             	add    ebx,0x1
 804a8ca:	39 c3                	cmp    ebx,eax
 804a8cc:	75 f2                	jne    804a8c0
 804a8ce:	85 d2                	test   edx,edx
 804a8d0:	7e 23                	jle    804a8f5
 804a8d2:	8b 1c 24             	mov    ebx,DWORD PTR [esp]
 804a8d5:	8b 74 24 28          	mov    esi,DWORD PTR [esp+0x28]
 804a8d9:	0f af da             	imul   ebx,edx
 804a8dc:	8d 34 9e             	lea    esi,[esi+ebx*4]
 804a8df:	31 db                	xor    ebx,ebx
 804a8e1:	8d b4 26 00 00 00 00 	lea    esi,[esi]
 804a8e8:	8b 3c 9e             	mov    edi,DWORD PTR [esi+ebx*4]
 804a8eb:	89 3c 99             	mov    DWORD PTR [ecx+ebx*4],edi
 804a8ee:	83 c3 01             	add    ebx,0x1
 804a8f1:	39 d3                	cmp    ebx,edx
 804a8f3:	75 f3                	jne    804a8e8
 804a8f5:	83 04 24 01          	add    DWORD PTR [esp],0x1
 804a8f9:	8b 34 24             	mov    esi,DWORD PTR [esp]
 804a8fc:	83 44 24 2c 01       	add    DWORD PTR [esp+0x2c],0x1
 804a901:	03 4c 24 14          	add    ecx,DWORD PTR [esp+0x14]
 804a905:	03 6c 24 18          	add    ebp,DWORD PTR [esp+0x18]
 804a909:	3b 74 24 64          	cmp    esi,DWORD PTR [esp+0x64]
 804a90d:	7d 0e                	jge    804a91d
 804a90f:	8b 74 24 08          	mov    esi,DWORD PTR [esp+0x8]
 804a913:	39 74 24 04          	cmp    DWORD PTR [esp+0x4],esi
 804a917:	0f 8c 43 ff ff ff    	jl     804a860
 804a91d:	8b 44 24 04          	mov    eax,DWORD PTR [esp+0x4]
 804a921:	39 44 24 08          	cmp    DWORD PTR [esp+0x8],eax
 804a925:	0f 8e f6 00 00 00    	jle    804aa21
 804a92b:	8b 15 60 60 05 08    	mov    edx,DWORD PTR ds:0x8056060
 804a931:	89 c3                	mov    ebx,eax
 804a933:	8b 0d 64 60 05 08    	mov    ecx,DWORD PTR ds:0x8056064
 804a939:	89 44 24 28          	mov    DWORD PTR [esp+0x28],eax
 804a93d:	8b 7c 24 2c          	mov    edi,DWORD PTR [esp+0x2c]
 804a941:	8d 34 95 00 00 00 00 	lea    esi,[edx*4]
 804a948:	89 74 24 14          	mov    DWORD PTR [esp+0x14],esi
 804a94c:	8d 34 8d 00 00 00 00 	lea    esi,[ecx*4]
 804a953:	0f af d9             	imul   ebx,ecx
 804a956:	89 74 24 18          	mov    DWORD PTR [esp+0x18],esi
 804a95a:	89 c6                	mov    esi,eax
 804a95c:	a1 d8 60 05 08       	mov    eax,ds:0x80560d8
 804a961:	8d 04 98             	lea    eax,[eax+ebx*4]
 804a964:	8b 5c 24 40          	mov    ebx,DWORD PTR [esp+0x40]
 804a968:	89 44 24 20          	mov    DWORD PTR [esp+0x20],eax
 804a96c:	89 f8                	mov    eax,edi
 804a96e:	0f af c1             	imul   eax,ecx
 804a971:	8d 04 83             	lea    eax,[ebx+eax*4]
 804a974:	89 f3                	mov    ebx,esi
 804a976:	8b 74 24 44          	mov    esi,DWORD PTR [esp+0x44]
 804a97a:	89 44 24 24          	mov    DWORD PTR [esp+0x24],eax
 804a97e:	0f af da             	imul   ebx,edx
 804a981:	a1 d0 60 05 08       	mov    eax,ds:0x80560d0
 804a986:	8d 04 98             	lea    eax,[eax+ebx*4]
 804a989:	89 44 24 10          	mov    DWORD PTR [esp+0x10],eax
 804a98d:	89 f8                	mov    eax,edi
 804a98f:	31 ff                	xor    edi,edi
 804a991:	0f af c2             	imul   eax,edx
 804a994:	8d 04 86             	lea    eax,[esi+eax*4]
 804a997:	31 f6                	xor    esi,esi
 804a999:	89 44 24 1c          	mov    DWORD PTR [esp+0x1c],eax
 804a99d:	8d 76 00             	lea    esi,[esi]
 804a9a0:	85 c9                	test   ecx,ecx
 804a9a2:	7e 26                	jle    804a9ca
 804a9a4:	8b 44 24 20          	mov    eax,DWORD PTR [esp+0x20]
 804a9a8:	89 54 24 0c          	mov    DWORD PTR [esp+0xc],edx
 804a9ac:	8d 2c 07             	lea    ebp,[edi+eax]
 804a9af:	8b 44 24 24          	mov    eax,DWORD PTR [esp+0x24]
 804a9b3:	8d 1c 07             	lea    ebx,[edi+eax]
 804a9b6:	31 c0                	xor    eax,eax
 804a9b8:	8b 54 85 00          	mov    edx,DWORD PTR [ebp+eax*4]
 804a9bc:	89 14 83             	mov    DWORD PTR [ebx+eax*4],edx
 804a9bf:	83 c0 01             	add    eax,0x1
 804a9c2:	39 c8                	cmp    eax,ecx
 804a9c4:	75 f2                	jne    804a9b8
 804a9c6:	8b 54 24 0c          	mov    edx,DWORD PTR [esp+0xc]
 804a9ca:	8b 44 24 10          	mov    eax,DWORD PTR [esp+0x10]
 804a9ce:	8d 2c 06             	lea    ebp,[esi+eax]
 804a9d1:	8b 44 24 1c          	mov    eax,DWORD PTR [esp+0x1c]
 804a9d5:	8d 1c 06             	lea    ebx,[esi+eax]
 804a9d8:	31 c0                	xor    eax,eax
 804a9da:	85 d2                	test   edx,edx
 804a9dc:	7e 1c                	jle    804a9fa
 804a9de:	89 4c 24 0c          	mov    DWORD PTR [esp+0xc],ecx
 804a9e2:	8d b6 00 00 00 00    	lea    esi,[esi]
 804a9e8:	8b 4c 85 00          	mov    ecx,DWORD PTR [ebp+eax*4]
 804a9ec:	89 0c 83             	mov    DWORD PTR [ebx+eax*4],ecx
 804a9ef:	83 c0 01             	add    eax,0x1
 804a9f2:	39 d0                	cmp    eax,edx
 804a9f4:	75 f2                	jne    804a9e8
 804a9f6:	8b 4c 24 0c          	mov    ecx,DWORD PTR [esp+0xc]
 804a9fa:	83 44 24 04 01       	add    DWORD PTR [esp+0x4],0x1
 804a9ff:	8b 44 24 08          	mov    eax,DWORD PTR [esp+0x8]
 804aa03:	03 74 24 14          	add    esi,DWORD PTR [esp+0x14]
 804aa07:	03 7c 24 18          	add    edi,DWORD PTR [esp+0x18]
 804aa0b:	39 44 24 04          	cmp    DWORD PTR [esp+0x4],eax
 804aa0f:	75 8f                	jne    804a9a0
 804aa11:	8b 44 24 04          	mov    eax,DWORD PTR [esp+0x4]
 804aa15:	01 44 24 2c          	add    DWORD PTR [esp+0x2c],eax
 804aa19:	8b 44 24 28          	mov    eax,DWORD PTR [esp+0x28]
 804aa1d:	29 44 24 2c          	sub    DWORD PTR [esp+0x2c],eax
 804aa21:	8b 04 24             	mov    eax,DWORD PTR [esp]
 804aa24:	39 44 24 64          	cmp    DWORD PTR [esp+0x64],eax
 804aa28:	0f 8e e1 00 00 00    	jle    804ab0f
 804aa2e:	8b 15 60 60 05 08    	mov    edx,DWORD PTR ds:0x8056060
 804aa34:	89 c3                	mov    ebx,eax
 804aa36:	8b 0d 64 60 05 08    	mov    ecx,DWORD PTR ds:0x8056064
 804aa3c:	8b 7c 24 2c          	mov    edi,DWORD PTR [esp+0x2c]
 804aa40:	8d 34 95 00 00 00 00 	lea    esi,[edx*4]
 804aa47:	89 74 24 10          	mov    DWORD PTR [esp+0x10],esi
 804aa4b:	8d 34 8d 00 00 00 00 	lea    esi,[ecx*4]
 804aa52:	0f af d9             	imul   ebx,ecx
 804aa55:	89 74 24 14          	mov    DWORD PTR [esp+0x14],esi
 804aa59:	89 c6                	mov    esi,eax
 804aa5b:	a1 d4 60 05 08       	mov    eax,ds:0x80560d4
 804aa60:	8d 04 98             	lea    eax,[eax+ebx*4]
 804aa63:	8b 5c 24 40          	mov    ebx,DWORD PTR [esp+0x40]
 804aa67:	89 44 24 18          	mov    DWORD PTR [esp+0x18],eax
 804aa6b:	89 f8                	mov    eax,edi
 804aa6d:	0f af c1             	imul   eax,ecx
 804aa70:	8d 04 83             	lea    eax,[ebx+eax*4]
 804aa73:	89 f3                	mov    ebx,esi
 804aa75:	8b 74 24 44          	mov    esi,DWORD PTR [esp+0x44]
 804aa79:	89 44 24 1c          	mov    DWORD PTR [esp+0x1c],eax
 804aa7d:	0f af da             	imul   ebx,edx
 804aa80:	a1 cc 60 05 08       	mov    eax,ds:0x80560cc
 804aa85:	8d 04 98             	lea    eax,[eax+ebx*4]
 804aa88:	89 44 24 08          	mov    DWORD PTR [esp+0x8],eax
 804aa8c:	89 f8                	mov    eax,edi
 804aa8e:	31 ff                	xor    edi,edi
 804aa90:	0f af c2             	imul   eax,edx
 804aa93:	8d 04 86             	lea    eax,[esi+eax*4]
 804aa96:	31 f6                	xor    esi,esi
 804aa98:	89 44 24 0c          	mov    DWORD PTR [esp+0xc],eax
 804aa9c:	8d 74 26 00          	lea    esi,[esi]
 804aaa0:	85 c9                	test   ecx,ecx
 804aaa2:	7e 26                	jle    804aaca
 804aaa4:	8b 44 24 18          	mov    eax,DWORD PTR [esp+0x18]
 804aaa8:	89 54 24 04          	mov    DWORD PTR [esp+0x4],edx
 804aaac:	8d 2c 07             	lea    ebp,[edi+eax]
 804aaaf:	8b 44 24 1c          	mov    eax,DWORD PTR [esp+0x1c]
 804aab3:	8d 1c 07             	lea    ebx,[edi+eax]
 804aab6:	31 c0                	xor    eax,eax
 804aab8:	8b 54 85 00          	mov    edx,DWORD PTR [ebp+eax*4]
 804aabc:	89 14 83             	mov    DWORD PTR [ebx+eax*4],edx
 804aabf:	83 c0 01             	add    eax,0x1
 804aac2:	39 c8                	cmp    eax,ecx
 804aac4:	75 f2                	jne    804aab8
 804aac6:	8b 54 24 04          	mov    edx,DWORD PTR [esp+0x4]
 804aaca:	8b 44 24 08          	mov    eax,DWORD PTR [esp+0x8]
 804aace:	8d 2c 06             	lea    ebp,[esi+eax]
 804aad1:	8b 44 24 0c          	mov    eax,DWORD PTR [esp+0xc]
 804aad5:	8d 1c 06             	lea    ebx,[esi+eax]
 804aad8:	31 c0                	xor    eax,eax
 804aada:	85 d2                	test   edx,edx
 804aadc:	7e 1c                	jle    804aafa
 804aade:	89 4c 24 04          	mov    DWORD PTR [esp+0x4],ecx
 804aae2:	8d b6 00 00 00 00    	lea    esi,[esi]
 804aae8:	8b 4c 85 00          	mov    ecx,DWORD PTR [ebp+eax*4]
 804aaec:	89 0c 83             	mov    DWORD PTR [ebx+eax*4],ecx
 804aaef:	83 c0 01             	add    eax,0x1
 804aaf2:	39 d0                	cmp    eax,edx
 804aaf4:	75 f2                	jne    804aae8
 804aaf6:	8b 4c 24 04          	mov    ecx,DWORD PTR [esp+0x4]
 804aafa:	83 04 24 01          	add    DWORD PTR [esp],0x1
 804aafe:	8b 04 24             	mov    eax,DWORD PTR [esp]
 804ab01:	03 74 24 10          	add    esi,DWORD PTR [esp+0x10]
 804ab05:	03 7c 24 14          	add    edi,DWORD PTR [esp+0x14]
 804ab09:	3b 44 24 64          	cmp    eax,DWORD PTR [esp+0x64]
 804ab0d:	75 91                	jne    804aaa0
 804ab0f:	83 c4 4c             	add    esp,0x4c
 804ab12:	5b                   	pop    ebx
 804ab13:	5e                   	pop    esi
 804ab14:	5f                   	pop    edi
 804ab15:	5d                   	pop    ebp
 804ab16:	c3                   	ret
 804ab17:	90                   	nop
 804ab18:	7e 5d                	jle    804ab77
 804ab1a:	8b 7c 24 34          	mov    edi,DWORD PTR [esp+0x34]
 804ab1e:	85 ff                	test   edi,edi
 804ab20:	0f 85 88 fd ff ff    	jne    804a8ae
 804ab26:	8b 74 24 24          	mov    esi,DWORD PTR [esp+0x24]
 804ab2a:	31 db                	xor    ebx,ebx
 804ab2c:	85 c0                	test   eax,eax
 804ab2e:	8b 7c 24 10          	mov    edi,DWORD PTR [esp+0x10]
 804ab32:	8d 34 be             	lea    esi,[esi+edi*4]
 804ab35:	7e 0f                	jle    804ab46
 804ab37:	90                   	nop
 804ab38:	8b 3c 9e             	mov    edi,DWORD PTR [esi+ebx*4]
 804ab3b:	89 7c 9d 00          	mov    DWORD PTR [ebp+ebx*4],edi
 804ab3f:	83 c3 01             	add    ebx,0x1
 804ab42:	39 c3                	cmp    ebx,eax
 804ab44:	75 f2                	jne    804ab38
 804ab46:	85 d2                	test   edx,edx
 804ab48:	7e 23                	jle    804ab6d
 804ab4a:	8b 5c 24 04          	mov    ebx,DWORD PTR [esp+0x4]
 804ab4e:	8b 74 24 38          	mov    esi,DWORD PTR [esp+0x38]
 804ab52:	0f af da             	imul   ebx,edx
 804ab55:	8d 34 9e             	lea    esi,[esi+ebx*4]
 804ab58:	31 db                	xor    ebx,ebx
 804ab5a:	8d b6 00 00 00 00    	lea    esi,[esi]
 804ab60:	8b 3c 9e             	mov    edi,DWORD PTR [esi+ebx*4]
 804ab63:	89 3c 99             	mov    DWORD PTR [ecx+ebx*4],edi
 804ab66:	83 c3 01             	add    ebx,0x1
 804ab69:	39 d3                	cmp    ebx,edx
 804ab6b:	75 f3                	jne    804ab60
 804ab6d:	83 44 24 04 01       	add    DWORD PTR [esp+0x4],0x1
 804ab72:	e9 82 fd ff ff       	jmp    804a8f9
 804ab77:	0f 85 31 fd ff ff    	jne    804a8ae
 804ab7d:	89 44 24 1c          	mov    DWORD PTR [esp+0x1c],eax
 804ab81:	8b 74 24 3c          	mov    esi,DWORD PTR [esp+0x3c]
 804ab85:	8b 44 24 24          	mov    eax,DWORD PTR [esp+0x24]
 804ab89:	03 74 24 10          	add    esi,DWORD PTR [esp+0x10]
 804ab8d:	8b 34 b0             	mov    esi,DWORD PTR [eax+esi*4]
 804ab90:	8b 44 24 0c          	mov    eax,DWORD PTR [esp+0xc]
 804ab94:	89 f7                	mov    edi,esi
 804ab96:	8b 74 24 3c          	mov    esi,DWORD PTR [esp+0x3c]
 804ab9a:	01 de                	add    esi,ebx
 804ab9c:	8b 34 b0             	mov    esi,DWORD PTR [eax+esi*4]
 804ab9f:	8b 44 24 1c          	mov    eax,DWORD PTR [esp+0x1c]
 804aba3:	39 f7                	cmp    edi,esi
 804aba5:	7e 11                	jle    804abb8
 804aba7:	8b 74 24 48          	mov    esi,DWORD PTR [esp+0x48]
 804abab:	85 f6                	test   esi,esi
 804abad:	0f 84 73 ff ff ff    	je     804ab26
 804abb3:	e9 f6 fc ff ff       	jmp    804a8ae
 804abb8:	83 7c 24 48 01       	cmp    DWORD PTR [esp+0x48],0x1
 804abbd:	0f 84 63 ff ff ff    	je     804ab26
 804abc3:	39 f7                	cmp    edi,esi
 804abc5:	0f 8c e3 fc ff ff    	jl     804a8ae
 804abcb:	eb da                	jmp    804aba7
 804abcd:	8d 76 00             	lea    esi,[esi]
 804abd0:	c7 04 24 00 00 00 00 	mov    DWORD PTR [esp],0x0
 804abd7:	c7 44 24 04 00 00 00 	mov    DWORD PTR [esp+0x4],0x0
 804abde:	00 
 804abdf:	e9 39 fd ff ff       	jmp    804a91d
 804abe4:	8d b6 00 00 00 00    	lea    esi,[esi]
 804abea:	8d bf 00 00 00 00    	lea    edi,[edi]

0804abf0 <MergeSubSort_Int>:
 804abf0:	55                   	push   ebp
 804abf1:	57                   	push   edi
 804abf2:	89 cf                	mov    edi,ecx
 804abf4:	56                   	push   esi
 804abf5:	89 d6                	mov    esi,edx
 804abf7:	53                   	push   ebx
 804abf8:	83 ec 1c             	sub    esp,0x1c
 804abfb:	39 ca                	cmp    edx,ecx
 804abfd:	89 04 24             	mov    DWORD PTR [esp],eax
 804ac00:	7c 0e                	jl     804ac10
 804ac02:	83 c4 1c             	add    esp,0x1c
 804ac05:	5b                   	pop    ebx
 804ac06:	5e                   	pop    esi
 804ac07:	5f                   	pop    edi
 804ac08:	5d                   	pop    ebp
 804ac09:	c3                   	ret
 804ac0a:	8d b6 00 00 00 00    	lea    esi,[esi]
 804ac10:	89 c8                	mov    eax,ecx
 804ac12:	29 d0                	sub    eax,edx
 804ac14:	89 c5                	mov    ebp,eax
 804ac16:	c1 ed 1f             	shr    ebp,0x1f
 804ac19:	01 c5                	add    ebp,eax
 804ac1b:	8b 04 24             	mov    eax,DWORD PTR [esp]
 804ac1e:	d1 fd                	sar    ebp,1
 804ac20:	8d 5c 15 00          	lea    ebx,[ebp+edx]
 804ac24:	83 c5 01             	add    ebp,0x1
 804ac27:	89 d9                	mov    ecx,ebx
 804ac29:	e8 c2 ff ff ff       	call   804abf0
 804ac2e:	8b 04 24             	mov    eax,DWORD PTR [esp]
 804ac31:	8d 53 01             	lea    edx,[ebx+0x1]
 804ac34:	89 f9                	mov    ecx,edi
 804ac36:	e8 b5 ff ff ff       	call   804abf0
 804ac3b:	89 fa                	mov    edx,edi
 804ac3d:	29 da                	sub    edx,ebx
 804ac3f:	85 ed                	test   ebp,ebp
 804ac41:	7e 26                	jle    804ac69
 804ac43:	8b 04 24             	mov    eax,DWORD PTR [esp]
 804ac46:	8b 3d d8 60 05 08    	mov    edi,DWORD PTR ds:0x80560d8
 804ac4c:	89 54 24 04          	mov    DWORD PTR [esp+0x4],edx
 804ac50:	8d 0c b0             	lea    ecx,[eax+esi*4]
 804ac53:	31 c0                	xor    eax,eax
 804ac55:	8d 76 00             	lea    esi,[esi]
 804ac58:	8b 14 81             	mov    edx,DWORD PTR [ecx+eax*4]
 804ac5b:	89 14 87             	mov    DWORD PTR [edi+eax*4],edx
 804ac5e:	83 c0 01             	add    eax,0x1
 804ac61:	39 e8                	cmp    eax,ebp
 804ac63:	75 f3                	jne    804ac58
 804ac65:	8b 54 24 04          	mov    edx,DWORD PTR [esp+0x4]
 804ac69:	85 d2                	test   edx,edx
 804ac6b:	0f 8e 5e 01 00 00    	jle    804adcf
 804ac71:	8b 04 24             	mov    eax,DWORD PTR [esp]
 804ac74:	8b 3d d4 60 05 08    	mov    edi,DWORD PTR ds:0x80560d4
 804ac7a:	8d 0c 98             	lea    ecx,[eax+ebx*4]
 804ac7d:	31 c0                	xor    eax,eax
 804ac7f:	90                   	nop
 804ac80:	8b 5c 81 04          	mov    ebx,DWORD PTR [ecx+eax*4+0x4]
 804ac84:	89 1c 87             	mov    DWORD PTR [edi+eax*4],ebx
 804ac87:	83 c0 01             	add    eax,0x1
 804ac8a:	39 d0                	cmp    eax,edx
 804ac8c:	75 f2                	jne    804ac80
 804ac8e:	85 ed                	test   ebp,ebp
 804ac90:	0f 8e 39 01 00 00    	jle    804adcf
 804ac96:	a1 d8 60 05 08       	mov    eax,ds:0x80560d8
 804ac9b:	89 44 24 04          	mov    DWORD PTR [esp+0x4],eax
 804ac9f:	a1 c8 60 05 08       	mov    eax,ds:0x80560c8
 804aca4:	85 c0                	test   eax,eax
 804aca6:	75 50                	jne    804acf8
 804aca8:	89 54 24 08          	mov    DWORD PTR [esp+0x8],edx
 804acac:	31 c0                	xor    eax,eax
 804acae:	31 db                	xor    ebx,ebx
 804acb0:	89 fa                	mov    edx,edi
 804acb2:	eb 1c                	jmp    804acd0
 804acb4:	8d 74 26 00          	lea    esi,[esi]
 804acb8:	7e 24                	jle    804acde
 804acba:	8b 3c 24             	mov    edi,DWORD PTR [esp]
 804acbd:	83 c0 01             	add    eax,0x1
 804acc0:	89 0c b7             	mov    DWORD PTR [edi+esi*4],ecx
 804acc3:	83 c6 01             	add    esi,0x1
 804acc6:	39 dd                	cmp    ebp,ebx
 804acc8:	7e 26                	jle    804acf0
 804acca:	39 44 24 08          	cmp    DWORD PTR [esp+0x8],eax
 804acce:	7e 20                	jle    804acf0
 804acd0:	8b 7c 24 04          	mov    edi,DWORD PTR [esp+0x4]
 804acd4:	8b 0c 82             	mov    ecx,DWORD PTR [edx+eax*4]
 804acd7:	8b 3c 9f             	mov    edi,DWORD PTR [edi+ebx*4]
 804acda:	39 f9                	cmp    ecx,edi
 804acdc:	7d da                	jge    804acb8
 804acde:	8b 0c 24             	mov    ecx,DWORD PTR [esp]
 804ace1:	83 c3 01             	add    ebx,0x1
 804ace4:	89 3c b1             	mov    DWORD PTR [ecx+esi*4],edi
 804ace7:	83 c6 01             	add    esi,0x1
 804acea:	39 dd                	cmp    ebp,ebx
 804acec:	7f dc                	jg     804acca
 804acee:	66 90                	xchg   ax,ax
 804acf0:	8b 54 24 08          	mov    edx,DWORD PTR [esp+0x8]
 804acf4:	eb 2c                	jmp    804ad22
 804acf6:	66 90                	xchg   ax,ax
 804acf8:	83 f8 01             	cmp    eax,0x1
 804acfb:	b8 00 00 00 00       	mov    eax,0x0
 804ad00:	0f 84 8a 00 00 00    	je     804ad90
 804ad06:	8b 1c 24             	mov    ebx,DWORD PTR [esp]
 804ad09:	8d b4 26 00 00 00 00 	lea    esi,[esi]
 804ad10:	8b 0c 87             	mov    ecx,DWORD PTR [edi+eax*4]
 804ad13:	83 c0 01             	add    eax,0x1
 804ad16:	89 0c b3             	mov    DWORD PTR [ebx+esi*4],ecx
 804ad19:	83 c6 01             	add    esi,0x1
 804ad1c:	39 c2                	cmp    edx,eax
 804ad1e:	7f f0                	jg     804ad10
 804ad20:	31 db                	xor    ebx,ebx
 804ad22:	39 dd                	cmp    ebp,ebx
 804ad24:	7e 39                	jle    804ad5f
 804ad26:	8b 3d d8 60 05 08    	mov    edi,DWORD PTR ds:0x80560d8
 804ad2c:	89 f1                	mov    ecx,esi
 804ad2e:	29 d9                	sub    ecx,ebx
 804ad30:	89 5c 24 04          	mov    DWORD PTR [esp+0x4],ebx
 804ad34:	89 44 24 0c          	mov    DWORD PTR [esp+0xc],eax
 804ad38:	89 7c 24 08          	mov    DWORD PTR [esp+0x8],edi
 804ad3c:	8b 3c 24             	mov    edi,DWORD PTR [esp]
 804ad3f:	8d 0c 8f             	lea    ecx,[edi+ecx*4]
 804ad42:	8b 7c 24 08          	mov    edi,DWORD PTR [esp+0x8]
 804ad46:	66 90                	xchg   ax,ax
 804ad48:	8b 04 9f             	mov    eax,DWORD PTR [edi+ebx*4]
 804ad4b:	89 04 99             	mov    DWORD PTR [ecx+ebx*4],eax
 804ad4e:	83 c3 01             	add    ebx,0x1
 804ad51:	39 eb                	cmp    ebx,ebp
 804ad53:	75 f3                	jne    804ad48
 804ad55:	8b 44 24 0c          	mov    eax,DWORD PTR [esp+0xc]
 804ad59:	01 de                	add    esi,ebx
 804ad5b:	2b 74 24 04          	sub    esi,DWORD PTR [esp+0x4]
 804ad5f:	39 c2                	cmp    edx,eax
 804ad61:	0f 8e 9b fe ff ff    	jle    804ac02
 804ad67:	8b 0c 24             	mov    ecx,DWORD PTR [esp]
 804ad6a:	29 c6                	sub    esi,eax
 804ad6c:	8b 3d d4 60 05 08    	mov    edi,DWORD PTR ds:0x80560d4
 804ad72:	8d 1c b1             	lea    ebx,[ecx+esi*4]
 804ad75:	8d 76 00             	lea    esi,[esi]
 804ad78:	8b 0c 87             	mov    ecx,DWORD PTR [edi+eax*4]
 804ad7b:	89 0c 83             	mov    DWORD PTR [ebx+eax*4],ecx
 804ad7e:	83 c0 01             	add    eax,0x1
 804ad81:	39 d0                	cmp    eax,edx
 804ad83:	75 f3                	jne    804ad78
 804ad85:	83 c4 1c             	add    esp,0x1c
 804ad88:	5b                   	pop    ebx
 804ad89:	5e                   	pop    esi
 804ad8a:	5f                   	pop    edi
 804ad8b:	5d                   	pop    ebp
 804ad8c:	c3                   	ret
 804ad8d:	8d 76 00             	lea    esi,[esi]
 804ad90:	31 db                	xor    ebx,ebx
 804ad92:	89 54 24 08          	mov    DWORD PTR [esp+0x8],edx
 804ad96:	eb 1e                	jmp    804adb6
 804ad98:	8b 14 24             	mov    edx,DWORD PTR [esp]
 804ad9b:	83 c3 01             	add    ebx,0x1
 804ad9e:	89 0c b2             	mov    DWORD PTR [edx+esi*4],ecx
 804ada1:	83 c6 01             	add    esi,0x1
 804ada4:	39 dd                	cmp    ebp,ebx
 804ada6:	0f 8e 44 ff ff ff    	jle    804acf0
 804adac:	39 44 24 08          	cmp    DWORD PTR [esp+0x8],eax
 804adb0:	0f 8e 3a ff ff ff    	jle    804acf0
 804adb6:	8b 54 24 04          	mov    edx,DWORD PTR [esp+0x4]
 804adba:	8b 0c 9a             	mov    ecx,DWORD PTR [edx+ebx*4]
 804adbd:	8b 14 87             	mov    edx,DWORD PTR [edi+eax*4]
 804adc0:	39 d1                	cmp    ecx,edx
 804adc2:	7e d4                	jle    804ad98
 804adc4:	8b 0c 24             	mov    ecx,DWORD PTR [esp]
 804adc7:	83 c0 01             	add    eax,0x1
 804adca:	89 14 b1             	mov    DWORD PTR [ecx+esi*4],edx
 804adcd:	eb d2                	jmp    804ada1
 804adcf:	31 c0                	xor    eax,eax
 804add1:	31 db                	xor    ebx,ebx
 804add3:	e9 4a ff ff ff       	jmp    804ad22
 804add8:	90                   	nop
 804add9:	8d b4 26 00 00 00 00 	lea    esi,[esi]

0804ade0 <MergeSubSort_Block>:
 804ade0:	55                   	push   ebp
 804ade1:	57                   	push   edi
 804ade2:	56                   	push   esi
 804ade3:	89 ce                	mov    esi,ecx
 804ade5:	53                   	push   ebx
 804ade6:	89 d3                	mov    ebx,edx
 804ade8:	83 ec 2c             	sub    esp,0x2c
 804adeb:	39 ca                	cmp    edx,ecx
 804aded:	7c 09                	jl     804adf8
 804adef:	83 c4 2c             	add    esp,0x2c
 804adf2:	5b                   	pop    ebx
 804adf3:	5e                   	pop    esi
 804adf4:	5f                   	pop    edi
 804adf5:	5d                   	pop    ebp
 804adf6:	c3                   	ret
 804adf7:	90                   	nop
 804adf8:	89 c7                	mov    edi,eax
 804adfa:	89 c8                	mov    eax,ecx
 804adfc:	29 d0                	sub    eax,edx
 804adfe:	89 c5                	mov    ebp,eax
 804ae00:	c1 ed 1f             	shr    ebp,0x1f
 804ae03:	01 e8                	add    eax,ebp
 804ae05:	d1 f8                	sar    eax,1
 804ae07:	8d 0c 10             	lea    ecx,[eax+edx]
 804ae0a:	39 ca                	cmp    edx,ecx
 804ae0c:	89 4c 24 10          	mov    DWORD PTR [esp+0x10],ecx
 804ae10:	7c 2e                	jl     804ae40
 804ae12:	8b 44 24 10          	mov    eax,DWORD PTR [esp+0x10]
 804ae16:	8d 68 01             	lea    ebp,[eax+0x1]
 804ae19:	39 ee                	cmp    esi,ebp
 804ae1b:	0f 8f e2 00 00 00    	jg     804af03
 804ae21:	8b 4c 24 10          	mov    ecx,DWORD PTR [esp+0x10]
 804ae25:	89 da                	mov    edx,ebx
 804ae27:	89 f8                	mov    eax,edi
 804ae29:	89 34 24             	mov    DWORD PTR [esp],esi
 804ae2c:	e8 ef eb ff ff       	call   8049a20
 804ae31:	83 c4 2c             	add    esp,0x2c
 804ae34:	5b                   	pop    ebx
 804ae35:	5e                   	pop    esi
 804ae36:	5f                   	pop    edi
 804ae37:	5d                   	pop    ebp
 804ae38:	c3                   	ret
 804ae39:	8d b4 26 00 00 00 00 	lea    esi,[esi]
 804ae40:	89 c5                	mov    ebp,eax
 804ae42:	c1 ed 1f             	shr    ebp,0x1f
 804ae45:	01 e8                	add    eax,ebp
 804ae47:	d1 f8                	sar    eax,1
 804ae49:	8d 14 02             	lea    edx,[edx+eax]
 804ae4c:	39 d3                	cmp    ebx,edx
 804ae4e:	89 54 24 14          	mov    DWORD PTR [esp+0x14],edx
 804ae52:	7d 37                	jge    804ae8b
 804ae54:	89 c5                	mov    ebp,eax
 804ae56:	89 da                	mov    edx,ebx
 804ae58:	c1 ed 1f             	shr    ebp,0x1f
 804ae5b:	01 e8                	add    eax,ebp
 804ae5d:	d1 f8                	sar    eax,1
 804ae5f:	8d 2c 03             	lea    ebp,[ebx+eax]
 804ae62:	89 f8                	mov    eax,edi
 804ae64:	89 e9                	mov    ecx,ebp
 804ae66:	e8 75 ff ff ff       	call   804ade0
 804ae6b:	8b 4c 24 14          	mov    ecx,DWORD PTR [esp+0x14]
 804ae6f:	8d 55 01             	lea    edx,[ebp+0x1]
 804ae72:	89 f8                	mov    eax,edi
 804ae74:	e8 67 ff ff ff       	call   804ade0
 804ae79:	8b 44 24 14          	mov    eax,DWORD PTR [esp+0x14]
 804ae7d:	89 e9                	mov    ecx,ebp
 804ae7f:	89 da                	mov    edx,ebx
 804ae81:	89 04 24             	mov    DWORD PTR [esp],eax
 804ae84:	89 f8                	mov    eax,edi
 804ae86:	e8 95 eb ff ff       	call   8049a20
 804ae8b:	8b 44 24 14          	mov    eax,DWORD PTR [esp+0x14]
 804ae8f:	8d 68 01             	lea    ebp,[eax+0x1]
 804ae92:	39 6c 24 10          	cmp    DWORD PTR [esp+0x10],ebp
 804ae96:	7e 48                	jle    804aee0
 804ae98:	8b 44 24 10          	mov    eax,DWORD PTR [esp+0x10]
 804ae9c:	29 e8                	sub    eax,ebp
 804ae9e:	89 c2                	mov    edx,eax
 804aea0:	c1 ea 1f             	shr    edx,0x1f
 804aea3:	01 d0                	add    eax,edx
 804aea5:	d1 f8                	sar    eax,1
 804aea7:	8d 54 05 00          	lea    edx,[ebp+eax]
 804aeab:	89 f8                	mov    eax,edi
 804aead:	89 d1                	mov    ecx,edx
 804aeaf:	89 54 24 18          	mov    DWORD PTR [esp+0x18],edx
 804aeb3:	89 ea                	mov    edx,ebp
 804aeb5:	e8 26 ff ff ff       	call   804ade0
 804aeba:	8b 54 24 18          	mov    edx,DWORD PTR [esp+0x18]
 804aebe:	89 f8                	mov    eax,edi
 804aec0:	8b 4c 24 10          	mov    ecx,DWORD PTR [esp+0x10]
 804aec4:	83 c2 01             	add    edx,0x1
 804aec7:	e8 14 ff ff ff       	call   804ade0
 804aecc:	8b 44 24 10          	mov    eax,DWORD PTR [esp+0x10]
 804aed0:	89 ea                	mov    edx,ebp
 804aed2:	8b 4c 24 18          	mov    ecx,DWORD PTR [esp+0x18]
 804aed6:	89 04 24             	mov    DWORD PTR [esp],eax
 804aed9:	89 f8                	mov    eax,edi
 804aedb:	e8 40 eb ff ff       	call   8049a20
 804aee0:	8b 44 24 10          	mov    eax,DWORD PTR [esp+0x10]
 804aee4:	89 da                	mov    edx,ebx
 804aee6:	8b 4c 24 14          	mov    ecx,DWORD PTR [esp+0x14]
 804aeea:	89 04 24             	mov    DWORD PTR [esp],eax
 804aeed:	89 f8                	mov    eax,edi
 804aeef:	e8 2c eb ff ff       	call   8049a20
 804aef4:	8b 44 24 10          	mov    eax,DWORD PTR [esp+0x10]
 804aef8:	8d 68 01             	lea    ebp,[eax+0x1]
 804aefb:	39 ee                	cmp    esi,ebp
 804aefd:	0f 8e 1e ff ff ff    	jle    804ae21
 804af03:	89 f0                	mov    eax,esi
 804af05:	29 e8                	sub    eax,ebp
 804af07:	89 c2                	mov    edx,eax
 804af09:	c1 ea 1f             	shr    edx,0x1f
 804af0c:	01 d0                	add    eax,edx
 804af0e:	d1 f8                	sar    eax,1
 804af10:	8d 4c 05 00          	lea    ecx,[ebp+eax]
 804af14:	39 cd                	cmp    ebp,ecx
 804af16:	89 4c 24 14          	mov    DWORD PTR [esp+0x14],ecx
 804af1a:	7d 40                	jge    804af5c
 804af1c:	89 c2                	mov    edx,eax
 804af1e:	c1 ea 1f             	shr    edx,0x1f
 804af21:	01 d0                	add    eax,edx
 804af23:	89 ea                	mov    edx,ebp
 804af25:	d1 f8                	sar    eax,1
 804af27:	01 e8                	add    eax,ebp
 804af29:	89 c1                	mov    ecx,eax
 804af2b:	89 44 24 18          	mov    DWORD PTR [esp+0x18],eax
 804af2f:	89 f8                	mov    eax,edi
 804af31:	e8 aa fe ff ff       	call   804ade0
 804af36:	8b 44 24 18          	mov    eax,DWORD PTR [esp+0x18]
 804af3a:	8b 4c 24 14          	mov    ecx,DWORD PTR [esp+0x14]
 804af3e:	8d 50 01             	lea    edx,[eax+0x1]
 804af41:	89 f8                	mov    eax,edi
 804af43:	e8 98 fe ff ff       	call   804ade0
 804af48:	8b 54 24 14          	mov    edx,DWORD PTR [esp+0x14]
 804af4c:	89 f8                	mov    eax,edi
 804af4e:	8b 4c 24 18          	mov    ecx,DWORD PTR [esp+0x18]
 804af52:	89 14 24             	mov    DWORD PTR [esp],edx
 804af55:	89 ea                	mov    edx,ebp
 804af57:	e8 c4 ea ff ff       	call   8049a20
 804af5c:	8b 44 24 14          	mov    eax,DWORD PTR [esp+0x14]
 804af60:	83 c0 01             	add    eax,0x1
 804af63:	39 c6                	cmp    esi,eax
 804af65:	89 44 24 18          	mov    DWORD PTR [esp+0x18],eax
 804af69:	7e 42                	jle    804afad
 804af6b:	89 c1                	mov    ecx,eax
 804af6d:	89 f0                	mov    eax,esi
 804af6f:	29 c8                	sub    eax,ecx
 804af71:	89 c2                	mov    edx,eax
 804af73:	c1 ea 1f             	shr    edx,0x1f
 804af76:	01 d0                	add    eax,edx
 804af78:	89 ca                	mov    edx,ecx
 804af7a:	d1 f8                	sar    eax,1
 804af7c:	01 c8                	add    eax,ecx
 804af7e:	89 c1                	mov    ecx,eax
 804af80:	89 44 24 1c          	mov    DWORD PTR [esp+0x1c],eax
 804af84:	89 f8                	mov    eax,edi
 804af86:	e8 55 fe ff ff       	call   804ade0
 804af8b:	8b 44 24 1c          	mov    eax,DWORD PTR [esp+0x1c]
 804af8f:	89 f1                	mov    ecx,esi
 804af91:	8d 50 01             	lea    edx,[eax+0x1]
 804af94:	89 f8                	mov    eax,edi
 804af96:	e8 45 fe ff ff       	call   804ade0
 804af9b:	8b 4c 24 1c          	mov    ecx,DWORD PTR [esp+0x1c]
 804af9f:	89 f8                	mov    eax,edi
 804afa1:	8b 54 24 18          	mov    edx,DWORD PTR [esp+0x18]
 804afa5:	89 34 24             	mov    DWORD PTR [esp],esi
 804afa8:	e8 73 ea ff ff       	call   8049a20
 804afad:	8b 4c 24 14          	mov    ecx,DWORD PTR [esp+0x14]
 804afb1:	89 ea                	mov    edx,ebp
 804afb3:	89 f8                	mov    eax,edi
 804afb5:	89 34 24             	mov    DWORD PTR [esp],esi
 804afb8:	e8 63 ea ff ff       	call   8049a20
 804afbd:	e9 5f fe ff ff       	jmp    804ae21
 804afc2:	8d b4 26 00 00 00 00 	lea    esi,[esi]
 804afc9:	8d bc 27 00 00 00 00 	lea    edi,[edi]

0804afd0 <MergeSubSort_General>:
 804afd0:	55                   	push   ebp
 804afd1:	57                   	push   edi
 804afd2:	56                   	push   esi
 804afd3:	89 ce                	mov    esi,ecx
 804afd5:	53                   	push   ebx
 804afd6:	89 d3                	mov    ebx,edx
 804afd8:	83 ec 2c             	sub    esp,0x2c
 804afdb:	39 ca                	cmp    edx,ecx
 804afdd:	7c 09                	jl     804afe8
 804afdf:	83 c4 2c             	add    esp,0x2c
 804afe2:	5b                   	pop    ebx
 804afe3:	5e                   	pop    esi
 804afe4:	5f                   	pop    edi
 804afe5:	5d                   	pop    ebp
 804afe6:	c3                   	ret
 804afe7:	90                   	nop
 804afe8:	89 c7                	mov    edi,eax
 804afea:	89 c8                	mov    eax,ecx
 804afec:	29 d0                	sub    eax,edx
 804afee:	89 c5                	mov    ebp,eax
 804aff0:	c1 ed 1f             	shr    ebp,0x1f
 804aff3:	01 e8                	add    eax,ebp
 804aff5:	d1 f8                	sar    eax,1
 804aff7:	8d 0c 10             	lea    ecx,[eax+edx]
 804affa:	39 ca                	cmp    edx,ecx
 804affc:	89 4c 24 10          	mov    DWORD PTR [esp+0x10],ecx
 804b000:	7c 2e                	jl     804b030
 804b002:	8b 44 24 10          	mov    eax,DWORD PTR [esp+0x10]
 804b006:	8d 68 01             	lea    ebp,[eax+0x1]
 804b009:	39 ee                	cmp    esi,ebp
 804b00b:	0f 8f e2 00 00 00    	jg     804b0f3
 804b011:	8b 4c 24 10          	mov    ecx,DWORD PTR [esp+0x10]
 804b015:	89 da                	mov    edx,ebx
 804b017:	89 f8                	mov    eax,edi
 804b019:	89 34 24             	mov    DWORD PTR [esp],esi
 804b01c:	e8 0f ed ff ff       	call   8049d30
 804b021:	83 c4 2c             	add    esp,0x2c
 804b024:	5b                   	pop    ebx
 804b025:	5e                   	pop    esi
 804b026:	5f                   	pop    edi
 804b027:	5d                   	pop    ebp
 804b028:	c3                   	ret
 804b029:	8d b4 26 00 00 00 00 	lea    esi,[esi]
 804b030:	89 c5                	mov    ebp,eax
 804b032:	c1 ed 1f             	shr    ebp,0x1f
 804b035:	01 e8                	add    eax,ebp
 804b037:	d1 f8                	sar    eax,1
 804b039:	8d 14 02             	lea    edx,[edx+eax]
 804b03c:	39 d3                	cmp    ebx,edx
 804b03e:	89 54 24 14          	mov    DWORD PTR [esp+0x14],edx
 804b042:	7d 37                	jge    804b07b
 804b044:	89 c5                	mov    ebp,eax
 804b046:	89 da                	mov    edx,ebx
 804b048:	c1 ed 1f             	shr    ebp,0x1f
 804b04b:	01 e8                	add    eax,ebp
 804b04d:	d1 f8                	sar    eax,1
 804b04f:	8d 2c 03             	lea    ebp,[ebx+eax]
 804b052:	89 f8                	mov    eax,edi
 804b054:	89 e9                	mov    ecx,ebp
 804b056:	e8 75 ff ff ff       	call   804afd0
 804b05b:	8b 4c 24 14          	mov    ecx,DWORD PTR [esp+0x14]
 804b05f:	8d 55 01             	lea    edx,[ebp+0x1]
 804b062:	89 f8                	mov    eax,edi
 804b064:	e8 67 ff ff ff       	call   804afd0
 804b069:	8b 44 24 14          	mov    eax,DWORD PTR [esp+0x14]
 804b06d:	89 e9                	mov    ecx,ebp
 804b06f:	89 da                	mov    edx,ebx
 804b071:	89 04 24             	mov    DWORD PTR [esp],eax
 804b074:	89 f8                	mov    eax,edi
 804b076:	e8 b5 ec ff ff       	call   8049d30
 804b07b:	8b 44 24 14          	mov    eax,DWORD PTR [esp+0x14]
 804b07f:	8d 68 01             	lea    ebp,[eax+0x1]
 804b082:	39 6c 24 10          	cmp    DWORD PTR [esp+0x10],ebp
 804b086:	7e 48                	jle    804b0d0
 804b088:	8b 44 24 10          	mov    eax,DWORD PTR [esp+0x10]
 804b08c:	29 e8                	sub    eax,ebp
 804b08e:	89 c2                	mov    edx,eax
 804b090:	c1 ea 1f             	shr    edx,0x1f
 804b093:	01 d0                	add    eax,edx
 804b095:	d1 f8                	sar    eax,1
 804b097:	8d 54 05 00          	lea    edx,[ebp+eax]
 804b09b:	89 f8                	mov    eax,edi
 804b09d:	89 d1                	mov    ecx,edx
 804b09f:	89 54 24 18          	mov    DWORD PTR [esp+0x18],edx
 804b0a3:	89 ea                	mov    edx,ebp
 804b0a5:	e8 26 ff ff ff       	call   804afd0
 804b0aa:	8b 54 24 18          	mov    edx,DWORD PTR [esp+0x18]
 804b0ae:	89 f8                	mov    eax,edi
 804b0b0:	8b 4c 24 10          	mov    ecx,DWORD PTR [esp+0x10]
 804b0b4:	83 c2 01             	add    edx,0x1
 804b0b7:	e8 14 ff ff ff       	call   804afd0
 804b0bc:	8b 44 24 10          	mov    eax,DWORD PTR [esp+0x10]
 804b0c0:	89 ea                	mov    edx,ebp
 804b0c2:	8b 4c 24 18          	mov    ecx,DWORD PTR [esp+0x18]
 804b0c6:	89 04 24             	mov    DWORD PTR [esp],eax
 804b0c9:	89 f8                	mov    eax,edi
 804b0cb:	e8 60 ec ff ff       	call   8049d30
 804b0d0:	8b 44 24 10          	mov    eax,DWORD PTR [esp+0x10]
 804b0d4:	89 da                	mov    edx,ebx
 804b0d6:	8b 4c 24 14          	mov    ecx,DWORD PTR [esp+0x14]
 804b0da:	89 04 24             	mov    DWORD PTR [esp],eax
 804b0dd:	89 f8                	mov    eax,edi
 804b0df:	e8 4c ec ff ff       	call   8049d30
 804b0e4:	8b 44 24 10          	mov    eax,DWORD PTR [esp+0x10]
 804b0e8:	8d 68 01             	lea    ebp,[eax+0x1]
 804b0eb:	39 ee                	cmp    esi,ebp
 804b0ed:	0f 8e 1e ff ff ff    	jle    804b011
 804b0f3:	89 f0                	mov    eax,esi
 804b0f5:	29 e8                	sub    eax,ebp
 804b0f7:	89 c2                	mov    edx,eax
 804b0f9:	c1 ea 1f             	shr    edx,0x1f
 804b0fc:	01 d0                	add    eax,edx
 804b0fe:	d1 f8                	sar    eax,1
 804b100:	8d 4c 05 00          	lea    ecx,[ebp+eax]
 804b104:	39 cd                	cmp    ebp,ecx
 804b106:	89 4c 24 14          	mov    DWORD PTR [esp+0x14],ecx
 804b10a:	7d 40                	jge    804b14c
 804b10c:	89 c2                	mov    edx,eax
 804b10e:	c1 ea 1f             	shr    edx,0x1f
 804b111:	01 d0                	add    eax,edx
 804b113:	89 ea                	mov    edx,ebp
 804b115:	d1 f8                	sar    eax,1
 804b117:	01 e8                	add    eax,ebp
 804b119:	89 c1                	mov    ecx,eax
 804b11b:	89 44 24 18          	mov    DWORD PTR [esp+0x18],eax
 804b11f:	89 f8                	mov    eax,edi
 804b121:	e8 aa fe ff ff       	call   804afd0
 804b126:	8b 44 24 18          	mov    eax,DWORD PTR [esp+0x18]
 804b12a:	8b 4c 24 14          	mov    ecx,DWORD PTR [esp+0x14]
 804b12e:	8d 50 01             	lea    edx,[eax+0x1]
 804b131:	89 f8                	mov    eax,edi
 804b133:	e8 98 fe ff ff       	call   804afd0
 804b138:	8b 54 24 14          	mov    edx,DWORD PTR [esp+0x14]
 804b13c:	89 f8                	mov    eax,edi
 804b13e:	8b 4c 24 18          	mov    ecx,DWORD PTR [esp+0x18]
 804b142:	89 14 24             	mov    DWORD PTR [esp],edx
 804b145:	89 ea                	mov    edx,ebp
 804b147:	e8 e4 eb ff ff       	call   8049d30
 804b14c:	8b 44 24 14          	mov    eax,DWORD PTR [esp+0x14]
 804b150:	83 c0 01             	add    eax,0x1
 804b153:	39 c6                	cmp    esi,eax
 804b155:	89 44 24 18          	mov    DWORD PTR [esp+0x18],eax
 804b159:	7e 42                	jle    804b19d
 804b15b:	89 c1                	mov    ecx,eax
 804b15d:	89 f0                	mov    eax,esi
 804b15f:	29 c8                	sub    eax,ecx
 804b161:	89 c2                	mov    edx,eax
 804b163:	c1 ea 1f             	shr    edx,0x1f
 804b166:	01 d0                	add    eax,edx
 804b168:	89 ca                	mov    edx,ecx
 804b16a:	d1 f8                	sar    eax,1
 804b16c:	01 c8                	add    eax,ecx
 804b16e:	89 c1                	mov    ecx,eax
 804b170:	89 44 24 1c          	mov    DWORD PTR [esp+0x1c],eax
 804b174:	89 f8                	mov    eax,edi
 804b176:	e8 55 fe ff ff       	call   804afd0
 804b17b:	8b 44 24 1c          	mov    eax,DWORD PTR [esp+0x1c]
 804b17f:	89 f1                	mov    ecx,esi
 804b181:	8d 50 01             	lea    edx,[eax+0x1]
 804b184:	89 f8                	mov    eax,edi
 804b186:	e8 45 fe ff ff       	call   804afd0
 804b18b:	8b 4c 24 1c          	mov    ecx,DWORD PTR [esp+0x1c]
 804b18f:	89 f8                	mov    eax,edi
 804b191:	8b 54 24 18          	mov    edx,DWORD PTR [esp+0x18]
 804b195:	89 34 24             	mov    DWORD PTR [esp],esi
 804b198:	e8 93 eb ff ff       	call   8049d30
 804b19d:	8b 4c 24 14          	mov    ecx,DWORD PTR [esp+0x14]
 804b1a1:	89 ea                	mov    edx,ebp
 804b1a3:	89 f8                	mov    eax,edi
 804b1a5:	89 34 24             	mov    DWORD PTR [esp],esi
 804b1a8:	e8 83 eb ff ff       	call   8049d30
 804b1ad:	e9 5f fe ff ff       	jmp    804b011
 804b1b2:	8d b4 26 00 00 00 00 	lea    esi,[esi]
 804b1b9:	8d bc 27 00 00 00 00 	lea    edi,[edi]

0804b1c0 <MergeSubSort_TwoArray_TwoKey>:
 804b1c0:	55                   	push   ebp
 804b1c1:	57                   	push   edi
 804b1c2:	56                   	push   esi
 804b1c3:	53                   	push   ebx
 804b1c4:	89 cb                	mov    ebx,ecx
 804b1c6:	83 ec 2c             	sub    esp,0x2c
 804b1c9:	3b 4c 24 40          	cmp    ecx,DWORD PTR [esp+0x40]
 804b1cd:	7c 09                	jl     804b1d8
 804b1cf:	83 c4 2c             	add    esp,0x2c
 804b1d2:	5b                   	pop    ebx
 804b1d3:	5e                   	pop    esi
 804b1d4:	5f                   	pop    edi
 804b1d5:	5d                   	pop    ebp
 804b1d6:	c3                   	ret
 804b1d7:	90                   	nop
 804b1d8:	89 c6                	mov    esi,eax
 804b1da:	8b 44 24 40          	mov    eax,DWORD PTR [esp+0x40]
 804b1de:	89 d7                	mov    edi,edx
 804b1e0:	29 c8                	sub    eax,ecx
 804b1e2:	89 c5                	mov    ebp,eax
 804b1e4:	c1 ed 1f             	shr    ebp,0x1f
 804b1e7:	01 e8                	add    eax,ebp
 804b1e9:	d1 f8                	sar    eax,1
 804b1eb:	8d 0c 08             	lea    ecx,[eax+ecx]
 804b1ee:	39 cb                	cmp    ebx,ecx
 804b1f0:	89 4c 24 10          	mov    DWORD PTR [esp+0x10],ecx
 804b1f4:	7c 3a                	jl     804b230
 804b1f6:	8b 44 24 10          	mov    eax,DWORD PTR [esp+0x10]
 804b1fa:	8d 68 01             	lea    ebp,[eax+0x1]
 804b1fd:	39 6c 24 40          	cmp    DWORD PTR [esp+0x40],ebp
 804b201:	0f 8f 0e 01 00 00    	jg     804b315
 804b207:	8b 44 24 40          	mov    eax,DWORD PTR [esp+0x40]
 804b20b:	89 d9                	mov    ecx,ebx
 804b20d:	89 fa                	mov    edx,edi
 804b20f:	89 44 24 04          	mov    DWORD PTR [esp+0x4],eax
 804b213:	8b 44 24 10          	mov    eax,DWORD PTR [esp+0x10]
 804b217:	89 04 24             	mov    DWORD PTR [esp],eax
 804b21a:	89 f0                	mov    eax,esi
 804b21c:	e8 ef f3 ff ff       	call   804a610
 804b221:	83 c4 2c             	add    esp,0x2c
 804b224:	5b                   	pop    ebx
 804b225:	5e                   	pop    esi
 804b226:	5f                   	pop    edi
 804b227:	5d                   	pop    ebp
 804b228:	c3                   	ret
 804b229:	8d b4 26 00 00 00 00 	lea    esi,[esi]
 804b230:	89 c5                	mov    ebp,eax
 804b232:	c1 ed 1f             	shr    ebp,0x1f
 804b235:	01 e8                	add    eax,ebp
 804b237:	d1 f8                	sar    eax,1
 804b239:	8d 14 03             	lea    edx,[ebx+eax]
 804b23c:	39 d3                	cmp    ebx,edx
 804b23e:	89 54 24 14          	mov    DWORD PTR [esp+0x14],edx
 804b242:	7d 43                	jge    804b287
 804b244:	89 c5                	mov    ebp,eax
 804b246:	89 d9                	mov    ecx,ebx
 804b248:	c1 ed 1f             	shr    ebp,0x1f
 804b24b:	89 fa                	mov    edx,edi
 804b24d:	01 e8                	add    eax,ebp
 804b24f:	d1 f8                	sar    eax,1
 804b251:	8d 2c 03             	lea    ebp,[ebx+eax]
 804b254:	89 f0                	mov    eax,esi
 804b256:	89 2c 24             	mov    DWORD PTR [esp],ebp
 804b259:	e8 62 ff ff ff       	call   804b1c0
 804b25e:	8b 44 24 14          	mov    eax,DWORD PTR [esp+0x14]
 804b262:	8d 4d 01             	lea    ecx,[ebp+0x1]
 804b265:	89 fa                	mov    edx,edi
 804b267:	89 04 24             	mov    DWORD PTR [esp],eax
 804b26a:	89 f0                	mov    eax,esi
 804b26c:	e8 4f ff ff ff       	call   804b1c0
 804b271:	8b 44 24 14          	mov    eax,DWORD PTR [esp+0x14]
 804b275:	89 d9                	mov    ecx,ebx
 804b277:	89 2c 24             	mov    DWORD PTR [esp],ebp
 804b27a:	89 fa                	mov    edx,edi
 804b27c:	89 44 24 04          	mov    DWORD PTR [esp+0x4],eax
 804b280:	89 f0                	mov    eax,esi
 804b282:	e8 89 f3 ff ff       	call   804a610
 804b287:	8b 44 24 14          	mov    eax,DWORD PTR [esp+0x14]
 804b28b:	8d 68 01             	lea    ebp,[eax+0x1]
 804b28e:	39 6c 24 10          	cmp    DWORD PTR [esp+0x10],ebp
 804b292:	7e 56                	jle    804b2ea
 804b294:	8b 44 24 10          	mov    eax,DWORD PTR [esp+0x10]
 804b298:	89 e9                	mov    ecx,ebp
 804b29a:	29 e8                	sub    eax,ebp
 804b29c:	89 c2                	mov    edx,eax
 804b29e:	c1 ea 1f             	shr    edx,0x1f
 804b2a1:	01 d0                	add    eax,edx
 804b2a3:	d1 f8                	sar    eax,1
 804b2a5:	8d 54 05 00          	lea    edx,[ebp+eax]
 804b2a9:	89 f0                	mov    eax,esi
 804b2ab:	89 54 24 18          	mov    DWORD PTR [esp+0x18],edx
 804b2af:	89 14 24             	mov    DWORD PTR [esp],edx
 804b2b2:	89 fa                	mov    edx,edi
 804b2b4:	e8 07 ff ff ff       	call   804b1c0
 804b2b9:	8b 54 24 18          	mov    edx,DWORD PTR [esp+0x18]
 804b2bd:	8b 44 24 10          	mov    eax,DWORD PTR [esp+0x10]
 804b2c1:	8d 4a 01             	lea    ecx,[edx+0x1]
 804b2c4:	89 fa                	mov    edx,edi
 804b2c6:	89 04 24             	mov    DWORD PTR [esp],eax
 804b2c9:	89 f0                	mov    eax,esi
 804b2cb:	e8 f0 fe ff ff       	call   804b1c0
 804b2d0:	8b 44 24 10          	mov    eax,DWORD PTR [esp+0x10]
 804b2d4:	89 e9                	mov    ecx,ebp
 804b2d6:	8b 54 24 18          	mov    edx,DWORD PTR [esp+0x18]
 804b2da:	89 44 24 04          	mov    DWORD PTR [esp+0x4],eax
 804b2de:	89 f0                	mov    eax,esi
 804b2e0:	89 14 24             	mov    DWORD PTR [esp],edx
 804b2e3:	89 fa                	mov    edx,edi
 804b2e5:	e8 26 f3 ff ff       	call   804a610
 804b2ea:	8b 44 24 10          	mov    eax,DWORD PTR [esp+0x10]
 804b2ee:	89 d9                	mov    ecx,ebx
 804b2f0:	89 fa                	mov    edx,edi
 804b2f2:	89 44 24 04          	mov    DWORD PTR [esp+0x4],eax
 804b2f6:	8b 44 24 14          	mov    eax,DWORD PTR [esp+0x14]
 804b2fa:	89 04 24             	mov    DWORD PTR [esp],eax
 804b2fd:	89 f0                	mov    eax,esi
 804b2ff:	e8 0c f3 ff ff       	call   804a610
 804b304:	8b 44 24 10          	mov    eax,DWORD PTR [esp+0x10]
 804b308:	8d 68 01             	lea    ebp,[eax+0x1]
 804b30b:	39 6c 24 40          	cmp    DWORD PTR [esp+0x40],ebp
 804b30f:	0f 8e f2 fe ff ff    	jle    804b207
 804b315:	8b 44 24 40          	mov    eax,DWORD PTR [esp+0x40]
 804b319:	29 e8                	sub    eax,ebp
 804b31b:	89 c2                	mov    edx,eax
 804b31d:	c1 ea 1f             	shr    edx,0x1f
 804b320:	01 d0                	add    eax,edx
 804b322:	d1 f8                	sar    eax,1
 804b324:	8d 54 05 00          	lea    edx,[ebp+eax]
 804b328:	39 d5                	cmp    ebp,edx
 804b32a:	89 54 24 14          	mov    DWORD PTR [esp+0x14],edx
 804b32e:	7d 4e                	jge    804b37e
 804b330:	89 c2                	mov    edx,eax
 804b332:	89 e9                	mov    ecx,ebp
 804b334:	c1 ea 1f             	shr    edx,0x1f
 804b337:	01 d0                	add    eax,edx
 804b339:	89 fa                	mov    edx,edi
 804b33b:	d1 f8                	sar    eax,1
 804b33d:	01 e8                	add    eax,ebp
 804b33f:	89 44 24 18          	mov    DWORD PTR [esp+0x18],eax
 804b343:	89 04 24             	mov    DWORD PTR [esp],eax
 804b346:	89 f0                	mov    eax,esi
 804b348:	e8 73 fe ff ff       	call   804b1c0
 804b34d:	8b 44 24 18          	mov    eax,DWORD PTR [esp+0x18]
 804b351:	8b 54 24 14          	mov    edx,DWORD PTR [esp+0x14]
 804b355:	8d 48 01             	lea    ecx,[eax+0x1]
 804b358:	89 f0                	mov    eax,esi
 804b35a:	89 14 24             	mov    DWORD PTR [esp],edx
 804b35d:	89 fa                	mov    edx,edi
 804b35f:	e8 5c fe ff ff       	call   804b1c0
 804b364:	8b 54 24 14          	mov    edx,DWORD PTR [esp+0x14]
 804b368:	89 e9                	mov    ecx,ebp
 804b36a:	8b 44 24 18          	mov    eax,DWORD PTR [esp+0x18]
 804b36e:	89 54 24 04          	mov    DWORD PTR [esp+0x4],edx
 804b372:	89 fa                	mov    edx,edi
 804b374:	89 04 24             	mov    DWORD PTR [esp],eax
 804b377:	89 f0                	mov    eax,esi
 804b379:	e8 92 f2 ff ff       	call   804a610
 804b37e:	8b 44 24 14          	mov    eax,DWORD PTR [esp+0x14]
 804b382:	83 c0 01             	add    eax,0x1
 804b385:	39 44 24 40          	cmp    DWORD PTR [esp+0x40],eax
 804b389:	89 44 24 18          	mov    DWORD PTR [esp+0x18],eax
 804b38d:	7e 56                	jle    804b3e5
 804b38f:	89 c1                	mov    ecx,eax
 804b391:	8b 44 24 40          	mov    eax,DWORD PTR [esp+0x40]
 804b395:	29 c8                	sub    eax,ecx
 804b397:	89 c2                	mov    edx,eax
 804b399:	c1 ea 1f             	shr    edx,0x1f
 804b39c:	01 d0                	add    eax,edx
 804b39e:	89 fa                	mov    edx,edi
 804b3a0:	d1 f8                	sar    eax,1
 804b3a2:	01 c8                	add    eax,ecx
 804b3a4:	89 44 24 1c          	mov    DWORD PTR [esp+0x1c],eax
 804b3a8:	89 04 24             	mov    DWORD PTR [esp],eax
 804b3ab:	89 f0                	mov    eax,esi
 804b3ad:	e8 0e fe ff ff       	call   804b1c0
 804b3b2:	8b 44 24 1c          	mov    eax,DWORD PTR [esp+0x1c]
 804b3b6:	8b 54 24 40          	mov    edx,DWORD PTR [esp+0x40]
 804b3ba:	8d 48 01             	lea    ecx,[eax+0x1]
 804b3bd:	89 f0                	mov    eax,esi
 804b3bf:	89 14 24             	mov    DWORD PTR [esp],edx
 804b3c2:	89 fa                	mov    edx,edi
 804b3c4:	e8 f7 fd ff ff       	call   804b1c0
 804b3c9:	8b 54 24 40          	mov    edx,DWORD PTR [esp+0x40]
 804b3cd:	8b 44 24 1c          	mov    eax,DWORD PTR [esp+0x1c]
 804b3d1:	8b 4c 24 18          	mov    ecx,DWORD PTR [esp+0x18]
 804b3d5:	89 54 24 04          	mov    DWORD PTR [esp+0x4],edx
 804b3d9:	89 fa                	mov    edx,edi
 804b3db:	89 04 24             	mov    DWORD PTR [esp],eax
 804b3de:	89 f0                	mov    eax,esi
 804b3e0:	e8 2b f2 ff ff       	call   804a610
 804b3e5:	8b 44 24 40          	mov    eax,DWORD PTR [esp+0x40]
 804b3e9:	89 e9                	mov    ecx,ebp
 804b3eb:	89 fa                	mov    edx,edi
 804b3ed:	89 44 24 04          	mov    DWORD PTR [esp+0x4],eax
 804b3f1:	8b 44 24 14          	mov    eax,DWORD PTR [esp+0x14]
 804b3f5:	89 04 24             	mov    DWORD PTR [esp],eax
 804b3f8:	89 f0                	mov    eax,esi
 804b3fa:	e8 11 f2 ff ff       	call   804a610
 804b3ff:	e9 03 fe ff ff       	jmp    804b207
 804b404:	8d b6 00 00 00 00    	lea    esi,[esi]
 804b40a:	8d bf 00 00 00 00    	lea    edi,[edi]

0804b410 <MergeSubSort_TwoArray>:
 804b410:	55                   	push   ebp
 804b411:	57                   	push   edi
 804b412:	56                   	push   esi
 804b413:	53                   	push   ebx
 804b414:	89 cb                	mov    ebx,ecx
 804b416:	83 ec 2c             	sub    esp,0x2c
 804b419:	3b 4c 24 40          	cmp    ecx,DWORD PTR [esp+0x40]
 804b41d:	7c 09                	jl     804b428
 804b41f:	83 c4 2c             	add    esp,0x2c
 804b422:	5b                   	pop    ebx
 804b423:	5e                   	pop    esi
 804b424:	5f                   	pop    edi
 804b425:	5d                   	pop    ebp
 804b426:	c3                   	ret
 804b427:	90                   	nop
 804b428:	89 c6                	mov    esi,eax
 804b42a:	8b 44 24 40          	mov    eax,DWORD PTR [esp+0x40]
 804b42e:	89 d7                	mov    edi,edx
 804b430:	29 c8                	sub    eax,ecx
 804b432:	89 c5                	mov    ebp,eax
 804b434:	c1 ed 1f             	shr    ebp,0x1f
 804b437:	01 e8                	add    eax,ebp
 804b439:	d1 f8                	sar    eax,1
 804b43b:	8d 0c 08             	lea    ecx,[eax+ecx]
 804b43e:	39 cb                	cmp    ebx,ecx
 804b440:	89 4c 24 10          	mov    DWORD PTR [esp+0x10],ecx
 804b444:	7c 3a                	jl     804b480
 804b446:	8b 44 24 10          	mov    eax,DWORD PTR [esp+0x10]
 804b44a:	8d 68 01             	lea    ebp,[eax+0x1]
 804b44d:	39 6c 24 40          	cmp    DWORD PTR [esp+0x40],ebp
 804b451:	0f 8f 0e 01 00 00    	jg     804b565
 804b457:	8b 44 24 40          	mov    eax,DWORD PTR [esp+0x40]
 804b45b:	89 d9                	mov    ecx,ebx
 804b45d:	89 fa                	mov    edx,edi
 804b45f:	89 44 24 04          	mov    DWORD PTR [esp+0x4],eax
 804b463:	8b 44 24 10          	mov    eax,DWORD PTR [esp+0x10]
 804b467:	89 04 24             	mov    DWORD PTR [esp],eax
 804b46a:	89 f0                	mov    eax,esi
 804b46c:	e8 2f ec ff ff       	call   804a0a0
 804b471:	83 c4 2c             	add    esp,0x2c
 804b474:	5b                   	pop    ebx
 804b475:	5e                   	pop    esi
 804b476:	5f                   	pop    edi
 804b477:	5d                   	pop    ebp
 804b478:	c3                   	ret
 804b479:	8d b4 26 00 00 00 00 	lea    esi,[esi]
 804b480:	89 c5                	mov    ebp,eax
 804b482:	c1 ed 1f             	shr    ebp,0x1f
 804b485:	01 e8                	add    eax,ebp
 804b487:	d1 f8                	sar    eax,1
 804b489:	8d 14 03             	lea    edx,[ebx+eax]
 804b48c:	39 d3                	cmp    ebx,edx
 804b48e:	89 54 24 14          	mov    DWORD PTR [esp+0x14],edx
 804b492:	7d 43                	jge    804b4d7
 804b494:	89 c5                	mov    ebp,eax
 804b496:	89 d9                	mov    ecx,ebx
 804b498:	c1 ed 1f             	shr    ebp,0x1f
 804b49b:	89 fa                	mov    edx,edi
 804b49d:	01 e8                	add    eax,ebp
 804b49f:	d1 f8                	sar    eax,1
 804b4a1:	8d 2c 03             	lea    ebp,[ebx+eax]
 804b4a4:	89 f0                	mov    eax,esi
 804b4a6:	89 2c 24             	mov    DWORD PTR [esp],ebp
 804b4a9:	e8 62 ff ff ff       	call   804b410
 804b4ae:	8b 44 24 14          	mov    eax,DWORD PTR [esp+0x14]
 804b4b2:	8d 4d 01             	lea    ecx,[ebp+0x1]
 804b4b5:	89 fa                	mov    edx,edi
 804b4b7:	89 04 24             	mov    DWORD PTR [esp],eax
 804b4ba:	89 f0                	mov    eax,esi
 804b4bc:	e8 4f ff ff ff       	call   804b410
 804b4c1:	8b 44 24 14          	mov    eax,DWORD PTR [esp+0x14]
 804b4c5:	89 d9                	mov    ecx,ebx
 804b4c7:	89 2c 24             	mov    DWORD PTR [esp],ebp
 804b4ca:	89 fa                	mov    edx,edi
 804b4cc:	89 44 24 04          	mov    DWORD PTR [esp+0x4],eax
 804b4d0:	89 f0                	mov    eax,esi
 804b4d2:	e8 c9 eb ff ff       	call   804a0a0
 804b4d7:	8b 44 24 14          	mov    eax,DWORD PTR [esp+0x14]
 804b4db:	8d 68 01             	lea    ebp,[eax+0x1]
 804b4de:	39 6c 24 10          	cmp    DWORD PTR [esp+0x10],ebp
 804b4e2:	7e 56                	jle    804b53a
 804b4e4:	8b 44 24 10          	mov    eax,DWORD PTR [esp+0x10]
 804b4e8:	89 e9                	mov    ecx,ebp
 804b4ea:	29 e8                	sub    eax,ebp
 804b4ec:	89 c2                	mov    edx,eax
 804b4ee:	c1 ea 1f             	shr    edx,0x1f
 804b4f1:	01 d0                	add    eax,edx
 804b4f3:	d1 f8                	sar    eax,1
 804b4f5:	8d 54 05 00          	lea    edx,[ebp+eax]
 804b4f9:	89 f0                	mov    eax,esi
 804b4fb:	89 54 24 18          	mov    DWORD PTR [esp+0x18],edx
 804b4ff:	89 14 24             	mov    DWORD PTR [esp],edx
 804b502:	89 fa                	mov    edx,edi
 804b504:	e8 07 ff ff ff       	call   804b410
 804b509:	8b 54 24 18          	mov    edx,DWORD PTR [esp+0x18]
 804b50d:	8b 44 24 10          	mov    eax,DWORD PTR [esp+0x10]
 804b511:	8d 4a 01             	lea    ecx,[edx+0x1]
 804b514:	89 fa                	mov    edx,edi
 804b516:	89 04 24             	mov    DWORD PTR [esp],eax
 804b519:	89 f0                	mov    eax,esi
 804b51b:	e8 f0 fe ff ff       	call   804b410
 804b520:	8b 44 24 10          	mov    eax,DWORD PTR [esp+0x10]
 804b524:	89 e9                	mov    ecx,ebp
 804b526:	8b 54 24 18          	mov    edx,DWORD PTR [esp+0x18]
 804b52a:	89 44 24 04          	mov    DWORD PTR [esp+0x4],eax
 804b52e:	89 f0                	mov    eax,esi
 804b530:	89 14 24             	mov    DWORD PTR [esp],edx
 804b533:	89 fa                	mov    edx,edi
 804b535:	e8 66 eb ff ff       	call   804a0a0
 804b53a:	8b 44 24 10          	mov    eax,DWORD PTR [esp+0x10]
 804b53e:	89 d9                	mov    ecx,ebx
 804b540:	89 fa                	mov    edx,edi
 804b542:	89 44 24 04          	mov    DWORD PTR [esp+0x4],eax
 804b546:	8b 44 24 14          	mov    eax,DWORD PTR [esp+0x14]
 804b54a:	89 04 24             	mov    DWORD PTR [esp],eax
 804b54d:	89 f0                	mov    eax,esi
 804b54f:	e8 4c eb ff ff       	call   804a0a0
 804b554:	8b 44 24 10          	mov    eax,DWORD PTR [esp+0x10]
 804b558:	8d 68 01             	lea    ebp,[eax+0x1]
 804b55b:	39 6c 24 40          	cmp    DWORD PTR [esp+0x40],ebp
 804b55f:	0f 8e f2 fe ff ff    	jle    804b457
 804b565:	8b 44 24 40          	mov    eax,DWORD PTR [esp+0x40]
 804b569:	29 e8                	sub    eax,ebp
 804b56b:	89 c2                	mov    edx,eax
 804b56d:	c1 ea 1f             	shr    edx,0x1f
 804b570:	01 d0                	add    eax,edx
 804b572:	d1 f8                	sar    eax,1
 804b574:	8d 54 05 00          	lea    edx,[ebp+eax]
 804b578:	39 d5                	cmp    ebp,edx
 804b57a:	89 54 24 14          	mov    DWORD PTR [esp+0x14],edx
 804b57e:	7d 4e                	jge    804b5ce
 804b580:	89 c2                	mov    edx,eax
 804b582:	89 e9                	mov    ecx,ebp
 804b584:	c1 ea 1f             	shr    edx,0x1f
 804b587:	01 d0                	add    eax,edx
 804b589:	89 fa                	mov    edx,edi
 804b58b:	d1 f8                	sar    eax,1
 804b58d:	01 e8                	add    eax,ebp
 804b58f:	89 44 24 18          	mov    DWORD PTR [esp+0x18],eax
 804b593:	89 04 24             	mov    DWORD PTR [esp],eax
 804b596:	89 f0                	mov    eax,esi
 804b598:	e8 73 fe ff ff       	call   804b410
 804b59d:	8b 44 24 18          	mov    eax,DWORD PTR [esp+0x18]
 804b5a1:	8b 54 24 14          	mov    edx,DWORD PTR [esp+0x14]
 804b5a5:	8d 48 01             	lea    ecx,[eax+0x1]
 804b5a8:	89 f0                	mov    eax,esi
 804b5aa:	89 14 24             	mov    DWORD PTR [esp],edx
 804b5ad:	89 fa                	mov    edx,edi
 804b5af:	e8 5c fe ff ff       	call   804b410
 804b5b4:	8b 54 24 14          	mov    edx,DWORD PTR [esp+0x14]
 804b5b8:	89 e9                	mov    ecx,ebp
 804b5ba:	8b 44 24 18          	mov    eax,DWORD PTR [esp+0x18]
 804b5be:	89 54 24 04          	mov    DWORD PTR [esp+0x4],edx
 804b5c2:	89 fa                	mov    edx,edi
 804b5c4:	89 04 24             	mov    DWORD PTR [esp],eax
 804b5c7:	89 f0                	mov    eax,esi
 804b5c9:	e8 d2 ea ff ff       	call   804a0a0
 804b5ce:	8b 44 24 14          	mov    eax,DWORD PTR [esp+0x14]
 804b5d2:	83 c0 01             	add    eax,0x1
 804b5d5:	39 44 24 40          	cmp    DWORD PTR [esp+0x40],eax
 804b5d9:	89 44 24 18          	mov    DWORD PTR [esp+0x18],eax
 804b5dd:	7e 56                	jle    804b635
 804b5df:	89 c1                	mov    ecx,eax
 804b5e1:	8b 44 24 40          	mov    eax,DWORD PTR [esp+0x40]
 804b5e5:	29 c8                	sub    eax,ecx
 804b5e7:	89 c2                	mov    edx,eax
 804b5e9:	c1 ea 1f             	shr    edx,0x1f
 804b5ec:	01 d0                	add    eax,edx
 804b5ee:	89 fa                	mov    edx,edi
 804b5f0:	d1 f8                	sar    eax,1
 804b5f2:	01 c8                	add    eax,ecx
 804b5f4:	89 44 24 1c          	mov    DWORD PTR [esp+0x1c],eax
 804b5f8:	89 04 24             	mov    DWORD PTR [esp],eax
 804b5fb:	89 f0                	mov    eax,esi
 804b5fd:	e8 0e fe ff ff       	call   804b410
 804b602:	8b 44 24 1c          	mov    eax,DWORD PTR [esp+0x1c]
 804b606:	8b 54 24 40          	mov    edx,DWORD PTR [esp+0x40]
 804b60a:	8d 48 01             	lea    ecx,[eax+0x1]
 804b60d:	89 f0                	mov    eax,esi
 804b60f:	89 14 24             	mov    DWORD PTR [esp],edx
 804b612:	89 fa                	mov    edx,edi
 804b614:	e8 f7 fd ff ff       	call   804b410
 804b619:	8b 54 24 40          	mov    edx,DWORD PTR [esp+0x40]
 804b61d:	8b 44 24 1c          	mov    eax,DWORD PTR [esp+0x1c]
 804b621:	8b 4c 24 18          	mov    ecx,DWORD PTR [esp+0x18]
 804b625:	89 54 24 04          	mov    DWORD PTR [esp+0x4],edx
 804b629:	89 fa                	mov    edx,edi
 804b62b:	89 04 24             	mov    DWORD PTR [esp],eax
 804b62e:	89 f0                	mov    eax,esi
 804b630:	e8 6b ea ff ff       	call   804a0a0
 804b635:	8b 44 24 40          	mov    eax,DWORD PTR [esp+0x40]
 804b639:	89 e9                	mov    ecx,ebp
 804b63b:	89 fa                	mov    edx,edi
 804b63d:	89 44 24 04          	mov    DWORD PTR [esp+0x4],eax
 804b641:	8b 44 24 14          	mov    eax,DWORD PTR [esp+0x14]
 804b645:	89 04 24             	mov    DWORD PTR [esp],eax
 804b648:	89 f0                	mov    eax,esi
 804b64a:	e8 51 ea ff ff       	call   804a0a0
 804b64f:	e9 03 fe ff ff       	jmp    804b457
 804b654:	8d b6 00 00 00 00    	lea    esi,[esi]
 804b65a:	8d bf 00 00 00 00    	lea    edi,[edi]

0804b660 <MergeSort_Int>:
 804b660:	55                   	push   ebp
 804b661:	57                   	push   edi
 804b662:	56                   	push   esi
 804b663:	53                   	push   ebx
 804b664:	83 ec 1c             	sub    esp,0x1c
 804b667:	8b 7c 24 34          	mov    edi,DWORD PTR [esp+0x34]
 804b66b:	8b 44 24 38          	mov    eax,DWORD PTR [esp+0x38]
 804b66f:	8b 6c 24 30          	mov    ebp,DWORD PTR [esp+0x30]
 804b673:	8d 1c bd 00 00 00 00 	lea    ebx,[edi*4]
 804b67a:	89 1c 24             	mov    DWORD PTR [esp],ebx
 804b67d:	a3 c8 60 05 08       	mov    ds:0x80560c8,eax
 804b682:	e8 79 ce ff ff       	call   8048500
 804b687:	89 1c 24             	mov    DWORD PTR [esp],ebx
 804b68a:	89 c6                	mov    esi,eax
 804b68c:	a3 d8 60 05 08       	mov    ds:0x80560d8,eax
 804b691:	e8 6a ce ff ff       	call   8048500
 804b696:	8d 4f ff             	lea    ecx,[edi-0x1]
 804b699:	31 d2                	xor    edx,edx
 804b69b:	89 c3                	mov    ebx,eax
 804b69d:	a3 d4 60 05 08       	mov    ds:0x80560d4,eax
 804b6a2:	89 e8                	mov    eax,ebp
 804b6a4:	e8 47 f5 ff ff       	call   804abf0
 804b6a9:	89 34 24             	mov    DWORD PTR [esp],esi
 804b6ac:	e8 2f ce ff ff       	call   80484e0
 804b6b1:	89 5c 24 30          	mov    DWORD PTR [esp+0x30],ebx
 804b6b5:	83 c4 1c             	add    esp,0x1c
 804b6b8:	5b                   	pop    ebx
 804b6b9:	5e                   	pop    esi
 804b6ba:	5f                   	pop    edi
 804b6bb:	5d                   	pop    ebp
 804b6bc:	e9 1f ce ff ff       	jmp    80484e0
 804b6c1:	eb 0d                	jmp    804b6d0
 804b6c3:	90                   	nop
 804b6c4:	90                   	nop
 804b6c5:	90                   	nop
 804b6c6:	90                   	nop
 804b6c7:	90                   	nop
 804b6c8:	90                   	nop
 804b6c9:	90                   	nop
 804b6ca:	90                   	nop
 804b6cb:	90                   	nop
 804b6cc:	90                   	nop
 804b6cd:	90                   	nop
 804b6ce:	90                   	nop
 804b6cf:	90                   	nop

0804b6d0 <MergeSort_Block>:
 804b6d0:	55                   	push   ebp
 804b6d1:	57                   	push   edi
 804b6d2:	56                   	push   esi
 804b6d3:	53                   	push   ebx
 804b6d4:	83 ec 2c             	sub    esp,0x2c
 804b6d7:	8b 5c 24 44          	mov    ebx,DWORD PTR [esp+0x44]
 804b6db:	8b 44 24 50          	mov    eax,DWORD PTR [esp+0x50]
 804b6df:	8b 54 24 4c          	mov    edx,DWORD PTR [esp+0x4c]
 804b6e3:	8b 6c 24 40          	mov    ebp,DWORD PTR [esp+0x40]
 804b6e7:	8d 34 9d 00 00 00 00 	lea    esi,[ebx*4]
 804b6ee:	83 eb 01             	sub    ebx,0x1
 804b6f1:	0f af f0             	imul   esi,eax
 804b6f4:	89 15 c8 60 05 08    	mov    DWORD PTR ds:0x80560c8,edx
 804b6fa:	8b 54 24 48          	mov    edx,DWORD PTR [esp+0x48]
 804b6fe:	a3 68 60 05 08       	mov    ds:0x8056068,eax
 804b703:	89 34 24             	mov    DWORD PTR [esp],esi
 804b706:	89 15 bc 60 05 08    	mov    DWORD PTR ds:0x80560bc,edx
 804b70c:	e8 ef cd ff ff       	call   8048500
 804b711:	89 34 24             	mov    DWORD PTR [esp],esi
 804b714:	89 c7                	mov    edi,eax
 804b716:	a3 d8 60 05 08       	mov    ds:0x80560d8,eax
 804b71b:	e8 e0 cd ff ff       	call   8048500
 804b720:	85 db                	test   ebx,ebx
 804b722:	89 c6                	mov    esi,eax
 804b724:	a3 d4 60 05 08       	mov    ds:0x80560d4,eax
 804b729:	7f 1d                	jg     804b748
 804b72b:	89 3c 24             	mov    DWORD PTR [esp],edi
 804b72e:	e8 ad cd ff ff       	call   80484e0
 804b733:	89 74 24 40          	mov    DWORD PTR [esp+0x40],esi
 804b737:	83 c4 2c             	add    esp,0x2c
 804b73a:	5b                   	pop    ebx
 804b73b:	5e                   	pop    esi
 804b73c:	5f                   	pop    edi
 804b73d:	5d                   	pop    ebp
 804b73e:	e9 9d cd ff ff       	jmp    80484e0
 804b743:	90                   	nop
 804b744:	8d 74 26 00          	lea    esi,[esi]
 804b748:	89 d8                	mov    eax,ebx
 804b74a:	d1 f8                	sar    eax,1
 804b74c:	89 44 24 0c          	mov    DWORD PTR [esp+0xc],eax
 804b750:	75 16                	jne    804b768
 804b752:	8b 4c 24 0c          	mov    ecx,DWORD PTR [esp+0xc]
 804b756:	31 d2                	xor    edx,edx
 804b758:	89 e8                	mov    eax,ebp
 804b75a:	89 1c 24             	mov    DWORD PTR [esp],ebx
 804b75d:	e8 be e2 ff ff       	call   8049a20
 804b762:	eb c7                	jmp    804b72b
 804b764:	8d 74 26 00          	lea    esi,[esi]
 804b768:	89 d8                	mov    eax,ebx
 804b76a:	c1 f8 02             	sar    eax,0x2
 804b76d:	85 c0                	test   eax,eax
 804b76f:	89 44 24 10          	mov    DWORD PTR [esp+0x10],eax
 804b773:	0f 85 e7 00 00 00    	jne    804b860
 804b779:	8b 44 24 0c          	mov    eax,DWORD PTR [esp+0xc]
 804b77d:	31 d2                	xor    edx,edx
 804b77f:	8b 4c 24 10          	mov    ecx,DWORD PTR [esp+0x10]
 804b783:	89 04 24             	mov    DWORD PTR [esp],eax
 804b786:	89 e8                	mov    eax,ebp
 804b788:	e8 93 e2 ff ff       	call   8049a20
 804b78d:	8b 44 24 0c          	mov    eax,DWORD PTR [esp+0xc]
 804b791:	83 c0 01             	add    eax,0x1
 804b794:	39 c3                	cmp    ebx,eax
 804b796:	89 c1                	mov    ecx,eax
 804b798:	89 44 24 14          	mov    DWORD PTR [esp+0x14],eax
 804b79c:	7e b4                	jle    804b752
 804b79e:	89 d8                	mov    eax,ebx
 804b7a0:	29 c8                	sub    eax,ecx
 804b7a2:	89 c2                	mov    edx,eax
 804b7a4:	c1 ea 1f             	shr    edx,0x1f
 804b7a7:	01 d0                	add    eax,edx
 804b7a9:	d1 f8                	sar    eax,1
 804b7ab:	8d 14 01             	lea    edx,[ecx+eax]
 804b7ae:	39 d1                	cmp    ecx,edx
 804b7b0:	89 54 24 10          	mov    DWORD PTR [esp+0x10],edx
 804b7b4:	7d 42                	jge    804b7f8
 804b7b6:	89 c2                	mov    edx,eax
 804b7b8:	c1 ea 1f             	shr    edx,0x1f
 804b7bb:	01 d0                	add    eax,edx
 804b7bd:	89 ca                	mov    edx,ecx
 804b7bf:	d1 f8                	sar    eax,1
 804b7c1:	01 c8                	add    eax,ecx
 804b7c3:	89 c1                	mov    ecx,eax
 804b7c5:	89 44 24 18          	mov    DWORD PTR [esp+0x18],eax
 804b7c9:	89 e8                	mov    eax,ebp
 804b7cb:	e8 10 f6 ff ff       	call   804ade0
 804b7d0:	8b 44 24 18          	mov    eax,DWORD PTR [esp+0x18]
 804b7d4:	8b 4c 24 10          	mov    ecx,DWORD PTR [esp+0x10]
 804b7d8:	8d 50 01             	lea    edx,[eax+0x1]
 804b7db:	89 e8                	mov    eax,ebp
 804b7dd:	e8 fe f5 ff ff       	call   804ade0
 804b7e2:	8b 4c 24 10          	mov    ecx,DWORD PTR [esp+0x10]
 804b7e6:	89 e8                	mov    eax,ebp
 804b7e8:	8b 54 24 14          	mov    edx,DWORD PTR [esp+0x14]
 804b7ec:	89 0c 24             	mov    DWORD PTR [esp],ecx
 804b7ef:	8b 4c 24 18          	mov    ecx,DWORD PTR [esp+0x18]
 804b7f3:	e8 28 e2 ff ff       	call   8049a20
 804b7f8:	8b 44 24 10          	mov    eax,DWORD PTR [esp+0x10]
 804b7fc:	83 c0 01             	add    eax,0x1
 804b7ff:	39 c3                	cmp    ebx,eax
 804b801:	89 44 24 18          	mov    DWORD PTR [esp+0x18],eax
 804b805:	7e 42                	jle    804b849
 804b807:	89 c1                	mov    ecx,eax
 804b809:	89 d8                	mov    eax,ebx
 804b80b:	29 c8                	sub    eax,ecx
 804b80d:	89 c2                	mov    edx,eax
 804b80f:	c1 ea 1f             	shr    edx,0x1f
 804b812:	01 d0                	add    eax,edx
 804b814:	89 ca                	mov    edx,ecx
 804b816:	d1 f8                	sar    eax,1
 804b818:	01 c8                	add    eax,ecx
 804b81a:	89 c1                	mov    ecx,eax
 804b81c:	89 44 24 1c          	mov    DWORD PTR [esp+0x1c],eax
 804b820:	89 e8                	mov    eax,ebp
 804b822:	e8 b9 f5 ff ff       	call   804ade0
 804b827:	8b 44 24 1c          	mov    eax,DWORD PTR [esp+0x1c]
 804b82b:	89 d9                	mov    ecx,ebx
 804b82d:	8d 50 01             	lea    edx,[eax+0x1]
 804b830:	89 e8                	mov    eax,ebp
 804b832:	e8 a9 f5 ff ff       	call   804ade0
 804b837:	8b 4c 24 1c          	mov    ecx,DWORD PTR [esp+0x1c]
 804b83b:	89 e8                	mov    eax,ebp
 804b83d:	8b 54 24 18          	mov    edx,DWORD PTR [esp+0x18]
 804b841:	89 1c 24             	mov    DWORD PTR [esp],ebx
 804b844:	e8 d7 e1 ff ff       	call   8049a20
 804b849:	8b 4c 24 10          	mov    ecx,DWORD PTR [esp+0x10]
 804b84d:	89 e8                	mov    eax,ebp
 804b84f:	8b 54 24 14          	mov    edx,DWORD PTR [esp+0x14]
 804b853:	89 1c 24             	mov    DWORD PTR [esp],ebx
 804b856:	e8 c5 e1 ff ff       	call   8049a20
 804b85b:	e9 f2 fe ff ff       	jmp    804b752
 804b860:	89 d8                	mov    eax,ebx
 804b862:	31 d2                	xor    edx,edx
 804b864:	c1 f8 03             	sar    eax,0x3
 804b867:	89 c1                	mov    ecx,eax
 804b869:	89 44 24 14          	mov    DWORD PTR [esp+0x14],eax
 804b86d:	89 e8                	mov    eax,ebp
 804b86f:	e8 6c f5 ff ff       	call   804ade0
 804b874:	8b 44 24 14          	mov    eax,DWORD PTR [esp+0x14]
 804b878:	8b 4c 24 10          	mov    ecx,DWORD PTR [esp+0x10]
 804b87c:	8d 50 01             	lea    edx,[eax+0x1]
 804b87f:	89 e8                	mov    eax,ebp
 804b881:	e8 5a f5 ff ff       	call   804ade0
 804b886:	8b 54 24 10          	mov    edx,DWORD PTR [esp+0x10]
 804b88a:	89 e8                	mov    eax,ebp
 804b88c:	8b 4c 24 14          	mov    ecx,DWORD PTR [esp+0x14]
 804b890:	89 14 24             	mov    DWORD PTR [esp],edx
 804b893:	31 d2                	xor    edx,edx
 804b895:	e8 86 e1 ff ff       	call   8049a20
 804b89a:	8b 54 24 10          	mov    edx,DWORD PTR [esp+0x10]
 804b89e:	8d 42 01             	lea    eax,[edx+0x1]
 804b8a1:	8b 54 24 0c          	mov    edx,DWORD PTR [esp+0xc]
 804b8a5:	89 c1                	mov    ecx,eax
 804b8a7:	39 c2                	cmp    edx,eax
 804b8a9:	0f 8e ca fe ff ff    	jle    804b779
 804b8af:	89 d0                	mov    eax,edx
 804b8b1:	29 c8                	sub    eax,ecx
 804b8b3:	89 c2                	mov    edx,eax
 804b8b5:	c1 ea 1f             	shr    edx,0x1f
 804b8b8:	01 d0                	add    eax,edx
 804b8ba:	89 ca                	mov    edx,ecx
 804b8bc:	d1 f8                	sar    eax,1
 804b8be:	01 c8                	add    eax,ecx
 804b8c0:	89 c1                	mov    ecx,eax
 804b8c2:	89 44 24 14          	mov    DWORD PTR [esp+0x14],eax
 804b8c6:	89 e8                	mov    eax,ebp
 804b8c8:	89 54 24 18          	mov    DWORD PTR [esp+0x18],edx
 804b8cc:	e8 0f f5 ff ff       	call   804ade0
 804b8d1:	8b 4c 24 14          	mov    ecx,DWORD PTR [esp+0x14]
 804b8d5:	89 e8                	mov    eax,ebp
 804b8d7:	8d 51 01             	lea    edx,[ecx+0x1]
 804b8da:	8b 4c 24 0c          	mov    ecx,DWORD PTR [esp+0xc]
 804b8de:	e8 fd f4 ff ff       	call   804ade0
 804b8e3:	8b 44 24 0c          	mov    eax,DWORD PTR [esp+0xc]
 804b8e7:	8b 4c 24 14          	mov    ecx,DWORD PTR [esp+0x14]
 804b8eb:	8b 54 24 18          	mov    edx,DWORD PTR [esp+0x18]
 804b8ef:	89 04 24             	mov    DWORD PTR [esp],eax
 804b8f2:	89 e8                	mov    eax,ebp
 804b8f4:	e8 27 e1 ff ff       	call   8049a20
 804b8f9:	e9 7b fe ff ff       	jmp    804b779
 804b8fe:	66 90                	xchg   ax,ax

0804b900 <MergeSort_General>:
 804b900:	55                   	push   ebp
 804b901:	57                   	push   edi
 804b902:	56                   	push   esi
 804b903:	53                   	push   ebx
 804b904:	83 ec 2c             	sub    esp,0x2c
 804b907:	8b 54 24 50          	mov    edx,DWORD PTR [esp+0x50]
 804b90b:	8b 5c 24 44          	mov    ebx,DWORD PTR [esp+0x44]
 804b90f:	8b 44 24 48          	mov    eax,DWORD PTR [esp+0x48]
 804b913:	8b 6c 24 40          	mov    ebp,DWORD PTR [esp+0x40]
 804b917:	89 15 c4 60 05 08    	mov    DWORD PTR ds:0x80560c4,edx
 804b91d:	8b 54 24 58          	mov    edx,DWORD PTR [esp+0x58]
 804b921:	8d 34 9d 00 00 00 00 	lea    esi,[ebx*4]
 804b928:	83 eb 01             	sub    ebx,0x1
 804b92b:	0f af f0             	imul   esi,eax
 804b92e:	a3 68 60 05 08       	mov    ds:0x8056068,eax
 804b933:	89 15 c0 60 05 08    	mov    DWORD PTR ds:0x80560c0,edx
 804b939:	8b 54 24 4c          	mov    edx,DWORD PTR [esp+0x4c]
 804b93d:	89 34 24             	mov    DWORD PTR [esp],esi
 804b940:	89 15 b8 60 05 08    	mov    DWORD PTR ds:0x80560b8,edx
 804b946:	8b 54 24 54          	mov    edx,DWORD PTR [esp+0x54]
 804b94a:	89 15 b4 60 05 08    	mov    DWORD PTR ds:0x80560b4,edx
 804b950:	e8 ab cb ff ff       	call   8048500
 804b955:	89 34 24             	mov    DWORD PTR [esp],esi
 804b958:	89 c7                	mov    edi,eax
 804b95a:	a3 d8 60 05 08       	mov    ds:0x80560d8,eax
 804b95f:	e8 9c cb ff ff       	call   8048500
 804b964:	85 db                	test   ebx,ebx
 804b966:	89 c6                	mov    esi,eax
 804b968:	a3 d4 60 05 08       	mov    ds:0x80560d4,eax
 804b96d:	7f 19                	jg     804b988
 804b96f:	89 3c 24             	mov    DWORD PTR [esp],edi
 804b972:	e8 69 cb ff ff       	call   80484e0
 804b977:	89 74 24 40          	mov    DWORD PTR [esp+0x40],esi
 804b97b:	83 c4 2c             	add    esp,0x2c
 804b97e:	5b                   	pop    ebx
 804b97f:	5e                   	pop    esi
 804b980:	5f                   	pop    edi
 804b981:	5d                   	pop    ebp
 804b982:	e9 59 cb ff ff       	jmp    80484e0
 804b987:	90                   	nop
 804b988:	89 d8                	mov    eax,ebx
 804b98a:	d1 f8                	sar    eax,1
 804b98c:	89 44 24 0c          	mov    DWORD PTR [esp+0xc],eax
 804b990:	75 16                	jne    804b9a8
 804b992:	8b 4c 24 0c          	mov    ecx,DWORD PTR [esp+0xc]
 804b996:	31 d2                	xor    edx,edx
 804b998:	89 e8                	mov    eax,ebp
 804b99a:	89 1c 24             	mov    DWORD PTR [esp],ebx
 804b99d:	e8 8e e3 ff ff       	call   8049d30
 804b9a2:	eb cb                	jmp    804b96f
 804b9a4:	8d 74 26 00          	lea    esi,[esi]
 804b9a8:	89 d8                	mov    eax,ebx
 804b9aa:	c1 f8 02             	sar    eax,0x2
 804b9ad:	85 c0                	test   eax,eax
 804b9af:	89 44 24 10          	mov    DWORD PTR [esp+0x10],eax
 804b9b3:	0f 85 e7 00 00 00    	jne    804baa0
 804b9b9:	8b 44 24 0c          	mov    eax,DWORD PTR [esp+0xc]
 804b9bd:	31 d2                	xor    edx,edx
 804b9bf:	8b 4c 24 10          	mov    ecx,DWORD PTR [esp+0x10]
 804b9c3:	89 04 24             	mov    DWORD PTR [esp],eax
 804b9c6:	89 e8                	mov    eax,ebp
 804b9c8:	e8 63 e3 ff ff       	call   8049d30
 804b9cd:	8b 44 24 0c          	mov    eax,DWORD PTR [esp+0xc]
 804b9d1:	83 c0 01             	add    eax,0x1
 804b9d4:	39 c3                	cmp    ebx,eax
 804b9d6:	89 c1                	mov    ecx,eax
 804b9d8:	89 44 24 14          	mov    DWORD PTR [esp+0x14],eax
 804b9dc:	7e b4                	jle    804b992
 804b9de:	89 d8                	mov    eax,ebx
 804b9e0:	29 c8                	sub    eax,ecx
 804b9e2:	89 c2                	mov    edx,eax
 804b9e4:	c1 ea 1f             	shr    edx,0x1f
 804b9e7:	01 d0                	add    eax,edx
 804b9e9:	d1 f8                	sar    eax,1
 804b9eb:	8d 14 01             	lea    edx,[ecx+eax]
 804b9ee:	39 d1                	cmp    ecx,edx
 804b9f0:	89 54 24 10          	mov    DWORD PTR [esp+0x10],edx
 804b9f4:	7d 42                	jge    804ba38
 804b9f6:	89 c2                	mov    edx,eax
 804b9f8:	c1 ea 1f             	shr    edx,0x1f
 804b9fb:	01 d0                	add    eax,edx
 804b9fd:	89 ca                	mov    edx,ecx
 804b9ff:	d1 f8                	sar    eax,1
 804ba01:	01 c8                	add    eax,ecx
 804ba03:	89 c1                	mov    ecx,eax
 804ba05:	89 44 24 18          	mov    DWORD PTR [esp+0x18],eax
 804ba09:	89 e8                	mov    eax,ebp
 804ba0b:	e8 c0 f5 ff ff       	call   804afd0
 804ba10:	8b 44 24 18          	mov    eax,DWORD PTR [esp+0x18]
 804ba14:	8b 4c 24 10          	mov    ecx,DWORD PTR [esp+0x10]
 804ba18:	8d 50 01             	lea    edx,[eax+0x1]
 804ba1b:	89 e8                	mov    eax,ebp
 804ba1d:	e8 ae f5 ff ff       	call   804afd0
 804ba22:	8b 4c 24 10          	mov    ecx,DWORD PTR [esp+0x10]
 804ba26:	89 e8                	mov    eax,ebp
 804ba28:	8b 54 24 14          	mov    edx,DWORD PTR [esp+0x14]
 804ba2c:	89 0c 24             	mov    DWORD PTR [esp],ecx
 804ba2f:	8b 4c 24 18          	mov    ecx,DWORD PTR [esp+0x18]
 804ba33:	e8 f8 e2 ff ff       	call   8049d30
 804ba38:	8b 44 24 10          	mov    eax,DWORD PTR [esp+0x10]
 804ba3c:	83 c0 01             	add    eax,0x1
 804ba3f:	39 c3                	cmp    ebx,eax
 804ba41:	89 44 24 18          	mov    DWORD PTR [esp+0x18],eax
 804ba45:	7e 42                	jle    804ba89
 804ba47:	89 c1                	mov    ecx,eax
 804ba49:	89 d8                	mov    eax,ebx
 804ba4b:	29 c8                	sub    eax,ecx
 804ba4d:	89 c2                	mov    edx,eax
 804ba4f:	c1 ea 1f             	shr    edx,0x1f
 804ba52:	01 d0                	add    eax,edx
 804ba54:	89 ca                	mov    edx,ecx
 804ba56:	d1 f8                	sar    eax,1
 804ba58:	01 c8                	add    eax,ecx
 804ba5a:	89 c1                	mov    ecx,eax
 804ba5c:	89 44 24 1c          	mov    DWORD PTR [esp+0x1c],eax
 804ba60:	89 e8                	mov    eax,ebp
 804ba62:	e8 69 f5 ff ff       	call   804afd0
 804ba67:	8b 44 24 1c          	mov    eax,DWORD PTR [esp+0x1c]
 804ba6b:	89 d9                	mov    ecx,ebx
 804ba6d:	8d 50 01             	lea    edx,[eax+0x1]
 804ba70:	89 e8                	mov    eax,ebp
 804ba72:	e8 59 f5 ff ff       	call   804afd0
 804ba77:	8b 4c 24 1c          	mov    ecx,DWORD PTR [esp+0x1c]
 804ba7b:	89 e8                	mov    eax,ebp
 804ba7d:	8b 54 24 18          	mov    edx,DWORD PTR [esp+0x18]
 804ba81:	89 1c 24             	mov    DWORD PTR [esp],ebx
 804ba84:	e8 a7 e2 ff ff       	call   8049d30
 804ba89:	8b 4c 24 10          	mov    ecx,DWORD PTR [esp+0x10]
 804ba8d:	89 e8                	mov    eax,ebp
 804ba8f:	8b 54 24 14          	mov    edx,DWORD PTR [esp+0x14]
 804ba93:	89 1c 24             	mov    DWORD PTR [esp],ebx
 804ba96:	e8 95 e2 ff ff       	call   8049d30
 804ba9b:	e9 f2 fe ff ff       	jmp    804b992
 804baa0:	89 d8                	mov    eax,ebx
 804baa2:	31 d2                	xor    edx,edx
 804baa4:	c1 f8 03             	sar    eax,0x3
 804baa7:	89 c1                	mov    ecx,eax
 804baa9:	89 44 24 14          	mov    DWORD PTR [esp+0x14],eax
 804baad:	89 e8                	mov    eax,ebp
 804baaf:	e8 1c f5 ff ff       	call   804afd0
 804bab4:	8b 44 24 14          	mov    eax,DWORD PTR [esp+0x14]
 804bab8:	8b 4c 24 10          	mov    ecx,DWORD PTR [esp+0x10]
 804babc:	8d 50 01             	lea    edx,[eax+0x1]
 804babf:	89 e8                	mov    eax,ebp
 804bac1:	e8 0a f5 ff ff       	call   804afd0
 804bac6:	8b 54 24 10          	mov    edx,DWORD PTR [esp+0x10]
 804baca:	89 e8                	mov    eax,ebp
 804bacc:	8b 4c 24 14          	mov    ecx,DWORD PTR [esp+0x14]
 804bad0:	89 14 24             	mov    DWORD PTR [esp],edx
 804bad3:	31 d2                	xor    edx,edx
 804bad5:	e8 56 e2 ff ff       	call   8049d30
 804bada:	8b 54 24 10          	mov    edx,DWORD PTR [esp+0x10]
 804bade:	8d 42 01             	lea    eax,[edx+0x1]
 804bae1:	8b 54 24 0c          	mov    edx,DWORD PTR [esp+0xc]
 804bae5:	89 c1                	mov    ecx,eax
 804bae7:	39 c2                	cmp    edx,eax
 804bae9:	0f 8e ca fe ff ff    	jle    804b9b9
 804baef:	89 d0                	mov    eax,edx
 804baf1:	29 c8                	sub    eax,ecx
 804baf3:	89 c2                	mov    edx,eax
 804baf5:	c1 ea 1f             	shr    edx,0x1f
 804baf8:	01 d0                	add    eax,edx
 804bafa:	89 ca                	mov    edx,ecx
 804bafc:	d1 f8                	sar    eax,1
 804bafe:	01 c8                	add    eax,ecx
 804bb00:	89 c1                	mov    ecx,eax
 804bb02:	89 44 24 14          	mov    DWORD PTR [esp+0x14],eax
 804bb06:	89 e8                	mov    eax,ebp
 804bb08:	89 54 24 18          	mov    DWORD PTR [esp+0x18],edx
 804bb0c:	e8 bf f4 ff ff       	call   804afd0
 804bb11:	8b 4c 24 14          	mov    ecx,DWORD PTR [esp+0x14]
 804bb15:	89 e8                	mov    eax,ebp
 804bb17:	8d 51 01             	lea    edx,[ecx+0x1]
 804bb1a:	8b 4c 24 0c          	mov    ecx,DWORD PTR [esp+0xc]
 804bb1e:	e8 ad f4 ff ff       	call   804afd0
 804bb23:	8b 44 24 0c          	mov    eax,DWORD PTR [esp+0xc]
 804bb27:	8b 4c 24 14          	mov    ecx,DWORD PTR [esp+0x14]
 804bb2b:	8b 54 24 18          	mov    edx,DWORD PTR [esp+0x18]
 804bb2f:	89 04 24             	mov    DWORD PTR [esp],eax
 804bb32:	89 e8                	mov    eax,ebp
 804bb34:	e8 f7 e1 ff ff       	call   8049d30
 804bb39:	e9 7b fe ff ff       	jmp    804b9b9
 804bb3e:	66 90                	xchg   ax,ax

0804bb40 <MergeSort_TwoArray>:
 804bb40:	55                   	push   ebp
 804bb41:	57                   	push   edi
 804bb42:	56                   	push   esi
 804bb43:	53                   	push   ebx
 804bb44:	83 ec 1c             	sub    esp,0x1c
 804bb47:	8b 44 24 30          	mov    eax,DWORD PTR [esp+0x30]
 804bb4b:	8b 4c 24 38          	mov    ecx,DWORD PTR [esp+0x38]
 804bb4f:	8b 7c 24 44          	mov    edi,DWORD PTR [esp+0x44]
 804bb53:	8b 54 24 34          	mov    edx,DWORD PTR [esp+0x34]
 804bb57:	89 44 24 04          	mov    DWORD PTR [esp+0x4],eax
 804bb5b:	8b 44 24 40          	mov    eax,DWORD PTR [esp+0x40]
 804bb5f:	8d 1c 8d 00 00 00 00 	lea    ebx,[ecx*4]
 804bb66:	8b 74 24 48          	mov    esi,DWORD PTR [esp+0x48]
 804bb6a:	89 3d 64 60 05 08    	mov    DWORD PTR ds:0x8056064,edi
 804bb70:	0f af fb             	imul   edi,ebx
 804bb73:	89 54 24 0c          	mov    DWORD PTR [esp+0xc],edx
 804bb77:	a3 c8 60 05 08       	mov    ds:0x80560c8,eax
 804bb7c:	8b 44 24 3c          	mov    eax,DWORD PTR [esp+0x3c]
 804bb80:	89 4c 24 08          	mov    DWORD PTR [esp+0x8],ecx
 804bb84:	0f af de             	imul   ebx,esi
 804bb87:	89 3c 24             	mov    DWORD PTR [esp],edi
 804bb8a:	89 35 60 60 05 08    	mov    DWORD PTR ds:0x8056060,esi
 804bb90:	a3 bc 60 05 08       	mov    ds:0x80560bc,eax
 804bb95:	e8 66 c9 ff ff       	call   8048500
 804bb9a:	89 3c 24             	mov    DWORD PTR [esp],edi
 804bb9d:	89 c5                	mov    ebp,eax
 804bb9f:	a3 d8 60 05 08       	mov    ds:0x80560d8,eax
 804bba4:	e8 57 c9 ff ff       	call   8048500
 804bba9:	89 1c 24             	mov    DWORD PTR [esp],ebx
 804bbac:	89 c7                	mov    edi,eax
 804bbae:	a3 d4 60 05 08       	mov    ds:0x80560d4,eax
 804bbb3:	e8 48 c9 ff ff       	call   8048500
 804bbb8:	89 1c 24             	mov    DWORD PTR [esp],ebx
 804bbbb:	89 c6                	mov    esi,eax
 804bbbd:	a3 d0 60 05 08       	mov    ds:0x80560d0,eax
 804bbc2:	e8 39 c9 ff ff       	call   8048500
 804bbc7:	8b 4c 24 08          	mov    ecx,DWORD PTR [esp+0x8]
 804bbcb:	8b 54 24 0c          	mov    edx,DWORD PTR [esp+0xc]
 804bbcf:	83 e9 01             	sub    ecx,0x1
 804bbd2:	89 0c 24             	mov    DWORD PTR [esp],ecx
 804bbd5:	31 c9                	xor    ecx,ecx
 804bbd7:	89 c3                	mov    ebx,eax
 804bbd9:	a3 cc 60 05 08       	mov    ds:0x80560cc,eax
 804bbde:	8b 44 24 04          	mov    eax,DWORD PTR [esp+0x4]
 804bbe2:	e8 29 f8 ff ff       	call   804b410
 804bbe7:	89 2c 24             	mov    DWORD PTR [esp],ebp
 804bbea:	e8 f1 c8 ff ff       	call   80484e0
 804bbef:	89 3c 24             	mov    DWORD PTR [esp],edi
 804bbf2:	e8 e9 c8 ff ff       	call   80484e0
 804bbf7:	89 34 24             	mov    DWORD PTR [esp],esi
 804bbfa:	e8 e1 c8 ff ff       	call   80484e0
 804bbff:	89 5c 24 30          	mov    DWORD PTR [esp+0x30],ebx
 804bc03:	83 c4 1c             	add    esp,0x1c
 804bc06:	5b                   	pop    ebx
 804bc07:	5e                   	pop    esi
 804bc08:	5f                   	pop    edi
 804bc09:	5d                   	pop    ebp
 804bc0a:	e9 d1 c8 ff ff       	jmp    80484e0
 804bc0f:	90                   	nop

0804bc10 <MergeSort_TwoArray_TwoKey>:
 804bc10:	55                   	push   ebp
 804bc11:	57                   	push   edi
 804bc12:	56                   	push   esi
 804bc13:	53                   	push   ebx
 804bc14:	83 ec 1c             	sub    esp,0x1c
 804bc17:	8b 44 24 30          	mov    eax,DWORD PTR [esp+0x30]
 804bc1b:	8b 4c 24 38          	mov    ecx,DWORD PTR [esp+0x38]
 804bc1f:	8b 7c 24 4c          	mov    edi,DWORD PTR [esp+0x4c]
 804bc23:	8b 54 24 34          	mov    edx,DWORD PTR [esp+0x34]
 804bc27:	89 44 24 04          	mov    DWORD PTR [esp+0x4],eax
 804bc2b:	8b 44 24 40          	mov    eax,DWORD PTR [esp+0x40]
 804bc2f:	8d 1c 8d 00 00 00 00 	lea    ebx,[ecx*4]
 804bc36:	8b 74 24 50          	mov    esi,DWORD PTR [esp+0x50]
 804bc3a:	89 3d 64 60 05 08    	mov    DWORD PTR ds:0x8056064,edi
 804bc40:	0f af fb             	imul   edi,ebx
 804bc43:	89 54 24 0c          	mov    DWORD PTR [esp+0xc],edx
 804bc47:	a3 c4 60 05 08       	mov    ds:0x80560c4,eax
 804bc4c:	8b 44 24 48          	mov    eax,DWORD PTR [esp+0x48]
 804bc50:	89 4c 24 08          	mov    DWORD PTR [esp+0x8],ecx
 804bc54:	0f af de             	imul   ebx,esi
 804bc57:	89 3c 24             	mov    DWORD PTR [esp],edi
 804bc5a:	89 35 60 60 05 08    	mov    DWORD PTR ds:0x8056060,esi
 804bc60:	a3 c0 60 05 08       	mov    ds:0x80560c0,eax
 804bc65:	8b 44 24 3c          	mov    eax,DWORD PTR [esp+0x3c]
 804bc69:	a3 b8 60 05 08       	mov    ds:0x80560b8,eax
 804bc6e:	8b 44 24 44          	mov    eax,DWORD PTR [esp+0x44]
 804bc72:	a3 b4 60 05 08       	mov    ds:0x80560b4,eax
 804bc77:	e8 84 c8 ff ff       	call   8048500
 804bc7c:	89 3c 24             	mov    DWORD PTR [esp],edi
 804bc7f:	89 c5                	mov    ebp,eax
 804bc81:	a3 d8 60 05 08       	mov    ds:0x80560d8,eax
 804bc86:	e8 75 c8 ff ff       	call   8048500
 804bc8b:	89 1c 24             	mov    DWORD PTR [esp],ebx
 804bc8e:	89 c7                	mov    edi,eax
 804bc90:	a3 d4 60 05 08       	mov    ds:0x80560d4,eax
 804bc95:	e8 66 c8 ff ff       	call   8048500
 804bc9a:	89 1c 24             	mov    DWORD PTR [esp],ebx
 804bc9d:	89 c6                	mov    esi,eax
 804bc9f:	a3 d0 60 05 08       	mov    ds:0x80560d0,eax
 804bca4:	e8 57 c8 ff ff       	call   8048500
 804bca9:	8b 4c 24 08          	mov    ecx,DWORD PTR [esp+0x8]
 804bcad:	8b 54 24 0c          	mov    edx,DWORD PTR [esp+0xc]
 804bcb1:	83 e9 01             	sub    ecx,0x1
 804bcb4:	89 0c 24             	mov    DWORD PTR [esp],ecx
 804bcb7:	31 c9                	xor    ecx,ecx
 804bcb9:	89 c3                	mov    ebx,eax
 804bcbb:	a3 cc 60 05 08       	mov    ds:0x80560cc,eax
 804bcc0:	8b 44 24 04          	mov    eax,DWORD PTR [esp+0x4]
 804bcc4:	e8 f7 f4 ff ff       	call   804b1c0
 804bcc9:	89 2c 24             	mov    DWORD PTR [esp],ebp
 804bccc:	e8 0f c8 ff ff       	call   80484e0
 804bcd1:	89 3c 24             	mov    DWORD PTR [esp],edi
 804bcd4:	e8 07 c8 ff ff       	call   80484e0
 804bcd9:	89 34 24             	mov    DWORD PTR [esp],esi
 804bcdc:	e8 ff c7 ff ff       	call   80484e0
 804bce1:	89 5c 24 30          	mov    DWORD PTR [esp+0x30],ebx
 804bce5:	83 c4 1c             	add    esp,0x1c
 804bce8:	5b                   	pop    ebx
 804bce9:	5e                   	pop    esi
 804bcea:	5f                   	pop    edi
 804bceb:	5d                   	pop    ebp
 804bcec:	e9 ef c7 ff ff       	jmp    80484e0
 804bcf1:	66 90                	xchg   ax,ax
 804bcf3:	66 90                	xchg   ax,ax
 804bcf5:	66 90                	xchg   ax,ax
 804bcf7:	66 90                	xchg   ax,ax
 804bcf9:	66 90                	xchg   ax,ax
 804bcfb:	66 90                	xchg   ax,ax
 804bcfd:	66 90                	xchg   ax,ax
 804bcff:	90                   	nop

0804bd00 <BitonicMerge_Block>:
 804bd00:	55                   	push   ebp
 804bd01:	57                   	push   edi
 804bd02:	56                   	push   esi
 804bd03:	53                   	push   ebx
 804bd04:	83 ec 2c             	sub    esp,0x2c
 804bd07:	83 f9 01             	cmp    ecx,0x1
 804bd0a:	89 54 24 1c          	mov    DWORD PTR [esp+0x1c],edx
 804bd0e:	89 4c 24 14          	mov    DWORD PTR [esp+0x14],ecx
 804bd12:	0f 8e e0 00 00 00    	jle    804bdf8
 804bd18:	8b 5c 24 1c          	mov    ebx,DWORD PTR [esp+0x1c]
 804bd1c:	89 c5                	mov    ebp,eax
 804bd1e:	d1 7c 24 14          	sar    DWORD PTR [esp+0x14],1
 804bd22:	8b 44 24 14          	mov    eax,DWORD PTR [esp+0x14]
 804bd26:	89 5c 24 08          	mov    DWORD PTR [esp+0x8],ebx
 804bd2a:	01 d8                	add    eax,ebx
 804bd2c:	89 c7                	mov    edi,eax
 804bd2e:	39 df                	cmp    edi,ebx
 804bd30:	89 44 24 18          	mov    DWORD PTR [esp+0x18],eax
 804bd34:	a1 74 60 05 08       	mov    eax,ds:0x8056074
 804bd39:	0f 8e 8d 00 00 00    	jle    804bdcc
 804bd3f:	90                   	nop
 804bd40:	8b 4c 24 08          	mov    ecx,DWORD PTR [esp+0x8]
 804bd44:	8b 5c 24 14          	mov    ebx,DWORD PTR [esp+0x14]
 804bd48:	8b 15 e4 60 05 08    	mov    edx,DWORD PTR ds:0x80560e4
 804bd4e:	01 cb                	add    ebx,ecx
 804bd50:	89 de                	mov    esi,ebx
 804bd52:	0f af c8             	imul   ecx,eax
 804bd55:	0f af f0             	imul   esi,eax
 804bd58:	89 5c 24 10          	mov    DWORD PTR [esp+0x10],ebx
 804bd5c:	01 d1                	add    ecx,edx
 804bd5e:	01 f2                	add    edx,esi
 804bd60:	8b 5c 95 00          	mov    ebx,DWORD PTR [ebp+edx*4]
 804bd64:	31 d2                	xor    edx,edx
 804bd66:	39 5c 8d 00          	cmp    DWORD PTR [ebp+ecx*4],ebx
 804bd6a:	0f 9f c2             	setg   dl
 804bd6d:	31 db                	xor    ebx,ebx
 804bd6f:	39 54 24 40          	cmp    DWORD PTR [esp+0x40],edx
 804bd73:	0f 94 c3             	sete   bl
 804bd76:	85 c0                	test   eax,eax
 804bd78:	89 5c 24 0c          	mov    DWORD PTR [esp+0xc],ebx
 804bd7c:	7e 3b                	jle    804bdb9
 804bd7e:	31 d2                	xor    edx,edx
 804bd80:	8b 4c 24 08          	mov    ecx,DWORD PTR [esp+0x8]
 804bd84:	0f af c8             	imul   ecx,eax
 804bd87:	0f af 44 24 10       	imul   eax,DWORD PTR [esp+0x10]
 804bd8c:	01 d1                	add    ecx,edx
 804bd8e:	01 d0                	add    eax,edx
 804bd90:	8d 74 8d 00          	lea    esi,[ebp+ecx*4]
 804bd94:	8d 7c 85 00          	lea    edi,[ebp+eax*4]
 804bd98:	8b 06                	mov    eax,DWORD PTR [esi]
 804bd9a:	8b 1f                	mov    ebx,DWORD PTR [edi]
 804bd9c:	89 c1                	mov    ecx,eax
 804bd9e:	83 7c 24 0c 00       	cmp    DWORD PTR [esp+0xc],0x0
 804bda3:	0f 45 c3             	cmovne eax,ebx
 804bda6:	0f 45 d9             	cmovne ebx,ecx
 804bda9:	89 06                	mov    DWORD PTR [esi],eax
 804bdab:	89 1f                	mov    DWORD PTR [edi],ebx
 804bdad:	a1 74 60 05 08       	mov    eax,ds:0x8056074
 804bdb2:	83 c2 01             	add    edx,0x1
 804bdb5:	39 d0                	cmp    eax,edx
 804bdb7:	7f c7                	jg     804bd80
 804bdb9:	83 44 24 08 01       	add    DWORD PTR [esp+0x8],0x1
 804bdbe:	8b 5c 24 18          	mov    ebx,DWORD PTR [esp+0x18]
 804bdc2:	39 5c 24 08          	cmp    DWORD PTR [esp+0x8],ebx
 804bdc6:	0f 85 74 ff ff ff    	jne    804bd40
 804bdcc:	8b 44 24 40          	mov    eax,DWORD PTR [esp+0x40]
 804bdd0:	8b 5c 24 14          	mov    ebx,DWORD PTR [esp+0x14]
 804bdd4:	8b 54 24 1c          	mov    edx,DWORD PTR [esp+0x1c]
 804bdd8:	89 04 24             	mov    DWORD PTR [esp],eax
 804bddb:	89 e8                	mov    eax,ebp
 804bddd:	89 d9                	mov    ecx,ebx
 804bddf:	e8 1c ff ff ff       	call   804bd00
 804bde4:	83 fb 01             	cmp    ebx,0x1
 804bde7:	7e 0f                	jle    804bdf8
 804bde9:	8b 44 24 18          	mov    eax,DWORD PTR [esp+0x18]
 804bded:	89 44 24 1c          	mov    DWORD PTR [esp+0x1c],eax
 804bdf1:	89 c3                	mov    ebx,eax
 804bdf3:	e9 26 ff ff ff       	jmp    804bd1e
 804bdf8:	83 c4 2c             	add    esp,0x2c
 804bdfb:	5b                   	pop    ebx
 804bdfc:	5e                   	pop    esi
 804bdfd:	5f                   	pop    edi
 804bdfe:	5d                   	pop    ebp
 804bdff:	c3                   	ret

0804be00 <BitonicMerge_General>:
 804be00:	55                   	push   ebp
 804be01:	57                   	push   edi
 804be02:	56                   	push   esi
 804be03:	53                   	push   ebx
 804be04:	83 ec 2c             	sub    esp,0x2c
 804be07:	83 f9 01             	cmp    ecx,0x1
 804be0a:	89 54 24 1c          	mov    DWORD PTR [esp+0x1c],edx
 804be0e:	89 4c 24 14          	mov    DWORD PTR [esp+0x14],ecx
 804be12:	0f 8e 31 01 00 00    	jle    804bf49
 804be18:	8b 4c 24 1c          	mov    ecx,DWORD PTR [esp+0x1c]
 804be1c:	89 c5                	mov    ebp,eax
 804be1e:	d1 7c 24 14          	sar    DWORD PTR [esp+0x14],1
 804be22:	8b 44 24 14          	mov    eax,DWORD PTR [esp+0x14]
 804be26:	8b 1d 74 60 05 08    	mov    ebx,DWORD PTR ds:0x8056074
 804be2c:	89 4c 24 08          	mov    DWORD PTR [esp+0x8],ecx
 804be30:	01 c8                	add    eax,ecx
 804be32:	39 c8                	cmp    eax,ecx
 804be34:	89 df                	mov    edi,ebx
 804be36:	89 44 24 18          	mov    DWORD PTR [esp+0x18],eax
 804be3a:	0f 8e d5 00 00 00    	jle    804bf15
 804be40:	8b 5c 24 08          	mov    ebx,DWORD PTR [esp+0x8]
 804be44:	8b 44 24 14          	mov    eax,DWORD PTR [esp+0x14]
 804be48:	01 d8                	add    eax,ebx
 804be4a:	89 c1                	mov    ecx,eax
 804be4c:	0f af df             	imul   ebx,edi
 804be4f:	0f af cf             	imul   ecx,edi
 804be52:	89 44 24 10          	mov    DWORD PTR [esp+0x10],eax
 804be56:	a1 e0 60 05 08       	mov    eax,ds:0x80560e0
 804be5b:	8d 14 03             	lea    edx,[ebx+eax]
 804be5e:	01 c8                	add    eax,ecx
 804be60:	8b 44 85 00          	mov    eax,DWORD PTR [ebp+eax*4]
 804be64:	8b 54 95 00          	mov    edx,DWORD PTR [ebp+edx*4]
 804be68:	89 44 24 0c          	mov    DWORD PTR [esp+0xc],eax
 804be6c:	39 c2                	cmp    edx,eax
 804be6e:	0f 94 c0             	sete   al
 804be71:	89 c6                	mov    esi,eax
 804be73:	31 c0                	xor    eax,eax
 804be75:	03 1d dc 60 05 08    	add    ebx,DWORD PTR ds:0x80560dc
 804be7b:	03 0d dc 60 05 08    	add    ecx,DWORD PTR ds:0x80560dc
 804be81:	3b 54 24 0c          	cmp    edx,DWORD PTR [esp+0xc]
 804be85:	8b 5c 9d 00          	mov    ebx,DWORD PTR [ebp+ebx*4]
 804be89:	8b 4c 8d 00          	mov    ecx,DWORD PTR [ebp+ecx*4]
 804be8d:	0f 9f c0             	setg   al
 804be90:	39 44 24 40          	cmp    DWORD PTR [esp+0x40],eax
 804be94:	75 0e                	jne    804bea4
 804be96:	89 f0                	mov    eax,esi
 804be98:	84 c0                	test   al,al
 804be9a:	c7 44 24 0c 01 00 00 	mov    DWORD PTR [esp+0xc],0x1
 804bea1:	00 
 804bea2:	74 19                	je     804bebd
 804bea4:	31 c0                	xor    eax,eax
 804bea6:	39 cb                	cmp    ebx,ecx
 804bea8:	0f 9f c0             	setg   al
 804beab:	39 44 24 44          	cmp    DWORD PTR [esp+0x44],eax
 804beaf:	0f 94 c0             	sete   al
 804beb2:	0f b6 c0             	movzx  eax,al
 804beb5:	89 44 24 0c          	mov    DWORD PTR [esp+0xc],eax
 804beb9:	21 74 24 0c          	and    DWORD PTR [esp+0xc],esi
 804bebd:	85 ff                	test   edi,edi
 804bebf:	7e 41                	jle    804bf02
 804bec1:	31 d2                	xor    edx,edx
 804bec3:	90                   	nop
 804bec4:	8d 74 26 00          	lea    esi,[esi]
 804bec8:	8b 44 24 08          	mov    eax,DWORD PTR [esp+0x8]
 804becc:	0f af c7             	imul   eax,edi
 804becf:	0f af 7c 24 10       	imul   edi,DWORD PTR [esp+0x10]
 804bed4:	01 d0                	add    eax,edx
 804bed6:	01 d7                	add    edi,edx
 804bed8:	8d 74 85 00          	lea    esi,[ebp+eax*4]
 804bedc:	8d 7c bd 00          	lea    edi,[ebp+edi*4]
 804bee0:	8b 06                	mov    eax,DWORD PTR [esi]
 804bee2:	8b 1f                	mov    ebx,DWORD PTR [edi]
 804bee4:	89 c1                	mov    ecx,eax
 804bee6:	83 7c 24 0c 00       	cmp    DWORD PTR [esp+0xc],0x0
 804beeb:	0f 45 c3             	cmovne eax,ebx
 804beee:	0f 45 d9             	cmovne ebx,ecx
 804bef1:	89 06                	mov    DWORD PTR [esi],eax
 804bef3:	89 1f                	mov    DWORD PTR [edi],ebx
 804bef5:	8b 3d 74 60 05 08    	mov    edi,DWORD PTR ds:0x8056074
 804befb:	83 c2 01             	add    edx,0x1
 804befe:	39 d7                	cmp    edi,edx
 804bf00:	7f c6                	jg     804bec8
 804bf02:	83 44 24 08 01       	add    DWORD PTR [esp+0x8],0x1
 804bf07:	8b 44 24 18          	mov    eax,DWORD PTR [esp+0x18]
 804bf0b:	39 44 24 08          	cmp    DWORD PTR [esp+0x8],eax
 804bf0f:	0f 85 2b ff ff ff    	jne    804be40
 804bf15:	8b 44 24 44          	mov    eax,DWORD PTR [esp+0x44]
 804bf19:	8b 5c 24 14          	mov    ebx,DWORD PTR [esp+0x14]
 804bf1d:	8b 54 24 1c          	mov    edx,DWORD PTR [esp+0x1c]
 804bf21:	89 44 24 04          	mov    DWORD PTR [esp+0x4],eax
 804bf25:	8b 44 24 40          	mov    eax,DWORD PTR [esp+0x40]
 804bf29:	89 d9                	mov    ecx,ebx
 804bf2b:	89 04 24             	mov    DWORD PTR [esp],eax
 804bf2e:	89 e8                	mov    eax,ebp
 804bf30:	e8 cb fe ff ff       	call   804be00
 804bf35:	83 fb 01             	cmp    ebx,0x1
 804bf38:	7e 0f                	jle    804bf49
 804bf3a:	8b 44 24 18          	mov    eax,DWORD PTR [esp+0x18]
 804bf3e:	89 44 24 1c          	mov    DWORD PTR [esp+0x1c],eax
 804bf42:	89 c1                	mov    ecx,eax
 804bf44:	e9 d5 fe ff ff       	jmp    804be1e
 804bf49:	83 c4 2c             	add    esp,0x2c
 804bf4c:	5b                   	pop    ebx
 804bf4d:	5e                   	pop    esi
 804bf4e:	5f                   	pop    edi
 804bf4f:	5d                   	pop    ebp
 804bf50:	c3                   	ret
 804bf51:	eb 0d                	jmp    804bf60
 804bf53:	90                   	nop
 804bf54:	90                   	nop
 804bf55:	90                   	nop
 804bf56:	90                   	nop
 804bf57:	90                   	nop
 804bf58:	90                   	nop
 804bf59:	90                   	nop
 804bf5a:	90                   	nop
 804bf5b:	90                   	nop
 804bf5c:	90                   	nop
 804bf5d:	90                   	nop
 804bf5e:	90                   	nop
 804bf5f:	90                   	nop

0804bf60 <BitonicMerge_TwoArray>:
 804bf60:	55                   	push   ebp
 804bf61:	57                   	push   edi
 804bf62:	56                   	push   esi
 804bf63:	53                   	push   ebx
 804bf64:	83 ec 3c             	sub    esp,0x3c
 804bf67:	83 7c 24 50 01       	cmp    DWORD PTR [esp+0x50],0x1
 804bf6c:	89 54 24 28          	mov    DWORD PTR [esp+0x28],edx
 804bf70:	89 4c 24 2c          	mov    DWORD PTR [esp+0x2c],ecx
 804bf74:	0f 8e 42 01 00 00    	jle    804c0bc
 804bf7a:	8b 5c 24 2c          	mov    ebx,DWORD PTR [esp+0x2c]
 804bf7e:	89 c6                	mov    esi,eax
 804bf80:	d1 7c 24 50          	sar    DWORD PTR [esp+0x50],1
 804bf84:	8b 44 24 50          	mov    eax,DWORD PTR [esp+0x50]
 804bf88:	89 5c 24 14          	mov    DWORD PTR [esp+0x14],ebx
 804bf8c:	01 d8                	add    eax,ebx
 804bf8e:	39 d8                	cmp    eax,ebx
 804bf90:	89 44 24 24          	mov    DWORD PTR [esp+0x24],eax
 804bf94:	0f 8e ee 00 00 00    	jle    804c088
 804bf9a:	8d b6 00 00 00 00    	lea    esi,[esi]
 804bfa0:	8b 54 24 14          	mov    edx,DWORD PTR [esp+0x14]
 804bfa4:	8b 44 24 50          	mov    eax,DWORD PTR [esp+0x50]
 804bfa8:	8b 3d e4 60 05 08    	mov    edi,DWORD PTR ds:0x80560e4
 804bfae:	01 d0                	add    eax,edx
 804bfb0:	89 c1                	mov    ecx,eax
 804bfb2:	89 44 24 1c          	mov    DWORD PTR [esp+0x1c],eax
 804bfb6:	a1 70 60 05 08       	mov    eax,ds:0x8056070
 804bfbb:	0f af c8             	imul   ecx,eax
 804bfbe:	0f af d0             	imul   edx,eax
 804bfc1:	01 f9                	add    ecx,edi
 804bfc3:	01 fa                	add    edx,edi
 804bfc5:	8b 1c 8e             	mov    ebx,DWORD PTR [esi+ecx*4]
 804bfc8:	39 1c 96             	cmp    DWORD PTR [esi+edx*4],ebx
 804bfcb:	0f 9f c2             	setg   dl
 804bfce:	31 db                	xor    ebx,ebx
 804bfd0:	0f b6 d2             	movzx  edx,dl
 804bfd3:	39 54 24 54          	cmp    DWORD PTR [esp+0x54],edx
 804bfd7:	0f 94 c3             	sete   bl
 804bfda:	31 d2                	xor    edx,edx
 804bfdc:	85 c0                	test   eax,eax
 804bfde:	89 5c 24 18          	mov    DWORD PTR [esp+0x18],ebx
 804bfe2:	7e 3d                	jle    804c021
 804bfe4:	8d 74 26 00          	lea    esi,[esi]
 804bfe8:	8b 4c 24 14          	mov    ecx,DWORD PTR [esp+0x14]
 804bfec:	0f af c8             	imul   ecx,eax
 804bfef:	0f af 44 24 1c       	imul   eax,DWORD PTR [esp+0x1c]
 804bff4:	01 d1                	add    ecx,edx
 804bff6:	01 d0                	add    eax,edx
 804bff8:	8d 3c 8e             	lea    edi,[esi+ecx*4]
 804bffb:	8d 2c 86             	lea    ebp,[esi+eax*4]
 804bffe:	8b 07                	mov    eax,DWORD PTR [edi]
 804c000:	8b 5d 00             	mov    ebx,DWORD PTR [ebp]
 804c003:	89 c1                	mov    ecx,eax
 804c005:	83 7c 24 18 00       	cmp    DWORD PTR [esp+0x18],0x0
 804c00a:	0f 45 c3             	cmovne eax,ebx
 804c00d:	0f 45 d9             	cmovne ebx,ecx
 804c010:	89 07                	mov    DWORD PTR [edi],eax
 804c012:	89 5d 00             	mov    DWORD PTR [ebp],ebx
 804c015:	a1 70 60 05 08       	mov    eax,ds:0x8056070
 804c01a:	83 c2 01             	add    edx,0x1
 804c01d:	39 d0                	cmp    eax,edx
 804c01f:	7f c7                	jg     804bfe8
 804c021:	a1 6c 60 05 08       	mov    eax,ds:0x805606c
 804c026:	31 d2                	xor    edx,edx
 804c028:	85 c0                	test   eax,eax
 804c02a:	7e 49                	jle    804c075
 804c02c:	89 74 24 20          	mov    DWORD PTR [esp+0x20],esi
 804c030:	8b 74 24 28          	mov    esi,DWORD PTR [esp+0x28]
 804c034:	8d 74 26 00          	lea    esi,[esi]
 804c038:	8b 4c 24 14          	mov    ecx,DWORD PTR [esp+0x14]
 804c03c:	0f af c8             	imul   ecx,eax
 804c03f:	0f af 44 24 1c       	imul   eax,DWORD PTR [esp+0x1c]
 804c044:	01 d1                	add    ecx,edx
 804c046:	01 d0                	add    eax,edx
 804c048:	8d 3c 8e             	lea    edi,[esi+ecx*4]
 804c04b:	8d 2c 86             	lea    ebp,[esi+eax*4]
 804c04e:	8b 07                	mov    eax,DWORD PTR [edi]
 804c050:	8b 5d 00             	mov    ebx,DWORD PTR [ebp]
 804c053:	89 c1                	mov    ecx,eax
 804c055:	83 7c 24 18 00       	cmp    DWORD PTR [esp+0x18],0x0
 804c05a:	0f 45 c3             	cmovne eax,ebx
 804c05d:	0f 45 d9             	cmovne ebx,ecx
 804c060:	89 07                	mov    DWORD PTR [edi],eax
 804c062:	89 5d 00             	mov    DWORD PTR [ebp],ebx
 804c065:	a1 6c 60 05 08       	mov    eax,ds:0x805606c
 804c06a:	83 c2 01             	add    edx,0x1
 804c06d:	39 d0                	cmp    eax,edx
 804c06f:	7f c7                	jg     804c038
 804c071:	8b 74 24 20          	mov    esi,DWORD PTR [esp+0x20]
 804c075:	83 44 24 14 01       	add    DWORD PTR [esp+0x14],0x1
 804c07a:	8b 44 24 24          	mov    eax,DWORD PTR [esp+0x24]
 804c07e:	39 44 24 14          	cmp    DWORD PTR [esp+0x14],eax
 804c082:	0f 85 18 ff ff ff    	jne    804bfa0
 804c088:	8b 44 24 54          	mov    eax,DWORD PTR [esp+0x54]
 804c08c:	8b 4c 24 2c          	mov    ecx,DWORD PTR [esp+0x2c]
 804c090:	8b 54 24 28          	mov    edx,DWORD PTR [esp+0x28]
 804c094:	89 44 24 04          	mov    DWORD PTR [esp+0x4],eax
 804c098:	8b 44 24 50          	mov    eax,DWORD PTR [esp+0x50]
 804c09c:	89 04 24             	mov    DWORD PTR [esp],eax
 804c09f:	89 f0                	mov    eax,esi
 804c0a1:	e8 ba fe ff ff       	call   804bf60
 804c0a6:	83 7c 24 50 01       	cmp    DWORD PTR [esp+0x50],0x1
 804c0ab:	7e 0f                	jle    804c0bc
 804c0ad:	8b 44 24 24          	mov    eax,DWORD PTR [esp+0x24]
 804c0b1:	89 44 24 2c          	mov    DWORD PTR [esp+0x2c],eax
 804c0b5:	89 c3                	mov    ebx,eax
 804c0b7:	e9 c4 fe ff ff       	jmp    804bf80
 804c0bc:	83 c4 3c             	add    esp,0x3c
 804c0bf:	5b                   	pop    ebx
 804c0c0:	5e                   	pop    esi
 804c0c1:	5f                   	pop    edi
 804c0c2:	5d                   	pop    ebp
 804c0c3:	c3                   	ret
 804c0c4:	8d b6 00 00 00 00    	lea    esi,[esi]
 804c0ca:	8d bf 00 00 00 00    	lea    edi,[edi]

0804c0d0 <BitonicMerge_TwoArray_TwoKey>:
 804c0d0:	55                   	push   ebp
 804c0d1:	57                   	push   edi
 804c0d2:	56                   	push   esi
 804c0d3:	53                   	push   ebx
 804c0d4:	83 ec 4c             	sub    esp,0x4c
 804c0d7:	83 7c 24 60 01       	cmp    DWORD PTR [esp+0x60],0x1
 804c0dc:	89 54 24 38          	mov    DWORD PTR [esp+0x38],edx
 804c0e0:	89 4c 24 3c          	mov    DWORD PTR [esp+0x3c],ecx
 804c0e4:	0f 8e 8a 01 00 00    	jle    804c274
 804c0ea:	8b 5c 24 3c          	mov    ebx,DWORD PTR [esp+0x3c]
 804c0ee:	89 c6                	mov    esi,eax
 804c0f0:	d1 7c 24 60          	sar    DWORD PTR [esp+0x60],1
 804c0f4:	8b 44 24 60          	mov    eax,DWORD PTR [esp+0x60]
 804c0f8:	89 5c 24 18          	mov    DWORD PTR [esp+0x18],ebx
 804c0fc:	01 d8                	add    eax,ebx
 804c0fe:	39 d8                	cmp    eax,ebx
 804c100:	89 44 24 34          	mov    DWORD PTR [esp+0x34],eax
 804c104:	0f 8e 2e 01 00 00    	jle    804c238
 804c10a:	8d b6 00 00 00 00    	lea    esi,[esi]
 804c110:	8b 5c 24 18          	mov    ebx,DWORD PTR [esp+0x18]
 804c114:	8b 44 24 60          	mov    eax,DWORD PTR [esp+0x60]
 804c118:	8b 3d e0 60 05 08    	mov    edi,DWORD PTR ds:0x80560e0
