Disassembly of section .init:

080483cc <_init>:
 80483cc:	53                   	push   ebx
 80483cd:	83 ec 08             	sub    esp,0x8
 80483d0:	e8 4b 64 00 00       	call   804e820
 80483d5:	81 c3 2b dc 03 00    	add    ebx,0x3dc2b
 80483db:	8b 83 fc ff ff ff    	mov    eax,DWORD PTR [ebx-0x4]
 80483e1:	85 c0                	test   eax,eax
 80483e3:	74 05                	je     80483ea
 80483e5:	e8 46 00 00 00       	call   8048430
 80483ea:	83 c4 08             	add    esp,0x8
 80483ed:	5b                   	pop    ebx
 80483ee:	c3                   	ret

Disassembly of section .plt:
 80483f0:	ff 35 04 60 08 08    	push   DWORD PTR ds:0x8086004
 80483f6:	ff 25 08 60 08 08    	jmp    DWORD PTR ds:0x8086008
 80483fc:	00 00                	add    BYTE PTR [eax],al
 80483fe:	00 00                	add    BYTE PTR [eax],al
 8048400:	ff 25 0c 60 08 08    	jmp    DWORD PTR ds:0x808600c
 8048406:	68 00 00 00 00       	push   0x0
 804840b:	e9 e0 ff ff ff       	jmp    80483f0
 8048410:	ff 25 10 60 08 08    	jmp    DWORD PTR ds:0x8086010
 8048416:	68 08 00 00 00       	push   0x8
 804841b:	e9 d0 ff ff ff       	jmp    80483f0
 8048420:	ff 25 14 60 08 08    	jmp    DWORD PTR ds:0x8086014
 8048426:	68 10 00 00 00       	push   0x10
 804842b:	e9 c0 ff ff ff       	jmp    80483f0
 8048430:	ff 25 18 60 08 08    	jmp    DWORD PTR ds:0x8086018
 8048436:	68 18 00 00 00       	push   0x18
 804843b:	e9 b0 ff ff ff       	jmp    80483f0
 8048440:	ff 25 1c 60 08 08    	jmp    DWORD PTR ds:0x808601c
 8048446:	68 20 00 00 00       	push   0x20
 804844b:	e9 a0 ff ff ff       	jmp    80483f0
 8048450:	ff 25 20 60 08 08    	jmp    DWORD PTR ds:0x8086020
 8048456:	68 28 00 00 00       	push   0x28
 804845b:	e9 90 ff ff ff       	jmp    80483f0
 8048460:	ff 25 24 60 08 08    	jmp    DWORD PTR ds:0x8086024
 8048466:	68 30 00 00 00       	push   0x30
 804846b:	e9 80 ff ff ff       	jmp    80483f0
 8048470:	ff 25 28 60 08 08    	jmp    DWORD PTR ds:0x8086028
 8048476:	68 38 00 00 00       	push   0x38
 804847b:	e9 70 ff ff ff       	jmp    80483f0

Disassembly of section .text:

08048480 <main>:
 8048480:	55                   	push   ebp
 8048481:	89 e5                	mov    ebp,esp
 8048483:	57                   	push   edi
 8048484:	56                   	push   esi
 8048485:	31 f6                	xor    esi,esi
 8048487:	53                   	push   ebx
 8048488:	31 db                	xor    ebx,ebx
 804848a:	83 e4 f0             	and    esp,0xf0
 804848d:	83 ec 30             	sub    esp,0x30
 8048490:	c7 44 24 0c 88 ff 06 	mov    DWORD PTR [esp+0xc],0x806ff88
 8048497:	08 
 8048498:	c7 44 24 08 97 ff 06 	mov    DWORD PTR [esp+0x8],0x806ff97
 804849f:	08 
 80484a0:	c7 44 24 04 a8 ff 06 	mov    DWORD PTR [esp+0x4],0x806ffa8
 80484a7:	08 
 80484a8:	c7 04 24 01 00 00 00 	mov    DWORD PTR [esp],0x1
 80484af:	e8 ac ff ff ff       	call   8048460
 80484b4:	e8 17 7a 02 00       	call   806fed0
 80484b9:	c7 44 24 04 00 00 00 	mov    DWORD PTR [esp+0x4],0x0
 80484c0:	00 
 80484c1:	c7 04 24 40 61 08 09 	mov    DWORD PTR [esp],0x9086140
 80484c8:	a3 30 61 08 08       	mov    ds:0x8086130,eax
 80484cd:	89 15 34 61 08 08    	mov    DWORD PTR ds:0x8086134,edx
 80484d3:	e8 38 ff ff ff       	call   8048410
 80484d8:	e8 93 ff ff ff       	call   8048470
 80484dd:	83 c3 01             	add    ebx,0x1
 80484e0:	81 fb 00 00 80 00    	cmp    ebx,0x800000
 80484e6:	88 86 40 61 88 08    	mov    BYTE PTR [esi+0x8886140],al
 80484ec:	89 de                	mov    esi,ebx
 80484ee:	75 e8                	jne    80484d8
 80484f0:	31 db                	xor    ebx,ebx
 80484f2:	bf 40 61 88 08       	mov    edi,0x8886140
 80484f7:	90                   	nop
 80484f8:	31 f6                	xor    esi,esi
 80484fa:	8d b6 00 00 00 00    	lea    esi,[esi]
 8048500:	e8 6b ff ff ff       	call   8048470
 8048505:	88 04 37             	mov    BYTE PTR [edi+esi],al
 8048508:	83 c6 01             	add    esi,0x1
 804850b:	83 fe 20             	cmp    esi,0x20
 804850e:	75 f0                	jne    8048500
 8048510:	66 31 f6             	xor    si,si
 8048513:	90                   	nop
 8048514:	8d 74 26 00          	lea    esi,[esi]
 8048518:	e8 53 ff ff ff       	call   8048470
 804851d:	83 c6 01             	add    esi,0x1
 8048520:	88 86 3f 65 88 08    	mov    BYTE PTR [esi+0x888653f],al
 8048526:	83 fe 10             	cmp    esi,0x10
 8048529:	75 ed                	jne    8048518
 804852b:	66 31 f6             	xor    si,si
 804852e:	66 90                	xchg   ax,ax
 8048530:	e8 3b ff ff ff       	call   8048470
 8048535:	83 c6 01             	add    esi,0x1
 8048538:	88 86 3f 69 88 08    	mov    BYTE PTR [esi+0x888693f],al
 804853e:	83 fe 10             	cmp    esi,0x10
 8048541:	75 ed                	jne    8048530
 8048543:	66 31 f6             	xor    si,si
 8048546:	85 db                	test   ebx,ebx
 8048548:	74 18                	je     8048562
 804854a:	8d b6 00 00 00 00    	lea    esi,[esi]
 8048550:	e8 1b ff ff ff       	call   8048470
 8048555:	83 c6 01             	add    esi,0x1
 8048558:	88 86 3f 6d 88 08    	mov    BYTE PTR [esi+0x8886d3f],al
 804855e:	39 de                	cmp    esi,ebx
 8048560:	75 ee                	jne    8048550
 8048562:	89 3c 24             	mov    DWORD PTR [esp],edi
 8048565:	83 c7 20             	add    edi,0x20
 8048568:	e8 b3 64 02 00       	call   806ea20
 804856d:	81 ff e0 63 88 08    	cmp    edi,0x88863e0
 8048573:	75 83                	jne    80484f8
 8048575:	e8 26 63 02 00       	call   806e8a0
 804857a:	b9 40 61 88 08       	mov    ecx,0x8886140
 804857f:	90                   	nop
 8048580:	31 c0                	xor    eax,eax
 8048582:	8d b6 00 00 00 00    	lea    esi,[esi]
 8048588:	0f b6 14 01          	movzx  edx,BYTE PTR [ecx+eax]
 804858c:	30 90 40 61 08 08    	xor    BYTE PTR [eax+0x8086140],dl
 8048592:	83 c0 01             	add    eax,0x1
 8048595:	83 f8 20             	cmp    eax,0x20
 8048598:	75 ee                	jne    8048588
 804859a:	83 c1 20             	add    ecx,0x20
 804859d:	81 f9 e0 63 88 08    	cmp    ecx,0x88863e0
 80485a3:	75 db                	jne    8048580
 80485a5:	31 c0                	xor    eax,eax
 80485a7:	90                   	nop
 80485a8:	0f b6 90 40 65 88 08 	movzx  edx,BYTE PTR [eax+0x8886540]
 80485af:	30 90 40 61 08 08    	xor    BYTE PTR [eax+0x8086140],dl
 80485b5:	83 c0 01             	add    eax,0x1
 80485b8:	83 f8 10             	cmp    eax,0x10
 80485bb:	75 eb                	jne    80485a8
 80485bd:	30 c0                	xor    al,al
 80485bf:	90                   	nop
 80485c0:	0f b6 90 40 69 88 08 	movzx  edx,BYTE PTR [eax+0x8886940]
 80485c7:	30 90 40 61 08 08    	xor    BYTE PTR [eax+0x8086140],dl
 80485cd:	83 c0 01             	add    eax,0x1
 80485d0:	83 f8 10             	cmp    eax,0x10
 80485d3:	75 eb                	jne    80485c0
 80485d5:	85 db                	test   ebx,ebx
 80485d7:	74 1b                	je     80485f4
 80485d9:	30 c0                	xor    al,al
 80485db:	90                   	nop
 80485dc:	8d 74 26 00          	lea    esi,[esi]
 80485e0:	0f b6 90 40 6d 88 08 	movzx  edx,BYTE PTR [eax+0x8886d40]
 80485e7:	30 90 40 61 08 08    	xor    BYTE PTR [eax+0x8086140],dl
 80485ed:	83 c0 01             	add    eax,0x1
 80485f0:	39 d8                	cmp    eax,ebx
 80485f2:	75 ec                	jne    80485e0
 80485f4:	31 f6                	xor    esi,esi
 80485f6:	66 90                	xchg   ax,ax
 80485f8:	e8 d3 78 02 00       	call   806fed0
 80485fd:	89 04 f5 80 60 08 08 	mov    DWORD PTR [esi*8+0x8086080],eax
 8048604:	89 14 f5 84 60 08 08 	mov    DWORD PTR [esi*8+0x8086084],edx
 804860b:	83 c6 01             	add    esi,0x1
 804860e:	83 fe 15             	cmp    esi,0x15
 8048611:	75 e5                	jne    80485f8
 8048613:	31 ff                	xor    edi,edi
 8048615:	be 40 61 88 08       	mov    esi,0x8886140
 804861a:	8d b6 00 00 00 00    	lea    esi,[esi]
 8048620:	e8 ab 78 02 00       	call   806fed0
 8048625:	89 74 24 04          	mov    DWORD PTR [esp+0x4],esi
 8048629:	83 c6 20             	add    esi,0x20
 804862c:	89 5c 24 10          	mov    DWORD PTR [esp+0x10],ebx
 8048630:	c7 44 24 0c 40 6d 88 	mov    DWORD PTR [esp+0xc],0x8886d40
 8048637:	08 
 8048638:	c7 44 24 08 40 65 88 	mov    DWORD PTR [esp+0x8],0x8886540
 804863f:	08 
 8048640:	c7 04 24 40 69 88 08 	mov    DWORD PTR [esp],0x8886940
 8048647:	89 04 fd 80 60 08 08 	mov    DWORD PTR [edi*8+0x8086080],eax
 804864e:	89 14 fd 84 60 08 08 	mov    DWORD PTR [edi*8+0x8086084],edx
 8048655:	83 c7 01             	add    edi,0x1
 8048658:	e8 33 64 02 00       	call   806ea90
 804865d:	81 fe e0 63 88 08    	cmp    esi,0x88863e0
 8048663:	75 bb                	jne    8048620
 8048665:	89 5c 24 08          	mov    DWORD PTR [esp+0x8],ebx
 8048669:	31 f6                	xor    esi,esi
 804866b:	c7 44 24 04 af ff 06 	mov    DWORD PTR [esp+0x4],0x806ffaf
 8048672:	08 
 8048673:	c7 04 24 01 00 00 00 	mov    DWORD PTR [esp],0x1
 804867a:	e8 e1 fd ff ff       	call   8048460
 804867f:	c7 04 24 41 00 00 00 	mov    DWORD PTR [esp],0x41
 8048686:	e8 c5 fd ff ff       	call   8048450
 804868b:	c7 44 24 04 b4 ff 06 	mov    DWORD PTR [esp+0x4],0x806ffb4
 8048692:	08 
 8048693:	c7 04 24 01 00 00 00 	mov    DWORD PTR [esp],0x1
 804869a:	e8 c1 fd ff ff       	call   8048460
 804869f:	c7 04 24 4b 00 00 00 	mov    DWORD PTR [esp],0x4b
 80486a6:	e8 a5 fd ff ff       	call   8048450
 80486ab:	c7 04 24 44 00 00 00 	mov    DWORD PTR [esp],0x44
 80486b2:	e8 99 fd ff ff       	call   8048450
 80486b7:	90                   	nop
 80486b8:	83 c6 01             	add    esi,0x1
 80486bb:	8b 04 f5 80 60 08 08 	mov    eax,DWORD PTR [esi*8+0x8086080]
 80486c2:	8b 14 f5 84 60 08 08 	mov    edx,DWORD PTR [esi*8+0x8086084]
 80486c9:	2b 04 f5 78 60 08 08 	sub    eax,DWORD PTR [esi*8+0x8086078]
 80486d0:	1b 14 f5 7c 60 08 08 	sbb    edx,DWORD PTR [esi*8+0x808607c]
 80486d7:	c7 44 24 04 b9 ff 06 	mov    DWORD PTR [esp+0x4],0x806ffb9
 80486de:	08 
 80486df:	89 44 24 08          	mov    DWORD PTR [esp+0x8],eax
 80486e3:	89 54 24 0c          	mov    DWORD PTR [esp+0xc],edx
 80486e7:	c7 04 24 01 00 00 00 	mov    DWORD PTR [esp],0x1
 80486ee:	e8 6d fd ff ff       	call   8048460
 80486f3:	83 fe 14             	cmp    esi,0x14
 80486f6:	75 c0                	jne    80486b8
 80486f8:	c7 04 24 0a 00 00 00 	mov    DWORD PTR [esp],0xa
 80486ff:	bf 40 61 88 08       	mov    edi,0x8886140
 8048704:	e8 47 fd ff ff       	call   8048450
 8048709:	a1 40 60 08 08       	mov    eax,ds:0x8086040
 804870e:	89 04 24             	mov    DWORD PTR [esp],eax
 8048711:	e8 ea fc ff ff       	call   8048400
 8048716:	66 90                	xchg   ax,ax
 8048718:	31 f6                	xor    esi,esi
 804871a:	8d b6 00 00 00 00    	lea    esi,[esi]
 8048720:	e8 4b fd ff ff       	call   8048470
 8048725:	88 04 37             	mov    BYTE PTR [edi+esi],al
 8048728:	83 c6 01             	add    esi,0x1
 804872b:	83 fe 20             	cmp    esi,0x20
 804872e:	75 f0                	jne    8048720
 8048730:	66 31 f6             	xor    si,si
 8048733:	90                   	nop
 8048734:	8d 74 26 00          	lea    esi,[esi]
 8048738:	e8 33 fd ff ff       	call   8048470
 804873d:	83 c6 01             	add    esi,0x1
 8048740:	88 86 3f 65 88 08    	mov    BYTE PTR [esi+0x888653f],al
 8048746:	83 fe 10             	cmp    esi,0x10
 8048749:	75 ed                	jne    8048738
 804874b:	66 31 f6             	xor    si,si
 804874e:	66 90                	xchg   ax,ax
 8048750:	e8 1b fd ff ff       	call   8048470
 8048755:	83 c6 01             	add    esi,0x1
 8048758:	88 86 3f 69 88 08    	mov    BYTE PTR [esi+0x888693f],al
 804875e:	83 fe 10             	cmp    esi,0x10
 8048761:	75 ed                	jne    8048750
 8048763:	66 31 f6             	xor    si,si
 8048766:	85 db                	test   ebx,ebx
 8048768:	74 18                	je     8048782
 804876a:	8d b6 00 00 00 00    	lea    esi,[esi]
 8048770:	e8 fb fc ff ff       	call   8048470
 8048775:	83 c6 01             	add    esi,0x1
 8048778:	88 86 3f 6d 88 08    	mov    BYTE PTR [esi+0x8886d3f],al
 804877e:	39 de                	cmp    esi,ebx
 8048780:	75 ee                	jne    8048770
 8048782:	89 3c 24             	mov    DWORD PTR [esp],edi
 8048785:	83 c7 20             	add    edi,0x20
 8048788:	e8 93 62 02 00       	call   806ea20
 804878d:	81 ff e0 63 88 08    	cmp    edi,0x88863e0
 8048793:	75 83                	jne    8048718
 8048795:	e8 06 61 02 00       	call   806e8a0
 804879a:	b9 40 61 88 08       	mov    ecx,0x8886140
 804879f:	90                   	nop
 80487a0:	31 c0                	xor    eax,eax
 80487a2:	8d b6 00 00 00 00    	lea    esi,[esi]
 80487a8:	0f b6 14 01          	movzx  edx,BYTE PTR [ecx+eax]
 80487ac:	30 90 40 61 08 08    	xor    BYTE PTR [eax+0x8086140],dl
 80487b2:	83 c0 01             	add    eax,0x1
 80487b5:	83 f8 20             	cmp    eax,0x20
 80487b8:	75 ee                	jne    80487a8
 80487ba:	83 c1 20             	add    ecx,0x20
 80487bd:	81 f9 e0 63 88 08    	cmp    ecx,0x88863e0
 80487c3:	75 db                	jne    80487a0
 80487c5:	31 c0                	xor    eax,eax
 80487c7:	90                   	nop
 80487c8:	0f b6 90 40 65 88 08 	movzx  edx,BYTE PTR [eax+0x8886540]
 80487cf:	30 90 40 61 08 08    	xor    BYTE PTR [eax+0x8086140],dl
 80487d5:	83 c0 01             	add    eax,0x1
 80487d8:	83 f8 10             	cmp    eax,0x10
 80487db:	75 eb                	jne    80487c8
 80487dd:	30 c0                	xor    al,al
 80487df:	90                   	nop
 80487e0:	0f b6 90 40 69 88 08 	movzx  edx,BYTE PTR [eax+0x8886940]
 80487e7:	30 90 40 61 08 08    	xor    BYTE PTR [eax+0x8086140],dl
 80487ed:	83 c0 01             	add    eax,0x1
 80487f0:	83 f8 10             	cmp    eax,0x10
 80487f3:	75 eb                	jne    80487e0
 80487f5:	85 db                	test   ebx,ebx
 80487f7:	74 1b                	je     8048814
 80487f9:	30 c0                	xor    al,al
 80487fb:	90                   	nop
 80487fc:	8d 74 26 00          	lea    esi,[esi]
 8048800:	0f b6 90 40 6d 88 08 	movzx  edx,BYTE PTR [eax+0x8886d40]
 8048807:	30 90 40 61 08 08    	xor    BYTE PTR [eax+0x8086140],dl
 804880d:	83 c0 01             	add    eax,0x1
 8048810:	39 d8                	cmp    eax,ebx
 8048812:	75 ec                	jne    8048800
 8048814:	31 f6                	xor    esi,esi
 8048816:	66 90                	xchg   ax,ax
 8048818:	e8 b3 76 02 00       	call   806fed0
 804881d:	89 04 f5 80 60 08 08 	mov    DWORD PTR [esi*8+0x8086080],eax
 8048824:	89 14 f5 84 60 08 08 	mov    DWORD PTR [esi*8+0x8086084],edx
 804882b:	83 c6 01             	add    esi,0x1
 804882e:	83 fe 15             	cmp    esi,0x15
 8048831:	75 e5                	jne    8048818
 8048833:	31 ff                	xor    edi,edi
 8048835:	be 40 61 88 08       	mov    esi,0x8886140
 804883a:	8d b6 00 00 00 00    	lea    esi,[esi]
 8048840:	e8 8b 76 02 00       	call   806fed0
 8048845:	89 74 24 04          	mov    DWORD PTR [esp+0x4],esi
 8048849:	83 c6 20             	add    esi,0x20
 804884c:	89 5c 24 10          	mov    DWORD PTR [esp+0x10],ebx
 8048850:	c7 44 24 0c 40 6d 88 	mov    DWORD PTR [esp+0xc],0x8886d40
 8048857:	08 
 8048858:	c7 44 24 08 40 65 88 	mov    DWORD PTR [esp+0x8],0x8886540
 804885f:	08 
 8048860:	c7 04 24 40 69 88 08 	mov    DWORD PTR [esp],0x8886940
 8048867:	89 04 fd 80 60 08 08 	mov    DWORD PTR [edi*8+0x8086080],eax
 804886e:	89 14 fd 84 60 08 08 	mov    DWORD PTR [edi*8+0x8086084],edx
 8048875:	83 c7 01             	add    edi,0x1
 8048878:	e8 13 62 02 00       	call   806ea90
 804887d:	81 fe e0 63 88 08    	cmp    esi,0x88863e0
 8048883:	75 bb                	jne    8048840
 8048885:	89 5c 24 08          	mov    DWORD PTR [esp+0x8],ebx
 8048889:	31 f6                	xor    esi,esi
 804888b:	c7 44 24 04 af ff 06 	mov    DWORD PTR [esp+0x4],0x806ffaf
 8048892:	08 
 8048893:	c7 04 24 01 00 00 00 	mov    DWORD PTR [esp],0x1
 804889a:	e8 c1 fb ff ff       	call   8048460
 804889f:	c7 04 24 41 00 00 00 	mov    DWORD PTR [esp],0x41
 80488a6:	e8 a5 fb ff ff       	call   8048450
 80488ab:	c7 44 24 04 b4 ff 06 	mov    DWORD PTR [esp+0x4],0x806ffb4
 80488b2:	08 
 80488b3:	c7 04 24 01 00 00 00 	mov    DWORD PTR [esp],0x1
 80488ba:	e8 a1 fb ff ff       	call   8048460
 80488bf:	c7 04 24 4b 00 00 00 	mov    DWORD PTR [esp],0x4b
 80488c6:	e8 85 fb ff ff       	call   8048450
 80488cb:	c7 04 24 44 00 00 00 	mov    DWORD PTR [esp],0x44
 80488d2:	e8 79 fb ff ff       	call   8048450
 80488d7:	90                   	nop
 80488d8:	83 c6 01             	add    esi,0x1
 80488db:	8b 04 f5 80 60 08 08 	mov    eax,DWORD PTR [esi*8+0x8086080]
 80488e2:	8b 14 f5 84 60 08 08 	mov    edx,DWORD PTR [esi*8+0x8086084]
 80488e9:	2b 04 f5 78 60 08 08 	sub    eax,DWORD PTR [esi*8+0x8086078]
 80488f0:	1b 14 f5 7c 60 08 08 	sbb    edx,DWORD PTR [esi*8+0x808607c]
 80488f7:	c7 44 24 04 b9 ff 06 	mov    DWORD PTR [esp+0x4],0x806ffb9
 80488fe:	08 
 80488ff:	89 44 24 08          	mov    DWORD PTR [esp+0x8],eax
 8048903:	89 54 24 0c          	mov    DWORD PTR [esp+0xc],edx
 8048907:	c7 04 24 01 00 00 00 	mov    DWORD PTR [esp],0x1
 804890e:	e8 4d fb ff ff       	call   8048460
 8048913:	83 fe 14             	cmp    esi,0x14
 8048916:	75 c0                	jne    80488d8
 8048918:	c7 04 24 0a 00 00 00 	mov    DWORD PTR [esp],0xa
 804891f:	bf 40 61 88 08       	mov    edi,0x8886140
 8048924:	e8 27 fb ff ff       	call   8048450
 8048929:	a1 40 60 08 08       	mov    eax,ds:0x8086040
 804892e:	89 04 24             	mov    DWORD PTR [esp],eax
 8048931:	e8 ca fa ff ff       	call   8048400
 8048936:	66 90                	xchg   ax,ax
 8048938:	31 f6                	xor    esi,esi
 804893a:	8d b6 00 00 00 00    	lea    esi,[esi]
 8048940:	e8 2b fb ff ff       	call   8048470
 8048945:	88 04 37             	mov    BYTE PTR [edi+esi],al
 8048948:	83 c6 01             	add    esi,0x1
 804894b:	83 fe 20             	cmp    esi,0x20
 804894e:	75 f0                	jne    8048940
 8048950:	66 31 f6             	xor    si,si
 8048953:	90                   	nop
 8048954:	8d 74 26 00          	lea    esi,[esi]
 8048958:	e8 13 fb ff ff       	call   8048470
 804895d:	83 c6 01             	add    esi,0x1
 8048960:	88 86 3f 65 88 08    	mov    BYTE PTR [esi+0x888653f],al
 8048966:	83 fe 10             	cmp    esi,0x10
 8048969:	75 ed                	jne    8048958
 804896b:	66 31 f6             	xor    si,si
 804896e:	66 90                	xchg   ax,ax
 8048970:	e8 fb fa ff ff       	call   8048470
 8048975:	83 c6 01             	add    esi,0x1
 8048978:	88 86 3f 69 88 08    	mov    BYTE PTR [esi+0x888693f],al
 804897e:	83 fe 10             	cmp    esi,0x10
 8048981:	75 ed                	jne    8048970
 8048983:	66 31 f6             	xor    si,si
 8048986:	85 db                	test   ebx,ebx
 8048988:	74 18                	je     80489a2
 804898a:	8d b6 00 00 00 00    	lea    esi,[esi]
 8048990:	e8 db fa ff ff       	call   8048470
 8048995:	83 c6 01             	add    esi,0x1
 8048998:	88 86 3f 6d 88 08    	mov    BYTE PTR [esi+0x8886d3f],al
 804899e:	39 de                	cmp    esi,ebx
 80489a0:	75 ee                	jne    8048990
 80489a2:	89 3c 24             	mov    DWORD PTR [esp],edi
 80489a5:	83 c7 20             	add    edi,0x20
 80489a8:	e8 73 60 02 00       	call   806ea20
 80489ad:	81 ff e0 63 88 08    	cmp    edi,0x88863e0
 80489b3:	75 83                	jne    8048938
 80489b5:	e8 e6 5e 02 00       	call   806e8a0
 80489ba:	b9 40 61 88 08       	mov    ecx,0x8886140
 80489bf:	90                   	nop
 80489c0:	31 c0                	xor    eax,eax
 80489c2:	8d b6 00 00 00 00    	lea    esi,[esi]
 80489c8:	0f b6 14 01          	movzx  edx,BYTE PTR [ecx+eax]
 80489cc:	30 90 40 61 08 08    	xor    BYTE PTR [eax+0x8086140],dl
 80489d2:	83 c0 01             	add    eax,0x1
 80489d5:	83 f8 20             	cmp    eax,0x20
 80489d8:	75 ee                	jne    80489c8
 80489da:	83 c1 20             	add    ecx,0x20
 80489dd:	81 f9 e0 63 88 08    	cmp    ecx,0x88863e0
 80489e3:	75 db                	jne    80489c0
 80489e5:	31 c0                	xor    eax,eax
 80489e7:	90                   	nop
 80489e8:	0f b6 90 40 65 88 08 	movzx  edx,BYTE PTR [eax+0x8886540]
 80489ef:	30 90 40 61 08 08    	xor    BYTE PTR [eax+0x8086140],dl
 80489f5:	83 c0 01             	add    eax,0x1
 80489f8:	83 f8 10             	cmp    eax,0x10
 80489fb:	75 eb                	jne    80489e8
 80489fd:	30 c0                	xor    al,al
 80489ff:	90                   	nop
 8048a00:	0f b6 90 40 69 88 08 	movzx  edx,BYTE PTR [eax+0x8886940]
 8048a07:	30 90 40 61 08 08    	xor    BYTE PTR [eax+0x8086140],dl
 8048a0d:	83 c0 01             	add    eax,0x1
 8048a10:	83 f8 10             	cmp    eax,0x10
 8048a13:	75 eb                	jne    8048a00
 8048a15:	85 db                	test   ebx,ebx
 8048a17:	74 1b                	je     8048a34
 8048a19:	30 c0                	xor    al,al
 8048a1b:	90                   	nop
 8048a1c:	8d 74 26 00          	lea    esi,[esi]
 8048a20:	0f b6 90 40 6d 88 08 	movzx  edx,BYTE PTR [eax+0x8886d40]
 8048a27:	30 90 40 61 08 08    	xor    BYTE PTR [eax+0x8086140],dl
 8048a2d:	83 c0 01             	add    eax,0x1
 8048a30:	39 d8                	cmp    eax,ebx
 8048a32:	75 ec                	jne    8048a20
 8048a34:	31 f6                	xor    esi,esi
 8048a36:	66 90                	xchg   ax,ax
 8048a38:	e8 93 74 02 00       	call   806fed0
 8048a3d:	89 04 f5 80 60 08 08 	mov    DWORD PTR [esi*8+0x8086080],eax
 8048a44:	89 14 f5 84 60 08 08 	mov    DWORD PTR [esi*8+0x8086084],edx
 8048a4b:	83 c6 01             	add    esi,0x1
 8048a4e:	83 fe 15             	cmp    esi,0x15
 8048a51:	75 e5                	jne    8048a38
 8048a53:	31 ff                	xor    edi,edi
 8048a55:	be 40 61 88 08       	mov    esi,0x8886140
 8048a5a:	8d b6 00 00 00 00    	lea    esi,[esi]
 8048a60:	e8 6b 74 02 00       	call   806fed0
 8048a65:	89 74 24 04          	mov    DWORD PTR [esp+0x4],esi
 8048a69:	83 c6 20             	add    esi,0x20
 8048a6c:	89 5c 24 10          	mov    DWORD PTR [esp+0x10],ebx
 8048a70:	c7 44 24 0c 40 6d 88 	mov    DWORD PTR [esp+0xc],0x8886d40
 8048a77:	08 
 8048a78:	c7 44 24 08 40 65 88 	mov    DWORD PTR [esp+0x8],0x8886540
 8048a7f:	08 
 8048a80:	c7 04 24 40 69 88 08 	mov    DWORD PTR [esp],0x8886940
 8048a87:	89 04 fd 80 60 08 08 	mov    DWORD PTR [edi*8+0x8086080],eax
 8048a8e:	89 14 fd 84 60 08 08 	mov    DWORD PTR [edi*8+0x8086084],edx
 8048a95:	83 c7 01             	add    edi,0x1
 8048a98:	e8 f3 5f 02 00       	call   806ea90
 8048a9d:	81 fe e0 63 88 08    	cmp    esi,0x88863e0
 8048aa3:	75 bb                	jne    8048a60
 8048aa5:	89 5c 24 08          	mov    DWORD PTR [esp+0x8],ebx
 8048aa9:	31 f6                	xor    esi,esi
 8048aab:	c7 44 24 04 af ff 06 	mov    DWORD PTR [esp+0x4],0x806ffaf
 8048ab2:	08 
 8048ab3:	c7 04 24 01 00 00 00 	mov    DWORD PTR [esp],0x1
 8048aba:	e8 a1 f9 ff ff       	call   8048460
 8048abf:	c7 04 24 41 00 00 00 	mov    DWORD PTR [esp],0x41
 8048ac6:	e8 85 f9 ff ff       	call   8048450
 8048acb:	c7 44 24 04 b4 ff 06 	mov    DWORD PTR [esp+0x4],0x806ffb4
 8048ad2:	08 
 8048ad3:	c7 04 24 01 00 00 00 	mov    DWORD PTR [esp],0x1
 8048ada:	e8 81 f9 ff ff       	call   8048460
 8048adf:	c7 04 24 4b 00 00 00 	mov    DWORD PTR [esp],0x4b
 8048ae6:	e8 65 f9 ff ff       	call   8048450
 8048aeb:	c7 04 24 44 00 00 00 	mov    DWORD PTR [esp],0x44
 8048af2:	e8 59 f9 ff ff       	call   8048450
 8048af7:	90                   	nop
 8048af8:	83 c6 01             	add    esi,0x1
 8048afb:	8b 04 f5 80 60 08 08 	mov    eax,DWORD PTR [esi*8+0x8086080]
 8048b02:	8b 14 f5 84 60 08 08 	mov    edx,DWORD PTR [esi*8+0x8086084]
 8048b09:	2b 04 f5 78 60 08 08 	sub    eax,DWORD PTR [esi*8+0x8086078]
 8048b10:	1b 14 f5 7c 60 08 08 	sbb    edx,DWORD PTR [esi*8+0x808607c]
 8048b17:	c7 44 24 04 b9 ff 06 	mov    DWORD PTR [esp+0x4],0x806ffb9
 8048b1e:	08 
 8048b1f:	89 44 24 08          	mov    DWORD PTR [esp+0x8],eax
 8048b23:	89 54 24 0c          	mov    DWORD PTR [esp+0xc],edx
 8048b27:	c7 04 24 01 00 00 00 	mov    DWORD PTR [esp],0x1
 8048b2e:	e8 2d f9 ff ff       	call   8048460
 8048b33:	83 fe 14             	cmp    esi,0x14
 8048b36:	75 c0                	jne    8048af8
 8048b38:	c7 04 24 0a 00 00 00 	mov    DWORD PTR [esp],0xa
 8048b3f:	bf 40 61 88 08       	mov    edi,0x8886140
 8048b44:	e8 07 f9 ff ff       	call   8048450
 8048b49:	a1 40 60 08 08       	mov    eax,ds:0x8086040
 8048b4e:	89 04 24             	mov    DWORD PTR [esp],eax
 8048b51:	e8 aa f8 ff ff       	call   8048400
 8048b56:	66 90                	xchg   ax,ax
 8048b58:	31 f6                	xor    esi,esi
 8048b5a:	8d b6 00 00 00 00    	lea    esi,[esi]
 8048b60:	e8 0b f9 ff ff       	call   8048470
 8048b65:	88 04 37             	mov    BYTE PTR [edi+esi],al
 8048b68:	83 c6 01             	add    esi,0x1
 8048b6b:	83 fe 20             	cmp    esi,0x20
 8048b6e:	75 f0                	jne    8048b60
 8048b70:	66 31 f6             	xor    si,si
 8048b73:	90                   	nop
 8048b74:	8d 74 26 00          	lea    esi,[esi]
 8048b78:	e8 f3 f8 ff ff       	call   8048470
 8048b7d:	83 c6 01             	add    esi,0x1
 8048b80:	88 86 3f 65 88 08    	mov    BYTE PTR [esi+0x888653f],al
 8048b86:	83 fe 10             	cmp    esi,0x10
 8048b89:	75 ed                	jne    8048b78
 8048b8b:	66 31 f6             	xor    si,si
 8048b8e:	66 90                	xchg   ax,ax
 8048b90:	e8 db f8 ff ff       	call   8048470
 8048b95:	83 c6 01             	add    esi,0x1
 8048b98:	88 86 3f 69 88 08    	mov    BYTE PTR [esi+0x888693f],al
 8048b9e:	83 fe 10             	cmp    esi,0x10
 8048ba1:	75 ed                	jne    8048b90
 8048ba3:	66 31 f6             	xor    si,si
 8048ba6:	85 db                	test   ebx,ebx
 8048ba8:	74 18                	je     8048bc2
 8048baa:	8d b6 00 00 00 00    	lea    esi,[esi]
 8048bb0:	e8 bb f8 ff ff       	call   8048470
 8048bb5:	83 c6 01             	add    esi,0x1
 8048bb8:	88 86 3f 6d 88 08    	mov    BYTE PTR [esi+0x8886d3f],al
 8048bbe:	39 de                	cmp    esi,ebx
 8048bc0:	75 ee                	jne    8048bb0
 8048bc2:	89 3c 24             	mov    DWORD PTR [esp],edi
 8048bc5:	83 c7 20             	add    edi,0x20
 8048bc8:	e8 53 5e 02 00       	call   806ea20
 8048bcd:	81 ff e0 63 88 08    	cmp    edi,0x88863e0
 8048bd3:	75 83                	jne    8048b58
 8048bd5:	e8 c6 5c 02 00       	call   806e8a0
 8048bda:	b9 40 61 88 08       	mov    ecx,0x8886140
 8048bdf:	90                   	nop
 8048be0:	31 c0                	xor    eax,eax
 8048be2:	8d b6 00 00 00 00    	lea    esi,[esi]
 8048be8:	0f b6 14 01          	movzx  edx,BYTE PTR [ecx+eax]
 8048bec:	30 90 40 61 08 08    	xor    BYTE PTR [eax+0x8086140],dl
 8048bf2:	83 c0 01             	add    eax,0x1
 8048bf5:	83 f8 20             	cmp    eax,0x20
 8048bf8:	75 ee                	jne    8048be8
 8048bfa:	83 c1 20             	add    ecx,0x20
 8048bfd:	81 f9 e0 63 88 08    	cmp    ecx,0x88863e0
 8048c03:	75 db                	jne    8048be0
 8048c05:	31 c0                	xor    eax,eax
 8048c07:	90                   	nop
 8048c08:	0f b6 90 40 65 88 08 	movzx  edx,BYTE PTR [eax+0x8886540]
 8048c0f:	30 90 40 61 08 08    	xor    BYTE PTR [eax+0x8086140],dl
 8048c15:	83 c0 01             	add    eax,0x1
 8048c18:	83 f8 10             	cmp    eax,0x10
 8048c1b:	75 eb                	jne    8048c08
 8048c1d:	30 c0                	xor    al,al
 8048c1f:	90                   	nop
 8048c20:	0f b6 90 40 69 88 08 	movzx  edx,BYTE PTR [eax+0x8886940]
 8048c27:	30 90 40 61 08 08    	xor    BYTE PTR [eax+0x8086140],dl
 8048c2d:	83 c0 01             	add    eax,0x1
 8048c30:	83 f8 10             	cmp    eax,0x10
 8048c33:	75 eb                	jne    8048c20
 8048c35:	85 db                	test   ebx,ebx
 8048c37:	74 1b                	je     8048c54
 8048c39:	30 c0                	xor    al,al
 8048c3b:	90                   	nop
 8048c3c:	8d 74 26 00          	lea    esi,[esi]
 8048c40:	0f b6 90 40 6d 88 08 	movzx  edx,BYTE PTR [eax+0x8886d40]
 8048c47:	30 90 40 61 08 08    	xor    BYTE PTR [eax+0x8086140],dl
 8048c4d:	83 c0 01             	add    eax,0x1
 8048c50:	39 d8                	cmp    eax,ebx
 8048c52:	75 ec                	jne    8048c40
 8048c54:	31 f6                	xor    esi,esi
 8048c56:	66 90                	xchg   ax,ax
 8048c58:	e8 73 72 02 00       	call   806fed0
 8048c5d:	89 04 f5 80 60 08 08 	mov    DWORD PTR [esi*8+0x8086080],eax
 8048c64:	89 14 f5 84 60 08 08 	mov    DWORD PTR [esi*8+0x8086084],edx
 8048c6b:	83 c6 01             	add    esi,0x1
 8048c6e:	83 fe 15             	cmp    esi,0x15
 8048c71:	75 e5                	jne    8048c58
 8048c73:	31 ff                	xor    edi,edi
 8048c75:	be 40 61 88 08       	mov    esi,0x8886140
 8048c7a:	8d b6 00 00 00 00    	lea    esi,[esi]
 8048c80:	e8 4b 72 02 00       	call   806fed0
 8048c85:	89 74 24 04          	mov    DWORD PTR [esp+0x4],esi
 8048c89:	83 c6 20             	add    esi,0x20
 8048c8c:	89 5c 24 10          	mov    DWORD PTR [esp+0x10],ebx
 8048c90:	c7 44 24 0c 40 6d 88 	mov    DWORD PTR [esp+0xc],0x8886d40
 8048c97:	08 
 8048c98:	c7 44 24 08 40 65 88 	mov    DWORD PTR [esp+0x8],0x8886540
 8048c9f:	08 
 8048ca0:	c7 04 24 40 69 88 08 	mov    DWORD PTR [esp],0x8886940
 8048ca7:	89 04 fd 80 60 08 08 	mov    DWORD PTR [edi*8+0x8086080],eax
 8048cae:	89 14 fd 84 60 08 08 	mov    DWORD PTR [edi*8+0x8086084],edx
 8048cb5:	83 c7 01             	add    edi,0x1
 8048cb8:	e8 93 5c 02 00       	call   806e950
 8048cbd:	81 fe e0 63 88 08    	cmp    esi,0x88863e0
 8048cc3:	75 bb                	jne    8048c80
 8048cc5:	89 5c 24 08          	mov    DWORD PTR [esp+0x8],ebx
 8048cc9:	31 f6                	xor    esi,esi
 8048ccb:	c7 44 24 04 af ff 06 	mov    DWORD PTR [esp+0x4],0x806ffaf
 8048cd2:	08 
 8048cd3:	c7 04 24 01 00 00 00 	mov    DWORD PTR [esp],0x1
 8048cda:	e8 81 f7 ff ff       	call   8048460
 8048cdf:	c7 04 24 56 00 00 00 	mov    DWORD PTR [esp],0x56
 8048ce6:	e8 65 f7 ff ff       	call   8048450
 8048ceb:	c7 44 24 04 b4 ff 06 	mov    DWORD PTR [esp+0x4],0x806ffb4
 8048cf2:	08 
 8048cf3:	c7 04 24 01 00 00 00 	mov    DWORD PTR [esp],0x1
 8048cfa:	e8 61 f7 ff ff       	call   8048460
 8048cff:	c7 04 24 4b 00 00 00 	mov    DWORD PTR [esp],0x4b
 8048d06:	e8 45 f7 ff ff       	call   8048450
 8048d0b:	c7 04 24 44 00 00 00 	mov    DWORD PTR [esp],0x44
 8048d12:	e8 39 f7 ff ff       	call   8048450
 8048d17:	90                   	nop
 8048d18:	83 c6 01             	add    esi,0x1
 8048d1b:	8b 04 f5 80 60 08 08 	mov    eax,DWORD PTR [esi*8+0x8086080]
 8048d22:	8b 14 f5 84 60 08 08 	mov    edx,DWORD PTR [esi*8+0x8086084]
 8048d29:	2b 04 f5 78 60 08 08 	sub    eax,DWORD PTR [esi*8+0x8086078]
 8048d30:	1b 14 f5 7c 60 08 08 	sbb    edx,DWORD PTR [esi*8+0x808607c]
 8048d37:	c7 44 24 04 b9 ff 06 	mov    DWORD PTR [esp+0x4],0x806ffb9
 8048d3e:	08 
 8048d3f:	89 44 24 08          	mov    DWORD PTR [esp+0x8],eax
 8048d43:	89 54 24 0c          	mov    DWORD PTR [esp+0xc],edx
 8048d47:	c7 04 24 01 00 00 00 	mov    DWORD PTR [esp],0x1
 8048d4e:	e8 0d f7 ff ff       	call   8048460
 8048d53:	83 fe 14             	cmp    esi,0x14
 8048d56:	75 c0                	jne    8048d18
 8048d58:	c7 04 24 0a 00 00 00 	mov    DWORD PTR [esp],0xa
 8048d5f:	bf 40 61 88 08       	mov    edi,0x8886140
 8048d64:	e8 e7 f6 ff ff       	call   8048450
 8048d69:	a1 40 60 08 08       	mov    eax,ds:0x8086040
 8048d6e:	89 04 24             	mov    DWORD PTR [esp],eax
 8048d71:	e8 8a f6 ff ff       	call   8048400
 8048d76:	66 90                	xchg   ax,ax
 8048d78:	31 f6                	xor    esi,esi
 8048d7a:	8d b6 00 00 00 00    	lea    esi,[esi]
 8048d80:	e8 eb f6 ff ff       	call   8048470
 8048d85:	88 04 37             	mov    BYTE PTR [edi+esi],al
 8048d88:	83 c6 01             	add    esi,0x1
 8048d8b:	83 fe 20             	cmp    esi,0x20
 8048d8e:	75 f0                	jne    8048d80
 8048d90:	66 31 f6             	xor    si,si
 8048d93:	90                   	nop
 8048d94:	8d 74 26 00          	lea    esi,[esi]
 8048d98:	e8 d3 f6 ff ff       	call   8048470
 8048d9d:	83 c6 01             	add    esi,0x1
 8048da0:	88 86 3f 65 88 08    	mov    BYTE PTR [esi+0x888653f],al
 8048da6:	83 fe 10             	cmp    esi,0x10
 8048da9:	75 ed                	jne    8048d98
 8048dab:	66 31 f6             	xor    si,si
 8048dae:	66 90                	xchg   ax,ax
 8048db0:	e8 bb f6 ff ff       	call   8048470
 8048db5:	83 c6 01             	add    esi,0x1
 8048db8:	88 86 3f 69 88 08    	mov    BYTE PTR [esi+0x888693f],al
 8048dbe:	83 fe 10             	cmp    esi,0x10
 8048dc1:	75 ed                	jne    8048db0
 8048dc3:	66 31 f6             	xor    si,si
 8048dc6:	85 db                	test   ebx,ebx
 8048dc8:	74 18                	je     8048de2
 8048dca:	8d b6 00 00 00 00    	lea    esi,[esi]
 8048dd0:	e8 9b f6 ff ff       	call   8048470
 8048dd5:	83 c6 01             	add    esi,0x1
 8048dd8:	88 86 3f 6d 88 08    	mov    BYTE PTR [esi+0x8886d3f],al
 8048dde:	39 de                	cmp    esi,ebx
 8048de0:	75 ee                	jne    8048dd0
 8048de2:	89 3c 24             	mov    DWORD PTR [esp],edi
 8048de5:	83 c7 20             	add    edi,0x20
 8048de8:	e8 33 5c 02 00       	call   806ea20
 8048ded:	81 ff e0 63 88 08    	cmp    edi,0x88863e0
 8048df3:	75 83                	jne    8048d78
 8048df5:	e8 a6 5a 02 00       	call   806e8a0
 8048dfa:	b9 40 61 88 08       	mov    ecx,0x8886140
 8048dff:	90                   	nop
 8048e00:	31 c0                	xor    eax,eax
 8048e02:	8d b6 00 00 00 00    	lea    esi,[esi]
 8048e08:	0f b6 14 01          	movzx  edx,BYTE PTR [ecx+eax]
 8048e0c:	30 90 40 61 08 08    	xor    BYTE PTR [eax+0x8086140],dl
 8048e12:	83 c0 01             	add    eax,0x1
 8048e15:	83 f8 20             	cmp    eax,0x20
 8048e18:	75 ee                	jne    8048e08
 8048e1a:	83 c1 20             	add    ecx,0x20
 8048e1d:	81 f9 e0 63 88 08    	cmp    ecx,0x88863e0
 8048e23:	75 db                	jne    8048e00
 8048e25:	31 c0                	xor    eax,eax
 8048e27:	90                   	nop
 8048e28:	0f b6 90 40 65 88 08 	movzx  edx,BYTE PTR [eax+0x8886540]
 8048e2f:	30 90 40 61 08 08    	xor    BYTE PTR [eax+0x8086140],dl
 8048e35:	83 c0 01             	add    eax,0x1
 8048e38:	83 f8 10             	cmp    eax,0x10
 8048e3b:	75 eb                	jne    8048e28
 8048e3d:	30 c0                	xor    al,al
 8048e3f:	90                   	nop
 8048e40:	0f b6 90 40 69 88 08 	movzx  edx,BYTE PTR [eax+0x8886940]
 8048e47:	30 90 40 61 08 08    	xor    BYTE PTR [eax+0x8086140],dl
 8048e4d:	83 c0 01             	add    eax,0x1
 8048e50:	83 f8 10             	cmp    eax,0x10
 8048e53:	75 eb                	jne    8048e40
 8048e55:	85 db                	test   ebx,ebx
 8048e57:	74 1b                	je     8048e74
 8048e59:	30 c0                	xor    al,al
 8048e5b:	90                   	nop
 8048e5c:	8d 74 26 00          	lea    esi,[esi]
 8048e60:	0f b6 90 40 6d 88 08 	movzx  edx,BYTE PTR [eax+0x8886d40]
 8048e67:	30 90 40 61 08 08    	xor    BYTE PTR [eax+0x8086140],dl
 8048e6d:	83 c0 01             	add    eax,0x1
 8048e70:	39 d8                	cmp    eax,ebx
 8048e72:	75 ec                	jne    8048e60
 8048e74:	31 f6                	xor    esi,esi
 8048e76:	66 90                	xchg   ax,ax
 8048e78:	e8 53 70 02 00       	call   806fed0
 8048e7d:	89 04 f5 80 60 08 08 	mov    DWORD PTR [esi*8+0x8086080],eax
 8048e84:	89 14 f5 84 60 08 08 	mov    DWORD PTR [esi*8+0x8086084],edx
 8048e8b:	83 c6 01             	add    esi,0x1
 8048e8e:	83 fe 15             	cmp    esi,0x15
 8048e91:	75 e5                	jne    8048e78
 8048e93:	31 ff                	xor    edi,edi
 8048e95:	be 40 61 88 08       	mov    esi,0x8886140
 8048e9a:	8d b6 00 00 00 00    	lea    esi,[esi]
 8048ea0:	e8 2b 70 02 00       	call   806fed0
 8048ea5:	89 74 24 04          	mov    DWORD PTR [esp+0x4],esi
 8048ea9:	83 c6 20             	add    esi,0x20
 8048eac:	89 5c 24 10          	mov    DWORD PTR [esp+0x10],ebx
 8048eb0:	c7 44 24 0c 40 6d 88 	mov    DWORD PTR [esp+0xc],0x8886d40
 8048eb7:	08 
 8048eb8:	c7 44 24 08 40 65 88 	mov    DWORD PTR [esp+0x8],0x8886540
 8048ebf:	08 
 8048ec0:	c7 04 24 40 69 88 08 	mov    DWORD PTR [esp],0x8886940
 8048ec7:	89 04 fd 80 60 08 08 	mov    DWORD PTR [edi*8+0x8086080],eax
 8048ece:	89 14 fd 84 60 08 08 	mov    DWORD PTR [edi*8+0x8086084],edx
 8048ed5:	83 c7 01             	add    edi,0x1
 8048ed8:	e8 73 5a 02 00       	call   806e950
 8048edd:	81 fe e0 63 88 08    	cmp    esi,0x88863e0
 8048ee3:	75 bb                	jne    8048ea0
 8048ee5:	89 5c 24 08          	mov    DWORD PTR [esp+0x8],ebx
 8048ee9:	31 f6                	xor    esi,esi
 8048eeb:	c7 44 24 04 af ff 06 	mov    DWORD PTR [esp+0x4],0x806ffaf
 8048ef2:	08 
 8048ef3:	c7 04 24 01 00 00 00 	mov    DWORD PTR [esp],0x1
 8048efa:	e8 61 f5 ff ff       	call   8048460
 8048eff:	c7 04 24 56 00 00 00 	mov    DWORD PTR [esp],0x56
 8048f06:	e8 45 f5 ff ff       	call   8048450
 8048f0b:	c7 44 24 04 b4 ff 06 	mov    DWORD PTR [esp+0x4],0x806ffb4
 8048f12:	08 
 8048f13:	c7 04 24 01 00 00 00 	mov    DWORD PTR [esp],0x1
 8048f1a:	e8 41 f5 ff ff       	call   8048460
 8048f1f:	c7 04 24 4b 00 00 00 	mov    DWORD PTR [esp],0x4b
 8048f26:	e8 25 f5 ff ff       	call   8048450
 8048f2b:	c7 04 24 44 00 00 00 	mov    DWORD PTR [esp],0x44
 8048f32:	e8 19 f5 ff ff       	call   8048450
 8048f37:	90                   	nop
 8048f38:	83 c6 01             	add    esi,0x1
 8048f3b:	8b 04 f5 80 60 08 08 	mov    eax,DWORD PTR [esi*8+0x8086080]
 8048f42:	8b 14 f5 84 60 08 08 	mov    edx,DWORD PTR [esi*8+0x8086084]
 8048f49:	2b 04 f5 78 60 08 08 	sub    eax,DWORD PTR [esi*8+0x8086078]
 8048f50:	1b 14 f5 7c 60 08 08 	sbb    edx,DWORD PTR [esi*8+0x808607c]
 8048f57:	c7 44 24 04 b9 ff 06 	mov    DWORD PTR [esp+0x4],0x806ffb9
 8048f5e:	08 
 8048f5f:	89 44 24 08          	mov    DWORD PTR [esp+0x8],eax
 8048f63:	89 54 24 0c          	mov    DWORD PTR [esp+0xc],edx
 8048f67:	c7 04 24 01 00 00 00 	mov    DWORD PTR [esp],0x1
 8048f6e:	e8 ed f4 ff ff       	call   8048460
 8048f73:	83 fe 14             	cmp    esi,0x14
 8048f76:	75 c0                	jne    8048f38
 8048f78:	c7 04 24 0a 00 00 00 	mov    DWORD PTR [esp],0xa
 8048f7f:	bf 40 61 88 08       	mov    edi,0x8886140
 8048f84:	e8 c7 f4 ff ff       	call   8048450
 8048f89:	a1 40 60 08 08       	mov    eax,ds:0x8086040
 8048f8e:	89 04 24             	mov    DWORD PTR [esp],eax
 8048f91:	e8 6a f4 ff ff       	call   8048400
 8048f96:	66 90                	xchg   ax,ax
 8048f98:	31 f6                	xor    esi,esi
 8048f9a:	8d b6 00 00 00 00    	lea    esi,[esi]
 8048fa0:	e8 cb f4 ff ff       	call   8048470
 8048fa5:	88 04 37             	mov    BYTE PTR [edi+esi],al
 8048fa8:	83 c6 01             	add    esi,0x1
 8048fab:	83 fe 20             	cmp    esi,0x20
 8048fae:	75 f0                	jne    8048fa0
 8048fb0:	66 31 f6             	xor    si,si
 8048fb3:	90                   	nop
 8048fb4:	8d 74 26 00          	lea    esi,[esi]
 8048fb8:	e8 b3 f4 ff ff       	call   8048470
 8048fbd:	83 c6 01             	add    esi,0x1
 8048fc0:	88 86 3f 65 88 08    	mov    BYTE PTR [esi+0x888653f],al
 8048fc6:	83 fe 10             	cmp    esi,0x10
 8048fc9:	75 ed                	jne    8048fb8
 8048fcb:	66 31 f6             	xor    si,si
 8048fce:	66 90                	xchg   ax,ax
 8048fd0:	e8 9b f4 ff ff       	call   8048470
 8048fd5:	83 c6 01             	add    esi,0x1
 8048fd8:	88 86 3f 69 88 08    	mov    BYTE PTR [esi+0x888693f],al
 8048fde:	83 fe 10             	cmp    esi,0x10
 8048fe1:	75 ed                	jne    8048fd0
 8048fe3:	66 31 f6             	xor    si,si
 8048fe6:	85 db                	test   ebx,ebx
 8048fe8:	74 18                	je     8049002
 8048fea:	8d b6 00 00 00 00    	lea    esi,[esi]
 8048ff0:	e8 7b f4 ff ff       	call   8048470
 8048ff5:	83 c6 01             	add    esi,0x1
 8048ff8:	88 86 3f 6d 88 08    	mov    BYTE PTR [esi+0x8886d3f],al
 8048ffe:	39 de                	cmp    esi,ebx
 8049000:	75 ee                	jne    8048ff0
 8049002:	89 3c 24             	mov    DWORD PTR [esp],edi
 8049005:	83 c7 20             	add    edi,0x20
 8049008:	e8 13 5a 02 00       	call   806ea20
 804900d:	81 ff e0 63 88 08    	cmp    edi,0x88863e0
 8049013:	75 83                	jne    8048f98
 8049015:	e8 86 58 02 00       	call   806e8a0
 804901a:	b9 40 61 88 08       	mov    ecx,0x8886140
 804901f:	90                   	nop
 8049020:	31 c0                	xor    eax,eax
 8049022:	8d b6 00 00 00 00    	lea    esi,[esi]
 8049028:	0f b6 14 01          	movzx  edx,BYTE PTR [ecx+eax]
 804902c:	30 90 40 61 08 08    	xor    BYTE PTR [eax+0x8086140],dl
 8049032:	83 c0 01             	add    eax,0x1
 8049035:	83 f8 20             	cmp    eax,0x20
 8049038:	75 ee                	jne    8049028
 804903a:	83 c1 20             	add    ecx,0x20
 804903d:	81 f9 e0 63 88 08    	cmp    ecx,0x88863e0
 8049043:	75 db                	jne    8049020
 8049045:	31 c0                	xor    eax,eax
 8049047:	90                   	nop
 8049048:	0f b6 90 40 65 88 08 	movzx  edx,BYTE PTR [eax+0x8886540]
 804904f:	30 90 40 61 08 08    	xor    BYTE PTR [eax+0x8086140],dl
 8049055:	83 c0 01             	add    eax,0x1
 8049058:	83 f8 10             	cmp    eax,0x10
 804905b:	75 eb                	jne    8049048
 804905d:	30 c0                	xor    al,al
 804905f:	90                   	nop
 8049060:	0f b6 90 40 69 88 08 	movzx  edx,BYTE PTR [eax+0x8886940]
 8049067:	30 90 40 61 08 08    	xor    BYTE PTR [eax+0x8086140],dl
 804906d:	83 c0 01             	add    eax,0x1
 8049070:	83 f8 10             	cmp    eax,0x10
 8049073:	75 eb                	jne    8049060
 8049075:	85 db                	test   ebx,ebx
 8049077:	74 1b                	je     8049094
 8049079:	30 c0                	xor    al,al
 804907b:	90                   	nop
 804907c:	8d 74 26 00          	lea    esi,[esi]
 8049080:	0f b6 90 40 6d 88 08 	movzx  edx,BYTE PTR [eax+0x8886d40]
 8049087:	30 90 40 61 08 08    	xor    BYTE PTR [eax+0x8086140],dl
 804908d:	83 c0 01             	add    eax,0x1
 8049090:	39 d8                	cmp    eax,ebx
 8049092:	75 ec                	jne    8049080
 8049094:	31 f6                	xor    esi,esi
 8049096:	66 90                	xchg   ax,ax
 8049098:	e8 33 6e 02 00       	call   806fed0
 804909d:	89 04 f5 80 60 08 08 	mov    DWORD PTR [esi*8+0x8086080],eax
 80490a4:	89 14 f5 84 60 08 08 	mov    DWORD PTR [esi*8+0x8086084],edx
 80490ab:	83 c6 01             	add    esi,0x1
 80490ae:	83 fe 15             	cmp    esi,0x15
 80490b1:	75 e5                	jne    8049098
 80490b3:	31 ff                	xor    edi,edi
 80490b5:	be 40 61 88 08       	mov    esi,0x8886140
 80490ba:	8d b6 00 00 00 00    	lea    esi,[esi]
 80490c0:	e8 0b 6e 02 00       	call   806fed0
 80490c5:	89 74 24 04          	mov    DWORD PTR [esp+0x4],esi
 80490c9:	83 c6 20             	add    esi,0x20
 80490cc:	89 5c 24 10          	mov    DWORD PTR [esp+0x10],ebx
 80490d0:	c7 44 24 0c 40 6d 88 	mov    DWORD PTR [esp+0xc],0x8886d40
 80490d7:	08 
 80490d8:	c7 44 24 08 40 65 88 	mov    DWORD PTR [esp+0x8],0x8886540
 80490df:	08 
 80490e0:	c7 04 24 40 69 88 08 	mov    DWORD PTR [esp],0x8886940
 80490e7:	89 04 fd 80 60 08 08 	mov    DWORD PTR [edi*8+0x8086080],eax
 80490ee:	89 14 fd 84 60 08 08 	mov    DWORD PTR [edi*8+0x8086084],edx
 80490f5:	83 c7 01             	add    edi,0x1
 80490f8:	e8 53 58 02 00       	call   806e950
 80490fd:	81 fe e0 63 88 08    	cmp    esi,0x88863e0
 8049103:	75 bb                	jne    80490c0
 8049105:	89 5c 24 08          	mov    DWORD PTR [esp+0x8],ebx
 8049109:	31 f6                	xor    esi,esi
 804910b:	c7 44 24 04 af ff 06 	mov    DWORD PTR [esp+0x4],0x806ffaf
 8049112:	08 
 8049113:	c7 04 24 01 00 00 00 	mov    DWORD PTR [esp],0x1
 804911a:	e8 41 f3 ff ff       	call   8048460
 804911f:	c7 04 24 56 00 00 00 	mov    DWORD PTR [esp],0x56
 8049126:	e8 25 f3 ff ff       	call   8048450
 804912b:	c7 44 24 04 b4 ff 06 	mov    DWORD PTR [esp+0x4],0x806ffb4
 8049132:	08 
 8049133:	c7 04 24 01 00 00 00 	mov    DWORD PTR [esp],0x1
 804913a:	e8 21 f3 ff ff       	call   8048460
 804913f:	c7 04 24 4b 00 00 00 	mov    DWORD PTR [esp],0x4b
 8049146:	e8 05 f3 ff ff       	call   8048450
 804914b:	c7 04 24 44 00 00 00 	mov    DWORD PTR [esp],0x44
 8049152:	e8 f9 f2 ff ff       	call   8048450
 8049157:	90                   	nop
 8049158:	83 c6 01             	add    esi,0x1
 804915b:	8b 04 f5 80 60 08 08 	mov    eax,DWORD PTR [esi*8+0x8086080]
 8049162:	8b 14 f5 84 60 08 08 	mov    edx,DWORD PTR [esi*8+0x8086084]
 8049169:	2b 04 f5 78 60 08 08 	sub    eax,DWORD PTR [esi*8+0x8086078]
 8049170:	1b 14 f5 7c 60 08 08 	sbb    edx,DWORD PTR [esi*8+0x808607c]
 8049177:	c7 44 24 04 b9 ff 06 	mov    DWORD PTR [esp+0x4],0x806ffb9
 804917e:	08 
 804917f:	89 44 24 08          	mov    DWORD PTR [esp+0x8],eax
 8049183:	89 54 24 0c          	mov    DWORD PTR [esp+0xc],edx
 8049187:	c7 04 24 01 00 00 00 	mov    DWORD PTR [esp],0x1
 804918e:	e8 cd f2 ff ff       	call   8048460
 8049193:	83 fe 14             	cmp    esi,0x14
 8049196:	75 c0                	jne    8049158
 8049198:	c7 04 24 0a 00 00 00 	mov    DWORD PTR [esp],0xa
 804919f:	bf 41 61 88 08       	mov    edi,0x8886141
 80491a4:	e8 a7 f2 ff ff       	call   8048450
 80491a9:	a1 40 60 08 08       	mov    eax,ds:0x8086040
 80491ae:	89 04 24             	mov    DWORD PTR [esp],eax
 80491b1:	e8 4a f2 ff ff       	call   8048400
 80491b6:	66 90                	xchg   ax,ax
 80491b8:	31 f6                	xor    esi,esi
 80491ba:	8d b6 00 00 00 00    	lea    esi,[esi]
 80491c0:	e8 ab f2 ff ff       	call   8048470
 80491c5:	88 04 37             	mov    BYTE PTR [edi+esi],al
 80491c8:	83 c6 01             	add    esi,0x1
 80491cb:	83 fe 20             	cmp    esi,0x20
 80491ce:	75 f0                	jne    80491c0
 80491d0:	66 31 f6             	xor    si,si
 80491d3:	90                   	nop
 80491d4:	8d 74 26 00          	lea    esi,[esi]
 80491d8:	e8 93 f2 ff ff       	call   8048470
 80491dd:	83 c6 01             	add    esi,0x1
 80491e0:	88 86 40 65 88 08    	mov    BYTE PTR [esi+0x8886540],al
 80491e6:	83 fe 10             	cmp    esi,0x10
 80491e9:	75 ed                	jne    80491d8
 80491eb:	66 31 f6             	xor    si,si
 80491ee:	66 90                	xchg   ax,ax
 80491f0:	e8 7b f2 ff ff       	call   8048470
 80491f5:	83 c6 01             	add    esi,0x1
 80491f8:	88 86 40 69 88 08    	mov    BYTE PTR [esi+0x8886940],al
 80491fe:	83 fe 10             	cmp    esi,0x10
 8049201:	75 ed                	jne    80491f0
 8049203:	66 31 f6             	xor    si,si
 8049206:	85 db                	test   ebx,ebx
 8049208:	74 18                	je     8049222
 804920a:	8d b6 00 00 00 00    	lea    esi,[esi]
 8049210:	e8 5b f2 ff ff       	call   8048470
 8049215:	83 c6 01             	add    esi,0x1
 8049218:	88 86 40 6d 88 08    	mov    BYTE PTR [esi+0x8886d40],al
 804921e:	39 de                	cmp    esi,ebx
 8049220:	75 ee                	jne    8049210
 8049222:	89 3c 24             	mov    DWORD PTR [esp],edi
 8049225:	83 c7 20             	add    edi,0x20
 8049228:	e8 f3 57 02 00       	call   806ea20
 804922d:	81 ff e1 63 88 08    	cmp    edi,0x88863e1
 8049233:	75 83                	jne    80491b8
 8049235:	e8 66 56 02 00       	call   806e8a0
 804923a:	b9 41 61 88 08       	mov    ecx,0x8886141
 804923f:	90                   	nop
 8049240:	31 c0                	xor    eax,eax
 8049242:	8d b6 00 00 00 00    	lea    esi,[esi]
 8049248:	0f b6 14 01          	movzx  edx,BYTE PTR [ecx+eax]
 804924c:	30 90 40 61 08 08    	xor    BYTE PTR [eax+0x8086140],dl
 8049252:	83 c0 01             	add    eax,0x1
 8049255:	83 f8 20             	cmp    eax,0x20
 8049258:	75 ee                	jne    8049248
 804925a:	83 c1 20             	add    ecx,0x20
 804925d:	81 f9 e1 63 88 08    	cmp    ecx,0x88863e1
 8049263:	75 db                	jne    8049240
 8049265:	31 c0                	xor    eax,eax
 8049267:	90                   	nop
 8049268:	0f b6 90 41 65 88 08 	movzx  edx,BYTE PTR [eax+0x8886541]
 804926f:	30 90 40 61 08 08    	xor    BYTE PTR [eax+0x8086140],dl
 8049275:	83 c0 01             	add    eax,0x1
 8049278:	83 f8 10             	cmp    eax,0x10
 804927b:	75 eb                	jne    8049268
 804927d:	30 c0                	xor    al,al
 804927f:	90                   	nop
 8049280:	0f b6 90 41 69 88 08 	movzx  edx,BYTE PTR [eax+0x8886941]
 8049287:	30 90 40 61 08 08    	xor    BYTE PTR [eax+0x8086140],dl
 804928d:	83 c0 01             	add    eax,0x1
 8049290:	83 f8 10             	cmp    eax,0x10
 8049293:	75 eb                	jne    8049280
 8049295:	85 db                	test   ebx,ebx
 8049297:	74 1b                	je     80492b4
 8049299:	30 c0                	xor    al,al
 804929b:	90                   	nop
 804929c:	8d 74 26 00          	lea    esi,[esi]
 80492a0:	0f b6 90 41 6d 88 08 	movzx  edx,BYTE PTR [eax+0x8886d41]
 80492a7:	30 90 40 61 08 08    	xor    BYTE PTR [eax+0x8086140],dl
 80492ad:	83 c0 01             	add    eax,0x1
 80492b0:	39 d8                	cmp    eax,ebx
 80492b2:	75 ec                	jne    80492a0
 80492b4:	31 f6                	xor    esi,esi
 80492b6:	66 90                	xchg   ax,ax
 80492b8:	e8 13 6c 02 00       	call   806fed0
 80492bd:	89 04 f5 80 60 08 08 	mov    DWORD PTR [esi*8+0x8086080],eax
 80492c4:	89 14 f5 84 60 08 08 	mov    DWORD PTR [esi*8+0x8086084],edx
 80492cb:	83 c6 01             	add    esi,0x1
 80492ce:	83 fe 15             	cmp    esi,0x15
 80492d1:	75 e5                	jne    80492b8
 80492d3:	31 ff                	xor    edi,edi
 80492d5:	be 41 61 88 08       	mov    esi,0x8886141
 80492da:	8d b6 00 00 00 00    	lea    esi,[esi]
 80492e0:	e8 eb 6b 02 00       	call   806fed0
 80492e5:	89 74 24 04          	mov    DWORD PTR [esp+0x4],esi
 80492e9:	83 c6 20             	add    esi,0x20
 80492ec:	89 5c 24 10          	mov    DWORD PTR [esp+0x10],ebx
 80492f0:	c7 44 24 0c 41 6d 88 	mov    DWORD PTR [esp+0xc],0x8886d41
 80492f7:	08 
 80492f8:	c7 44 24 08 41 65 88 	mov    DWORD PTR [esp+0x8],0x8886541
 80492ff:	08 
 8049300:	c7 04 24 41 69 88 08 	mov    DWORD PTR [esp],0x8886941
 8049307:	89 04 fd 80 60 08 08 	mov    DWORD PTR [edi*8+0x8086080],eax
 804930e:	89 14 fd 84 60 08 08 	mov    DWORD PTR [edi*8+0x8086084],edx
 8049315:	83 c7 01             	add    edi,0x1
 8049318:	e8 73 57 02 00       	call   806ea90
 804931d:	81 fe e1 63 88 08    	cmp    esi,0x88863e1
 8049323:	75 bb                	jne    80492e0
 8049325:	89 5c 24 08          	mov    DWORD PTR [esp+0x8],ebx
 8049329:	31 f6                	xor    esi,esi
 804932b:	c7 44 24 04 af ff 06 	mov    DWORD PTR [esp+0x4],0x806ffaf
 8049332:	08 
 8049333:	c7 04 24 01 00 00 00 	mov    DWORD PTR [esp],0x1
 804933a:	e8 21 f1 ff ff       	call   8048460
 804933f:	c7 04 24 41 00 00 00 	mov    DWORD PTR [esp],0x41
 8049346:	e8 05 f1 ff ff       	call   8048450
 804934b:	c7 44 24 04 c0 ff 06 	mov    DWORD PTR [esp+0x4],0x806ffc0
 8049352:	08 
 8049353:	c7 04 24 01 00 00 00 	mov    DWORD PTR [esp],0x1
 804935a:	e8 01 f1 ff ff       	call   8048460
 804935f:	c7 04 24 4b 00 00 00 	mov    DWORD PTR [esp],0x4b
 8049366:	e8 e5 f0 ff ff       	call   8048450
 804936b:	c7 04 24 44 00 00 00 	mov    DWORD PTR [esp],0x44
 8049372:	e8 d9 f0 ff ff       	call   8048450
 8049377:	90                   	nop
 8049378:	83 c6 01             	add    esi,0x1
 804937b:	8b 04 f5 80 60 08 08 	mov    eax,DWORD PTR [esi*8+0x8086080]
 8049382:	8b 14 f5 84 60 08 08 	mov    edx,DWORD PTR [esi*8+0x8086084]
 8049389:	2b 04 f5 78 60 08 08 	sub    eax,DWORD PTR [esi*8+0x8086078]
 8049390:	1b 14 f5 7c 60 08 08 	sbb    edx,DWORD PTR [esi*8+0x808607c]
 8049397:	c7 44 24 04 b9 ff 06 	mov    DWORD PTR [esp+0x4],0x806ffb9
 804939e:	08 
 804939f:	89 44 24 08          	mov    DWORD PTR [esp+0x8],eax
 80493a3:	89 54 24 0c          	mov    DWORD PTR [esp+0xc],edx
 80493a7:	c7 04 24 01 00 00 00 	mov    DWORD PTR [esp],0x1
 80493ae:	e8 ad f0 ff ff       	call   8048460
 80493b3:	83 fe 14             	cmp    esi,0x14
 80493b6:	75 c0                	jne    8049378
 80493b8:	c7 04 24 0a 00 00 00 	mov    DWORD PTR [esp],0xa
 80493bf:	bf 41 61 88 08       	mov    edi,0x8886141
 80493c4:	e8 87 f0 ff ff       	call   8048450
 80493c9:	a1 40 60 08 08       	mov    eax,ds:0x8086040
 80493ce:	89 04 24             	mov    DWORD PTR [esp],eax
 80493d1:	e8 2a f0 ff ff       	call   8048400
 80493d6:	66 90                	xchg   ax,ax
 80493d8:	31 f6                	xor    esi,esi
 80493da:	8d b6 00 00 00 00    	lea    esi,[esi]
 80493e0:	e8 8b f0 ff ff       	call   8048470
 80493e5:	88 04 37             	mov    BYTE PTR [edi+esi],al
 80493e8:	83 c6 01             	add    esi,0x1
 80493eb:	83 fe 20             	cmp    esi,0x20
 80493ee:	75 f0                	jne    80493e0
 80493f0:	66 31 f6             	xor    si,si
 80493f3:	90                   	nop
 80493f4:	8d 74 26 00          	lea    esi,[esi]
 80493f8:	e8 73 f0 ff ff       	call   8048470
 80493fd:	83 c6 01             	add    esi,0x1
 8049400:	88 86 40 65 88 08    	mov    BYTE PTR [esi+0x8886540],al
 8049406:	83 fe 10             	cmp    esi,0x10
 8049409:	75 ed                	jne    80493f8
 804940b:	66 31 f6             	xor    si,si
 804940e:	66 90                	xchg   ax,ax
 8049410:	e8 5b f0 ff ff       	call   8048470
 8049415:	83 c6 01             	add    esi,0x1
 8049418:	88 86 40 69 88 08    	mov    BYTE PTR [esi+0x8886940],al
 804941e:	83 fe 10             	cmp    esi,0x10
 8049421:	75 ed                	jne    8049410
 8049423:	66 31 f6             	xor    si,si
 8049426:	85 db                	test   ebx,ebx
 8049428:	74 18                	je     8049442
 804942a:	8d b6 00 00 00 00    	lea    esi,[esi]
 8049430:	e8 3b f0 ff ff       	call   8048470
 8049435:	83 c6 01             	add    esi,0x1
 8049438:	88 86 40 6d 88 08    	mov    BYTE PTR [esi+0x8886d40],al
 804943e:	39 de                	cmp    esi,ebx
 8049440:	75 ee                	jne    8049430
 8049442:	89 3c 24             	mov    DWORD PTR [esp],edi
 8049445:	83 c7 20             	add    edi,0x20
 8049448:	e8 d3 55 02 00       	call   806ea20
 804944d:	81 ff e1 63 88 08    	cmp    edi,0x88863e1
 8049453:	75 83                	jne    80493d8
 8049455:	e8 46 54 02 00       	call   806e8a0
 804945a:	b9 41 61 88 08       	mov    ecx,0x8886141
 804945f:	90                   	nop
 8049460:	31 c0                	xor    eax,eax
 8049462:	8d b6 00 00 00 00    	lea    esi,[esi]
 8049468:	0f b6 14 01          	movzx  edx,BYTE PTR [ecx+eax]
 804946c:	30 90 40 61 08 08    	xor    BYTE PTR [eax+0x8086140],dl
 8049472:	83 c0 01             	add    eax,0x1
 8049475:	83 f8 20             	cmp    eax,0x20
 8049478:	75 ee                	jne    8049468
 804947a:	83 c1 20             	add    ecx,0x20
 804947d:	81 f9 e1 63 88 08    	cmp    ecx,0x88863e1
 8049483:	75 db                	jne    8049460
 8049485:	31 c0                	xor    eax,eax
 8049487:	90                   	nop
 8049488:	0f b6 90 41 65 88 08 	movzx  edx,BYTE PTR [eax+0x8886541]
 804948f:	30 90 40 61 08 08    	xor    BYTE PTR [eax+0x8086140],dl
 8049495:	83 c0 01             	add    eax,0x1
 8049498:	83 f8 10             	cmp    eax,0x10
 804949b:	75 eb                	jne    8049488
 804949d:	30 c0                	xor    al,al
 804949f:	90                   	nop
 80494a0:	0f b6 90 41 69 88 08 	movzx  edx,BYTE PTR [eax+0x8886941]
 80494a7:	30 90 40 61 08 08    	xor    BYTE PTR [eax+0x8086140],dl
 80494ad:	83 c0 01             	add    eax,0x1
 80494b0:	83 f8 10             	cmp    eax,0x10
 80494b3:	75 eb                	jne    80494a0
 80494b5:	85 db                	test   ebx,ebx
 80494b7:	74 1b                	je     80494d4
 80494b9:	30 c0                	xor    al,al
 80494bb:	90                   	nop
 80494bc:	8d 74 26 00          	lea    esi,[esi]
 80494c0:	0f b6 90 41 6d 88 08 	movzx  edx,BYTE PTR [eax+0x8886d41]
 80494c7:	30 90 40 61 08 08    	xor    BYTE PTR [eax+0x8086140],dl
 80494cd:	83 c0 01             	add    eax,0x1
 80494d0:	39 d8                	cmp    eax,ebx
 80494d2:	75 ec                	jne    80494c0
 80494d4:	31 f6                	xor    esi,esi
 80494d6:	66 90                	xchg   ax,ax
 80494d8:	e8 f3 69 02 00       	call   806fed0
 80494dd:	89 04 f5 80 60 08 08 	mov    DWORD PTR [esi*8+0x8086080],eax
 80494e4:	89 14 f5 84 60 08 08 	mov    DWORD PTR [esi*8+0x8086084],edx
 80494eb:	83 c6 01             	add    esi,0x1
 80494ee:	83 fe 15             	cmp    esi,0x15
 80494f1:	75 e5                	jne    80494d8
 80494f3:	31 ff                	xor    edi,edi
 80494f5:	be 41 61 88 08       	mov    esi,0x8886141
 80494fa:	8d b6 00 00 00 00    	lea    esi,[esi]
 8049500:	e8 cb 69 02 00       	call   806fed0
 8049505:	89 74 24 04          	mov    DWORD PTR [esp+0x4],esi
 8049509:	83 c6 20             	add    esi,0x20
 804950c:	89 5c 24 10          	mov    DWORD PTR [esp+0x10],ebx
 8049510:	c7 44 24 0c 41 6d 88 	mov    DWORD PTR [esp+0xc],0x8886d41
 8049517:	08 
 8049518:	c7 44 24 08 41 65 88 	mov    DWORD PTR [esp+0x8],0x8886541
 804951f:	08 
 8049520:	c7 04 24 41 69 88 08 	mov    DWORD PTR [esp],0x8886941
 8049527:	89 04 fd 80 60 08 08 	mov    DWORD PTR [edi*8+0x8086080],eax
 804952e:	89 14 fd 84 60 08 08 	mov    DWORD PTR [edi*8+0x8086084],edx
 8049535:	83 c7 01             	add    edi,0x1
 8049538:	e8 53 55 02 00       	call   806ea90
 804953d:	81 fe e1 63 88 08    	cmp    esi,0x88863e1
 8049543:	75 bb                	jne    8049500
 8049545:	89 5c 24 08          	mov    DWORD PTR [esp+0x8],ebx
 8049549:	31 f6                	xor    esi,esi
 804954b:	c7 44 24 04 af ff 06 	mov    DWORD PTR [esp+0x4],0x806ffaf
 8049552:	08 
 8049553:	c7 04 24 01 00 00 00 	mov    DWORD PTR [esp],0x1
 804955a:	e8 01 ef ff ff       	call   8048460
 804955f:	c7 04 24 41 00 00 00 	mov    DWORD PTR [esp],0x41
 8049566:	e8 e5 ee ff ff       	call   8048450
 804956b:	c7 44 24 04 c0 ff 06 	mov    DWORD PTR [esp+0x4],0x806ffc0
 8049572:	08 
 8049573:	c7 04 24 01 00 00 00 	mov    DWORD PTR [esp],0x1
 804957a:	e8 e1 ee ff ff       	call   8048460
 804957f:	c7 04 24 4b 00 00 00 	mov    DWORD PTR [esp],0x4b
 8049586:	e8 c5 ee ff ff       	call   8048450
 804958b:	c7 04 24 44 00 00 00 	mov    DWORD PTR [esp],0x44
 8049592:	e8 b9 ee ff ff       	call   8048450
 8049597:	90                   	nop
 8049598:	83 c6 01             	add    esi,0x1
 804959b:	8b 04 f5 80 60 08 08 	mov    eax,DWORD PTR [esi*8+0x8086080]
 80495a2:	8b 14 f5 84 60 08 08 	mov    edx,DWORD PTR [esi*8+0x8086084]
 80495a9:	2b 04 f5 78 60 08 08 	sub    eax,DWORD PTR [esi*8+0x8086078]
 80495b0:	1b 14 f5 7c 60 08 08 	sbb    edx,DWORD PTR [esi*8+0x808607c]
 80495b7:	c7 44 24 04 b9 ff 06 	mov    DWORD PTR [esp+0x4],0x806ffb9
 80495be:	08 
 80495bf:	89 44 24 08          	mov    DWORD PTR [esp+0x8],eax
 80495c3:	89 54 24 0c          	mov    DWORD PTR [esp+0xc],edx
 80495c7:	c7 04 24 01 00 00 00 	mov    DWORD PTR [esp],0x1
 80495ce:	e8 8d ee ff ff       	call   8048460
 80495d3:	83 fe 14             	cmp    esi,0x14
 80495d6:	75 c0                	jne    8049598
 80495d8:	c7 04 24 0a 00 00 00 	mov    DWORD PTR [esp],0xa
 80495df:	bf 41 61 88 08       	mov    edi,0x8886141
 80495e4:	e8 67 ee ff ff       	call   8048450
 80495e9:	a1 40 60 08 08       	mov    eax,ds:0x8086040
 80495ee:	89 04 24             	mov    DWORD PTR [esp],eax
 80495f1:	e8 0a ee ff ff       	call   8048400
 80495f6:	66 90                	xchg   ax,ax
 80495f8:	31 f6                	xor    esi,esi
 80495fa:	8d b6 00 00 00 00    	lea    esi,[esi]
 8049600:	e8 6b ee ff ff       	call   8048470
 8049605:	88 04 37             	mov    BYTE PTR [edi+esi],al
 8049608:	83 c6 01             	add    esi,0x1
 804960b:	83 fe 20             	cmp    esi,0x20
 804960e:	75 f0                	jne    8049600
 8049610:	66 31 f6             	xor    si,si
 8049613:	90                   	nop
 8049614:	8d 74 26 00          	lea    esi,[esi]
 8049618:	e8 53 ee ff ff       	call   8048470
 804961d:	83 c6 01             	add    esi,0x1
 8049620:	88 86 40 65 88 08    	mov    BYTE PTR [esi+0x8886540],al
 8049626:	83 fe 10             	cmp    esi,0x10
 8049629:	75 ed                	jne    8049618
 804962b:	66 31 f6             	xor    si,si
 804962e:	66 90                	xchg   ax,ax
 8049630:	e8 3b ee ff ff       	call   8048470
 8049635:	83 c6 01             	add    esi,0x1
 8049638:	88 86 40 69 88 08    	mov    BYTE PTR [esi+0x8886940],al
 804963e:	83 fe 10             	cmp    esi,0x10
 8049641:	75 ed                	jne    8049630
 8049643:	66 31 f6             	xor    si,si
 8049646:	85 db                	test   ebx,ebx
 8049648:	74 18                	je     8049662
 804964a:	8d b6 00 00 00 00    	lea    esi,[esi]
 8049650:	e8 1b ee ff ff       	call   8048470
 8049655:	83 c6 01             	add    esi,0x1
 8049658:	88 86 40 6d 88 08    	mov    BYTE PTR [esi+0x8886d40],al
 804965e:	39 de                	cmp    esi,ebx
 8049660:	75 ee                	jne    8049650
 8049662:	89 3c 24             	mov    DWORD PTR [esp],edi
 8049665:	83 c7 20             	add    edi,0x20
 8049668:	e8 b3 53 02 00       	call   806ea20
 804966d:	81 ff e1 63 88 08    	cmp    edi,0x88863e1
 8049673:	75 83                	jne    80495f8
 8049675:	e8 26 52 02 00       	call   806e8a0
 804967a:	b9 41 61 88 08       	mov    ecx,0x8886141
 804967f:	90                   	nop
 8049680:	31 c0                	xor    eax,eax
 8049682:	8d b6 00 00 00 00    	lea    esi,[esi]
 8049688:	0f b6 14 01          	movzx  edx,BYTE PTR [ecx+eax]
 804968c:	30 90 40 61 08 08    	xor    BYTE PTR [eax+0x8086140],dl
 8049692:	83 c0 01             	add    eax,0x1
 8049695:	83 f8 20             	cmp    eax,0x20
 8049698:	75 ee                	jne    8049688
 804969a:	83 c1 20             	add    ecx,0x20
 804969d:	81 f9 e1 63 88 08    	cmp    ecx,0x88863e1
 80496a3:	75 db                	jne    8049680
 80496a5:	31 c0                	xor    eax,eax
 80496a7:	90                   	nop
 80496a8:	0f b6 90 41 65 88 08 	movzx  edx,BYTE PTR [eax+0x8886541]
 80496af:	30 90 40 61 08 08    	xor    BYTE PTR [eax+0x8086140],dl
 80496b5:	83 c0 01             	add    eax,0x1
 80496b8:	83 f8 10             	cmp    eax,0x10
 80496bb:	75 eb                	jne    80496a8
 80496bd:	30 c0                	xor    al,al
 80496bf:	90                   	nop
 80496c0:	0f b6 90 41 69 88 08 	movzx  edx,BYTE PTR [eax+0x8886941]
 80496c7:	30 90 40 61 08 08    	xor    BYTE PTR [eax+0x8086140],dl
 80496cd:	83 c0 01             	add    eax,0x1
 80496d0:	83 f8 10             	cmp    eax,0x10
 80496d3:	75 eb                	jne    80496c0
 80496d5:	85 db                	test   ebx,ebx
 80496d7:	74 1b                	je     80496f4
 80496d9:	30 c0                	xor    al,al
 80496db:	90                   	nop
 80496dc:	8d 74 26 00          	lea    esi,[esi]
 80496e0:	0f b6 90 41 6d 88 08 	movzx  edx,BYTE PTR [eax+0x8886d41]
 80496e7:	30 90 40 61 08 08    	xor    BYTE PTR [eax+0x8086140],dl
 80496ed:	83 c0 01             	add    eax,0x1
 80496f0:	39 d8                	cmp    eax,ebx
 80496f2:	75 ec                	jne    80496e0
 80496f4:	31 f6                	xor    esi,esi
 80496f6:	66 90                	xchg   ax,ax
 80496f8:	e8 d3 67 02 00       	call   806fed0
 80496fd:	89 04 f5 80 60 08 08 	mov    DWORD PTR [esi*8+0x8086080],eax
 8049704:	89 14 f5 84 60 08 08 	mov    DWORD PTR [esi*8+0x8086084],edx
 804970b:	83 c6 01             	add    esi,0x1
 804970e:	83 fe 15             	cmp    esi,0x15
 8049711:	75 e5                	jne    80496f8
 8049713:	31 ff                	xor    edi,edi
 8049715:	be 41 61 88 08       	mov    esi,0x8886141
 804971a:	8d b6 00 00 00 00    	lea    esi,[esi]
 8049720:	e8 ab 67 02 00       	call   806fed0
 8049725:	89 74 24 04          	mov    DWORD PTR [esp+0x4],esi
 8049729:	83 c6 20             	add    esi,0x20
 804972c:	89 5c 24 10          	mov    DWORD PTR [esp+0x10],ebx
 8049730:	c7 44 24 0c 41 6d 88 	mov    DWORD PTR [esp+0xc],0x8886d41
 8049737:	08 
 8049738:	c7 44 24 08 41 65 88 	mov    DWORD PTR [esp+0x8],0x8886541
 804973f:	08 
 8049740:	c7 04 24 41 69 88 08 	mov    DWORD PTR [esp],0x8886941
 8049747:	89 04 fd 80 60 08 08 	mov    DWORD PTR [edi*8+0x8086080],eax
 804974e:	89 14 fd 84 60 08 08 	mov    DWORD PTR [edi*8+0x8086084],edx
 8049755:	83 c7 01             	add    edi,0x1
 8049758:	e8 33 53 02 00       	call   806ea90
 804975d:	81 fe e1 63 88 08    	cmp    esi,0x88863e1
 8049763:	75 bb                	jne    8049720
 8049765:	89 5c 24 08          	mov    DWORD PTR [esp+0x8],ebx
 8049769:	31 f6                	xor    esi,esi
 804976b:	c7 44 24 04 af ff 06 	mov    DWORD PTR [esp+0x4],0x806ffaf
 8049772:	08 
 8049773:	c7 04 24 01 00 00 00 	mov    DWORD PTR [esp],0x1
 804977a:	e8 e1 ec ff ff       	call   8048460
 804977f:	c7 04 24 41 00 00 00 	mov    DWORD PTR [esp],0x41
 8049786:	e8 c5 ec ff ff       	call   8048450
 804978b:	c7 44 24 04 c0 ff 06 	mov    DWORD PTR [esp+0x4],0x806ffc0
 8049792:	08 
 8049793:	c7 04 24 01 00 00 00 	mov    DWORD PTR [esp],0x1
 804979a:	e8 c1 ec ff ff       	call   8048460
 804979f:	c7 04 24 4b 00 00 00 	mov    DWORD PTR [esp],0x4b
 80497a6:	e8 a5 ec ff ff       	call   8048450
 80497ab:	c7 04 24 44 00 00 00 	mov    DWORD PTR [esp],0x44
 80497b2:	e8 99 ec ff ff       	call   8048450
 80497b7:	90                   	nop
 80497b8:	83 c6 01             	add    esi,0x1
 80497bb:	8b 04 f5 80 60 08 08 	mov    eax,DWORD PTR [esi*8+0x8086080]
 80497c2:	8b 14 f5 84 60 08 08 	mov    edx,DWORD PTR [esi*8+0x8086084]
 80497c9:	2b 04 f5 78 60 08 08 	sub    eax,DWORD PTR [esi*8+0x8086078]
 80497d0:	1b 14 f5 7c 60 08 08 	sbb    edx,DWORD PTR [esi*8+0x808607c]
 80497d7:	c7 44 24 04 b9 ff 06 	mov    DWORD PTR [esp+0x4],0x806ffb9
 80497de:	08 
 80497df:	89 44 24 08          	mov    DWORD PTR [esp+0x8],eax
 80497e3:	89 54 24 0c          	mov    DWORD PTR [esp+0xc],edx
 80497e7:	c7 04 24 01 00 00 00 	mov    DWORD PTR [esp],0x1
 80497ee:	e8 6d ec ff ff       	call   8048460
 80497f3:	83 fe 14             	cmp    esi,0x14
 80497f6:	75 c0                	jne    80497b8
 80497f8:	c7 04 24 0a 00 00 00 	mov    DWORD PTR [esp],0xa
 80497ff:	bf 41 61 88 08       	mov    edi,0x8886141
 8049804:	e8 47 ec ff ff       	call   8048450
 8049809:	a1 40 60 08 08       	mov    eax,ds:0x8086040
 804980e:	89 04 24             	mov    DWORD PTR [esp],eax
 8049811:	e8 ea eb ff ff       	call   8048400
 8049816:	66 90                	xchg   ax,ax
 8049818:	31 f6                	xor    esi,esi
 804981a:	8d b6 00 00 00 00    	lea    esi,[esi]
 8049820:	e8 4b ec ff ff       	call   8048470
 8049825:	88 04 37             	mov    BYTE PTR [edi+esi],al
 8049828:	83 c6 01             	add    esi,0x1
 804982b:	83 fe 20             	cmp    esi,0x20
 804982e:	75 f0                	jne    8049820
 8049830:	66 31 f6             	xor    si,si
 8049833:	90                   	nop
 8049834:	8d 74 26 00          	lea    esi,[esi]
 8049838:	e8 33 ec ff ff       	call   8048470
 804983d:	83 c6 01             	add    esi,0x1
 8049840:	88 86 40 65 88 08    	mov    BYTE PTR [esi+0x8886540],al
 8049846:	83 fe 10             	cmp    esi,0x10
 8049849:	75 ed                	jne    8049838
 804984b:	66 31 f6             	xor    si,si
 804984e:	66 90                	xchg   ax,ax
 8049850:	e8 1b ec ff ff       	call   8048470
 8049855:	83 c6 01             	add    esi,0x1
 8049858:	88 86 40 69 88 08    	mov    BYTE PTR [esi+0x8886940],al
 804985e:	83 fe 10             	cmp    esi,0x10
 8049861:	75 ed                	jne    8049850
 8049863:	66 31 f6             	xor    si,si
 8049866:	85 db                	test   ebx,ebx
 8049868:	74 18                	je     8049882
 804986a:	8d b6 00 00 00 00    	lea    esi,[esi]
 8049870:	e8 fb eb ff ff       	call   8048470
 8049875:	83 c6 01             	add    esi,0x1
 8049878:	88 86 40 6d 88 08    	mov    BYTE PTR [esi+0x8886d40],al
 804987e:	39 de                	cmp    esi,ebx
 8049880:	75 ee                	jne    8049870
 8049882:	89 3c 24             	mov    DWORD PTR [esp],edi
 8049885:	83 c7 20             	add    edi,0x20
 8049888:	e8 93 51 02 00       	call   806ea20
 804988d:	81 ff e1 63 88 08    	cmp    edi,0x88863e1
 8049893:	75 83                	jne    8049818
 8049895:	e8 06 50 02 00       	call   806e8a0
 804989a:	b9 41 61 88 08       	mov    ecx,0x8886141
 804989f:	90                   	nop
 80498a0:	31 c0                	xor    eax,eax
 80498a2:	8d b6 00 00 00 00    	lea    esi,[esi]
 80498a8:	0f b6 14 01          	movzx  edx,BYTE PTR [ecx+eax]
 80498ac:	30 90 40 61 08 08    	xor    BYTE PTR [eax+0x8086140],dl
 80498b2:	83 c0 01             	add    eax,0x1
 80498b5:	83 f8 20             	cmp    eax,0x20
 80498b8:	75 ee                	jne    80498a8
 80498ba:	83 c1 20             	add    ecx,0x20
 80498bd:	81 f9 e1 63 88 08    	cmp    ecx,0x88863e1
 80498c3:	75 db                	jne    80498a0
 80498c5:	31 c0                	xor    eax,eax
 80498c7:	90                   	nop
 80498c8:	0f b6 90 41 65 88 08 	movzx  edx,BYTE PTR [eax+0x8886541]
 80498cf:	30 90 40 61 08 08    	xor    BYTE PTR [eax+0x8086140],dl
 80498d5:	83 c0 01             	add    eax,0x1
 80498d8:	83 f8 10             	cmp    eax,0x10
 80498db:	75 eb                	jne    80498c8
 80498dd:	30 c0                	xor    al,al
 80498df:	90                   	nop
 80498e0:	0f b6 90 41 69 88 08 	movzx  edx,BYTE PTR [eax+0x8886941]
 80498e7:	30 90 40 61 08 08    	xor    BYTE PTR [eax+0x8086140],dl
 80498ed:	83 c0 01             	add    eax,0x1
 80498f0:	83 f8 10             	cmp    eax,0x10
 80498f3:	75 eb                	jne    80498e0
 80498f5:	85 db                	test   ebx,ebx
 80498f7:	74 1b                	je     8049914
 80498f9:	30 c0                	xor    al,al
 80498fb:	90                   	nop
 80498fc:	8d 74 26 00          	lea    esi,[esi]
 8049900:	0f b6 90 41 6d 88 08 	movzx  edx,BYTE PTR [eax+0x8886d41]
 8049907:	30 90 40 61 08 08    	xor    BYTE PTR [eax+0x8086140],dl
 804990d:	83 c0 01             	add    eax,0x1
 8049910:	39 d8                	cmp    eax,ebx
 8049912:	75 ec                	jne    8049900
 8049914:	31 f6                	xor    esi,esi
 8049916:	66 90                	xchg   ax,ax
 8049918:	e8 b3 65 02 00       	call   806fed0
 804991d:	89 04 f5 80 60 08 08 	mov    DWORD PTR [esi*8+0x8086080],eax
 8049924:	89 14 f5 84 60 08 08 	mov    DWORD PTR [esi*8+0x8086084],edx
 804992b:	83 c6 01             	add    esi,0x1
 804992e:	83 fe 15             	cmp    esi,0x15
 8049931:	75 e5                	jne    8049918
 8049933:	31 ff                	xor    edi,edi
 8049935:	be 41 61 88 08       	mov    esi,0x8886141
 804993a:	8d b6 00 00 00 00    	lea    esi,[esi]
 8049940:	e8 8b 65 02 00       	call   806fed0
 8049945:	89 74 24 04          	mov    DWORD PTR [esp+0x4],esi
 8049949:	83 c6 20             	add    esi,0x20
 804994c:	89 5c 24 10          	mov    DWORD PTR [esp+0x10],ebx
 8049950:	c7 44 24 0c 41 6d 88 	mov    DWORD PTR [esp+0xc],0x8886d41
 8049957:	08 
 8049958:	c7 44 24 08 41 65 88 	mov    DWORD PTR [esp+0x8],0x8886541
 804995f:	08 
 8049960:	c7 04 24 41 69 88 08 	mov    DWORD PTR [esp],0x8886941
 8049967:	89 04 fd 80 60 08 08 	mov    DWORD PTR [edi*8+0x8086080],eax
 804996e:	89 14 fd 84 60 08 08 	mov    DWORD PTR [edi*8+0x8086084],edx
 8049975:	83 c7 01             	add    edi,0x1
 8049978:	e8 d3 4f 02 00       	call   806e950
 804997d:	81 fe e1 63 88 08    	cmp    esi,0x88863e1
 8049983:	75 bb                	jne    8049940
 8049985:	89 5c 24 08          	mov    DWORD PTR [esp+0x8],ebx
 8049989:	31 f6                	xor    esi,esi
 804998b:	c7 44 24 04 af ff 06 	mov    DWORD PTR [esp+0x4],0x806ffaf
 8049992:	08 
 8049993:	c7 04 24 01 00 00 00 	mov    DWORD PTR [esp],0x1
 804999a:	e8 c1 ea ff ff       	call   8048460
 804999f:	c7 04 24 56 00 00 00 	mov    DWORD PTR [esp],0x56
 80499a6:	e8 a5 ea ff ff       	call   8048450
 80499ab:	c7 44 24 04 c0 ff 06 	mov    DWORD PTR [esp+0x4],0x806ffc0
 80499b2:	08 
 80499b3:	c7 04 24 01 00 00 00 	mov    DWORD PTR [esp],0x1
 80499ba:	e8 a1 ea ff ff       	call   8048460
 80499bf:	c7 04 24 4b 00 00 00 	mov    DWORD PTR [esp],0x4b
 80499c6:	e8 85 ea ff ff       	call   8048450
 80499cb:	c7 04 24 44 00 00 00 	mov    DWORD PTR [esp],0x44
 80499d2:	e8 79 ea ff ff       	call   8048450
 80499d7:	90                   	nop
 80499d8:	83 c6 01             	add    esi,0x1
 80499db:	8b 04 f5 80 60 08 08 	mov    eax,DWORD PTR [esi*8+0x8086080]
 80499e2:	8b 14 f5 84 60 08 08 	mov    edx,DWORD PTR [esi*8+0x8086084]
 80499e9:	2b 04 f5 78 60 08 08 	sub    eax,DWORD PTR [esi*8+0x8086078]
 80499f0:	1b 14 f5 7c 60 08 08 	sbb    edx,DWORD PTR [esi*8+0x808607c]
 80499f7:	c7 44 24 04 b9 ff 06 	mov    DWORD PTR [esp+0x4],0x806ffb9
 80499fe:	08 
 80499ff:	89 44 24 08          	mov    DWORD PTR [esp+0x8],eax
 8049a03:	89 54 24 0c          	mov    DWORD PTR [esp+0xc],edx
 8049a07:	c7 04 24 01 00 00 00 	mov    DWORD PTR [esp],0x1
 8049a0e:	e8 4d ea ff ff       	call   8048460
 8049a13:	83 fe 14             	cmp    esi,0x14
 8049a16:	75 c0                	jne    80499d8
 8049a18:	c7 04 24 0a 00 00 00 	mov    DWORD PTR [esp],0xa
 8049a1f:	bf 41 61 88 08       	mov    edi,0x8886141
 8049a24:	e8 27 ea ff ff       	call   8048450
 8049a29:	a1 40 60 08 08       	mov    eax,ds:0x8086040
 8049a2e:	89 04 24             	mov    DWORD PTR [esp],eax
 8049a31:	e8 ca e9 ff ff       	call   8048400
 8049a36:	66 90                	xchg   ax,ax
 8049a38:	31 f6                	xor    esi,esi
 8049a3a:	8d b6 00 00 00 00    	lea    esi,[esi]
 8049a40:	e8 2b ea ff ff       	call   8048470
 8049a45:	88 04 37             	mov    BYTE PTR [edi+esi],al
 8049a48:	83 c6 01             	add    esi,0x1
 8049a4b:	83 fe 20             	cmp    esi,0x20
 8049a4e:	75 f0                	jne    8049a40
 8049a50:	66 31 f6             	xor    si,si
 8049a53:	90                   	nop
 8049a54:	8d 74 26 00          	lea    esi,[esi]
 8049a58:	e8 13 ea ff ff       	call   8048470
 8049a5d:	83 c6 01             	add    esi,0x1
 8049a60:	88 86 40 65 88 08    	mov    BYTE PTR [esi+0x8886540],al
 8049a66:	83 fe 10             	cmp    esi,0x10
 8049a69:	75 ed                	jne    8049a58
 8049a6b:	66 31 f6             	xor    si,si
 8049a6e:	66 90                	xchg   ax,ax
 8049a70:	e8 fb e9 ff ff       	call   8048470
 8049a75:	83 c6 01             	add    esi,0x1
 8049a78:	88 86 40 69 88 08    	mov    BYTE PTR [esi+0x8886940],al
 8049a7e:	83 fe 10             	cmp    esi,0x10
 8049a81:	75 ed                	jne    8049a70
 8049a83:	66 31 f6             	xor    si,si
 8049a86:	85 db                	test   ebx,ebx
 8049a88:	74 18                	je     8049aa2
 8049a8a:	8d b6 00 00 00 00    	lea    esi,[esi]
 8049a90:	e8 db e9 ff ff       	call   8048470
 8049a95:	83 c6 01             	add    esi,0x1
 8049a98:	88 86 40 6d 88 08    	mov    BYTE PTR [esi+0x8886d40],al
 8049a9e:	39 de                	cmp    esi,ebx
 8049aa0:	75 ee                	jne    8049a90
 8049aa2:	89 3c 24             	mov    DWORD PTR [esp],edi
 8049aa5:	83 c7 20             	add    edi,0x20
 8049aa8:	e8 73 4f 02 00       	call   806ea20
 8049aad:	81 ff e1 63 88 08    	cmp    edi,0x88863e1
 8049ab3:	75 83                	jne    8049a38
 8049ab5:	e8 e6 4d 02 00       	call   806e8a0
 8049aba:	b9 41 61 88 08       	mov    ecx,0x8886141
 8049abf:	90                   	nop
 8049ac0:	31 c0                	xor    eax,eax
 8049ac2:	8d b6 00 00 00 00    	lea    esi,[esi]
 8049ac8:	0f b6 14 01          	movzx  edx,BYTE PTR [ecx+eax]
 8049acc:	30 90 40 61 08 08    	xor    BYTE PTR [eax+0x8086140],dl
 8049ad2:	83 c0 01             	add    eax,0x1
 8049ad5:	83 f8 20             	cmp    eax,0x20
 8049ad8:	75 ee                	jne    8049ac8
 8049ada:	83 c1 20             	add    ecx,0x20
 8049add:	81 f9 e1 63 88 08    	cmp    ecx,0x88863e1
 8049ae3:	75 db                	jne    8049ac0
 8049ae5:	31 c0                	xor    eax,eax
 8049ae7:	90                   	nop
 8049ae8:	0f b6 90 41 65 88 08 	movzx  edx,BYTE PTR [eax+0x8886541]
 8049aef:	30 90 40 61 08 08    	xor    BYTE PTR [eax+0x8086140],dl
 8049af5:	83 c0 01             	add    eax,0x1
 8049af8:	83 f8 10             	cmp    eax,0x10
 8049afb:	75 eb                	jne    8049ae8
 8049afd:	30 c0                	xor    al,al
 8049aff:	90                   	nop
 8049b00:	0f b6 90 41 69 88 08 	movzx  edx,BYTE PTR [eax+0x8886941]
 8049b07:	30 90 40 61 08 08    	xor    BYTE PTR [eax+0x8086140],dl
 8049b0d:	83 c0 01             	add    eax,0x1
 8049b10:	83 f8 10             	cmp    eax,0x10
 8049b13:	75 eb                	jne    8049b00
 8049b15:	85 db                	test   ebx,ebx
 8049b17:	74 1b                	je     8049b34
 8049b19:	30 c0                	xor    al,al
 8049b1b:	90                   	nop
 8049b1c:	8d 74 26 00          	lea    esi,[esi]
 8049b20:	0f b6 90 41 6d 88 08 	movzx  edx,BYTE PTR [eax+0x8886d41]
 8049b27:	30 90 40 61 08 08    	xor    BYTE PTR [eax+0x8086140],dl
 8049b2d:	83 c0 01             	add    eax,0x1
 8049b30:	39 d8                	cmp    eax,ebx
 8049b32:	75 ec                	jne    8049b20
 8049b34:	31 f6                	xor    esi,esi
 8049b36:	66 90                	xchg   ax,ax
 8049b38:	e8 93 63 02 00       	call   806fed0
 8049b3d:	89 04 f5 80 60 08 08 	mov    DWORD PTR [esi*8+0x8086080],eax
 8049b44:	89 14 f5 84 60 08 08 	mov    DWORD PTR [esi*8+0x8086084],edx
 8049b4b:	83 c6 01             	add    esi,0x1
 8049b4e:	83 fe 15             	cmp    esi,0x15
 8049b51:	75 e5                	jne    8049b38
 8049b53:	31 ff                	xor    edi,edi
 8049b55:	be 41 61 88 08       	mov    esi,0x8886141
 8049b5a:	8d b6 00 00 00 00    	lea    esi,[esi]
 8049b60:	e8 6b 63 02 00       	call   806fed0
 8049b65:	89 74 24 04          	mov    DWORD PTR [esp+0x4],esi
 8049b69:	83 c6 20             	add    esi,0x20
 8049b6c:	89 5c 24 10          	mov    DWORD PTR [esp+0x10],ebx
 8049b70:	c7 44 24 0c 41 6d 88 	mov    DWORD PTR [esp+0xc],0x8886d41
 8049b77:	08 
 8049b78:	c7 44 24 08 41 65 88 	mov    DWORD PTR [esp+0x8],0x8886541
 8049b7f:	08 
 8049b80:	c7 04 24 41 69 88 08 	mov    DWORD PTR [esp],0x8886941
 8049b87:	89 04 fd 80 60 08 08 	mov    DWORD PTR [edi*8+0x8086080],eax
 8049b8e:	89 14 fd 84 60 08 08 	mov    DWORD PTR [edi*8+0x8086084],edx
 8049b95:	83 c7 01             	add    edi,0x1
 8049b98:	e8 b3 4d 02 00       	call   806e950
 8049b9d:	81 fe e1 63 88 08    	cmp    esi,0x88863e1
 8049ba3:	75 bb                	jne    8049b60
 8049ba5:	89 5c 24 08          	mov    DWORD PTR [esp+0x8],ebx
 8049ba9:	31 f6                	xor    esi,esi
 8049bab:	c7 44 24 04 af ff 06 	mov    DWORD PTR [esp+0x4],0x806ffaf
 8049bb2:	08 
 8049bb3:	c7 04 24 01 00 00 00 	mov    DWORD PTR [esp],0x1
 8049bba:	e8 a1 e8 ff ff       	call   8048460
 8049bbf:	c7 04 24 56 00 00 00 	mov    DWORD PTR [esp],0x56
 8049bc6:	e8 85 e8 ff ff       	call   8048450
 8049bcb:	c7 44 24 04 c0 ff 06 	mov    DWORD PTR [esp+0x4],0x806ffc0
 8049bd2:	08 
 8049bd3:	c7 04 24 01 00 00 00 	mov    DWORD PTR [esp],0x1
 8049bda:	e8 81 e8 ff ff       	call   8048460
 8049bdf:	c7 04 24 4b 00 00 00 	mov    DWORD PTR [esp],0x4b
 8049be6:	e8 65 e8 ff ff       	call   8048450
 8049beb:	c7 04 24 44 00 00 00 	mov    DWORD PTR [esp],0x44
 8049bf2:	e8 59 e8 ff ff       	call   8048450
 8049bf7:	90                   	nop
 8049bf8:	83 c6 01             	add    esi,0x1
 8049bfb:	8b 04 f5 80 60 08 08 	mov    eax,DWORD PTR [esi*8+0x8086080]
 8049c02:	8b 14 f5 84 60 08 08 	mov    edx,DWORD PTR [esi*8+0x8086084]
 8049c09:	2b 04 f5 78 60 08 08 	sub    eax,DWORD PTR [esi*8+0x8086078]
 8049c10:	1b 14 f5 7c 60 08 08 	sbb    edx,DWORD PTR [esi*8+0x808607c]
 8049c17:	c7 44 24 04 b9 ff 06 	mov    DWORD PTR [esp+0x4],0x806ffb9
 8049c1e:	08 
 8049c1f:	89 44 24 08          	mov    DWORD PTR [esp+0x8],eax
 8049c23:	89 54 24 0c          	mov    DWORD PTR [esp+0xc],edx
 8049c27:	c7 04 24 01 00 00 00 	mov    DWORD PTR [esp],0x1
 8049c2e:	e8 2d e8 ff ff       	call   8048460
 8049c33:	83 fe 14             	cmp    esi,0x14
 8049c36:	75 c0                	jne    8049bf8
 8049c38:	c7 04 24 0a 00 00 00 	mov    DWORD PTR [esp],0xa
 8049c3f:	bf 41 61 88 08       	mov    edi,0x8886141
 8049c44:	e8 07 e8 ff ff       	call   8048450
 8049c49:	a1 40 60 08 08       	mov    eax,ds:0x8086040
 8049c4e:	89 04 24             	mov    DWORD PTR [esp],eax
 8049c51:	e8 aa e7 ff ff       	call   8048400
 8049c56:	66 90                	xchg   ax,ax
 8049c58:	31 f6                	xor    esi,esi
 8049c5a:	8d b6 00 00 00 00    	lea    esi,[esi]
 8049c60:	e8 0b e8 ff ff       	call   8048470
 8049c65:	88 04 37             	mov    BYTE PTR [edi+esi],al
 8049c68:	83 c6 01             	add    esi,0x1
 8049c6b:	83 fe 20             	cmp    esi,0x20
 8049c6e:	75 f0                	jne    8049c60
 8049c70:	66 31 f6             	xor    si,si
 8049c73:	90                   	nop
 8049c74:	8d 74 26 00          	lea    esi,[esi]
 8049c78:	e8 f3 e7 ff ff       	call   8048470
 8049c7d:	83 c6 01             	add    esi,0x1
 8049c80:	88 86 40 65 88 08    	mov    BYTE PTR [esi+0x8886540],al
 8049c86:	83 fe 10             	cmp    esi,0x10
 8049c89:	75 ed                	jne    8049c78
 8049c8b:	66 31 f6             	xor    si,si
 8049c8e:	66 90                	xchg   ax,ax
 8049c90:	e8 db e7 ff ff       	call   8048470
 8049c95:	83 c6 01             	add    esi,0x1
 8049c98:	88 86 40 69 88 08    	mov    BYTE PTR [esi+0x8886940],al
 8049c9e:	83 fe 10             	cmp    esi,0x10
 8049ca1:	75 ed                	jne    8049c90
 8049ca3:	66 31 f6             	xor    si,si
 8049ca6:	85 db                	test   ebx,ebx
 8049ca8:	74 18                	je     8049cc2
 8049caa:	8d b6 00 00 00 00    	lea    esi,[esi]
 8049cb0:	e8 bb e7 ff ff       	call   8048470
 8049cb5:	83 c6 01             	add    esi,0x1
 8049cb8:	88 86 40 6d 88 08    	mov    BYTE PTR [esi+0x8886d40],al
 8049cbe:	39 de                	cmp    esi,ebx
 8049cc0:	75 ee                	jne    8049cb0
 8049cc2:	89 3c 24             	mov    DWORD PTR [esp],edi
 8049cc5:	83 c7 20             	add    edi,0x20
 8049cc8:	e8 53 4d 02 00       	call   806ea20
 8049ccd:	81 ff e1 63 88 08    	cmp    edi,0x88863e1
 8049cd3:	75 83                	jne    8049c58
 8049cd5:	e8 c6 4b 02 00       	call   806e8a0
 8049cda:	b9 41 61 88 08       	mov    ecx,0x8886141
 8049cdf:	90                   	nop
 8049ce0:	31 c0                	xor    eax,eax
 8049ce2:	8d b6 00 00 00 00    	lea    esi,[esi]
 8049ce8:	0f b6 14 01          	movzx  edx,BYTE PTR [ecx+eax]
 8049cec:	30 90 40 61 08 08    	xor    BYTE PTR [eax+0x8086140],dl
 8049cf2:	83 c0 01             	add    eax,0x1
 8049cf5:	83 f8 20             	cmp    eax,0x20
 8049cf8:	75 ee                	jne    8049ce8
 8049cfa:	83 c1 20             	add    ecx,0x20
 8049cfd:	81 f9 e1 63 88 08    	cmp    ecx,0x88863e1
 8049d03:	75 db                	jne    8049ce0
 8049d05:	31 c0                	xor    eax,eax
 8049d07:	90                   	nop
 8049d08:	0f b6 90 41 65 88 08 	movzx  edx,BYTE PTR [eax+0x8886541]
 8049d0f:	30 90 40 61 08 08    	xor    BYTE PTR [eax+0x8086140],dl
 8049d15:	83 c0 01             	add    eax,0x1
 8049d18:	83 f8 10             	cmp    eax,0x10
 8049d1b:	75 eb                	jne    8049d08
 8049d1d:	30 c0                	xor    al,al
 8049d1f:	90                   	nop
 8049d20:	0f b6 90 41 69 88 08 	movzx  edx,BYTE PTR [eax+0x8886941]
 8049d27:	30 90 40 61 08 08    	xor    BYTE PTR [eax+0x8086140],dl
 8049d2d:	83 c0 01             	add    eax,0x1
 8049d30:	83 f8 10             	cmp    eax,0x10
 8049d33:	75 eb                	jne    8049d20
 8049d35:	85 db                	test   ebx,ebx
 8049d37:	74 1b                	je     8049d54
 8049d39:	30 c0                	xor    al,al
 8049d3b:	90                   	nop
 8049d3c:	8d 74 26 00          	lea    esi,[esi]
 8049d40:	0f b6 90 41 6d 88 08 	movzx  edx,BYTE PTR [eax+0x8886d41]
 8049d47:	30 90 40 61 08 08    	xor    BYTE PTR [eax+0x8086140],dl
 8049d4d:	83 c0 01             	add    eax,0x1
 8049d50:	39 d8                	cmp    eax,ebx
 8049d52:	75 ec                	jne    8049d40
 8049d54:	31 f6                	xor    esi,esi
 8049d56:	66 90                	xchg   ax,ax
 8049d58:	e8 73 61 02 00       	call   806fed0
 8049d5d:	89 04 f5 80 60 08 08 	mov    DWORD PTR [esi*8+0x8086080],eax
 8049d64:	89 14 f5 84 60 08 08 	mov    DWORD PTR [esi*8+0x8086084],edx
 8049d6b:	83 c6 01             	add    esi,0x1
 8049d6e:	83 fe 15             	cmp    esi,0x15
 8049d71:	75 e5                	jne    8049d58
 8049d73:	31 ff                	xor    edi,edi
 8049d75:	be 41 61 88 08       	mov    esi,0x8886141
 8049d7a:	8d b6 00 00 00 00    	lea    esi,[esi]
 8049d80:	e8 4b 61 02 00       	call   806fed0
 8049d85:	89 74 24 04          	mov    DWORD PTR [esp+0x4],esi
 8049d89:	83 c6 20             	add    esi,0x20
 8049d8c:	89 5c 24 10          	mov    DWORD PTR [esp+0x10],ebx
 8049d90:	c7 44 24 0c 41 6d 88 	mov    DWORD PTR [esp+0xc],0x8886d41
 8049d97:	08 
 8049d98:	c7 44 24 08 41 65 88 	mov    DWORD PTR [esp+0x8],0x8886541
 8049d9f:	08 
 8049da0:	c7 04 24 41 69 88 08 	mov    DWORD PTR [esp],0x8886941
 8049da7:	89 04 fd 80 60 08 08 	mov    DWORD PTR [edi*8+0x8086080],eax
 8049dae:	89 14 fd 84 60 08 08 	mov    DWORD PTR [edi*8+0x8086084],edx
 8049db5:	83 c7 01             	add    edi,0x1
 8049db8:	e8 93 4b 02 00       	call   806e950
 8049dbd:	81 fe e1 63 88 08    	cmp    esi,0x88863e1
 8049dc3:	75 bb                	jne    8049d80
 8049dc5:	89 5c 24 08          	mov    DWORD PTR [esp+0x8],ebx
 8049dc9:	31 f6                	xor    esi,esi
 8049dcb:	c7 44 24 04 af ff 06 	mov    DWORD PTR [esp+0x4],0x806ffaf
 8049dd2:	08 
 8049dd3:	c7 04 24 01 00 00 00 	mov    DWORD PTR [esp],0x1
 8049dda:	e8 81 e6 ff ff       	call   8048460
 8049ddf:	c7 04 24 56 00 00 00 	mov    DWORD PTR [esp],0x56
 8049de6:	e8 65 e6 ff ff       	call   8048450
 8049deb:	c7 44 24 04 c0 ff 06 	mov    DWORD PTR [esp+0x4],0x806ffc0
 8049df2:	08 
 8049df3:	c7 04 24 01 00 00 00 	mov    DWORD PTR [esp],0x1
 8049dfa:	e8 61 e6 ff ff       	call   8048460
 8049dff:	c7 04 24 4b 00 00 00 	mov    DWORD PTR [esp],0x4b
 8049e06:	e8 45 e6 ff ff       	call   8048450
 8049e0b:	c7 04 24 44 00 00 00 	mov    DWORD PTR [esp],0x44
 8049e12:	e8 39 e6 ff ff       	call   8048450
 8049e17:	90                   	nop
 8049e18:	83 c6 01             	add    esi,0x1
 8049e1b:	8b 04 f5 80 60 08 08 	mov    eax,DWORD PTR [esi*8+0x8086080]
 8049e22:	8b 14 f5 84 60 08 08 	mov    edx,DWORD PTR [esi*8+0x8086084]
 8049e29:	2b 04 f5 78 60 08 08 	sub    eax,DWORD PTR [esi*8+0x8086078]
 8049e30:	1b 14 f5 7c 60 08 08 	sbb    edx,DWORD PTR [esi*8+0x808607c]
 8049e37:	c7 44 24 04 b9 ff 06 	mov    DWORD PTR [esp+0x4],0x806ffb9
 8049e3e:	08 
 8049e3f:	89 44 24 08          	mov    DWORD PTR [esp+0x8],eax
 8049e43:	89 54 24 0c          	mov    DWORD PTR [esp+0xc],edx
 8049e47:	c7 04 24 01 00 00 00 	mov    DWORD PTR [esp],0x1
 8049e4e:	e8 0d e6 ff ff       	call   8048460
 8049e53:	83 fe 14             	cmp    esi,0x14
 8049e56:	75 c0                	jne    8049e18
 8049e58:	c7 04 24 0a 00 00 00 	mov    DWORD PTR [esp],0xa
 8049e5f:	bf 40 61 88 08       	mov    edi,0x8886140
 8049e64:	e8 e7 e5 ff ff       	call   8048450
 8049e69:	a1 40 60 08 08       	mov    eax,ds:0x8086040
 8049e6e:	89 04 24             	mov    DWORD PTR [esp],eax
 8049e71:	e8 8a e5 ff ff       	call   8048400
 8049e76:	66 90                	xchg   ax,ax
 8049e78:	31 f6                	xor    esi,esi
 8049e7a:	8d b6 00 00 00 00    	lea    esi,[esi]
 8049e80:	e8 eb e5 ff ff       	call   8048470
 8049e85:	88 04 37             	mov    BYTE PTR [edi+esi],al
 8049e88:	83 c6 01             	add    esi,0x1
 8049e8b:	83 fe 20             	cmp    esi,0x20
 8049e8e:	75 f0                	jne    8049e80
 8049e90:	66 31 f6             	xor    si,si
 8049e93:	90                   	nop
 8049e94:	8d 74 26 00          	lea    esi,[esi]
 8049e98:	e8 d3 e5 ff ff       	call   8048470
 8049e9d:	83 c6 01             	add    esi,0x1
 8049ea0:	88 86 3f 65 88 08    	mov    BYTE PTR [esi+0x888653f],al
 8049ea6:	83 fe 10             	cmp    esi,0x10
 8049ea9:	75 ed                	jne    8049e98
 8049eab:	66 31 f6             	xor    si,si
 8049eae:	66 90                	xchg   ax,ax
 8049eb0:	e8 bb e5 ff ff       	call   8048470
 8049eb5:	83 c6 01             	add    esi,0x1
 8049eb8:	88 86 3f 69 88 08    	mov    BYTE PTR [esi+0x888693f],al
 8049ebe:	83 fe 10             	cmp    esi,0x10
 8049ec1:	75 ed                	jne    8049eb0
 8049ec3:	66 31 f6             	xor    si,si
 8049ec6:	85 db                	test   ebx,ebx
 8049ec8:	74 18                	je     8049ee2
 8049eca:	8d b6 00 00 00 00    	lea    esi,[esi]
 8049ed0:	e8 9b e5 ff ff       	call   8048470
 8049ed5:	83 c6 01             	add    esi,0x1
 8049ed8:	88 86 3f 6d 88 08    	mov    BYTE PTR [esi+0x8886d3f],al
 8049ede:	39 de                	cmp    esi,ebx
 8049ee0:	75 ee                	jne    8049ed0
 8049ee2:	89 3c 24             	mov    DWORD PTR [esp],edi
 8049ee5:	81 c7 00 00 01 00    	add    edi,0x10000
 8049eeb:	e8 30 4b 02 00       	call   806ea20
 8049ef0:	81 ff 40 61 9d 08    	cmp    edi,0x89d6140
 8049ef6:	75 80                	jne    8049e78
 8049ef8:	e8 a3 49 02 00       	call   806e8a0
 8049efd:	31 c0                	xor    eax,eax
 8049eff:	90                   	nop
 8049f00:	0f b6 90 40 65 88 08 	movzx  edx,BYTE PTR [eax+0x8886540]
 8049f07:	30 90 40 61 08 08    	xor    BYTE PTR [eax+0x8086140],dl
 8049f0d:	83 c0 01             	add    eax,0x1
 8049f10:	83 f8 10             	cmp    eax,0x10
 8049f13:	75 eb                	jne    8049f00
 8049f15:	30 c0                	xor    al,al
 8049f17:	90                   	nop
 8049f18:	0f b6 90 40 69 88 08 	movzx  edx,BYTE PTR [eax+0x8886940]
 8049f1f:	30 90 40 61 08 08    	xor    BYTE PTR [eax+0x8086140],dl
 8049f25:	83 c0 01             	add    eax,0x1
 8049f28:	83 f8 10             	cmp    eax,0x10
 8049f2b:	75 eb                	jne    8049f18
 8049f2d:	85 db                	test   ebx,ebx
 8049f2f:	74 1b                	je     8049f4c
 8049f31:	30 c0                	xor    al,al
 8049f33:	90                   	nop
 8049f34:	8d 74 26 00          	lea    esi,[esi]
 8049f38:	0f b6 90 40 6d 88 08 	movzx  edx,BYTE PTR [eax+0x8886d40]
 8049f3f:	30 90 40 61 08 08    	xor    BYTE PTR [eax+0x8086140],dl
 8049f45:	83 c0 01             	add    eax,0x1
 8049f48:	39 d8                	cmp    eax,ebx
 8049f4a:	75 ec                	jne    8049f38
 8049f4c:	31 f6                	xor    esi,esi
 8049f4e:	66 90                	xchg   ax,ax
 8049f50:	e8 7b 5f 02 00       	call   806fed0
 8049f55:	89 04 f5 80 60 08 08 	mov    DWORD PTR [esi*8+0x8086080],eax
 8049f5c:	89 14 f5 84 60 08 08 	mov    DWORD PTR [esi*8+0x8086084],edx
 8049f63:	83 c6 01             	add    esi,0x1
 8049f66:	83 fe 15             	cmp    esi,0x15
 8049f69:	75 e5                	jne    8049f50
 8049f6b:	31 ff                	xor    edi,edi
 8049f6d:	be 40 61 88 08       	mov    esi,0x8886140
 8049f72:	8d b6 00 00 00 00    	lea    esi,[esi]
 8049f78:	e8 53 5f 02 00       	call   806fed0
 8049f7d:	89 74 24 04          	mov    DWORD PTR [esp+0x4],esi
 8049f81:	81 c6 00 00 04 00    	add    esi,0x40000
 8049f87:	89 5c 24 10          	mov    DWORD PTR [esp+0x10],ebx
 8049f8b:	c7 44 24 0c 40 6d 88 	mov    DWORD PTR [esp+0xc],0x8886d40
 8049f92:	08 
 8049f93:	c7 44 24 08 40 65 88 	mov    DWORD PTR [esp+0x8],0x8886540
 8049f9a:	08 
 8049f9b:	c7 04 24 40 69 88 08 	mov    DWORD PTR [esp],0x8886940
 8049fa2:	89 04 fd 80 60 08 08 	mov    DWORD PTR [edi*8+0x8086080],eax
 8049fa9:	89 14 fd 84 60 08 08 	mov    DWORD PTR [edi*8+0x8086084],edx
 8049fb0:	83 c7 01             	add    edi,0x1
 8049fb3:	e8 d8 4a 02 00       	call   806ea90
 8049fb8:	81 fe 40 61 dc 08    	cmp    esi,0x8dc6140
 8049fbe:	75 b8                	jne    8049f78
 8049fc0:	89 5c 24 08          	mov    DWORD PTR [esp+0x8],ebx
 8049fc4:	31 f6                	xor    esi,esi
 8049fc6:	c7 44 24 04 af ff 06 	mov    DWORD PTR [esp+0x4],0x806ffaf
 8049fcd:	08 
 8049fce:	c7 04 24 01 00 00 00 	mov    DWORD PTR [esp],0x1
 8049fd5:	e8 86 e4 ff ff       	call   8048460
 8049fda:	c7 04 24 41 00 00 00 	mov    DWORD PTR [esp],0x41
 8049fe1:	e8 6a e4 ff ff       	call   8048450
 8049fe6:	c7 44 24 04 b4 ff 06 	mov    DWORD PTR [esp+0x4],0x806ffb4
 8049fed:	08 
 8049fee:	c7 04 24 01 00 00 00 	mov    DWORD PTR [esp],0x1
 8049ff5:	e8 66 e4 ff ff       	call   8048460
 8049ffa:	c7 04 24 2d 00 00 00 	mov    DWORD PTR [esp],0x2d
 804a001:	e8 4a e4 ff ff       	call   8048450
 804a006:	c7 04 24 44 00 00 00 	mov    DWORD PTR [esp],0x44
 804a00d:	e8 3e e4 ff ff       	call   8048450
 804a012:	8d b6 00 00 00 00    	lea    esi,[esi]
 804a018:	83 c6 01             	add    esi,0x1
 804a01b:	8b 04 f5 80 60 08 08 	mov    eax,DWORD PTR [esi*8+0x8086080]
 804a022:	8b 14 f5 84 60 08 08 	mov    edx,DWORD PTR [esi*8+0x8086084]
 804a029:	2b 04 f5 78 60 08 08 	sub    eax,DWORD PTR [esi*8+0x8086078]
 804a030:	1b 14 f5 7c 60 08 08 	sbb    edx,DWORD PTR [esi*8+0x808607c]
 804a037:	c7 44 24 04 b9 ff 06 	mov    DWORD PTR [esp+0x4],0x806ffb9
 804a03e:	08 
 804a03f:	89 44 24 08          	mov    DWORD PTR [esp+0x8],eax
 804a043:	89 54 24 0c          	mov    DWORD PTR [esp+0xc],edx
 804a047:	c7 04 24 01 00 00 00 	mov    DWORD PTR [esp],0x1
 804a04e:	e8 0d e4 ff ff       	call   8048460
 804a053:	83 fe 14             	cmp    esi,0x14
 804a056:	75 c0                	jne    804a018
 804a058:	c7 04 24 0a 00 00 00 	mov    DWORD PTR [esp],0xa
 804a05f:	bf 40 61 88 08       	mov    edi,0x8886140
 804a064:	e8 e7 e3 ff ff       	call   8048450
 804a069:	a1 40 60 08 08       	mov    eax,ds:0x8086040
 804a06e:	89 04 24             	mov    DWORD PTR [esp],eax
 804a071:	e8 8a e3 ff ff       	call   8048400
 804a076:	66 90                	xchg   ax,ax
 804a078:	31 f6                	xor    esi,esi
 804a07a:	8d b6 00 00 00 00    	lea    esi,[esi]
 804a080:	e8 eb e3 ff ff       	call   8048470
 804a085:	88 04 37             	mov    BYTE PTR [edi+esi],al
 804a088:	83 c6 01             	add    esi,0x1
 804a08b:	83 fe 20             	cmp    esi,0x20
 804a08e:	75 f0                	jne    804a080
 804a090:	66 31 f6             	xor    si,si
 804a093:	90                   	nop
 804a094:	8d 74 26 00          	lea    esi,[esi]
 804a098:	e8 d3 e3 ff ff       	call   8048470
 804a09d:	83 c6 01             	add    esi,0x1
 804a0a0:	88 86 3f 65 88 08    	mov    BYTE PTR [esi+0x888653f],al
 804a0a6:	83 fe 10             	cmp    esi,0x10
 804a0a9:	75 ed                	jne    804a098
 804a0ab:	66 31 f6             	xor    si,si
 804a0ae:	66 90                	xchg   ax,ax
 804a0b0:	e8 bb e3 ff ff       	call   8048470
 804a0b5:	83 c6 01             	add    esi,0x1
 804a0b8:	88 86 3f 69 88 08    	mov    BYTE PTR [esi+0x888693f],al
 804a0be:	83 fe 10             	cmp    esi,0x10
 804a0c1:	75 ed                	jne    804a0b0
 804a0c3:	66 31 f6             	xor    si,si
 804a0c6:	85 db                	test   ebx,ebx
 804a0c8:	74 18                	je     804a0e2
 804a0ca:	8d b6 00 00 00 00    	lea    esi,[esi]
 804a0d0:	e8 9b e3 ff ff       	call   8048470
 804a0d5:	83 c6 01             	add    esi,0x1
 804a0d8:	88 86 3f 6d 88 08    	mov    BYTE PTR [esi+0x8886d3f],al
 804a0de:	39 de                	cmp    esi,ebx
 804a0e0:	75 ee                	jne    804a0d0
 804a0e2:	89 3c 24             	mov    DWORD PTR [esp],edi
 804a0e5:	81 c7 00 00 01 00    	add    edi,0x10000
 804a0eb:	e8 30 49 02 00       	call   806ea20
 804a0f0:	81 ff 40 61 9d 08    	cmp    edi,0x89d6140
 804a0f6:	75 80                	jne    804a078
 804a0f8:	e8 a3 47 02 00       	call   806e8a0
 804a0fd:	31 c0                	xor    eax,eax
 804a0ff:	90                   	nop
 804a100:	0f b6 90 40 65 88 08 	movzx  edx,BYTE PTR [eax+0x8886540]
 804a107:	30 90 40 61 08 08    	xor    BYTE PTR [eax+0x8086140],dl
 804a10d:	83 c0 01             	add    eax,0x1
 804a110:	83 f8 10             	cmp    eax,0x10
 804a113:	75 eb                	jne    804a100
 804a115:	30 c0                	xor    al,al
 804a117:	90                   	nop
 804a118:	0f b6 90 40 69 88 08 	movzx  edx,BYTE PTR [eax+0x8886940]
 804a11f:	30 90 40 61 08 08    	xor    BYTE PTR [eax+0x8086140],dl
 804a125:	83 c0 01             	add    eax,0x1
 804a128:	83 f8 10             	cmp    eax,0x10
 804a12b:	75 eb                	jne    804a118
 804a12d:	85 db                	test   ebx,ebx
 804a12f:	74 1b                	je     804a14c
 804a131:	30 c0                	xor    al,al
 804a133:	90                   	nop
 804a134:	8d 74 26 00          	lea    esi,[esi]
 804a138:	0f b6 90 40 6d 88 08 	movzx  edx,BYTE PTR [eax+0x8886d40]
 804a13f:	30 90 40 61 08 08    	xor    BYTE PTR [eax+0x8086140],dl
 804a145:	83 c0 01             	add    eax,0x1
 804a148:	39 d8                	cmp    eax,ebx
 804a14a:	75 ec                	jne    804a138
 804a14c:	31 f6                	xor    esi,esi
 804a14e:	66 90                	xchg   ax,ax
 804a150:	e8 7b 5d 02 00       	call   806fed0
 804a155:	89 04 f5 80 60 08 08 	mov    DWORD PTR [esi*8+0x8086080],eax
 804a15c:	89 14 f5 84 60 08 08 	mov    DWORD PTR [esi*8+0x8086084],edx
 804a163:	83 c6 01             	add    esi,0x1
 804a166:	83 fe 15             	cmp    esi,0x15
 804a169:	75 e5                	jne    804a150
 804a16b:	31 ff                	xor    edi,edi
 804a16d:	be 40 61 88 08       	mov    esi,0x8886140
 804a172:	8d b6 00 00 00 00    	lea    esi,[esi]
 804a178:	e8 53 5d 02 00       	call   806fed0
 804a17d:	89 74 24 04          	mov    DWORD PTR [esp+0x4],esi
 804a181:	81 c6 00 00 04 00    	add    esi,0x40000
 804a187:	89 5c 24 10          	mov    DWORD PTR [esp+0x10],ebx
 804a18b:	c7 44 24 0c 40 6d 88 	mov    DWORD PTR [esp+0xc],0x8886d40
 804a192:	08 
 804a193:	c7 44 24 08 40 65 88 	mov    DWORD PTR [esp+0x8],0x8886540
 804a19a:	08 
 804a19b:	c7 04 24 40 69 88 08 	mov    DWORD PTR [esp],0x8886940
 804a1a2:	89 04 fd 80 60 08 08 	mov    DWORD PTR [edi*8+0x8086080],eax
 804a1a9:	89 14 fd 84 60 08 08 	mov    DWORD PTR [edi*8+0x8086084],edx
 804a1b0:	83 c7 01             	add    edi,0x1
 804a1b3:	e8 d8 48 02 00       	call   806ea90
 804a1b8:	81 fe 40 61 dc 08    	cmp    esi,0x8dc6140
 804a1be:	75 b8                	jne    804a178
 804a1c0:	89 5c 24 08          	mov    DWORD PTR [esp+0x8],ebx
 804a1c4:	31 f6                	xor    esi,esi
 804a1c6:	c7 44 24 04 af ff 06 	mov    DWORD PTR [esp+0x4],0x806ffaf
 804a1cd:	08 
 804a1ce:	c7 04 24 01 00 00 00 	mov    DWORD PTR [esp],0x1
 804a1d5:	e8 86 e2 ff ff       	call   8048460
 804a1da:	c7 04 24 41 00 00 00 	mov    DWORD PTR [esp],0x41
 804a1e1:	e8 6a e2 ff ff       	call   8048450
 804a1e6:	c7 44 24 04 b4 ff 06 	mov    DWORD PTR [esp+0x4],0x806ffb4
 804a1ed:	08 
 804a1ee:	c7 04 24 01 00 00 00 	mov    DWORD PTR [esp],0x1
 804a1f5:	e8 66 e2 ff ff       	call   8048460
 804a1fa:	c7 04 24 2d 00 00 00 	mov    DWORD PTR [esp],0x2d
 804a201:	e8 4a e2 ff ff       	call   8048450
 804a206:	c7 04 24 44 00 00 00 	mov    DWORD PTR [esp],0x44
 804a20d:	e8 3e e2 ff ff       	call   8048450
 804a212:	8d b6 00 00 00 00    	lea    esi,[esi]
 804a218:	83 c6 01             	add    esi,0x1
 804a21b:	8b 04 f5 80 60 08 08 	mov    eax,DWORD PTR [esi*8+0x8086080]
 804a222:	8b 14 f5 84 60 08 08 	mov    edx,DWORD PTR [esi*8+0x8086084]
 804a229:	2b 04 f5 78 60 08 08 	sub    eax,DWORD PTR [esi*8+0x8086078]
 804a230:	1b 14 f5 7c 60 08 08 	sbb    edx,DWORD PTR [esi*8+0x808607c]
 804a237:	c7 44 24 04 b9 ff 06 	mov    DWORD PTR [esp+0x4],0x806ffb9
 804a23e:	08 
 804a23f:	89 44 24 08          	mov    DWORD PTR [esp+0x8],eax
 804a243:	89 54 24 0c          	mov    DWORD PTR [esp+0xc],edx
 804a247:	c7 04 24 01 00 00 00 	mov    DWORD PTR [esp],0x1
 804a24e:	e8 0d e2 ff ff       	call   8048460
 804a253:	83 fe 14             	cmp    esi,0x14
 804a256:	75 c0                	jne    804a218
 804a258:	c7 04 24 0a 00 00 00 	mov    DWORD PTR [esp],0xa
 804a25f:	bf 40 61 88 08       	mov    edi,0x8886140
 804a264:	e8 e7 e1 ff ff       	call   8048450
 804a269:	a1 40 60 08 08       	mov    eax,ds:0x8086040
 804a26e:	89 04 24             	mov    DWORD PTR [esp],eax
 804a271:	e8 8a e1 ff ff       	call   8048400
 804a276:	66 90                	xchg   ax,ax
 804a278:	31 f6                	xor    esi,esi
 804a27a:	8d b6 00 00 00 00    	lea    esi,[esi]
 804a280:	e8 eb e1 ff ff       	call   8048470
 804a285:	88 04 37             	mov    BYTE PTR [edi+esi],al
 804a288:	83 c6 01             	add    esi,0x1
 804a28b:	83 fe 20             	cmp    esi,0x20
 804a28e:	75 f0                	jne    804a280
 804a290:	66 31 f6             	xor    si,si
 804a293:	90                   	nop
 804a294:	8d 74 26 00          	lea    esi,[esi]
 804a298:	e8 d3 e1 ff ff       	call   8048470
 804a29d:	83 c6 01             	add    esi,0x1
 804a2a0:	88 86 3f 65 88 08    	mov    BYTE PTR [esi+0x888653f],al
 804a2a6:	83 fe 10             	cmp    esi,0x10
 804a2a9:	75 ed                	jne    804a298
 804a2ab:	66 31 f6             	xor    si,si
 804a2ae:	66 90                	xchg   ax,ax
 804a2b0:	e8 bb e1 ff ff       	call   8048470
 804a2b5:	83 c6 01             	add    esi,0x1
 804a2b8:	88 86 3f 69 88 08    	mov    BYTE PTR [esi+0x888693f],al
 804a2be:	83 fe 10             	cmp    esi,0x10
 804a2c1:	75 ed                	jne    804a2b0
 804a2c3:	66 31 f6             	xor    si,si
 804a2c6:	85 db                	test   ebx,ebx
 804a2c8:	74 18                	je     804a2e2
 804a2ca:	8d b6 00 00 00 00    	lea    esi,[esi]
 804a2d0:	e8 9b e1 ff ff       	call   8048470
 804a2d5:	83 c6 01             	add    esi,0x1
 804a2d8:	88 86 3f 6d 88 08    	mov    BYTE PTR [esi+0x8886d3f],al
 804a2de:	39 de                	cmp    esi,ebx
 804a2e0:	75 ee                	jne    804a2d0
 804a2e2:	89 3c 24             	mov    DWORD PTR [esp],edi
 804a2e5:	81 c7 00 00 01 00    	add    edi,0x10000
 804a2eb:	e8 30 47 02 00       	call   806ea20
 804a2f0:	81 ff 40 61 9d 08    	cmp    edi,0x89d6140
 804a2f6:	75 80                	jne    804a278
 804a2f8:	e8 a3 45 02 00       	call   806e8a0
 804a2fd:	31 c0                	xor    eax,eax
 804a2ff:	90                   	nop
 804a300:	0f b6 90 40 65 88 08 	movzx  edx,BYTE PTR [eax+0x8886540]
 804a307:	30 90 40 61 08 08    	xor    BYTE PTR [eax+0x8086140],dl
 804a30d:	83 c0 01             	add    eax,0x1
 804a310:	83 f8 10             	cmp    eax,0x10
 804a313:	75 eb                	jne    804a300
 804a315:	30 c0                	xor    al,al
 804a317:	90                   	nop
 804a318:	0f b6 90 40 69 88 08 	movzx  edx,BYTE PTR [eax+0x8886940]
 804a31f:	30 90 40 61 08 08    	xor    BYTE PTR [eax+0x8086140],dl
 804a325:	83 c0 01             	add    eax,0x1
 804a328:	83 f8 10             	cmp    eax,0x10
 804a32b:	75 eb                	jne    804a318
 804a32d:	85 db                	test   ebx,ebx
 804a32f:	74 1b                	je     804a34c
 804a331:	30 c0                	xor    al,al
 804a333:	90                   	nop
 804a334:	8d 74 26 00          	lea    esi,[esi]
 804a338:	0f b6 90 40 6d 88 08 	movzx  edx,BYTE PTR [eax+0x8886d40]
 804a33f:	30 90 40 61 08 08    	xor    BYTE PTR [eax+0x8086140],dl
 804a345:	83 c0 01             	add    eax,0x1
 804a348:	39 d8                	cmp    eax,ebx
 804a34a:	75 ec                	jne    804a338
 804a34c:	31 f6                	xor    esi,esi
 804a34e:	66 90                	xchg   ax,ax
 804a350:	e8 7b 5b 02 00       	call   806fed0
 804a355:	89 04 f5 80 60 08 08 	mov    DWORD PTR [esi*8+0x8086080],eax
 804a35c:	89 14 f5 84 60 08 08 	mov    DWORD PTR [esi*8+0x8086084],edx
 804a363:	83 c6 01             	add    esi,0x1
 804a366:	83 fe 15             	cmp    esi,0x15
 804a369:	75 e5                	jne    804a350
 804a36b:	31 ff                	xor    edi,edi
 804a36d:	be 40 61 88 08       	mov    esi,0x8886140
 804a372:	8d b6 00 00 00 00    	lea    esi,[esi]
 804a378:	e8 53 5b 02 00       	call   806fed0
 804a37d:	89 74 24 04          	mov    DWORD PTR [esp+0x4],esi
 804a381:	81 c6 00 00 04 00    	add    esi,0x40000
 804a387:	89 5c 24 10          	mov    DWORD PTR [esp+0x10],ebx
 804a38b:	c7 44 24 0c 40 6d 88 	mov    DWORD PTR [esp+0xc],0x8886d40
 804a392:	08 
 804a393:	c7 44 24 08 40 65 88 	mov    DWORD PTR [esp+0x8],0x8886540
 804a39a:	08 
 804a39b:	c7 04 24 40 69 88 08 	mov    DWORD PTR [esp],0x8886940
 804a3a2:	89 04 fd 80 60 08 08 	mov    DWORD PTR [edi*8+0x8086080],eax
 804a3a9:	89 14 fd 84 60 08 08 	mov    DWORD PTR [edi*8+0x8086084],edx
 804a3b0:	83 c7 01             	add    edi,0x1
 804a3b3:	e8 d8 46 02 00       	call   806ea90
 804a3b8:	81 fe 40 61 dc 08    	cmp    esi,0x8dc6140
 804a3be:	75 b8                	jne    804a378
 804a3c0:	89 5c 24 08          	mov    DWORD PTR [esp+0x8],ebx
 804a3c4:	31 f6                	xor    esi,esi
 804a3c6:	c7 44 24 04 af ff 06 	mov    DWORD PTR [esp+0x4],0x806ffaf
 804a3cd:	08 
 804a3ce:	c7 04 24 01 00 00 00 	mov    DWORD PTR [esp],0x1
 804a3d5:	e8 86 e0 ff ff       	call   8048460
 804a3da:	c7 04 24 41 00 00 00 	mov    DWORD PTR [esp],0x41
 804a3e1:	e8 6a e0 ff ff       	call   8048450
 804a3e6:	c7 44 24 04 b4 ff 06 	mov    DWORD PTR [esp+0x4],0x806ffb4
 804a3ed:	08 
 804a3ee:	c7 04 24 01 00 00 00 	mov    DWORD PTR [esp],0x1
 804a3f5:	e8 66 e0 ff ff       	call   8048460
 804a3fa:	c7 04 24 2d 00 00 00 	mov    DWORD PTR [esp],0x2d
 804a401:	e8 4a e0 ff ff       	call   8048450
 804a406:	c7 04 24 44 00 00 00 	mov    DWORD PTR [esp],0x44
 804a40d:	e8 3e e0 ff ff       	call   8048450
 804a412:	8d b6 00 00 00 00    	lea    esi,[esi]
 804a418:	83 c6 01             	add    esi,0x1
 804a41b:	8b 04 f5 80 60 08 08 	mov    eax,DWORD PTR [esi*8+0x8086080]
 804a422:	8b 14 f5 84 60 08 08 	mov    edx,DWORD PTR [esi*8+0x8086084]
 804a429:	2b 04 f5 78 60 08 08 	sub    eax,DWORD PTR [esi*8+0x8086078]
 804a430:	1b 14 f5 7c 60 08 08 	sbb    edx,DWORD PTR [esi*8+0x808607c]
 804a437:	c7 44 24 04 b9 ff 06 	mov    DWORD PTR [esp+0x4],0x806ffb9
 804a43e:	08 
 804a43f:	89 44 24 08          	mov    DWORD PTR [esp+0x8],eax
 804a443:	89 54 24 0c          	mov    DWORD PTR [esp+0xc],edx
 804a447:	c7 04 24 01 00 00 00 	mov    DWORD PTR [esp],0x1
 804a44e:	e8 0d e0 ff ff       	call   8048460
 804a453:	83 fe 14             	cmp    esi,0x14
 804a456:	75 c0                	jne    804a418
 804a458:	c7 04 24 0a 00 00 00 	mov    DWORD PTR [esp],0xa
 804a45f:	bf 40 61 88 08       	mov    edi,0x8886140
 804a464:	e8 e7 df ff ff       	call   8048450
 804a469:	a1 40 60 08 08       	mov    eax,ds:0x8086040
 804a46e:	89 04 24             	mov    DWORD PTR [esp],eax
 804a471:	e8 8a df ff ff       	call   8048400
 804a476:	66 90                	xchg   ax,ax
 804a478:	31 f6                	xor    esi,esi
 804a47a:	8d b6 00 00 00 00    	lea    esi,[esi]
 804a480:	e8 eb df ff ff       	call   8048470
 804a485:	88 04 37             	mov    BYTE PTR [edi+esi],al
 804a488:	83 c6 01             	add    esi,0x1
 804a48b:	83 fe 20             	cmp    esi,0x20
 804a48e:	75 f0                	jne    804a480
 804a490:	66 31 f6             	xor    si,si
 804a493:	90                   	nop
 804a494:	8d 74 26 00          	lea    esi,[esi]
 804a498:	e8 d3 df ff ff       	call   8048470
 804a49d:	83 c6 01             	add    esi,0x1
 804a4a0:	88 86 3f 65 88 08    	mov    BYTE PTR [esi+0x888653f],al
 804a4a6:	83 fe 10             	cmp    esi,0x10
 804a4a9:	75 ed                	jne    804a498
 804a4ab:	66 31 f6             	xor    si,si
 804a4ae:	66 90                	xchg   ax,ax
 804a4b0:	e8 bb df ff ff       	call   8048470
 804a4b5:	83 c6 01             	add    esi,0x1
 804a4b8:	88 86 3f 69 88 08    	mov    BYTE PTR [esi+0x888693f],al
 804a4be:	83 fe 10             	cmp    esi,0x10
 804a4c1:	75 ed                	jne    804a4b0
 804a4c3:	66 31 f6             	xor    si,si
 804a4c6:	85 db                	test   ebx,ebx
 804a4c8:	74 18                	je     804a4e2
 804a4ca:	8d b6 00 00 00 00    	lea    esi,[esi]
 804a4d0:	e8 9b df ff ff       	call   8048470
 804a4d5:	83 c6 01             	add    esi,0x1
 804a4d8:	88 86 3f 6d 88 08    	mov    BYTE PTR [esi+0x8886d3f],al
 804a4de:	39 de                	cmp    esi,ebx
 804a4e0:	75 ee                	jne    804a4d0
 804a4e2:	89 3c 24             	mov    DWORD PTR [esp],edi
 804a4e5:	81 c7 00 00 01 00    	add    edi,0x10000
 804a4eb:	e8 30 45 02 00       	call   806ea20
 804a4f0:	81 ff 40 61 9d 08    	cmp    edi,0x89d6140
 804a4f6:	75 80                	jne    804a478
 804a4f8:	e8 a3 43 02 00       	call   806e8a0
 804a4fd:	31 c0                	xor    eax,eax
 804a4ff:	90                   	nop
 804a500:	0f b6 90 40 65 88 08 	movzx  edx,BYTE PTR [eax+0x8886540]
 804a507:	30 90 40 61 08 08    	xor    BYTE PTR [eax+0x8086140],dl
 804a50d:	83 c0 01             	add    eax,0x1
 804a510:	83 f8 10             	cmp    eax,0x10
 804a513:	75 eb                	jne    804a500
 804a515:	30 c0                	xor    al,al
 804a517:	90                   	nop
 804a518:	0f b6 90 40 69 88 08 	movzx  edx,BYTE PTR [eax+0x8886940]
 804a51f:	30 90 40 61 08 08    	xor    BYTE PTR [eax+0x8086140],dl
 804a525:	83 c0 01             	add    eax,0x1
 804a528:	83 f8 10             	cmp    eax,0x10
 804a52b:	75 eb                	jne    804a518
 804a52d:	85 db                	test   ebx,ebx
 804a52f:	74 1b                	je     804a54c
 804a531:	30 c0                	xor    al,al
 804a533:	90                   	nop
 804a534:	8d 74 26 00          	lea    esi,[esi]
 804a538:	0f b6 90 40 6d 88 08 	movzx  edx,BYTE PTR [eax+0x8886d40]
 804a53f:	30 90 40 61 08 08    	xor    BYTE PTR [eax+0x8086140],dl
 804a545:	83 c0 01             	add    eax,0x1
 804a548:	39 d8                	cmp    eax,ebx
 804a54a:	75 ec                	jne    804a538
 804a54c:	31 f6                	xor    esi,esi
 804a54e:	66 90                	xchg   ax,ax
 804a550:	e8 7b 59 02 00       	call   806fed0
 804a555:	89 04 f5 80 60 08 08 	mov    DWORD PTR [esi*8+0x8086080],eax
 804a55c:	89 14 f5 84 60 08 08 	mov    DWORD PTR [esi*8+0x8086084],edx
 804a563:	83 c6 01             	add    esi,0x1
 804a566:	83 fe 15             	cmp    esi,0x15
 804a569:	75 e5                	jne    804a550
 804a56b:	31 ff                	xor    edi,edi
 804a56d:	be 40 61 88 08       	mov    esi,0x8886140
 804a572:	8d b6 00 00 00 00    	lea    esi,[esi]
 804a578:	e8 53 59 02 00       	call   806fed0
 804a57d:	89 74 24 04          	mov    DWORD PTR [esp+0x4],esi
 804a581:	81 c6 00 00 04 00    	add    esi,0x40000
 804a587:	89 5c 24 10          	mov    DWORD PTR [esp+0x10],ebx
 804a58b:	c7 44 24 0c 40 6d 88 	mov    DWORD PTR [esp+0xc],0x8886d40
 804a592:	08 
 804a593:	c7 44 24 08 40 65 88 	mov    DWORD PTR [esp+0x8],0x8886540
 804a59a:	08 
 804a59b:	c7 04 24 40 69 88 08 	mov    DWORD PTR [esp],0x8886940
 804a5a2:	89 04 fd 80 60 08 08 	mov    DWORD PTR [edi*8+0x8086080],eax
 804a5a9:	89 14 fd 84 60 08 08 	mov    DWORD PTR [edi*8+0x8086084],edx
 804a5b0:	83 c7 01             	add    edi,0x1
 804a5b3:	e8 98 43 02 00       	call   806e950
 804a5b8:	81 fe 40 61 dc 08    	cmp    esi,0x8dc6140
 804a5be:	75 b8                	jne    804a578
 804a5c0:	89 5c 24 08          	mov    DWORD PTR [esp+0x8],ebx
 804a5c4:	31 f6                	xor    esi,esi
 804a5c6:	c7 44 24 04 af ff 06 	mov    DWORD PTR [esp+0x4],0x806ffaf
 804a5cd:	08 
 804a5ce:	c7 04 24 01 00 00 00 	mov    DWORD PTR [esp],0x1
 804a5d5:	e8 86 de ff ff       	call   8048460
 804a5da:	c7 04 24 56 00 00 00 	mov    DWORD PTR [esp],0x56
 804a5e1:	e8 6a de ff ff       	call   8048450
 804a5e6:	c7 44 24 04 b4 ff 06 	mov    DWORD PTR [esp+0x4],0x806ffb4
 804a5ed:	08 
 804a5ee:	c7 04 24 01 00 00 00 	mov    DWORD PTR [esp],0x1
 804a5f5:	e8 66 de ff ff       	call   8048460
 804a5fa:	c7 04 24 2d 00 00 00 	mov    DWORD PTR [esp],0x2d
 804a601:	e8 4a de ff ff       	call   8048450
 804a606:	c7 04 24 44 00 00 00 	mov    DWORD PTR [esp],0x44
 804a60d:	e8 3e de ff ff       	call   8048450
 804a612:	8d b6 00 00 00 00    	lea    esi,[esi]
 804a618:	83 c6 01             	add    esi,0x1
 804a61b:	8b 04 f5 80 60 08 08 	mov    eax,DWORD PTR [esi*8+0x8086080]
 804a622:	8b 14 f5 84 60 08 08 	mov    edx,DWORD PTR [esi*8+0x8086084]
 804a629:	2b 04 f5 78 60 08 08 	sub    eax,DWORD PTR [esi*8+0x8086078]
 804a630:	1b 14 f5 7c 60 08 08 	sbb    edx,DWORD PTR [esi*8+0x808607c]
 804a637:	c7 44 24 04 b9 ff 06 	mov    DWORD PTR [esp+0x4],0x806ffb9
 804a63e:	08 
 804a63f:	89 44 24 08          	mov    DWORD PTR [esp+0x8],eax
 804a643:	89 54 24 0c          	mov    DWORD PTR [esp+0xc],edx
 804a647:	c7 04 24 01 00 00 00 	mov    DWORD PTR [esp],0x1
 804a64e:	e8 0d de ff ff       	call   8048460
 804a653:	83 fe 14             	cmp    esi,0x14
 804a656:	75 c0                	jne    804a618
 804a658:	c7 04 24 0a 00 00 00 	mov    DWORD PTR [esp],0xa
 804a65f:	bf 40 61 88 08       	mov    edi,0x8886140
 804a664:	e8 e7 dd ff ff       	call   8048450
 804a669:	a1 40 60 08 08       	mov    eax,ds:0x8086040
 804a66e:	89 04 24             	mov    DWORD PTR [esp],eax
 804a671:	e8 8a dd ff ff       	call   8048400
 804a676:	66 90                	xchg   ax,ax
 804a678:	31 f6                	xor    esi,esi
 804a67a:	8d b6 00 00 00 00    	lea    esi,[esi]
 804a680:	e8 eb dd ff ff       	call   8048470
 804a685:	88 04 37             	mov    BYTE PTR [edi+esi],al
 804a688:	83 c6 01             	add    esi,0x1
 804a68b:	83 fe 20             	cmp    esi,0x20
 804a68e:	75 f0                	jne    804a680
 804a690:	66 31 f6             	xor    si,si
 804a693:	90                   	nop
 804a694:	8d 74 26 00          	lea    esi,[esi]
 804a698:	e8 d3 dd ff ff       	call   8048470
 804a69d:	83 c6 01             	add    esi,0x1
 804a6a0:	88 86 3f 65 88 08    	mov    BYTE PTR [esi+0x888653f],al
 804a6a6:	83 fe 10             	cmp    esi,0x10
 804a6a9:	75 ed                	jne    804a698
 804a6ab:	66 31 f6             	xor    si,si
 804a6ae:	66 90                	xchg   ax,ax
 804a6b0:	e8 bb dd ff ff       	call   8048470
 804a6b5:	83 c6 01             	add    esi,0x1
 804a6b8:	88 86 3f 69 88 08    	mov    BYTE PTR [esi+0x888693f],al
 804a6be:	83 fe 10             	cmp    esi,0x10
 804a6c1:	75 ed                	jne    804a6b0
 804a6c3:	66 31 f6             	xor    si,si
 804a6c6:	85 db                	test   ebx,ebx
 804a6c8:	74 18                	je     804a6e2
 804a6ca:	8d b6 00 00 00 00    	lea    esi,[esi]
 804a6d0:	e8 9b dd ff ff       	call   8048470
 804a6d5:	83 c6 01             	add    esi,0x1
 804a6d8:	88 86 3f 6d 88 08    	mov    BYTE PTR [esi+0x8886d3f],al
 804a6de:	39 de                	cmp    esi,ebx
 804a6e0:	75 ee                	jne    804a6d0
 804a6e2:	89 3c 24             	mov    DWORD PTR [esp],edi
 804a6e5:	81 c7 00 00 01 00    	add    edi,0x10000
 804a6eb:	e8 30 43 02 00       	call   806ea20
 804a6f0:	81 ff 40 61 9d 08    	cmp    edi,0x89d6140
 804a6f6:	75 80                	jne    804a678
 804a6f8:	e8 a3 41 02 00       	call   806e8a0
 804a6fd:	31 c0                	xor    eax,eax
 804a6ff:	90                   	nop
 804a700:	0f b6 90 40 65 88 08 	movzx  edx,BYTE PTR [eax+0x8886540]
 804a707:	30 90 40 61 08 08    	xor    BYTE PTR [eax+0x8086140],dl
 804a70d:	83 c0 01             	add    eax,0x1
 804a710:	83 f8 10             	cmp    eax,0x10
 804a713:	75 eb                	jne    804a700
 804a715:	30 c0                	xor    al,al
 804a717:	90                   	nop
 804a718:	0f b6 90 40 69 88 08 	movzx  edx,BYTE PTR [eax+0x8886940]
 804a71f:	30 90 40 61 08 08    	xor    BYTE PTR [eax+0x8086140],dl
 804a725:	83 c0 01             	add    eax,0x1
 804a728:	83 f8 10             	cmp    eax,0x10
 804a72b:	75 eb                	jne    804a718
 804a72d:	85 db                	test   ebx,ebx
 804a72f:	74 1b                	je     804a74c
 804a731:	30 c0                	xor    al,al
 804a733:	90                   	nop
 804a734:	8d 74 26 00          	lea    esi,[esi]
 804a738:	0f b6 90 40 6d 88 08 	movzx  edx,BYTE PTR [eax+0x8886d40]
 804a73f:	30 90 40 61 08 08    	xor    BYTE PTR [eax+0x8086140],dl
 804a745:	83 c0 01             	add    eax,0x1
 804a748:	39 d8                	cmp    eax,ebx
 804a74a:	75 ec                	jne    804a738
 804a74c:	31 f6                	xor    esi,esi
 804a74e:	66 90                	xchg   ax,ax
 804a750:	e8 7b 57 02 00       	call   806fed0
 804a755:	89 04 f5 80 60 08 08 	mov    DWORD PTR [esi*8+0x8086080],eax
 804a75c:	89 14 f5 84 60 08 08 	mov    DWORD PTR [esi*8+0x8086084],edx
 804a763:	83 c6 01             	add    esi,0x1
 804a766:	83 fe 15             	cmp    esi,0x15
 804a769:	75 e5                	jne    804a750
 804a76b:	31 ff                	xor    edi,edi
 804a76d:	be 40 61 88 08       	mov    esi,0x8886140
 804a772:	8d b6 00 00 00 00    	lea    esi,[esi]
 804a778:	e8 53 57 02 00       	call   806fed0
 804a77d:	89 74 24 04          	mov    DWORD PTR [esp+0x4],esi
 804a781:	81 c6 00 00 04 00    	add    esi,0x40000
 804a787:	89 5c 24 10          	mov    DWORD PTR [esp+0x10],ebx
 804a78b:	c7 44 24 0c 40 6d 88 	mov    DWORD PTR [esp+0xc],0x8886d40
 804a792:	08 
 804a793:	c7 44 24 08 40 65 88 	mov    DWORD PTR [esp+0x8],0x8886540
 804a79a:	08 
 804a79b:	c7 04 24 40 69 88 08 	mov    DWORD PTR [esp],0x8886940
 804a7a2:	89 04 fd 80 60 08 08 	mov    DWORD PTR [edi*8+0x8086080],eax
 804a7a9:	89 14 fd 84 60 08 08 	mov    DWORD PTR [edi*8+0x8086084],edx
 804a7b0:	83 c7 01             	add    edi,0x1
 804a7b3:	e8 98 41 02 00       	call   806e950
 804a7b8:	81 fe 40 61 dc 08    	cmp    esi,0x8dc6140
 804a7be:	75 b8                	jne    804a778
 804a7c0:	89 5c 24 08          	mov    DWORD PTR [esp+0x8],ebx
 804a7c4:	31 f6                	xor    esi,esi
 804a7c6:	c7 44 24 04 af ff 06 	mov    DWORD PTR [esp+0x4],0x806ffaf
 804a7cd:	08 
 804a7ce:	c7 04 24 01 00 00 00 	mov    DWORD PTR [esp],0x1
 804a7d5:	e8 86 dc ff ff       	call   8048460
 804a7da:	c7 04 24 56 00 00 00 	mov    DWORD PTR [esp],0x56
 804a7e1:	e8 6a dc ff ff       	call   8048450
 804a7e6:	c7 44 24 04 b4 ff 06 	mov    DWORD PTR [esp+0x4],0x806ffb4
 804a7ed:	08 
 804a7ee:	c7 04 24 01 00 00 00 	mov    DWORD PTR [esp],0x1
 804a7f5:	e8 66 dc ff ff       	call   8048460
 804a7fa:	c7 04 24 2d 00 00 00 	mov    DWORD PTR [esp],0x2d
 804a801:	e8 4a dc ff ff       	call   8048450
 804a806:	c7 04 24 44 00 00 00 	mov    DWORD PTR [esp],0x44
 804a80d:	e8 3e dc ff ff       	call   8048450
 804a812:	8d b6 00 00 00 00    	lea    esi,[esi]
 804a818:	83 c6 01             	add    esi,0x1
 804a81b:	8b 04 f5 80 60 08 08 	mov    eax,DWORD PTR [esi*8+0x8086080]
 804a822:	8b 14 f5 84 60 08 08 	mov    edx,DWORD PTR [esi*8+0x8086084]
 804a829:	2b 04 f5 78 60 08 08 	sub    eax,DWORD PTR [esi*8+0x8086078]
 804a830:	1b 14 f5 7c 60 08 08 	sbb    edx,DWORD PTR [esi*8+0x808607c]
 804a837:	c7 44 24 04 b9 ff 06 	mov    DWORD PTR [esp+0x4],0x806ffb9
 804a83e:	08 
 804a83f:	89 44 24 08          	mov    DWORD PTR [esp+0x8],eax
 804a843:	89 54 24 0c          	mov    DWORD PTR [esp+0xc],edx
 804a847:	c7 04 24 01 00 00 00 	mov    DWORD PTR [esp],0x1
 804a84e:	e8 0d dc ff ff       	call   8048460
 804a853:	83 fe 14             	cmp    esi,0x14
 804a856:	75 c0                	jne    804a818
 804a858:	c7 04 24 0a 00 00 00 	mov    DWORD PTR [esp],0xa
 804a85f:	bf 40 61 88 08       	mov    edi,0x8886140
 804a864:	e8 e7 db ff ff       	call   8048450
 804a869:	a1 40 60 08 08       	mov    eax,ds:0x8086040
 804a86e:	89 04 24             	mov    DWORD PTR [esp],eax
 804a871:	e8 8a db ff ff       	call   8048400
 804a876:	66 90                	xchg   ax,ax
 804a878:	31 f6                	xor    esi,esi
 804a87a:	8d b6 00 00 00 00    	lea    esi,[esi]
 804a880:	e8 eb db ff ff       	call   8048470
 804a885:	88 04 37             	mov    BYTE PTR [edi+esi],al
 804a888:	83 c6 01             	add    esi,0x1
 804a88b:	83 fe 20             	cmp    esi,0x20
 804a88e:	75 f0                	jne    804a880
 804a890:	66 31 f6             	xor    si,si
 804a893:	90                   	nop
 804a894:	8d 74 26 00          	lea    esi,[esi]
 804a898:	e8 d3 db ff ff       	call   8048470
 804a89d:	83 c6 01             	add    esi,0x1
 804a8a0:	88 86 3f 65 88 08    	mov    BYTE PTR [esi+0x888653f],al
 804a8a6:	83 fe 10             	cmp    esi,0x10
 804a8a9:	75 ed                	jne    804a898
 804a8ab:	66 31 f6             	xor    si,si
 804a8ae:	66 90                	xchg   ax,ax
 804a8b0:	e8 bb db ff ff       	call   8048470
 804a8b5:	83 c6 01             	add    esi,0x1
 804a8b8:	88 86 3f 69 88 08    	mov    BYTE PTR [esi+0x888693f],al
 804a8be:	83 fe 10             	cmp    esi,0x10
 804a8c1:	75 ed                	jne    804a8b0
 804a8c3:	66 31 f6             	xor    si,si
 804a8c6:	85 db                	test   ebx,ebx
 804a8c8:	74 18                	je     804a8e2
 804a8ca:	8d b6 00 00 00 00    	lea    esi,[esi]
 804a8d0:	e8 9b db ff ff       	call   8048470
 804a8d5:	83 c6 01             	add    esi,0x1
 804a8d8:	88 86 3f 6d 88 08    	mov    BYTE PTR [esi+0x8886d3f],al
 804a8de:	39 de                	cmp    esi,ebx
 804a8e0:	75 ee                	jne    804a8d0
 804a8e2:	89 3c 24             	mov    DWORD PTR [esp],edi
 804a8e5:	81 c7 00 00 01 00    	add    edi,0x10000
 804a8eb:	e8 30 41 02 00       	call   806ea20
 804a8f0:	81 ff 40 61 9d 08    	cmp    edi,0x89d6140
 804a8f6:	75 80                	jne    804a878
 804a8f8:	e8 a3 3f 02 00       	call   806e8a0
 804a8fd:	31 c0                	xor    eax,eax
 804a8ff:	90                   	nop
 804a900:	0f b6 90 40 65 88 08 	movzx  edx,BYTE PTR [eax+0x8886540]
 804a907:	30 90 40 61 08 08    	xor    BYTE PTR [eax+0x8086140],dl
 804a90d:	83 c0 01             	add    eax,0x1
 804a910:	83 f8 10             	cmp    eax,0x10
 804a913:	75 eb                	jne    804a900
 804a915:	30 c0                	xor    al,al
 804a917:	90                   	nop
 804a918:	0f b6 90 40 69 88 08 	movzx  edx,BYTE PTR [eax+0x8886940]
 804a91f:	30 90 40 61 08 08    	xor    BYTE PTR [eax+0x8086140],dl
 804a925:	83 c0 01             	add    eax,0x1
 804a928:	83 f8 10             	cmp    eax,0x10
 804a92b:	75 eb                	jne    804a918
 804a92d:	85 db                	test   ebx,ebx
 804a92f:	74 1b                	je     804a94c
 804a931:	30 c0                	xor    al,al
 804a933:	90                   	nop
 804a934:	8d 74 26 00          	lea    esi,[esi]
 804a938:	0f b6 90 40 6d 88 08 	movzx  edx,BYTE PTR [eax+0x8886d40]
 804a93f:	30 90 40 61 08 08    	xor    BYTE PTR [eax+0x8086140],dl
 804a945:	83 c0 01             	add    eax,0x1
 804a948:	39 d8                	cmp    eax,ebx
 804a94a:	75 ec                	jne    804a938
 804a94c:	31 f6                	xor    esi,esi
 804a94e:	66 90                	xchg   ax,ax
 804a950:	e8 7b 55 02 00       	call   806fed0
 804a955:	89 04 f5 80 60 08 08 	mov    DWORD PTR [esi*8+0x8086080],eax
 804a95c:	89 14 f5 84 60 08 08 	mov    DWORD PTR [esi*8+0x8086084],edx
 804a963:	83 c6 01             	add    esi,0x1
 804a966:	83 fe 15             	cmp    esi,0x15
 804a969:	75 e5                	jne    804a950
 804a96b:	31 ff                	xor    edi,edi
 804a96d:	be 40 61 88 08       	mov    esi,0x8886140
 804a972:	8d b6 00 00 00 00    	lea    esi,[esi]
 804a978:	e8 53 55 02 00       	call   806fed0
 804a97d:	89 74 24 04          	mov    DWORD PTR [esp+0x4],esi
 804a981:	81 c6 00 00 04 00    	add    esi,0x40000
 804a987:	89 5c 24 10          	mov    DWORD PTR [esp+0x10],ebx
 804a98b:	c7 44 24 0c 40 6d 88 	mov    DWORD PTR [esp+0xc],0x8886d40
 804a992:	08 
 804a993:	c7 44 24 08 40 65 88 	mov    DWORD PTR [esp+0x8],0x8886540
 804a99a:	08 
 804a99b:	c7 04 24 40 69 88 08 	mov    DWORD PTR [esp],0x8886940
 804a9a2:	89 04 fd 80 60 08 08 	mov    DWORD PTR [edi*8+0x8086080],eax
 804a9a9:	89 14 fd 84 60 08 08 	mov    DWORD PTR [edi*8+0x8086084],edx
 804a9b0:	83 c7 01             	add    edi,0x1
 804a9b3:	e8 98 3f 02 00       	call   806e950
 804a9b8:	81 fe 40 61 dc 08    	cmp    esi,0x8dc6140
 804a9be:	75 b8                	jne    804a978
 804a9c0:	89 5c 24 08          	mov    DWORD PTR [esp+0x8],ebx
 804a9c4:	31 f6                	xor    esi,esi
 804a9c6:	c7 44 24 04 af ff 06 	mov    DWORD PTR [esp+0x4],0x806ffaf
 804a9cd:	08 
 804a9ce:	c7 04 24 01 00 00 00 	mov    DWORD PTR [esp],0x1
 804a9d5:	e8 86 da ff ff       	call   8048460
 804a9da:	c7 04 24 56 00 00 00 	mov    DWORD PTR [esp],0x56
 804a9e1:	e8 6a da ff ff       	call   8048450
 804a9e6:	c7 44 24 04 b4 ff 06 	mov    DWORD PTR [esp+0x4],0x806ffb4
 804a9ed:	08 
 804a9ee:	c7 04 24 01 00 00 00 	mov    DWORD PTR [esp],0x1
 804a9f5:	e8 66 da ff ff       	call   8048460
 804a9fa:	c7 04 24 2d 00 00 00 	mov    DWORD PTR [esp],0x2d
 804aa01:	e8 4a da ff ff       	call   8048450
 804aa06:	c7 04 24 44 00 00 00 	mov    DWORD PTR [esp],0x44
 804aa0d:	e8 3e da ff ff       	call   8048450
 804aa12:	8d b6 00 00 00 00    	lea    esi,[esi]
 804aa18:	83 c6 01             	add    esi,0x1
 804aa1b:	8b 04 f5 80 60 08 08 	mov    eax,DWORD PTR [esi*8+0x8086080]
 804aa22:	8b 14 f5 84 60 08 08 	mov    edx,DWORD PTR [esi*8+0x8086084]
 804aa29:	2b 04 f5 78 60 08 08 	sub    eax,DWORD PTR [esi*8+0x8086078]
 804aa30:	1b 14 f5 7c 60 08 08 	sbb    edx,DWORD PTR [esi*8+0x808607c]
 804aa37:	c7 44 24 04 b9 ff 06 	mov    DWORD PTR [esp+0x4],0x806ffb9
 804aa3e:	08 
 804aa3f:	89 44 24 08          	mov    DWORD PTR [esp+0x8],eax
 804aa43:	89 54 24 0c          	mov    DWORD PTR [esp+0xc],edx
 804aa47:	c7 04 24 01 00 00 00 	mov    DWORD PTR [esp],0x1
 804aa4e:	e8 0d da ff ff       	call   8048460
 804aa53:	83 fe 14             	cmp    esi,0x14
 804aa56:	75 c0                	jne    804aa18
 804aa58:	c7 04 24 0a 00 00 00 	mov    DWORD PTR [esp],0xa
 804aa5f:	bf 41 61 88 08       	mov    edi,0x8886141
 804aa64:	e8 e7 d9 ff ff       	call   8048450
 804aa69:	a1 40 60 08 08       	mov    eax,ds:0x8086040
 804aa6e:	89 04 24             	mov    DWORD PTR [esp],eax
 804aa71:	e8 8a d9 ff ff       	call   8048400
 804aa76:	66 90                	xchg   ax,ax
 804aa78:	31 f6                	xor    esi,esi
 804aa7a:	8d b6 00 00 00 00    	lea    esi,[esi]
 804aa80:	e8 eb d9 ff ff       	call   8048470
 804aa85:	88 04 37             	mov    BYTE PTR [edi+esi],al
 804aa88:	83 c6 01             	add    esi,0x1
 804aa8b:	83 fe 20             	cmp    esi,0x20
 804aa8e:	75 f0                	jne    804aa80
 804aa90:	66 31 f6             	xor    si,si
 804aa93:	90                   	nop
 804aa94:	8d 74 26 00          	lea    esi,[esi]
 804aa98:	e8 d3 d9 ff ff       	call   8048470
 804aa9d:	83 c6 01             	add    esi,0x1
 804aaa0:	88 86 40 65 88 08    	mov    BYTE PTR [esi+0x8886540],al
 804aaa6:	83 fe 10             	cmp    esi,0x10
 804aaa9:	75 ed                	jne    804aa98
 804aaab:	66 31 f6             	xor    si,si
 804aaae:	66 90                	xchg   ax,ax
 804aab0:	e8 bb d9 ff ff       	call   8048470
 804aab5:	83 c6 01             	add    esi,0x1
 804aab8:	88 86 40 69 88 08    	mov    BYTE PTR [esi+0x8886940],al
 804aabe:	83 fe 10             	cmp    esi,0x10
 804aac1:	75 ed                	jne    804aab0
 804aac3:	66 31 f6             	xor    si,si
 804aac6:	85 db                	test   ebx,ebx
 804aac8:	74 18                	je     804aae2
 804aaca:	8d b6 00 00 00 00    	lea    esi,[esi]
 804aad0:	e8 9b d9 ff ff       	call   8048470
 804aad5:	83 c6 01             	add    esi,0x1
 804aad8:	88 86 40 6d 88 08    	mov    BYTE PTR [esi+0x8886d40],al
 804aade:	39 de                	cmp    esi,ebx
 804aae0:	75 ee                	jne    804aad0
 804aae2:	89 3c 24             	mov    DWORD PTR [esp],edi
 804aae5:	81 c7 00 00 01 00    	add    edi,0x10000
 804aaeb:	e8 30 3f 02 00       	call   806ea20
 804aaf0:	81 ff 41 61 9d 08    	cmp    edi,0x89d6141
 804aaf6:	75 80                	jne    804aa78
 804aaf8:	e8 a3 3d 02 00       	call   806e8a0
 804aafd:	31 c0                	xor    eax,eax
 804aaff:	90                   	nop
 804ab00:	0f b6 90 41 65 88 08 	movzx  edx,BYTE PTR [eax+0x8886541]
 804ab07:	30 90 40 61 08 08    	xor    BYTE PTR [eax+0x8086140],dl
 804ab0d:	83 c0 01             	add    eax,0x1
 804ab10:	83 f8 10             	cmp    eax,0x10
 804ab13:	75 eb                	jne    804ab00
 804ab15:	30 c0                	xor    al,al
 804ab17:	90                   	nop
 804ab18:	0f b6 90 41 69 88 08 	movzx  edx,BYTE PTR [eax+0x8886941]
 804ab1f:	30 90 40 61 08 08    	xor    BYTE PTR [eax+0x8086140],dl
 804ab25:	83 c0 01             	add    eax,0x1
 804ab28:	83 f8 10             	cmp    eax,0x10
 804ab2b:	75 eb                	jne    804ab18
 804ab2d:	85 db                	test   ebx,ebx
 804ab2f:	74 1b                	je     804ab4c
 804ab31:	30 c0                	xor    al,al
 804ab33:	90                   	nop
 804ab34:	8d 74 26 00          	lea    esi,[esi]
 804ab38:	0f b6 90 41 6d 88 08 	movzx  edx,BYTE PTR [eax+0x8886d41]
 804ab3f:	30 90 40 61 08 08    	xor    BYTE PTR [eax+0x8086140],dl
 804ab45:	83 c0 01             	add    eax,0x1
 804ab48:	39 d8                	cmp    eax,ebx
 804ab4a:	75 ec                	jne    804ab38
 804ab4c:	31 f6                	xor    esi,esi
 804ab4e:	66 90                	xchg   ax,ax
 804ab50:	e8 7b 53 02 00       	call   806fed0
 804ab55:	89 04 f5 80 60 08 08 	mov    DWORD PTR [esi*8+0x8086080],eax
 804ab5c:	89 14 f5 84 60 08 08 	mov    DWORD PTR [esi*8+0x8086084],edx
 804ab63:	83 c6 01             	add    esi,0x1
 804ab66:	83 fe 15             	cmp    esi,0x15
 804ab69:	75 e5                	jne    804ab50
 804ab6b:	31 ff                	xor    edi,edi
 804ab6d:	be 41 61 88 08       	mov    esi,0x8886141
 804ab72:	8d b6 00 00 00 00    	lea    esi,[esi]
 804ab78:	e8 53 53 02 00       	call   806fed0
 804ab7d:	89 74 24 04          	mov    DWORD PTR [esp+0x4],esi
 804ab81:	81 c6 00 00 04 00    	add    esi,0x40000
 804ab87:	89 5c 24 10          	mov    DWORD PTR [esp+0x10],ebx
 804ab8b:	c7 44 24 0c 41 6d 88 	mov    DWORD PTR [esp+0xc],0x8886d41
 804ab92:	08 
 804ab93:	c7 44 24 08 41 65 88 	mov    DWORD PTR [esp+0x8],0x8886541
 804ab9a:	08 
 804ab9b:	c7 04 24 41 69 88 08 	mov    DWORD PTR [esp],0x8886941
 804aba2:	89 04 fd 80 60 08 08 	mov    DWORD PTR [edi*8+0x8086080],eax
 804aba9:	89 14 fd 84 60 08 08 	mov    DWORD PTR [edi*8+0x8086084],edx
 804abb0:	83 c7 01             	add    edi,0x1
 804abb3:	e8 d8 3e 02 00       	call   806ea90
 804abb8:	81 fe 41 61 dc 08    	cmp    esi,0x8dc6141
 804abbe:	75 b8                	jne    804ab78
 804abc0:	89 5c 24 08          	mov    DWORD PTR [esp+0x8],ebx
 804abc4:	31 f6                	xor    esi,esi
 804abc6:	c7 44 24 04 af ff 06 	mov    DWORD PTR [esp+0x4],0x806ffaf
 804abcd:	08 
 804abce:	c7 04 24 01 00 00 00 	mov    DWORD PTR [esp],0x1
 804abd5:	e8 86 d8 ff ff       	call   8048460
 804abda:	c7 04 24 41 00 00 00 	mov    DWORD PTR [esp],0x41
 804abe1:	e8 6a d8 ff ff       	call   8048450
 804abe6:	c7 44 24 04 c0 ff 06 	mov    DWORD PTR [esp+0x4],0x806ffc0
 804abed:	08 
 804abee:	c7 04 24 01 00 00 00 	mov    DWORD PTR [esp],0x1
 804abf5:	e8 66 d8 ff ff       	call   8048460
 804abfa:	c7 04 24 2d 00 00 00 	mov    DWORD PTR [esp],0x2d
 804ac01:	e8 4a d8 ff ff       	call   8048450
 804ac06:	c7 04 24 44 00 00 00 	mov    DWORD PTR [esp],0x44
 804ac0d:	e8 3e d8 ff ff       	call   8048450
 804ac12:	8d b6 00 00 00 00    	lea    esi,[esi]
 804ac18:	83 c6 01             	add    esi,0x1
 804ac1b:	8b 04 f5 80 60 08 08 	mov    eax,DWORD PTR [esi*8+0x8086080]
 804ac22:	8b 14 f5 84 60 08 08 	mov    edx,DWORD PTR [esi*8+0x8086084]
 804ac29:	2b 04 f5 78 60 08 08 	sub    eax,DWORD PTR [esi*8+0x8086078]
 804ac30:	1b 14 f5 7c 60 08 08 	sbb    edx,DWORD PTR [esi*8+0x808607c]
 804ac37:	c7 44 24 04 b9 ff 06 	mov    DWORD PTR [esp+0x4],0x806ffb9
 804ac3e:	08 
 804ac3f:	89 44 24 08          	mov    DWORD PTR [esp+0x8],eax
 804ac43:	89 54 24 0c          	mov    DWORD PTR [esp+0xc],edx
 804ac47:	c7 04 24 01 00 00 00 	mov    DWORD PTR [esp],0x1
 804ac4e:	e8 0d d8 ff ff       	call   8048460
 804ac53:	83 fe 14             	cmp    esi,0x14
 804ac56:	75 c0                	jne    804ac18
 804ac58:	c7 04 24 0a 00 00 00 	mov    DWORD PTR [esp],0xa
 804ac5f:	bf 41 61 88 08       	mov    edi,0x8886141
 804ac64:	e8 e7 d7 ff ff       	call   8048450
 804ac69:	a1 40 60 08 08       	mov    eax,ds:0x8086040
 804ac6e:	89 04 24             	mov    DWORD PTR [esp],eax
 804ac71:	e8 8a d7 ff ff       	call   8048400
 804ac76:	66 90                	xchg   ax,ax
 804ac78:	31 f6                	xor    esi,esi
 804ac7a:	8d b6 00 00 00 00    	lea    esi,[esi]
 804ac80:	e8 eb d7 ff ff       	call   8048470
 804ac85:	88 04 37             	mov    BYTE PTR [edi+esi],al
 804ac88:	83 c6 01             	add    esi,0x1
 804ac8b:	83 fe 20             	cmp    esi,0x20
 804ac8e:	75 f0                	jne    804ac80
 804ac90:	66 31 f6             	xor    si,si
 804ac93:	90                   	nop
 804ac94:	8d 74 26 00          	lea    esi,[esi]
 804ac98:	e8 d3 d7 ff ff       	call   8048470
 804ac9d:	83 c6 01             	add    esi,0x1
 804aca0:	88 86 40 65 88 08    	mov    BYTE PTR [esi+0x8886540],al
 804aca6:	83 fe 10             	cmp    esi,0x10
 804aca9:	75 ed                	jne    804ac98
 804acab:	66 31 f6             	xor    si,si
 804acae:	66 90                	xchg   ax,ax
 804acb0:	e8 bb d7 ff ff       	call   8048470
 804acb5:	83 c6 01             	add    esi,0x1
 804acb8:	88 86 40 69 88 08    	mov    BYTE PTR [esi+0x8886940],al
 804acbe:	83 fe 10             	cmp    esi,0x10
 804acc1:	75 ed                	jne    804acb0
 804acc3:	66 31 f6             	xor    si,si
 804acc6:	85 db                	test   ebx,ebx
 804acc8:	74 18                	je     804ace2
 804acca:	8d b6 00 00 00 00    	lea    esi,[esi]
 804acd0:	e8 9b d7 ff ff       	call   8048470
 804acd5:	83 c6 01             	add    esi,0x1
 804acd8:	88 86 40 6d 88 08    	mov    BYTE PTR [esi+0x8886d40],al
 804acde:	39 de                	cmp    esi,ebx
 804ace0:	75 ee                	jne    804acd0
 804ace2:	89 3c 24             	mov    DWORD PTR [esp],edi
 804ace5:	81 c7 00 00 01 00    	add    edi,0x10000
 804aceb:	e8 30 3d 02 00       	call   806ea20
 804acf0:	81 ff 41 61 9d 08    	cmp    edi,0x89d6141
 804acf6:	75 80                	jne    804ac78
 804acf8:	e8 a3 3b 02 00       	call   806e8a0
 804acfd:	31 c0                	xor    eax,eax
 804acff:	90                   	nop
 804ad00:	0f b6 90 41 65 88 08 	movzx  edx,BYTE PTR [eax+0x8886541]
 804ad07:	30 90 40 61 08 08    	xor    BYTE PTR [eax+0x8086140],dl
 804ad0d:	83 c0 01             	add    eax,0x1
 804ad10:	83 f8 10             	cmp    eax,0x10
 804ad13:	75 eb                	jne    804ad00
 804ad15:	30 c0                	xor    al,al
 804ad17:	90                   	nop
 804ad18:	0f b6 90 41 69 88 08 	movzx  edx,BYTE PTR [eax+0x8886941]
 804ad1f:	30 90 40 61 08 08    	xor    BYTE PTR [eax+0x8086140],dl
 804ad25:	83 c0 01             	add    eax,0x1
 804ad28:	83 f8 10             	cmp    eax,0x10
 804ad2b:	75 eb                	jne    804ad18
 804ad2d:	85 db                	test   ebx,ebx
 804ad2f:	74 1b                	je     804ad4c
 804ad31:	30 c0                	xor    al,al
 804ad33:	90                   	nop
 804ad34:	8d 74 26 00          	lea    esi,[esi]
 804ad38:	0f b6 90 41 6d 88 08 	movzx  edx,BYTE PTR [eax+0x8886d41]
 804ad3f:	30 90 40 61 08 08    	xor    BYTE PTR [eax+0x8086140],dl
 804ad45:	83 c0 01             	add    eax,0x1
 804ad48:	39 d8                	cmp    eax,ebx
 804ad4a:	75 ec                	jne    804ad38
 804ad4c:	31 f6                	xor    esi,esi
 804ad4e:	66 90                	xchg   ax,ax
 804ad50:	e8 7b 51 02 00       	call   806fed0
 804ad55:	89 04 f5 80 60 08 08 	mov    DWORD PTR [esi*8+0x8086080],eax
 804ad5c:	89 14 f5 84 60 08 08 	mov    DWORD PTR [esi*8+0x8086084],edx
 804ad63:	83 c6 01             	add    esi,0x1
 804ad66:	83 fe 15             	cmp    esi,0x15
 804ad69:	75 e5                	jne    804ad50
 804ad6b:	31 ff                	xor    edi,edi
 804ad6d:	be 41 61 88 08       	mov    esi,0x8886141
 804ad72:	8d b6 00 00 00 00    	lea    esi,[esi]
 804ad78:	e8 53 51 02 00       	call   806fed0
 804ad7d:	89 74 24 04          	mov    DWORD PTR [esp+0x4],esi
 804ad81:	81 c6 00 00 04 00    	add    esi,0x40000
 804ad87:	89 5c 24 10          	mov    DWORD PTR [esp+0x10],ebx
 804ad8b:	c7 44 24 0c 41 6d 88 	mov    DWORD PTR [esp+0xc],0x8886d41
 804ad92:	08 
 804ad93:	c7 44 24 08 41 65 88 	mov    DWORD PTR [esp+0x8],0x8886541
 804ad9a:	08 
 804ad9b:	c7 04 24 41 69 88 08 	mov    DWORD PTR [esp],0x8886941
 804ada2:	89 04 fd 80 60 08 08 	mov    DWORD PTR [edi*8+0x8086080],eax
 804ada9:	89 14 fd 84 60 08 08 	mov    DWORD PTR [edi*8+0x8086084],edx
 804adb0:	83 c7 01             	add    edi,0x1
 804adb3:	e8 d8 3c 02 00       	call   806ea90
 804adb8:	81 fe 41 61 dc 08    	cmp    esi,0x8dc6141
 804adbe:	75 b8                	jne    804ad78
 804adc0:	89 5c 24 08          	mov    DWORD PTR [esp+0x8],ebx
 804adc4:	31 f6                	xor    esi,esi
 804adc6:	c7 44 24 04 af ff 06 	mov    DWORD PTR [esp+0x4],0x806ffaf
 804adcd:	08 
 804adce:	c7 04 24 01 00 00 00 	mov    DWORD PTR [esp],0x1
 804add5:	e8 86 d6 ff ff       	call   8048460
 804adda:	c7 04 24 41 00 00 00 	mov    DWORD PTR [esp],0x41
 804ade1:	e8 6a d6 ff ff       	call   8048450
 804ade6:	c7 44 24 04 c0 ff 06 	mov    DWORD PTR [esp+0x4],0x806ffc0
 804aded:	08 
 804adee:	c7 04 24 01 00 00 00 	mov    DWORD PTR [esp],0x1
 804adf5:	e8 66 d6 ff ff       	call   8048460
 804adfa:	c7 04 24 2d 00 00 00 	mov    DWORD PTR [esp],0x2d
 804ae01:	e8 4a d6 ff ff       	call   8048450
 804ae06:	c7 04 24 44 00 00 00 	mov    DWORD PTR [esp],0x44
 804ae0d:	e8 3e d6 ff ff       	call   8048450
 804ae12:	8d b6 00 00 00 00    	lea    esi,[esi]
 804ae18:	83 c6 01             	add    esi,0x1
 804ae1b:	8b 04 f5 80 60 08 08 	mov    eax,DWORD PTR [esi*8+0x8086080]
 804ae22:	8b 14 f5 84 60 08 08 	mov    edx,DWORD PTR [esi*8+0x8086084]
 804ae29:	2b 04 f5 78 60 08 08 	sub    eax,DWORD PTR [esi*8+0x8086078]
 804ae30:	1b 14 f5 7c 60 08 08 	sbb    edx,DWORD PTR [esi*8+0x808607c]
 804ae37:	c7 44 24 04 b9 ff 06 	mov    DWORD PTR [esp+0x4],0x806ffb9
 804ae3e:	08 
 804ae3f:	89 44 24 08          	mov    DWORD PTR [esp+0x8],eax
 804ae43:	89 54 24 0c          	mov    DWORD PTR [esp+0xc],edx
 804ae47:	c7 04 24 01 00 00 00 	mov    DWORD PTR [esp],0x1
 804ae4e:	e8 0d d6 ff ff       	call   8048460
 804ae53:	83 fe 14             	cmp    esi,0x14
 804ae56:	75 c0                	jne    804ae18
 804ae58:	c7 04 24 0a 00 00 00 	mov    DWORD PTR [esp],0xa
 804ae5f:	bf 41 61 88 08       	mov    edi,0x8886141
 804ae64:	e8 e7 d5 ff ff       	call   8048450
 804ae69:	a1 40 60 08 08       	mov    eax,ds:0x8086040
 804ae6e:	89 04 24             	mov    DWORD PTR [esp],eax
 804ae71:	e8 8a d5 ff ff       	call   8048400
 804ae76:	66 90                	xchg   ax,ax
 804ae78:	31 f6                	xor    esi,esi
 804ae7a:	8d b6 00 00 00 00    	lea    esi,[esi]
 804ae80:	e8 eb d5 ff ff       	call   8048470
 804ae85:	88 04 37             	mov    BYTE PTR [edi+esi],al
 804ae88:	83 c6 01             	add    esi,0x1
 804ae8b:	83 fe 20             	cmp    esi,0x20
 804ae8e:	75 f0                	jne    804ae80
 804ae90:	66 31 f6             	xor    si,si
 804ae93:	90                   	nop
 804ae94:	8d 74 26 00          	lea    esi,[esi]
 804ae98:	e8 d3 d5 ff ff       	call   8048470
 804ae9d:	83 c6 01             	add    esi,0x1
 804aea0:	88 86 40 65 88 08    	mov    BYTE PTR [esi+0x8886540],al
 804aea6:	83 fe 10             	cmp    esi,0x10
 804aea9:	75 ed                	jne    804ae98
 804aeab:	66 31 f6             	xor    si,si
 804aeae:	66 90                	xchg   ax,ax
 804aeb0:	e8 bb d5 ff ff       	call   8048470
 804aeb5:	83 c6 01             	add    esi,0x1
 804aeb8:	88 86 40 69 88 08    	mov    BYTE PTR [esi+0x8886940],al
 804aebe:	83 fe 10             	cmp    esi,0x10
 804aec1:	75 ed                	jne    804aeb0
 804aec3:	66 31 f6             	xor    si,si
 804aec6:	85 db                	test   ebx,ebx
 804aec8:	74 18                	je     804aee2
 804aeca:	8d b6 00 00 00 00    	lea    esi,[esi]
 804aed0:	e8 9b d5 ff ff       	call   8048470
 804aed5:	83 c6 01             	add    esi,0x1
 804aed8:	88 86 40 6d 88 08    	mov    BYTE PTR [esi+0x8886d40],al
 804aede:	39 de                	cmp    esi,ebx
 804aee0:	75 ee                	jne    804aed0
 804aee2:	89 3c 24             	mov    DWORD PTR [esp],edi
 804aee5:	81 c7 00 00 01 00    	add    edi,0x10000
 804aeeb:	e8 30 3b 02 00       	call   806ea20
 804aef0:	81 ff 41 61 9d 08    	cmp    edi,0x89d6141
 804aef6:	75 80                	jne    804ae78
 804aef8:	e8 a3 39 02 00       	call   806e8a0
 804aefd:	31 c0                	xor    eax,eax
 804aeff:	90                   	nop
 804af00:	0f b6 90 41 65 88 08 	movzx  edx,BYTE PTR [eax+0x8886541]
 804af07:	30 90 40 61 08 08    	xor    BYTE PTR [eax+0x8086140],dl
 804af0d:	83 c0 01             	add    eax,0x1
 804af10:	83 f8 10             	cmp    eax,0x10
 804af13:	75 eb                	jne    804af00
 804af15:	30 c0                	xor    al,al
 804af17:	90                   	nop
 804af18:	0f b6 90 41 69 88 08 	movzx  edx,BYTE PTR [eax+0x8886941]
 804af1f:	30 90 40 61 08 08    	xor    BYTE PTR [eax+0x8086140],dl
 804af25:	83 c0 01             	add    eax,0x1
 804af28:	83 f8 10             	cmp    eax,0x10
 804af2b:	75 eb                	jne    804af18
 804af2d:	85 db                	test   ebx,ebx
 804af2f:	74 1b                	je     804af4c
 804af31:	30 c0                	xor    al,al
 804af33:	90                   	nop
 804af34:	8d 74 26 00          	lea    esi,[esi]
 804af38:	0f b6 90 41 6d 88 08 	movzx  edx,BYTE PTR [eax+0x8886d41]
 804af3f:	30 90 40 61 08 08    	xor    BYTE PTR [eax+0x8086140],dl
 804af45:	83 c0 01             	add    eax,0x1
 804af48:	39 d8                	cmp    eax,ebx
 804af4a:	75 ec                	jne    804af38
 804af4c:	31 f6                	xor    esi,esi
 804af4e:	66 90                	xchg   ax,ax
 804af50:	e8 7b 4f 02 00       	call   806fed0
 804af55:	89 04 f5 80 60 08 08 	mov    DWORD PTR [esi*8+0x8086080],eax
 804af5c:	89 14 f5 84 60 08 08 	mov    DWORD PTR [esi*8+0x8086084],edx
 804af63:	83 c6 01             	add    esi,0x1
 804af66:	83 fe 15             	cmp    esi,0x15
 804af69:	75 e5                	jne    804af50
 804af6b:	31 ff                	xor    edi,edi
 804af6d:	be 41 61 88 08       	mov    esi,0x8886141
 804af72:	8d b6 00 00 00 00    	lea    esi,[esi]
 804af78:	e8 53 4f 02 00       	call   806fed0
 804af7d:	89 74 24 04          	mov    DWORD PTR [esp+0x4],esi
 804af81:	81 c6 00 00 04 00    	add    esi,0x40000
 804af87:	89 5c 24 10          	mov    DWORD PTR [esp+0x10],ebx
 804af8b:	c7 44 24 0c 41 6d 88 	mov    DWORD PTR [esp+0xc],0x8886d41
 804af92:	08 
 804af93:	c7 44 24 08 41 65 88 	mov    DWORD PTR [esp+0x8],0x8886541
 804af9a:	08 
 804af9b:	c7 04 24 41 69 88 08 	mov    DWORD PTR [esp],0x8886941
 804afa2:	89 04 fd 80 60 08 08 	mov    DWORD PTR [edi*8+0x8086080],eax
 804afa9:	89 14 fd 84 60 08 08 	mov    DWORD PTR [edi*8+0x8086084],edx
 804afb0:	83 c7 01             	add    edi,0x1
 804afb3:	e8 d8 3a 02 00       	call   806ea90
 804afb8:	81 fe 41 61 dc 08    	cmp    esi,0x8dc6141
 804afbe:	75 b8                	jne    804af78
 804afc0:	89 5c 24 08          	mov    DWORD PTR [esp+0x8],ebx
 804afc4:	31 f6                	xor    esi,esi
 804afc6:	c7 44 24 04 af ff 06 	mov    DWORD PTR [esp+0x4],0x806ffaf
 804afcd:	08 
 804afce:	c7 04 24 01 00 00 00 	mov    DWORD PTR [esp],0x1
 804afd5:	e8 86 d4 ff ff       	call   8048460
 804afda:	c7 04 24 41 00 00 00 	mov    DWORD PTR [esp],0x41
 804afe1:	e8 6a d4 ff ff       	call   8048450
 804afe6:	c7 44 24 04 c0 ff 06 	mov    DWORD PTR [esp+0x4],0x806ffc0
 804afed:	08 
 804afee:	c7 04 24 01 00 00 00 	mov    DWORD PTR [esp],0x1
 804aff5:	e8 66 d4 ff ff       	call   8048460
 804affa:	c7 04 24 2d 00 00 00 	mov    DWORD PTR [esp],0x2d
 804b001:	e8 4a d4 ff ff       	call   8048450
 804b006:	c7 04 24 44 00 00 00 	mov    DWORD PTR [esp],0x44
 804b00d:	e8 3e d4 ff ff       	call   8048450
 804b012:	8d b6 00 00 00 00    	lea    esi,[esi]
 804b018:	83 c6 01             	add    esi,0x1
 804b01b:	8b 04 f5 80 60 08 08 	mov    eax,DWORD PTR [esi*8+0x8086080]
 804b022:	8b 14 f5 84 60 08 08 	mov    edx,DWORD PTR [esi*8+0x8086084]
 804b029:	2b 04 f5 78 60 08 08 	sub    eax,DWORD PTR [esi*8+0x8086078]
 804b030:	1b 14 f5 7c 60 08 08 	sbb    edx,DWORD PTR [esi*8+0x808607c]
 804b037:	c7 44 24 04 b9 ff 06 	mov    DWORD PTR [esp+0x4],0x806ffb9
 804b03e:	08 
 804b03f:	89 44 24 08          	mov    DWORD PTR [esp+0x8],eax
 804b043:	89 54 24 0c          	mov    DWORD PTR [esp+0xc],edx
 804b047:	c7 04 24 01 00 00 00 	mov    DWORD PTR [esp],0x1
 804b04e:	e8 0d d4 ff ff       	call   8048460
 804b053:	83 fe 14             	cmp    esi,0x14
 804b056:	75 c0                	jne    804b018
 804b058:	c7 04 24 0a 00 00 00 	mov    DWORD PTR [esp],0xa
 804b05f:	bf 41 61 88 08       	mov    edi,0x8886141
 804b064:	e8 e7 d3 ff ff       	call   8048450
 804b069:	a1 40 60 08 08       	mov    eax,ds:0x8086040
 804b06e:	89 04 24             	mov    DWORD PTR [esp],eax
 804b071:	e8 8a d3 ff ff       	call   8048400
 804b076:	66 90                	xchg   ax,ax
 804b078:	31 f6                	xor    esi,esi
 804b07a:	8d b6 00 00 00 00    	lea    esi,[esi]
 804b080:	e8 eb d3 ff ff       	call   8048470
 804b085:	88 04 37             	mov    BYTE PTR [edi+esi],al
 804b088:	83 c6 01             	add    esi,0x1
 804b08b:	83 fe 20             	cmp    esi,0x20
 804b08e:	75 f0                	jne    804b080
 804b090:	66 31 f6             	xor    si,si
 804b093:	90                   	nop
 804b094:	8d 74 26 00          	lea    esi,[esi]
 804b098:	e8 d3 d3 ff ff       	call   8048470
 804b09d:	83 c6 01             	add    esi,0x1
 804b0a0:	88 86 40 65 88 08    	mov    BYTE PTR [esi+0x8886540],al
 804b0a6:	83 fe 10             	cmp    esi,0x10
 804b0a9:	75 ed                	jne    804b098
 804b0ab:	66 31 f6             	xor    si,si
 804b0ae:	66 90                	xchg   ax,ax
 804b0b0:	e8 bb d3 ff ff       	call   8048470
 804b0b5:	83 c6 01             	add    esi,0x1
 804b0b8:	88 86 40 69 88 08    	mov    BYTE PTR [esi+0x8886940],al
 804b0be:	83 fe 10             	cmp    esi,0x10
 804b0c1:	75 ed                	jne    804b0b0
 804b0c3:	66 31 f6             	xor    si,si
 804b0c6:	85 db                	test   ebx,ebx
 804b0c8:	74 18                	je     804b0e2
 804b0ca:	8d b6 00 00 00 00    	lea    esi,[esi]
 804b0d0:	e8 9b d3 ff ff       	call   8048470
 804b0d5:	83 c6 01             	add    esi,0x1
 804b0d8:	88 86 40 6d 88 08    	mov    BYTE PTR [esi+0x8886d40],al
 804b0de:	39 de                	cmp    esi,ebx
 804b0e0:	75 ee                	jne    804b0d0
 804b0e2:	89 3c 24             	mov    DWORD PTR [esp],edi
 804b0e5:	81 c7 00 00 01 00    	add    edi,0x10000
 804b0eb:	e8 30 39 02 00       	call   806ea20
 804b0f0:	81 ff 41 61 9d 08    	cmp    edi,0x89d6141
 804b0f6:	75 80                	jne    804b078
 804b0f8:	e8 a3 37 02 00       	call   806e8a0
 804b0fd:	31 c0                	xor    eax,eax
 804b0ff:	90                   	nop
 804b100:	0f b6 90 41 65 88 08 	movzx  edx,BYTE PTR [eax+0x8886541]
 804b107:	30 90 40 61 08 08    	xor    BYTE PTR [eax+0x8086140],dl
 804b10d:	83 c0 01             	add    eax,0x1
 804b110:	83 f8 10             	cmp    eax,0x10
 804b113:	75 eb                	jne    804b100
 804b115:	30 c0                	xor    al,al
 804b117:	90                   	nop
 804b118:	0f b6 90 41 69 88 08 	movzx  edx,BYTE PTR [eax+0x8886941]
 804b11f:	30 90 40 61 08 08    	xor    BYTE PTR [eax+0x8086140],dl
 804b125:	83 c0 01             	add    eax,0x1
 804b128:	83 f8 10             	cmp    eax,0x10
 804b12b:	75 eb                	jne    804b118
 804b12d:	85 db                	test   ebx,ebx
 804b12f:	74 1b                	je     804b14c
 804b131:	30 c0                	xor    al,al
 804b133:	90                   	nop
 804b134:	8d 74 26 00          	lea    esi,[esi]
 804b138:	0f b6 90 41 6d 88 08 	movzx  edx,BYTE PTR [eax+0x8886d41]
 804b13f:	30 90 40 61 08 08    	xor    BYTE PTR [eax+0x8086140],dl
 804b145:	83 c0 01             	add    eax,0x1
 804b148:	39 d8                	cmp    eax,ebx
 804b14a:	75 ec                	jne    804b138
 804b14c:	31 f6                	xor    esi,esi
 804b14e:	66 90                	xchg   ax,ax
 804b150:	e8 7b 4d 02 00       	call   806fed0
 804b155:	89 04 f5 80 60 08 08 	mov    DWORD PTR [esi*8+0x8086080],eax
 804b15c:	89 14 f5 84 60 08 08 	mov    DWORD PTR [esi*8+0x8086084],edx
 804b163:	83 c6 01             	add    esi,0x1
 804b166:	83 fe 15             	cmp    esi,0x15
 804b169:	75 e5                	jne    804b150
 804b16b:	31 ff                	xor    edi,edi
 804b16d:	be 41 61 88 08       	mov    esi,0x8886141
 804b172:	8d b6 00 00 00 00    	lea    esi,[esi]
 804b178:	e8 53 4d 02 00       	call   806fed0
 804b17d:	89 74 24 04          	mov    DWORD PTR [esp+0x4],esi
 804b181:	81 c6 00 00 04 00    	add    esi,0x40000
 804b187:	89 5c 24 10          	mov    DWORD PTR [esp+0x10],ebx
 804b18b:	c7 44 24 0c 41 6d 88 	mov    DWORD PTR [esp+0xc],0x8886d41
 804b192:	08 
 804b193:	c7 44 24 08 41 65 88 	mov    DWORD PTR [esp+0x8],0x8886541
 804b19a:	08 
 804b19b:	c7 04 24 41 69 88 08 	mov    DWORD PTR [esp],0x8886941
 804b1a2:	89 04 fd 80 60 08 08 	mov    DWORD PTR [edi*8+0x8086080],eax
 804b1a9:	89 14 fd 84 60 08 08 	mov    DWORD PTR [edi*8+0x8086084],edx
 804b1b0:	83 c7 01             	add    edi,0x1
 804b1b3:	e8 98 37 02 00       	call   806e950
 804b1b8:	81 fe 41 61 dc 08    	cmp    esi,0x8dc6141
 804b1be:	75 b8                	jne    804b178
 804b1c0:	89 5c 24 08          	mov    DWORD PTR [esp+0x8],ebx
 804b1c4:	31 f6                	xor    esi,esi
 804b1c6:	c7 44 24 04 af ff 06 	mov    DWORD PTR [esp+0x4],0x806ffaf
 804b1cd:	08 
 804b1ce:	c7 04 24 01 00 00 00 	mov    DWORD PTR [esp],0x1
 804b1d5:	e8 86 d2 ff ff       	call   8048460
 804b1da:	c7 04 24 56 00 00 00 	mov    DWORD PTR [esp],0x56
 804b1e1:	e8 6a d2 ff ff       	call   8048450
 804b1e6:	c7 44 24 04 c0 ff 06 	mov    DWORD PTR [esp+0x4],0x806ffc0
 804b1ed:	08 
 804b1ee:	c7 04 24 01 00 00 00 	mov    DWORD PTR [esp],0x1
 804b1f5:	e8 66 d2 ff ff       	call   8048460
 804b1fa:	c7 04 24 2d 00 00 00 	mov    DWORD PTR [esp],0x2d
 804b201:	e8 4a d2 ff ff       	call   8048450
 804b206:	c7 04 24 44 00 00 00 	mov    DWORD PTR [esp],0x44
 804b20d:	e8 3e d2 ff ff       	call   8048450
 804b212:	8d b6 00 00 00 00    	lea    esi,[esi]
 804b218:	83 c6 01             	add    esi,0x1
 804b21b:	8b 04 f5 80 60 08 08 	mov    eax,DWORD PTR [esi*8+0x8086080]
 804b222:	8b 14 f5 84 60 08 08 	mov    edx,DWORD PTR [esi*8+0x8086084]
 804b229:	2b 04 f5 78 60 08 08 	sub    eax,DWORD PTR [esi*8+0x8086078]
 804b230:	1b 14 f5 7c 60 08 08 	sbb    edx,DWORD PTR [esi*8+0x808607c]
 804b237:	c7 44 24 04 b9 ff 06 	mov    DWORD PTR [esp+0x4],0x806ffb9
 804b23e:	08 
 804b23f:	89 44 24 08          	mov    DWORD PTR [esp+0x8],eax
 804b243:	89 54 24 0c          	mov    DWORD PTR [esp+0xc],edx
 804b247:	c7 04 24 01 00 00 00 	mov    DWORD PTR [esp],0x1
 804b24e:	e8 0d d2 ff ff       	call   8048460
 804b253:	83 fe 14             	cmp    esi,0x14
 804b256:	75 c0                	jne    804b218
 804b258:	c7 04 24 0a 00 00 00 	mov    DWORD PTR [esp],0xa
 804b25f:	bf 41 61 88 08       	mov    edi,0x8886141
 804b264:	e8 e7 d1 ff ff       	call   8048450
 804b269:	a1 40 60 08 08       	mov    eax,ds:0x8086040
 804b26e:	89 04 24             	mov    DWORD PTR [esp],eax
 804b271:	e8 8a d1 ff ff       	call   8048400
 804b276:	66 90                	xchg   ax,ax
 804b278:	31 f6                	xor    esi,esi
 804b27a:	8d b6 00 00 00 00    	lea    esi,[esi]
 804b280:	e8 eb d1 ff ff       	call   8048470
 804b285:	88 04 37             	mov    BYTE PTR [edi+esi],al
 804b288:	83 c6 01             	add    esi,0x1
 804b28b:	83 fe 20             	cmp    esi,0x20
 804b28e:	75 f0                	jne    804b280
 804b290:	66 31 f6             	xor    si,si
 804b293:	90                   	nop
 804b294:	8d 74 26 00          	lea    esi,[esi]
 804b298:	e8 d3 d1 ff ff       	call   8048470
 804b29d:	83 c6 01             	add    esi,0x1
 804b2a0:	88 86 40 65 88 08    	mov    BYTE PTR [esi+0x8886540],al
 804b2a6:	83 fe 10             	cmp    esi,0x10
 804b2a9:	75 ed                	jne    804b298
 804b2ab:	66 31 f6             	xor    si,si
 804b2ae:	66 90                	xchg   ax,ax
 804b2b0:	e8 bb d1 ff ff       	call   8048470
 804b2b5:	83 c6 01             	add    esi,0x1
 804b2b8:	88 86 40 69 88 08    	mov    BYTE PTR [esi+0x8886940],al
 804b2be:	83 fe 10             	cmp    esi,0x10
 804b2c1:	75 ed                	jne    804b2b0
 804b2c3:	66 31 f6             	xor    si,si
 804b2c6:	85 db                	test   ebx,ebx
 804b2c8:	74 18                	je     804b2e2
 804b2ca:	8d b6 00 00 00 00    	lea    esi,[esi]
 804b2d0:	e8 9b d1 ff ff       	call   8048470
 804b2d5:	83 c6 01             	add    esi,0x1
 804b2d8:	88 86 40 6d 88 08    	mov    BYTE PTR [esi+0x8886d40],al
 804b2de:	39 de                	cmp    esi,ebx
 804b2e0:	75 ee                	jne    804b2d0
 804b2e2:	89 3c 24             	mov    DWORD PTR [esp],edi
 804b2e5:	81 c7 00 00 01 00    	add    edi,0x10000
 804b2eb:	e8 30 37 02 00       	call   806ea20
 804b2f0:	81 ff 41 61 9d 08    	cmp    edi,0x89d6141
 804b2f6:	75 80                	jne    804b278
 804b2f8:	e8 a3 35 02 00       	call   806e8a0
 804b2fd:	31 c0                	xor    eax,eax
 804b2ff:	90                   	nop
 804b300:	0f b6 90 41 65 88 08 	movzx  edx,BYTE PTR [eax+0x8886541]
 804b307:	30 90 40 61 08 08    	xor    BYTE PTR [eax+0x8086140],dl
 804b30d:	83 c0 01             	add    eax,0x1
 804b310:	83 f8 10             	cmp    eax,0x10
 804b313:	75 eb                	jne    804b300
 804b315:	30 c0                	xor    al,al
 804b317:	90                   	nop
 804b318:	0f b6 90 41 69 88 08 	movzx  edx,BYTE PTR [eax+0x8886941]
 804b31f:	30 90 40 61 08 08    	xor    BYTE PTR [eax+0x8086140],dl
 804b325:	83 c0 01             	add    eax,0x1
 804b328:	83 f8 10             	cmp    eax,0x10
 804b32b:	75 eb                	jne    804b318
 804b32d:	85 db                	test   ebx,ebx
 804b32f:	74 1b                	je     804b34c
 804b331:	30 c0                	xor    al,al
 804b333:	90                   	nop
 804b334:	8d 74 26 00          	lea    esi,[esi]
 804b338:	0f b6 90 41 6d 88 08 	movzx  edx,BYTE PTR [eax+0x8886d41]
 804b33f:	30 90 40 61 08 08    	xor    BYTE PTR [eax+0x8086140],dl
 804b345:	83 c0 01             	add    eax,0x1
 804b348:	39 d8                	cmp    eax,ebx
 804b34a:	75 ec                	jne    804b338
 804b34c:	31 f6                	xor    esi,esi
 804b34e:	66 90                	xchg   ax,ax
 804b350:	e8 7b 4b 02 00       	call   806fed0
 804b355:	89 04 f5 80 60 08 08 	mov    DWORD PTR [esi*8+0x8086080],eax
 804b35c:	89 14 f5 84 60 08 08 	mov    DWORD PTR [esi*8+0x8086084],edx
 804b363:	83 c6 01             	add    esi,0x1
 804b366:	83 fe 15             	cmp    esi,0x15
 804b369:	75 e5                	jne    804b350
 804b36b:	31 ff                	xor    edi,edi
 804b36d:	be 41 61 88 08       	mov    esi,0x8886141
 804b372:	8d b6 00 00 00 00    	lea    esi,[esi]
 804b378:	e8 53 4b 02 00       	call   806fed0
 804b37d:	89 74 24 04          	mov    DWORD PTR [esp+0x4],esi
 804b381:	81 c6 00 00 04 00    	add    esi,0x40000
 804b387:	89 5c 24 10          	mov    DWORD PTR [esp+0x10],ebx
 804b38b:	c7 44 24 0c 41 6d 88 	mov    DWORD PTR [esp+0xc],0x8886d41
 804b392:	08 
 804b393:	c7 44 24 08 41 65 88 	mov    DWORD PTR [esp+0x8],0x8886541
 804b39a:	08 
 804b39b:	c7 04 24 41 69 88 08 	mov    DWORD PTR [esp],0x8886941
 804b3a2:	89 04 fd 80 60 08 08 	mov    DWORD PTR [edi*8+0x8086080],eax
 804b3a9:	89 14 fd 84 60 08 08 	mov    DWORD PTR [edi*8+0x8086084],edx
 804b3b0:	83 c7 01             	add    edi,0x1
 804b3b3:	e8 98 35 02 00       	call   806e950
 804b3b8:	81 fe 41 61 dc 08    	cmp    esi,0x8dc6141
 804b3be:	75 b8                	jne    804b378
 804b3c0:	89 5c 24 08          	mov    DWORD PTR [esp+0x8],ebx
 804b3c4:	31 f6                	xor    esi,esi
 804b3c6:	c7 44 24 04 af ff 06 	mov    DWORD PTR [esp+0x4],0x806ffaf
 804b3cd:	08 
 804b3ce:	c7 04 24 01 00 00 00 	mov    DWORD PTR [esp],0x1
 804b3d5:	e8 86 d0 ff ff       	call   8048460
 804b3da:	c7 04 24 56 00 00 00 	mov    DWORD PTR [esp],0x56
 804b3e1:	e8 6a d0 ff ff       	call   8048450
 804b3e6:	c7 44 24 04 c0 ff 06 	mov    DWORD PTR [esp+0x4],0x806ffc0
 804b3ed:	08 
 804b3ee:	c7 04 24 01 00 00 00 	mov    DWORD PTR [esp],0x1
 804b3f5:	e8 66 d0 ff ff       	call   8048460
 804b3fa:	c7 04 24 2d 00 00 00 	mov    DWORD PTR [esp],0x2d
 804b401:	e8 4a d0 ff ff       	call   8048450
 804b406:	c7 04 24 44 00 00 00 	mov    DWORD PTR [esp],0x44
 804b40d:	e8 3e d0 ff ff       	call   8048450
 804b412:	8d b6 00 00 00 00    	lea    esi,[esi]
 804b418:	83 c6 01             	add    esi,0x1
 804b41b:	8b 04 f5 80 60 08 08 	mov    eax,DWORD PTR [esi*8+0x8086080]
 804b422:	8b 14 f5 84 60 08 08 	mov    edx,DWORD PTR [esi*8+0x8086084]
 804b429:	2b 04 f5 78 60 08 08 	sub    eax,DWORD PTR [esi*8+0x8086078]
 804b430:	1b 14 f5 7c 60 08 08 	sbb    edx,DWORD PTR [esi*8+0x808607c]
 804b437:	c7 44 24 04 b9 ff 06 	mov    DWORD PTR [esp+0x4],0x806ffb9
 804b43e:	08 
 804b43f:	89 44 24 08          	mov    DWORD PTR [esp+0x8],eax
 804b443:	89 54 24 0c          	mov    DWORD PTR [esp+0xc],edx
 804b447:	c7 04 24 01 00 00 00 	mov    DWORD PTR [esp],0x1
 804b44e:	e8 0d d0 ff ff       	call   8048460
 804b453:	83 fe 14             	cmp    esi,0x14
 804b456:	75 c0                	jne    804b418
 804b458:	c7 04 24 0a 00 00 00 	mov    DWORD PTR [esp],0xa
 804b45f:	bf 41 61 88 08       	mov    edi,0x8886141
 804b464:	e8 e7 cf ff ff       	call   8048450
 804b469:	a1 40 60 08 08       	mov    eax,ds:0x8086040
 804b46e:	89 04 24             	mov    DWORD PTR [esp],eax
 804b471:	e8 8a cf ff ff       	call   8048400
 804b476:	66 90                	xchg   ax,ax
 804b478:	31 f6                	xor    esi,esi
 804b47a:	8d b6 00 00 00 00    	lea    esi,[esi]
 804b480:	e8 eb cf ff ff       	call   8048470
 804b485:	88 04 37             	mov    BYTE PTR [edi+esi],al
 804b488:	83 c6 01             	add    esi,0x1
 804b48b:	83 fe 20             	cmp    esi,0x20
 804b48e:	75 f0                	jne    804b480
 804b490:	66 31 f6             	xor    si,si
 804b493:	90                   	nop
 804b494:	8d 74 26 00          	lea    esi,[esi]
 804b498:	e8 d3 cf ff ff       	call   8048470
 804b49d:	83 c6 01             	add    esi,0x1
 804b4a0:	88 86 40 65 88 08    	mov    BYTE PTR [esi+0x8886540],al
 804b4a6:	83 fe 10             	cmp    esi,0x10
 804b4a9:	75 ed                	jne    804b498
 804b4ab:	66 31 f6             	xor    si,si
 804b4ae:	66 90                	xchg   ax,ax
 804b4b0:	e8 bb cf ff ff       	call   8048470
 804b4b5:	83 c6 01             	add    esi,0x1
 804b4b8:	88 86 40 69 88 08    	mov    BYTE PTR [esi+0x8886940],al
 804b4be:	83 fe 10             	cmp    esi,0x10
 804b4c1:	75 ed                	jne    804b4b0
 804b4c3:	66 31 f6             	xor    si,si
 804b4c6:	85 db                	test   ebx,ebx
 804b4c8:	74 18                	je     804b4e2
 804b4ca:	8d b6 00 00 00 00    	lea    esi,[esi]
 804b4d0:	e8 9b cf ff ff       	call   8048470
 804b4d5:	83 c6 01             	add    esi,0x1
 804b4d8:	88 86 40 6d 88 08    	mov    BYTE PTR [esi+0x8886d40],al
 804b4de:	39 de                	cmp    esi,ebx
 804b4e0:	75 ee                	jne    804b4d0
 804b4e2:	89 3c 24             	mov    DWORD PTR [esp],edi
 804b4e5:	81 c7 00 00 01 00    	add    edi,0x10000
 804b4eb:	e8 30 35 02 00       	call   806ea20
 804b4f0:	81 ff 41 61 9d 08    	cmp    edi,0x89d6141
 804b4f6:	75 80                	jne    804b478
 804b4f8:	e8 a3 33 02 00       	call   806e8a0
 804b4fd:	31 c0                	xor    eax,eax
 804b4ff:	90                   	nop
 804b500:	0f b6 90 41 65 88 08 	movzx  edx,BYTE PTR [eax+0x8886541]
 804b507:	30 90 40 61 08 08    	xor    BYTE PTR [eax+0x8086140],dl
 804b50d:	83 c0 01             	add    eax,0x1
 804b510:	83 f8 10             	cmp    eax,0x10
 804b513:	75 eb                	jne    804b500
 804b515:	30 c0                	xor    al,al
 804b517:	90                   	nop
 804b518:	0f b6 90 41 69 88 08 	movzx  edx,BYTE PTR [eax+0x8886941]
 804b51f:	30 90 40 61 08 08    	xor    BYTE PTR [eax+0x8086140],dl
 804b525:	83 c0 01             	add    eax,0x1
 804b528:	83 f8 10             	cmp    eax,0x10
 804b52b:	75 eb                	jne    804b518
 804b52d:	85 db                	test   ebx,ebx
 804b52f:	74 1b                	je     804b54c
 804b531:	30 c0                	xor    al,al
 804b533:	90                   	nop
 804b534:	8d 74 26 00          	lea    esi,[esi]
 804b538:	0f b6 90 41 6d 88 08 	movzx  edx,BYTE PTR [eax+0x8886d41]
 804b53f:	30 90 40 61 08 08    	xor    BYTE PTR [eax+0x8086140],dl
 804b545:	83 c0 01             	add    eax,0x1
 804b548:	39 d8                	cmp    eax,ebx
 804b54a:	75 ec                	jne    804b538
 804b54c:	31 f6                	xor    esi,esi
 804b54e:	66 90                	xchg   ax,ax
 804b550:	e8 7b 49 02 00       	call   806fed0
 804b555:	89 04 f5 80 60 08 08 	mov    DWORD PTR [esi*8+0x8086080],eax
 804b55c:	89 14 f5 84 60 08 08 	mov    DWORD PTR [esi*8+0x8086084],edx
 804b563:	83 c6 01             	add    esi,0x1
 804b566:	83 fe 15             	cmp    esi,0x15
 804b569:	75 e5                	jne    804b550
 804b56b:	31 ff                	xor    edi,edi
 804b56d:	be 41 61 88 08       	mov    esi,0x8886141
 804b572:	8d b6 00 00 00 00    	lea    esi,[esi]
 804b578:	e8 53 49 02 00       	call   806fed0
 804b57d:	89 74 24 04          	mov    DWORD PTR [esp+0x4],esi
 804b581:	81 c6 00 00 04 00    	add    esi,0x40000
 804b587:	89 5c 24 10          	mov    DWORD PTR [esp+0x10],ebx
 804b58b:	c7 44 24 0c 41 6d 88 	mov    DWORD PTR [esp+0xc],0x8886d41
 804b592:	08 
 804b593:	c7 44 24 08 41 65 88 	mov    DWORD PTR [esp+0x8],0x8886541
 804b59a:	08 
 804b59b:	c7 04 24 41 69 88 08 	mov    DWORD PTR [esp],0x8886941
 804b5a2:	89 04 fd 80 60 08 08 	mov    DWORD PTR [edi*8+0x8086080],eax
 804b5a9:	89 14 fd 84 60 08 08 	mov    DWORD PTR [edi*8+0x8086084],edx
 804b5b0:	83 c7 01             	add    edi,0x1
 804b5b3:	e8 98 33 02 00       	call   806e950
 804b5b8:	81 fe 41 61 dc 08    	cmp    esi,0x8dc6141
 804b5be:	75 b8                	jne    804b578
 804b5c0:	89 5c 24 08          	mov    DWORD PTR [esp+0x8],ebx
 804b5c4:	31 f6                	xor    esi,esi
 804b5c6:	c7 44 24 04 af ff 06 	mov    DWORD PTR [esp+0x4],0x806ffaf
 804b5cd:	08 
 804b5ce:	c7 04 24 01 00 00 00 	mov    DWORD PTR [esp],0x1
 804b5d5:	e8 86 ce ff ff       	call   8048460
 804b5da:	c7 04 24 56 00 00 00 	mov    DWORD PTR [esp],0x56
 804b5e1:	e8 6a ce ff ff       	call   8048450
 804b5e6:	c7 44 24 04 c0 ff 06 	mov    DWORD PTR [esp+0x4],0x806ffc0
 804b5ed:	08 
 804b5ee:	c7 04 24 01 00 00 00 	mov    DWORD PTR [esp],0x1
 804b5f5:	e8 66 ce ff ff       	call   8048460
 804b5fa:	c7 04 24 2d 00 00 00 	mov    DWORD PTR [esp],0x2d
 804b601:	e8 4a ce ff ff       	call   8048450
 804b606:	c7 04 24 44 00 00 00 	mov    DWORD PTR [esp],0x44
 804b60d:	e8 3e ce ff ff       	call   8048450
 804b612:	8d b6 00 00 00 00    	lea    esi,[esi]
 804b618:	83 c6 01             	add    esi,0x1
 804b61b:	8b 04 f5 80 60 08 08 	mov    eax,DWORD PTR [esi*8+0x8086080]
 804b622:	8b 14 f5 84 60 08 08 	mov    edx,DWORD PTR [esi*8+0x8086084]
 804b629:	2b 04 f5 78 60 08 08 	sub    eax,DWORD PTR [esi*8+0x8086078]
 804b630:	1b 14 f5 7c 60 08 08 	sbb    edx,DWORD PTR [esi*8+0x808607c]
 804b637:	c7 44 24 04 b9 ff 06 	mov    DWORD PTR [esp+0x4],0x806ffb9
 804b63e:	08 
 804b63f:	89 44 24 08          	mov    DWORD PTR [esp+0x8],eax
 804b643:	89 54 24 0c          	mov    DWORD PTR [esp+0xc],edx
 804b647:	c7 04 24 01 00 00 00 	mov    DWORD PTR [esp],0x1
 804b64e:	e8 0d ce ff ff       	call   8048460
 804b653:	83 fe 14             	cmp    esi,0x14
 804b656:	75 c0                	jne    804b618
 804b658:	c7 04 24 0a 00 00 00 	mov    DWORD PTR [esp],0xa
 804b65f:	be 40 61 88 08       	mov    esi,0x8886140
 804b664:	e8 e7 cd ff ff       	call   8048450
 804b669:	a1 40 60 08 08       	mov    eax,ds:0x8086040
 804b66e:	89 04 24             	mov    DWORD PTR [esp],eax
 804b671:	e8 8a cd ff ff       	call   8048400
 804b676:	c7 44 24 1c 40 6d 88 	mov    DWORD PTR [esp+0x1c],0x8886d40
 804b67d:	08 
 804b67e:	66 90                	xchg   ax,ax
 804b680:	8b 44 24 1c          	mov    eax,DWORD PTR [esp+0x1c]
 804b684:	31 ff                	xor    edi,edi
 804b686:	8d 90 00 f8 ff ff    	lea    edx,[eax-0x800]
 804b68c:	2d 00 04 00 00       	sub    eax,0x400
 804b691:	89 54 24 20          	mov    DWORD PTR [esp+0x20],edx
 804b695:	89 44 24 24          	mov    DWORD PTR [esp+0x24],eax
 804b699:	8d b4 26 00 00 00 00 	lea    esi,[esi]
 804b6a0:	e8 cb cd ff ff       	call   8048470
 804b6a5:	88 04 3e             	mov    BYTE PTR [esi+edi],al
 804b6a8:	83 c7 01             	add    edi,0x1
 804b6ab:	83 ff 20             	cmp    edi,0x20
 804b6ae:	75 f0                	jne    804b6a0
 804b6b0:	66 31 ff             	xor    di,di
 804b6b3:	90                   	nop
 804b6b4:	8d 74 26 00          	lea    esi,[esi]
 804b6b8:	e8 b3 cd ff ff       	call   8048470
 804b6bd:	8b 4c 24 20          	mov    ecx,DWORD PTR [esp+0x20]
 804b6c1:	88 04 39             	mov    BYTE PTR [ecx+edi],al
 804b6c4:	83 c7 01             	add    edi,0x1
 804b6c7:	83 ff 10             	cmp    edi,0x10
 804b6ca:	75 ec                	jne    804b6b8
 804b6cc:	66 31 ff             	xor    di,di
 804b6cf:	90                   	nop
 804b6d0:	e8 9b cd ff ff       	call   8048470
 804b6d5:	8b 4c 24 24          	mov    ecx,DWORD PTR [esp+0x24]
 804b6d9:	88 04 39             	mov    BYTE PTR [ecx+edi],al
 804b6dc:	83 c7 01             	add    edi,0x1
 804b6df:	83 ff 10             	cmp    edi,0x10
 804b6e2:	75 ec                	jne    804b6d0
 804b6e4:	8b 44 24 1c          	mov    eax,DWORD PTR [esp+0x1c]
 804b6e8:	85 db                	test   ebx,ebx
 804b6ea:	8d 14 18             	lea    edx,[eax+ebx]
 804b6ed:	89 c7                	mov    edi,eax
 804b6ef:	89 54 24 24          	mov    DWORD PTR [esp+0x24],edx
 804b6f3:	74 14                	je     804b709
 804b6f5:	8d 76 00             	lea    esi,[esi]
 804b6f8:	e8 73 cd ff ff       	call   8048470
 804b6fd:	83 c7 01             	add    edi,0x1
 804b700:	88 47 ff             	mov    BYTE PTR [edi-0x1],al
 804b703:	39 7c 24 24          	cmp    DWORD PTR [esp+0x24],edi
 804b707:	75 ef                	jne    804b6f8
 804b709:	89 34 24             	mov    DWORD PTR [esp],esi
 804b70c:	83 c6 20             	add    esi,0x20
 804b70f:	e8 0c 33 02 00       	call   806ea20
 804b714:	81 44 24 1c 00 00 04 	add    DWORD PTR [esp+0x1c],0x40000
 804b71b:	00 
 804b71c:	81 7c 24 1c 40 6d dc 	cmp    DWORD PTR [esp+0x1c],0x8dc6d40
 804b723:	08 
 804b724:	0f 85 56 ff ff ff    	jne    804b680
 804b72a:	e8 71 31 02 00       	call   806e8a0
 804b72f:	b9 40 61 88 08       	mov    ecx,0x8886140
 804b734:	8d 74 26 00          	lea    esi,[esi]
 804b738:	31 c0                	xor    eax,eax
 804b73a:	8d b6 00 00 00 00    	lea    esi,[esi]
 804b740:	0f b6 14 01          	movzx  edx,BYTE PTR [ecx+eax]
 804b744:	30 90 40 61 08 08    	xor    BYTE PTR [eax+0x8086140],dl
 804b74a:	83 c0 01             	add    eax,0x1
 804b74d:	83 f8 20             	cmp    eax,0x20
 804b750:	75 ee                	jne    804b740
 804b752:	83 c1 20             	add    ecx,0x20
 804b755:	81 f9 e0 63 88 08    	cmp    ecx,0x88863e0
 804b75b:	75 db                	jne    804b738
 804b75d:	31 f6                	xor    esi,esi
 804b75f:	90                   	nop
 804b760:	e8 6b 47 02 00       	call   806fed0
 804b765:	89 04 f5 80 60 08 08 	mov    DWORD PTR [esi*8+0x8086080],eax
 804b76c:	89 14 f5 84 60 08 08 	mov    DWORD PTR [esi*8+0x8086084],edx
 804b773:	83 c6 01             	add    esi,0x1
 804b776:	83 fe 15             	cmp    esi,0x15
 804b779:	75 e5                	jne    804b760
 804b77b:	31 ff                	xor    edi,edi
 804b77d:	be 40 69 88 08       	mov    esi,0x8886940
 804b782:	c7 44 24 24 40 61 88 	mov    DWORD PTR [esp+0x24],0x8886140
 804b789:	08 
 804b78a:	8d b6 00 00 00 00    	lea    esi,[esi]
 804b790:	e8 3b 47 02 00       	call   806fed0
 804b795:	89 34 24             	mov    DWORD PTR [esp],esi
 804b798:	89 5c 24 10          	mov    DWORD PTR [esp+0x10],ebx
 804b79c:	89 04 fd 80 60 08 08 	mov    DWORD PTR [edi*8+0x8086080],eax
 804b7a3:	8d 86 00 04 00 00    	lea    eax,[esi+0x400]
 804b7a9:	89 44 24 0c          	mov    DWORD PTR [esp+0xc],eax
 804b7ad:	8d 86 00 fc ff ff    	lea    eax,[esi-0x400]
 804b7b3:	81 c6 00 00 04 00    	add    esi,0x40000
 804b7b9:	89 44 24 08          	mov    DWORD PTR [esp+0x8],eax
 804b7bd:	8b 44 24 24          	mov    eax,DWORD PTR [esp+0x24]
 804b7c1:	89 14 fd 84 60 08 08 	mov    DWORD PTR [edi*8+0x8086084],edx
 804b7c8:	83 c7 01             	add    edi,0x1
 804b7cb:	89 44 24 04          	mov    DWORD PTR [esp+0x4],eax
 804b7cf:	e8 bc 32 02 00       	call   806ea90
 804b7d4:	83 44 24 24 20       	add    DWORD PTR [esp+0x24],0x20
 804b7d9:	81 fe 40 69 dc 08    	cmp    esi,0x8dc6940
 804b7df:	75 af                	jne    804b790
 804b7e1:	89 5c 24 08          	mov    DWORD PTR [esp+0x8],ebx
 804b7e5:	31 f6                	xor    esi,esi
 804b7e7:	c7 44 24 04 af ff 06 	mov    DWORD PTR [esp+0x4],0x806ffaf
 804b7ee:	08 
 804b7ef:	c7 04 24 01 00 00 00 	mov    DWORD PTR [esp],0x1
 804b7f6:	e8 65 cc ff ff       	call   8048460
 804b7fb:	c7 04 24 41 00 00 00 	mov    DWORD PTR [esp],0x41
 804b802:	e8 49 cc ff ff       	call   8048450
 804b807:	c7 44 24 04 b4 ff 06 	mov    DWORD PTR [esp+0x4],0x806ffb4
 804b80e:	08 
 804b80f:	c7 04 24 01 00 00 00 	mov    DWORD PTR [esp],0x1
 804b816:	e8 45 cc ff ff       	call   8048460
 804b81b:	c7 04 24 4b 00 00 00 	mov    DWORD PTR [esp],0x4b
 804b822:	e8 29 cc ff ff       	call   8048450
 804b827:	c7 04 24 2d 00 00 00 	mov    DWORD PTR [esp],0x2d
 804b82e:	e8 1d cc ff ff       	call   8048450
 804b833:	90                   	nop
 804b834:	8d 74 26 00          	lea    esi,[esi]
 804b838:	83 c6 01             	add    esi,0x1
 804b83b:	8b 04 f5 80 60 08 08 	mov    eax,DWORD PTR [esi*8+0x8086080]
 804b842:	8b 14 f5 84 60 08 08 	mov    edx,DWORD PTR [esi*8+0x8086084]
 804b849:	2b 04 f5 78 60 08 08 	sub    eax,DWORD PTR [esi*8+0x8086078]
 804b850:	1b 14 f5 7c 60 08 08 	sbb    edx,DWORD PTR [esi*8+0x808607c]
 804b857:	c7 44 24 04 b9 ff 06 	mov    DWORD PTR [esp+0x4],0x806ffb9
 804b85e:	08 
 804b85f:	89 44 24 08          	mov    DWORD PTR [esp+0x8],eax
 804b863:	89 54 24 0c          	mov    DWORD PTR [esp+0xc],edx
 804b867:	c7 04 24 01 00 00 00 	mov    DWORD PTR [esp],0x1
 804b86e:	e8 ed cb ff ff       	call   8048460
 804b873:	83 fe 14             	cmp    esi,0x14
 804b876:	75 c0                	jne    804b838
 804b878:	c7 04 24 0a 00 00 00 	mov    DWORD PTR [esp],0xa
 804b87f:	be 40 61 88 08       	mov    esi,0x8886140
 804b884:	e8 c7 cb ff ff       	call   8048450
 804b889:	a1 40 60 08 08       	mov    eax,ds:0x8086040
 804b88e:	89 04 24             	mov    DWORD PTR [esp],eax
 804b891:	e8 6a cb ff ff       	call   8048400
 804b896:	c7 44 24 1c 40 6d 88 	mov    DWORD PTR [esp+0x1c],0x8886d40
 804b89d:	08 
 804b89e:	66 90                	xchg   ax,ax
 804b8a0:	8b 44 24 1c          	mov    eax,DWORD PTR [esp+0x1c]
 804b8a4:	31 ff                	xor    edi,edi
 804b8a6:	8d 90 00 f8 ff ff    	lea    edx,[eax-0x800]
 804b8ac:	2d 00 04 00 00       	sub    eax,0x400
 804b8b1:	89 54 24 20          	mov    DWORD PTR [esp+0x20],edx
 804b8b5:	89 44 24 24          	mov    DWORD PTR [esp+0x24],eax
 804b8b9:	8d b4 26 00 00 00 00 	lea    esi,[esi]
 804b8c0:	e8 ab cb ff ff       	call   8048470
 804b8c5:	88 04 3e             	mov    BYTE PTR [esi+edi],al
 804b8c8:	83 c7 01             	add    edi,0x1
 804b8cb:	83 ff 20             	cmp    edi,0x20
 804b8ce:	75 f0                	jne    804b8c0
 804b8d0:	66 31 ff             	xor    di,di
 804b8d3:	90                   	nop
 804b8d4:	8d 74 26 00          	lea    esi,[esi]
 804b8d8:	e8 93 cb ff ff       	call   8048470
 804b8dd:	8b 4c 24 20          	mov    ecx,DWORD PTR [esp+0x20]
 804b8e1:	88 04 39             	mov    BYTE PTR [ecx+edi],al
 804b8e4:	83 c7 01             	add    edi,0x1
 804b8e7:	83 ff 10             	cmp    edi,0x10
 804b8ea:	75 ec                	jne    804b8d8
 804b8ec:	66 31 ff             	xor    di,di
 804b8ef:	90                   	nop
 804b8f0:	e8 7b cb ff ff       	call   8048470
 804b8f5:	8b 4c 24 24          	mov    ecx,DWORD PTR [esp+0x24]
 804b8f9:	88 04 39             	mov    BYTE PTR [ecx+edi],al
 804b8fc:	83 c7 01             	add    edi,0x1
 804b8ff:	83 ff 10             	cmp    edi,0x10
 804b902:	75 ec                	jne    804b8f0
 804b904:	8b 44 24 1c          	mov    eax,DWORD PTR [esp+0x1c]
 804b908:	85 db                	test   ebx,ebx
 804b90a:	8d 14 18             	lea    edx,[eax+ebx]
 804b90d:	89 c7                	mov    edi,eax
 804b90f:	89 54 24 24          	mov    DWORD PTR [esp+0x24],edx
 804b913:	74 14                	je     804b929
 804b915:	8d 76 00             	lea    esi,[esi]
 804b918:	e8 53 cb ff ff       	call   8048470
 804b91d:	83 c7 01             	add    edi,0x1
 804b920:	88 47 ff             	mov    BYTE PTR [edi-0x1],al
 804b923:	39 7c 24 24          	cmp    DWORD PTR [esp+0x24],edi
 804b927:	75 ef                	jne    804b918
 804b929:	89 34 24             	mov    DWORD PTR [esp],esi
 804b92c:	83 c6 20             	add    esi,0x20
 804b92f:	e8 ec 30 02 00       	call   806ea20
 804b934:	81 44 24 1c 00 00 04 	add    DWORD PTR [esp+0x1c],0x40000
 804b93b:	00 
 804b93c:	81 7c 24 1c 40 6d dc 	cmp    DWORD PTR [esp+0x1c],0x8dc6d40
 804b943:	08 
 804b944:	0f 85 56 ff ff ff    	jne    804b8a0
 804b94a:	e8 51 2f 02 00       	call   806e8a0
 804b94f:	b9 40 61 88 08       	mov    ecx,0x8886140
 804b954:	8d 74 26 00          	lea    esi,[esi]
 804b958:	31 c0                	xor    eax,eax
 804b95a:	8d b6 00 00 00 00    	lea    esi,[esi]
 804b960:	0f b6 14 01          	movzx  edx,BYTE PTR [ecx+eax]
 804b964:	30 90 40 61 08 08    	xor    BYTE PTR [eax+0x8086140],dl
 804b96a:	83 c0 01             	add    eax,0x1
 804b96d:	83 f8 20             	cmp    eax,0x20
 804b970:	75 ee                	jne    804b960
 804b972:	83 c1 20             	add    ecx,0x20
 804b975:	81 f9 e0 63 88 08    	cmp    ecx,0x88863e0
 804b97b:	75 db                	jne    804b958
 804b97d:	31 f6                	xor    esi,esi
 804b97f:	90                   	nop
 804b980:	e8 4b 45 02 00       	call   806fed0
 804b985:	89 04 f5 80 60 08 08 	mov    DWORD PTR [esi*8+0x8086080],eax
 804b98c:	89 14 f5 84 60 08 08 	mov    DWORD PTR [esi*8+0x8086084],edx
 804b993:	83 c6 01             	add    esi,0x1
 804b996:	83 fe 15             	cmp    esi,0x15
 804b999:	75 e5                	jne    804b980
 804b99b:	31 ff                	xor    edi,edi
 804b99d:	be 40 69 88 08       	mov    esi,0x8886940
 804b9a2:	c7 44 24 24 40 61 88 	mov    DWORD PTR [esp+0x24],0x8886140
 804b9a9:	08 
 804b9aa:	8d b6 00 00 00 00    	lea    esi,[esi]
 804b9b0:	e8 1b 45 02 00       	call   806fed0
 804b9b5:	89 34 24             	mov    DWORD PTR [esp],esi
 804b9b8:	89 5c 24 10          	mov    DWORD PTR [esp+0x10],ebx
 804b9bc:	89 04 fd 80 60 08 08 	mov    DWORD PTR [edi*8+0x8086080],eax
 804b9c3:	8d 86 00 04 00 00    	lea    eax,[esi+0x400]
 804b9c9:	89 44 24 0c          	mov    DWORD PTR [esp+0xc],eax
 804b9cd:	8d 86 00 fc ff ff    	lea    eax,[esi-0x400]
 804b9d3:	81 c6 00 00 04 00    	add    esi,0x40000
 804b9d9:	89 44 24 08          	mov    DWORD PTR [esp+0x8],eax
 804b9dd:	8b 44 24 24          	mov    eax,DWORD PTR [esp+0x24]
 804b9e1:	89 14 fd 84 60 08 08 	mov    DWORD PTR [edi*8+0x8086084],edx
 804b9e8:	83 c7 01             	add    edi,0x1
 804b9eb:	89 44 24 04          	mov    DWORD PTR [esp+0x4],eax
 804b9ef:	e8 9c 30 02 00       	call   806ea90
 804b9f4:	83 44 24 24 20       	add    DWORD PTR [esp+0x24],0x20
 804b9f9:	81 fe 40 69 dc 08    	cmp    esi,0x8dc6940
 804b9ff:	75 af                	jne    804b9b0
 804ba01:	89 5c 24 08          	mov    DWORD PTR [esp+0x8],ebx
 804ba05:	31 f6                	xor    esi,esi
 804ba07:	c7 44 24 04 af ff 06 	mov    DWORD PTR [esp+0x4],0x806ffaf
 804ba0e:	08 
 804ba0f:	c7 04 24 01 00 00 00 	mov    DWORD PTR [esp],0x1
 804ba16:	e8 45 ca ff ff       	call   8048460
 804ba1b:	c7 04 24 41 00 00 00 	mov    DWORD PTR [esp],0x41
 804ba22:	e8 29 ca ff ff       	call   8048450
 804ba27:	c7 44 24 04 b4 ff 06 	mov    DWORD PTR [esp+0x4],0x806ffb4
 804ba2e:	08 
 804ba2f:	c7 04 24 01 00 00 00 	mov    DWORD PTR [esp],0x1
 804ba36:	e8 25 ca ff ff       	call   8048460
 804ba3b:	c7 04 24 4b 00 00 00 	mov    DWORD PTR [esp],0x4b
 804ba42:	e8 09 ca ff ff       	call   8048450
 804ba47:	c7 04 24 2d 00 00 00 	mov    DWORD PTR [esp],0x2d
 804ba4e:	e8 fd c9 ff ff       	call   8048450
 804ba53:	90                   	nop
 804ba54:	8d 74 26 00          	lea    esi,[esi]
 804ba58:	83 c6 01             	add    esi,0x1
 804ba5b:	8b 04 f5 80 60 08 08 	mov    eax,DWORD PTR [esi*8+0x8086080]
 804ba62:	8b 14 f5 84 60 08 08 	mov    edx,DWORD PTR [esi*8+0x8086084]
 804ba69:	2b 04 f5 78 60 08 08 	sub    eax,DWORD PTR [esi*8+0x8086078]
 804ba70:	1b 14 f5 7c 60 08 08 	sbb    edx,DWORD PTR [esi*8+0x808607c]
 804ba77:	c7 44 24 04 b9 ff 06 	mov    DWORD PTR [esp+0x4],0x806ffb9
 804ba7e:	08 
 804ba7f:	89 44 24 08          	mov    DWORD PTR [esp+0x8],eax
 804ba83:	89 54 24 0c          	mov    DWORD PTR [esp+0xc],edx
 804ba87:	c7 04 24 01 00 00 00 	mov    DWORD PTR [esp],0x1
 804ba8e:	e8 cd c9 ff ff       	call   8048460
 804ba93:	83 fe 14             	cmp    esi,0x14
 804ba96:	75 c0                	jne    804ba58
 804ba98:	c7 04 24 0a 00 00 00 	mov    DWORD PTR [esp],0xa
 804ba9f:	be 40 61 88 08       	mov    esi,0x8886140
 804baa4:	e8 a7 c9 ff ff       	call   8048450
 804baa9:	a1 40 60 08 08       	mov    eax,ds:0x8086040
 804baae:	89 04 24             	mov    DWORD PTR [esp],eax
 804bab1:	e8 4a c9 ff ff       	call   8048400
 804bab6:	c7 44 24 1c 40 6d 88 	mov    DWORD PTR [esp+0x1c],0x8886d40
 804babd:	08 
 804babe:	66 90                	xchg   ax,ax
 804bac0:	8b 44 24 1c          	mov    eax,DWORD PTR [esp+0x1c]
 804bac4:	31 ff                	xor    edi,edi
 804bac6:	8d 90 00 f8 ff ff    	lea    edx,[eax-0x800]
 804bacc:	2d 00 04 00 00       	sub    eax,0x400
 804bad1:	89 54 24 20          	mov    DWORD PTR [esp+0x20],edx
 804bad5:	89 44 24 24          	mov    DWORD PTR [esp+0x24],eax
 804bad9:	8d b4 26 00 00 00 00 	lea    esi,[esi]
 804bae0:	e8 8b c9 ff ff       	call   8048470
 804bae5:	88 04 3e             	mov    BYTE PTR [esi+edi],al
 804bae8:	83 c7 01             	add    edi,0x1
 804baeb:	83 ff 20             	cmp    edi,0x20
 804baee:	75 f0                	jne    804bae0
 804baf0:	66 31 ff             	xor    di,di
 804baf3:	90                   	nop
 804baf4:	8d 74 26 00          	lea    esi,[esi]
 804baf8:	e8 73 c9 ff ff       	call   8048470
 804bafd:	8b 4c 24 20          	mov    ecx,DWORD PTR [esp+0x20]
 804bb01:	88 04 39             	mov    BYTE PTR [ecx+edi],al
 804bb04:	83 c7 01             	add    edi,0x1
 804bb07:	83 ff 10             	cmp    edi,0x10
 804bb0a:	75 ec                	jne    804baf8
 804bb0c:	66 31 ff             	xor    di,di
 804bb0f:	90                   	nop
 804bb10:	e8 5b c9 ff ff       	call   8048470
 804bb15:	8b 4c 24 24          	mov    ecx,DWORD PTR [esp+0x24]
 804bb19:	88 04 39             	mov    BYTE PTR [ecx+edi],al
 804bb1c:	83 c7 01             	add    edi,0x1
 804bb1f:	83 ff 10             	cmp    edi,0x10
 804bb22:	75 ec                	jne    804bb10
 804bb24:	8b 44 24 1c          	mov    eax,DWORD PTR [esp+0x1c]
 804bb28:	85 db                	test   ebx,ebx
 804bb2a:	8d 0c 18             	lea    ecx,[eax+ebx]
 804bb2d:	89 c7                	mov    edi,eax
 804bb2f:	89 4c 24 24          	mov    DWORD PTR [esp+0x24],ecx
 804bb33:	74 14                	je     804bb49
 804bb35:	8d 76 00             	lea    esi,[esi]
 804bb38:	e8 33 c9 ff ff       	call   8048470
 804bb3d:	83 c7 01             	add    edi,0x1
 804bb40:	88 47 ff             	mov    BYTE PTR [edi-0x1],al
 804bb43:	39 7c 24 24          	cmp    DWORD PTR [esp+0x24],edi
 804bb47:	75 ef                	jne    804bb38
 804bb49:	89 34 24             	mov    DWORD PTR [esp],esi
 804bb4c:	83 c6 20             	add    esi,0x20
 804bb4f:	e8 cc 2e 02 00       	call   806ea20
 804bb54:	81 44 24 1c 00 00 04 	add    DWORD PTR [esp+0x1c],0x40000
 804bb5b:	00 
 804bb5c:	81 7c 24 1c 40 6d dc 	cmp    DWORD PTR [esp+0x1c],0x8dc6d40
 804bb63:	08 
 804bb64:	0f 85 56 ff ff ff    	jne    804bac0
 804bb6a:	e8 31 2d 02 00       	call   806e8a0
 804bb6f:	b9 40 61 88 08       	mov    ecx,0x8886140
 804bb74:	8d 74 26 00          	lea    esi,[esi]
 804bb78:	31 c0                	xor    eax,eax
 804bb7a:	8d b6 00 00 00 00    	lea    esi,[esi]
 804bb80:	0f b6 14 01          	movzx  edx,BYTE PTR [ecx+eax]
 804bb84:	30 90 40 61 08 08    	xor    BYTE PTR [eax+0x8086140],dl
 804bb8a:	83 c0 01             	add    eax,0x1
 804bb8d:	83 f8 20             	cmp    eax,0x20
 804bb90:	75 ee                	jne    804bb80
 804bb92:	83 c1 20             	add    ecx,0x20
 804bb95:	81 f9 e0 63 88 08    	cmp    ecx,0x88863e0
 804bb9b:	75 db                	jne    804bb78
 804bb9d:	31 f6                	xor    esi,esi
 804bb9f:	90                   	nop
 804bba0:	e8 2b 43 02 00       	call   806fed0
 804bba5:	89 04 f5 80 60 08 08 	mov    DWORD PTR [esi*8+0x8086080],eax
 804bbac:	89 14 f5 84 60 08 08 	mov    DWORD PTR [esi*8+0x8086084],edx
 804bbb3:	83 c6 01             	add    esi,0x1
 804bbb6:	83 fe 15             	cmp    esi,0x15
 804bbb9:	75 e5                	jne    804bba0
 804bbbb:	31 ff                	xor    edi,edi
 804bbbd:	be 40 69 88 08       	mov    esi,0x8886940
 804bbc2:	c7 44 24 24 40 61 88 	mov    DWORD PTR [esp+0x24],0x8886140
 804bbc9:	08 
 804bbca:	8d b6 00 00 00 00    	lea    esi,[esi]
 804bbd0:	e8 fb 42 02 00       	call   806fed0
 804bbd5:	89 34 24             	mov    DWORD PTR [esp],esi
 804bbd8:	89 5c 24 10          	mov    DWORD PTR [esp+0x10],ebx
 804bbdc:	89 04 fd 80 60 08 08 	mov    DWORD PTR [edi*8+0x8086080],eax
 804bbe3:	8d 86 00 04 00 00    	lea    eax,[esi+0x400]
 804bbe9:	89 44 24 0c          	mov    DWORD PTR [esp+0xc],eax
 804bbed:	8d 86 00 fc ff ff    	lea    eax,[esi-0x400]
 804bbf3:	81 c6 00 00 04 00    	add    esi,0x40000
 804bbf9:	89 44 24 08          	mov    DWORD PTR [esp+0x8],eax
 804bbfd:	8b 44 24 24          	mov    eax,DWORD PTR [esp+0x24]
 804bc01:	89 14 fd 84 60 08 08 	mov    DWORD PTR [edi*8+0x8086084],edx
 804bc08:	83 c7 01             	add    edi,0x1
 804bc0b:	89 44 24 04          	mov    DWORD PTR [esp+0x4],eax
 804bc0f:	e8 7c 2e 02 00       	call   806ea90
 804bc14:	83 44 24 24 20       	add    DWORD PTR [esp+0x24],0x20
 804bc19:	81 fe 40 69 dc 08    	cmp    esi,0x8dc6940
 804bc1f:	75 af                	jne    804bbd0
 804bc21:	89 5c 24 08          	mov    DWORD PTR [esp+0x8],ebx
 804bc25:	31 f6                	xor    esi,esi
 804bc27:	c7 44 24 04 af ff 06 	mov    DWORD PTR [esp+0x4],0x806ffaf
 804bc2e:	08 
 804bc2f:	c7 04 24 01 00 00 00 	mov    DWORD PTR [esp],0x1
 804bc36:	e8 25 c8 ff ff       	call   8048460
 804bc3b:	c7 04 24 41 00 00 00 	mov    DWORD PTR [esp],0x41
 804bc42:	e8 09 c8 ff ff       	call   8048450
 804bc47:	c7 44 24 04 b4 ff 06 	mov    DWORD PTR [esp+0x4],0x806ffb4
 804bc4e:	08 
 804bc4f:	c7 04 24 01 00 00 00 	mov    DWORD PTR [esp],0x1
 804bc56:	e8 05 c8 ff ff       	call   8048460
 804bc5b:	c7 04 24 4b 00 00 00 	mov    DWORD PTR [esp],0x4b
 804bc62:	e8 e9 c7 ff ff       	call   8048450
 804bc67:	c7 04 24 2d 00 00 00 	mov    DWORD PTR [esp],0x2d
 804bc6e:	e8 dd c7 ff ff       	call   8048450
 804bc73:	90                   	nop
 804bc74:	8d 74 26 00          	lea    esi,[esi]
 804bc78:	83 c6 01             	add    esi,0x1
 804bc7b:	8b 04 f5 80 60 08 08 	mov    eax,DWORD PTR [esi*8+0x8086080]
 804bc82:	8b 14 f5 84 60 08 08 	mov    edx,DWORD PTR [esi*8+0x8086084]
 804bc89:	2b 04 f5 78 60 08 08 	sub    eax,DWORD PTR [esi*8+0x8086078]
 804bc90:	1b 14 f5 7c 60 08 08 	sbb    edx,DWORD PTR [esi*8+0x808607c]
 804bc97:	c7 44 24 04 b9 ff 06 	mov    DWORD PTR [esp+0x4],0x806ffb9
 804bc9e:	08 
 804bc9f:	89 44 24 08          	mov    DWORD PTR [esp+0x8],eax
 804bca3:	89 54 24 0c          	mov    DWORD PTR [esp+0xc],edx
 804bca7:	c7 04 24 01 00 00 00 	mov    DWORD PTR [esp],0x1
 804bcae:	e8 ad c7 ff ff       	call   8048460
 804bcb3:	83 fe 14             	cmp    esi,0x14
 804bcb6:	75 c0                	jne    804bc78
 804bcb8:	c7 04 24 0a 00 00 00 	mov    DWORD PTR [esp],0xa
 804bcbf:	be 40 61 88 08       	mov    esi,0x8886140
 804bcc4:	e8 87 c7 ff ff       	call   8048450
 804bcc9:	a1 40 60 08 08       	mov    eax,ds:0x8086040
 804bcce:	89 04 24             	mov    DWORD PTR [esp],eax
 804bcd1:	e8 2a c7 ff ff       	call   8048400
 804bcd6:	c7 44 24 1c 40 6d 88 	mov    DWORD PTR [esp+0x1c],0x8886d40
 804bcdd:	08 
 804bcde:	66 90                	xchg   ax,ax
 804bce0:	8b 44 24 1c          	mov    eax,DWORD PTR [esp+0x1c]
 804bce4:	31 ff                	xor    edi,edi
 804bce6:	8d 90 00 f8 ff ff    	lea    edx,[eax-0x800]
 804bcec:	2d 00 04 00 00       	sub    eax,0x400
 804bcf1:	89 54 24 20          	mov    DWORD PTR [esp+0x20],edx
 804bcf5:	89 44 24 24          	mov    DWORD PTR [esp+0x24],eax
 804bcf9:	8d b4 26 00 00 00 00 	lea    esi,[esi]
 804bd00:	e8 6b c7 ff ff       	call   8048470
 804bd05:	88 04 3e             	mov    BYTE PTR [esi+edi],al
 804bd08:	83 c7 01             	add    edi,0x1
 804bd0b:	83 ff 20             	cmp    edi,0x20
 804bd0e:	75 f0                	jne    804bd00
 804bd10:	66 31 ff             	xor    di,di
 804bd13:	90                   	nop
 804bd14:	8d 74 26 00          	lea    esi,[esi]
 804bd18:	e8 53 c7 ff ff       	call   8048470
 804bd1d:	8b 4c 24 20          	mov    ecx,DWORD PTR [esp+0x20]
 804bd21:	88 04 39             	mov    BYTE PTR [ecx+edi],al
 804bd24:	83 c7 01             	add    edi,0x1
 804bd27:	83 ff 10             	cmp    edi,0x10
 804bd2a:	75 ec                	jne    804bd18
 804bd2c:	66 31 ff             	xor    di,di
 804bd2f:	90                   	nop
 804bd30:	e8 3b c7 ff ff       	call   8048470
 804bd35:	8b 4c 24 24          	mov    ecx,DWORD PTR [esp+0x24]
 804bd39:	88 04 39             	mov    BYTE PTR [ecx+edi],al
 804bd3c:	83 c7 01             	add    edi,0x1
 804bd3f:	83 ff 10             	cmp    edi,0x10
 804bd42:	75 ec                	jne    804bd30
 804bd44:	8b 44 24 1c          	mov    eax,DWORD PTR [esp+0x1c]
 804bd48:	85 db                	test   ebx,ebx
 804bd4a:	8d 0c 18             	lea    ecx,[eax+ebx]
 804bd4d:	89 c7                	mov    edi,eax
 804bd4f:	89 4c 24 24          	mov    DWORD PTR [esp+0x24],ecx
 804bd53:	74 14                	je     804bd69
 804bd55:	8d 76 00             	lea    esi,[esi]
 804bd58:	e8 13 c7 ff ff       	call   8048470
 804bd5d:	83 c7 01             	add    edi,0x1
 804bd60:	88 47 ff             	mov    BYTE PTR [edi-0x1],al
 804bd63:	39 7c 24 24          	cmp    DWORD PTR [esp+0x24],edi
 804bd67:	75 ef                	jne    804bd58
 804bd69:	89 34 24             	mov    DWORD PTR [esp],esi
 804bd6c:	83 c6 20             	add    esi,0x20
 804bd6f:	e8 ac 2c 02 00       	call   806ea20
 804bd74:	81 44 24 1c 00 00 04 	add    DWORD PTR [esp+0x1c],0x40000
 804bd7b:	00 
 804bd7c:	81 7c 24 1c 40 6d dc 	cmp    DWORD PTR [esp+0x1c],0x8dc6d40
 804bd83:	08 
 804bd84:	0f 85 56 ff ff ff    	jne    804bce0
 804bd8a:	e8 11 2b 02 00       	call   806e8a0
 804bd8f:	b9 40 61 88 08       	mov    ecx,0x8886140
 804bd94:	8d 74 26 00          	lea    esi,[esi]
 804bd98:	31 c0                	xor    eax,eax
 804bd9a:	8d b6 00 00 00 00    	lea    esi,[esi]
 804bda0:	0f b6 14 01          	movzx  edx,BYTE PTR [ecx+eax]
 804bda4:	30 90 40 61 08 08    	xor    BYTE PTR [eax+0x8086140],dl
 804bdaa:	83 c0 01             	add    eax,0x1
 804bdad:	83 f8 20             	cmp    eax,0x20
 804bdb0:	75 ee                	jne    804bda0
 804bdb2:	83 c1 20             	add    ecx,0x20
 804bdb5:	81 f9 e0 63 88 08    	cmp    ecx,0x88863e0
 804bdbb:	75 db                	jne    804bd98
 804bdbd:	31 f6                	xor    esi,esi
 804bdbf:	90                   	nop
 804bdc0:	e8 0b 41 02 00       	call   806fed0
 804bdc5:	89 04 f5 80 60 08 08 	mov    DWORD PTR [esi*8+0x8086080],eax
 804bdcc:	89 14 f5 84 60 08 08 	mov    DWORD PTR [esi*8+0x8086084],edx
 804bdd3:	83 c6 01             	add    esi,0x1
 804bdd6:	83 fe 15             	cmp    esi,0x15
 804bdd9:	75 e5                	jne    804bdc0
 804bddb:	31 ff                	xor    edi,edi
 804bddd:	be 40 69 88 08       	mov    esi,0x8886940
 804bde2:	c7 44 24 24 40 61 88 	mov    DWORD PTR [esp+0x24],0x8886140
 804bde9:	08 
 804bdea:	8d b6 00 00 00 00    	lea    esi,[esi]
 804bdf0:	e8 db 40 02 00       	call   806fed0
 804bdf5:	89 34 24             	mov    DWORD PTR [esp],esi
 804bdf8:	89 5c 24 10          	mov    DWORD PTR [esp+0x10],ebx
 804bdfc:	89 04 fd 80 60 08 08 	mov    DWORD PTR [edi*8+0x8086080],eax
 804be03:	8d 86 00 04 00 00    	lea    eax,[esi+0x400]
 804be09:	89 44 24 0c          	mov    DWORD PTR [esp+0xc],eax
 804be0d:	8d 86 00 fc ff ff    	lea    eax,[esi-0x400]
 804be13:	81 c6 00 00 04 00    	add    esi,0x40000
 804be19:	89 44 24 08          	mov    DWORD PTR [esp+0x8],eax
 804be1d:	8b 44 24 24          	mov    eax,DWORD PTR [esp+0x24]
 804be21:	89 14 fd 84 60 08 08 	mov    DWORD PTR [edi*8+0x8086084],edx
 804be28:	83 c7 01             	add    edi,0x1
 804be2b:	89 44 24 04          	mov    DWORD PTR [esp+0x4],eax
 804be2f:	e8 1c 2b 02 00       	call   806e950
 804be34:	83 44 24 24 20       	add    DWORD PTR [esp+0x24],0x20
 804be39:	81 fe 40 69 dc 08    	cmp    esi,0x8dc6940
 804be3f:	75 af                	jne    804bdf0
 804be41:	89 5c 24 08          	mov    DWORD PTR [esp+0x8],ebx
 804be45:	31 f6                	xor    esi,esi
 804be47:	c7 44 24 04 af ff 06 	mov    DWORD PTR [esp+0x4],0x806ffaf
 804be4e:	08 
 804be4f:	c7 04 24 01 00 00 00 	mov    DWORD PTR [esp],0x1
 804be56:	e8 05 c6 ff ff       	call   8048460
 804be5b:	c7 04 24 56 00 00 00 	mov    DWORD PTR [esp],0x56
 804be62:	e8 e9 c5 ff ff       	call   8048450
 804be67:	c7 44 24 04 b4 ff 06 	mov    DWORD PTR [esp+0x4],0x806ffb4
 804be6e:	08 
 804be6f:	c7 04 24 01 00 00 00 	mov    DWORD PTR [esp],0x1
 804be76:	e8 e5 c5 ff ff       	call   8048460
 804be7b:	c7 04 24 4b 00 00 00 	mov    DWORD PTR [esp],0x4b
 804be82:	e8 c9 c5 ff ff       	call   8048450
 804be87:	c7 04 24 2d 00 00 00 	mov    DWORD PTR [esp],0x2d
 804be8e:	e8 bd c5 ff ff       	call   8048450
 804be93:	90                   	nop
 804be94:	8d 74 26 00          	lea    esi,[esi]
 804be98:	83 c6 01             	add    esi,0x1
 804be9b:	8b 04 f5 80 60 08 08 	mov    eax,DWORD PTR [esi*8+0x8086080]
 804bea2:	8b 14 f5 84 60 08 08 	mov    edx,DWORD PTR [esi*8+0x8086084]
 804bea9:	2b 04 f5 78 60 08 08 	sub    eax,DWORD PTR [esi*8+0x8086078]
 804beb0:	1b 14 f5 7c 60 08 08 	sbb    edx,DWORD PTR [esi*8+0x808607c]
 804beb7:	c7 44 24 04 b9 ff 06 	mov    DWORD PTR [esp+0x4],0x806ffb9
 804bebe:	08 
 804bebf:	89 44 24 08          	mov    DWORD PTR [esp+0x8],eax
 804bec3:	89 54 24 0c          	mov    DWORD PTR [esp+0xc],edx
 804bec7:	c7 04 24 01 00 00 00 	mov    DWORD PTR [esp],0x1
 804bece:	e8 8d c5 ff ff       	call   8048460
 804bed3:	83 fe 14             	cmp    esi,0x14
 804bed6:	75 c0                	jne    804be98
 804bed8:	c7 04 24 0a 00 00 00 	mov    DWORD PTR [esp],0xa
 804bedf:	be 40 61 88 08       	mov    esi,0x8886140
 804bee4:	e8 67 c5 ff ff       	call   8048450
 804bee9:	a1 40 60 08 08       	mov    eax,ds:0x8086040
 804beee:	89 04 24             	mov    DWORD PTR [esp],eax
 804bef1:	e8 0a c5 ff ff       	call   8048400
 804bef6:	c7 44 24 1c 40 6d 88 	mov    DWORD PTR [esp+0x1c],0x8886d40
 804befd:	08 
 804befe:	66 90                	xchg   ax,ax
 804bf00:	8b 44 24 1c          	mov    eax,DWORD PTR [esp+0x1c]
 804bf04:	31 ff                	xor    edi,edi
 804bf06:	8d 90 00 f8 ff ff    	lea    edx,[eax-0x800]
 804bf0c:	2d 00 04 00 00       	sub    eax,0x400
 804bf11:	89 54 24 20          	mov    DWORD PTR [esp+0x20],edx
 804bf15:	89 44 24 24          	mov    DWORD PTR [esp+0x24],eax
 804bf19:	8d b4 26 00 00 00 00 	lea    esi,[esi]
 804bf20:	e8 4b c5 ff ff       	call   8048470
 804bf25:	88 04 3e             	mov    BYTE PTR [esi+edi],al
 804bf28:	83 c7 01             	add    edi,0x1
 804bf2b:	83 ff 20             	cmp    edi,0x20
 804bf2e:	75 f0                	jne    804bf20
 804bf30:	66 31 ff             	xor    di,di
 804bf33:	90                   	nop
 804bf34:	8d 74 26 00          	lea    esi,[esi]
 804bf38:	e8 33 c5 ff ff       	call   8048470
 804bf3d:	8b 4c 24 20          	mov    ecx,DWORD PTR [esp+0x20]
 804bf41:	88 04 39             	mov    BYTE PTR [ecx+edi],al
 804bf44:	83 c7 01             	add    edi,0x1
 804bf47:	83 ff 10             	cmp    edi,0x10
 804bf4a:	75 ec                	jne    804bf38
 804bf4c:	66 31 ff             	xor    di,di
 804bf4f:	90                   	nop
 804bf50:	e8 1b c5 ff ff       	call   8048470
 804bf55:	8b 4c 24 24          	mov    ecx,DWORD PTR [esp+0x24]
 804bf59:	88 04 39             	mov    BYTE PTR [ecx+edi],al
 804bf5c:	83 c7 01             	add    edi,0x1
 804bf5f:	83 ff 10             	cmp    edi,0x10
 804bf62:	75 ec                	jne    804bf50
 804bf64:	8b 44 24 1c          	mov    eax,DWORD PTR [esp+0x1c]
 804bf68:	85 db                	test   ebx,ebx
 804bf6a:	8d 0c 18             	lea    ecx,[eax+ebx]
 804bf6d:	89 c7                	mov    edi,eax
 804bf6f:	89 4c 24 24          	mov    DWORD PTR [esp+0x24],ecx
 804bf73:	74 14                	je     804bf89
 804bf75:	8d 76 00             	lea    esi,[esi]
 804bf78:	e8 f3 c4 ff ff       	call   8048470
 804bf7d:	83 c7 01             	add    edi,0x1
 804bf80:	88 47 ff             	mov    BYTE PTR [edi-0x1],al
 804bf83:	39 7c 24 24          	cmp    DWORD PTR [esp+0x24],edi
 804bf87:	75 ef                	jne    804bf78
 804bf89:	89 34 24             	mov    DWORD PTR [esp],esi
 804bf8c:	83 c6 20             	add    esi,0x20
 804bf8f:	e8 8c 2a 02 00       	call   806ea20
 804bf94:	81 44 24 1c 00 00 04 	add    DWORD PTR [esp+0x1c],0x40000
 804bf9b:	00 
 804bf9c:	81 7c 24 1c 40 6d dc 	cmp    DWORD PTR [esp+0x1c],0x8dc6d40
 804bfa3:	08 
 804bfa4:	0f 85 56 ff ff ff    	jne    804bf00
 804bfaa:	e8 f1 28 02 00       	call   806e8a0
 804bfaf:	b9 40 61 88 08       	mov    ecx,0x8886140
 804bfb4:	8d 74 26 00          	lea    esi,[esi]
 804bfb8:	31 c0                	xor    eax,eax
 804bfba:	8d b6 00 00 00 00    	lea    esi,[esi]
 804bfc0:	0f b6 14 01          	movzx  edx,BYTE PTR [ecx+eax]
 804bfc4:	30 90 40 61 08 08    	xor    BYTE PTR [eax+0x8086140],dl
 804bfca:	83 c0 01             	add    eax,0x1
 804bfcd:	83 f8 20             	cmp    eax,0x20
 804bfd0:	75 ee                	jne    804bfc0
 804bfd2:	83 c1 20             	add    ecx,0x20
 804bfd5:	81 f9 e0 63 88 08    	cmp    ecx,0x88863e0
 804bfdb:	75 db                	jne    804bfb8
 804bfdd:	31 f6                	xor    esi,esi
 804bfdf:	90                   	nop
 804bfe0:	e8 eb 3e 02 00       	call   806fed0
 804bfe5:	89 04 f5 80 60 08 08 	mov    DWORD PTR [esi*8+0x8086080],eax
 804bfec:	89 14 f5 84 60 08 08 	mov    DWORD PTR [esi*8+0x8086084],edx
 804bff3:	83 c6 01             	add    esi,0x1
 804bff6:	83 fe 15             	cmp    esi,0x15
 804bff9:	75 e5                	jne    804bfe0
 804bffb:	31 ff                	xor    edi,edi
 804bffd:	be 40 69 88 08       	mov    esi,0x8886940
 804c002:	c7 44 24 24 40 61 88 	mov    DWORD PTR [esp+0x24],0x8886140
 804c009:	08 
 804c00a:	8d b6 00 00 00 00    	lea    esi,[esi]
 804c010:	e8 bb 3e 02 00       	call   806fed0
 804c015:	89 34 24             	mov    DWORD PTR [esp],esi
 804c018:	89 5c 24 10          	mov    DWORD PTR [esp+0x10],ebx
 804c01c:	89 04 fd 80 60 08 08 	mov    DWORD PTR [edi*8+0x8086080],eax
 804c023:	8d 86 00 04 00 00    	lea    eax,[esi+0x400]
 804c029:	89 44 24 0c          	mov    DWORD PTR [esp+0xc],eax
 804c02d:	8d 86 00 fc ff ff    	lea    eax,[esi-0x400]
 804c033:	81 c6 00 00 04 00    	add    esi,0x40000
 804c039:	89 44 24 08          	mov    DWORD PTR [esp+0x8],eax
 804c03d:	8b 44 24 24          	mov    eax,DWORD PTR [esp+0x24]
 804c041:	89 14 fd 84 60 08 08 	mov    DWORD PTR [edi*8+0x8086084],edx
 804c048:	83 c7 01             	add    edi,0x1
 804c04b:	89 44 24 04          	mov    DWORD PTR [esp+0x4],eax
 804c04f:	e8 fc 28 02 00       	call   806e950
 804c054:	83 44 24 24 20       	add    DWORD PTR [esp+0x24],0x20
 804c059:	81 fe 40 69 dc 08    	cmp    esi,0x8dc6940
 804c05f:	75 af                	jne    804c010
 804c061:	89 5c 24 08          	mov    DWORD PTR [esp+0x8],ebx
 804c065:	31 f6                	xor    esi,esi
 804c067:	c7 44 24 04 af ff 06 	mov    DWORD PTR [esp+0x4],0x806ffaf
 804c06e:	08 
 804c06f:	c7 04 24 01 00 00 00 	mov    DWORD PTR [esp],0x1
 804c076:	e8 e5 c3 ff ff       	call   8048460
 804c07b:	c7 04 24 56 00 00 00 	mov    DWORD PTR [esp],0x56
 804c082:	e8 c9 c3 ff ff       	call   8048450
 804c087:	c7 44 24 04 b4 ff 06 	mov    DWORD PTR [esp+0x4],0x806ffb4
 804c08e:	08 
 804c08f:	c7 04 24 01 00 00 00 	mov    DWORD PTR [esp],0x1
 804c096:	e8 c5 c3 ff ff       	call   8048460
 804c09b:	c7 04 24 4b 00 00 00 	mov    DWORD PTR [esp],0x4b
 804c0a2:	e8 a9 c3 ff ff       	call   8048450
 804c0a7:	c7 04 24 2d 00 00 00 	mov    DWORD PTR [esp],0x2d
 804c0ae:	e8 9d c3 ff ff       	call   8048450
 804c0b3:	90                   	nop
 804c0b4:	8d 74 26 00          	lea    esi,[esi]
 804c0b8:	83 c6 01             	add    esi,0x1
 804c0bb:	8b 04 f5 80 60 08 08 	mov    eax,DWORD PTR [esi*8+0x8086080]
 804c0c2:	8b 14 f5 84 60 08 08 	mov    edx,DWORD PTR [esi*8+0x8086084]
 804c0c9:	2b 04 f5 78 60 08 08 	sub    eax,DWORD PTR [esi*8+0x8086078]
 804c0d0:	1b 14 f5 7c 60 08 08 	sbb    edx,DWORD PTR [esi*8+0x808607c]
 804c0d7:	c7 44 24 04 b9 ff 06 	mov    DWORD PTR [esp+0x4],0x806ffb9
 804c0de:	08 
 804c0df:	89 44 24 08          	mov    DWORD PTR [esp+0x8],eax
 804c0e3:	89 54 24 0c          	mov    DWORD PTR [esp+0xc],edx
 804c0e7:	c7 04 24 01 00 00 00 	mov    DWORD PTR [esp],0x1
 804c0ee:	e8 6d c3 ff ff       	call   8048460
 804c0f3:	83 fe 14             	cmp    esi,0x14
 804c0f6:	75 c0                	jne    804c0b8
 804c0f8:	c7 04 24 0a 00 00 00 	mov    DWORD PTR [esp],0xa
 804c0ff:	be 40 61 88 08       	mov    esi,0x8886140
 804c104:	e8 47 c3 ff ff       	call   8048450
 804c109:	a1 40 60 08 08       	mov    eax,ds:0x8086040
 804c10e:	89 04 24             	mov    DWORD PTR [esp],eax
 804c111:	e8 ea c2 ff ff       	call   8048400
 804c116:	c7 44 24 1c 40 6d 88 	mov    DWORD PTR [esp+0x1c],0x8886d40
 804c11d:	08 
 804c11e:	66 90                	xchg   ax,ax
 804c120:	8b 44 24 1c          	mov    eax,DWORD PTR [esp+0x1c]
 804c124:	31 ff                	xor    edi,edi
 804c126:	8d 90 00 f8 ff ff    	lea    edx,[eax-0x800]
 804c12c:	2d 00 04 00 00       	sub    eax,0x400
 804c131:	89 54 24 20          	mov    DWORD PTR [esp+0x20],edx
 804c135:	89 44 24 24          	mov    DWORD PTR [esp+0x24],eax
 804c139:	8d b4 26 00 00 00 00 	lea    esi,[esi]
 804c140:	e8 2b c3 ff ff       	call   8048470
 804c145:	88 04 3e             	mov    BYTE PTR [esi+edi],al
 804c148:	83 c7 01             	add    edi,0x1
 804c14b:	83 ff 20             	cmp    edi,0x20
 804c14e:	75 f0                	jne    804c140
 804c150:	66 31 ff             	xor    di,di
 804c153:	90                   	nop
 804c154:	8d 74 26 00          	lea    esi,[esi]
 804c158:	e8 13 c3 ff ff       	call   8048470
 804c15d:	8b 4c 24 20          	mov    ecx,DWORD PTR [esp+0x20]
 804c161:	88 04 39             	mov    BYTE PTR [ecx+edi],al
 804c164:	83 c7 01             	add    edi,0x1
 804c167:	83 ff 10             	cmp    edi,0x10
 804c16a:	75 ec                	jne    804c158
 804c16c:	66 31 ff             	xor    di,di
 804c16f:	90                   	nop
 804c170:	e8 fb c2 ff ff       	call   8048470
 804c175:	8b 4c 24 24          	mov    ecx,DWORD PTR [esp+0x24]
 804c179:	88 04 39             	mov    BYTE PTR [ecx+edi],al
 804c17c:	83 c7 01             	add    edi,0x1
 804c17f:	83 ff 10             	cmp    edi,0x10
 804c182:	75 ec                	jne    804c170
 804c184:	8b 44 24 1c          	mov    eax,DWORD PTR [esp+0x1c]
 804c188:	85 db                	test   ebx,ebx
 804c18a:	8d 0c 18             	lea    ecx,[eax+ebx]
 804c18d:	89 c7                	mov    edi,eax
 804c18f:	89 4c 24 24          	mov    DWORD PTR [esp+0x24],ecx
 804c193:	74 14                	je     804c1a9
 804c195:	8d 76 00             	lea    esi,[esi]
 804c198:	e8 d3 c2 ff ff       	call   8048470
 804c19d:	83 c7 01             	add    edi,0x1
 804c1a0:	88 47 ff             	mov    BYTE PTR [edi-0x1],al
 804c1a3:	39 7c 24 24          	cmp    DWORD PTR [esp+0x24],edi
 804c1a7:	75 ef                	jne    804c198
 804c1a9:	89 34 24             	mov    DWORD PTR [esp],esi
 804c1ac:	83 c6 20             	add    esi,0x20
 804c1af:	e8 6c 28 02 00       	call   806ea20
 804c1b4:	81 44 24 1c 00 00 04 	add    DWORD PTR [esp+0x1c],0x40000
 804c1bb:	00 
 804c1bc:	81 7c 24 1c 40 6d dc 	cmp    DWORD PTR [esp+0x1c],0x8dc6d40
 804c1c3:	08 
 804c1c4:	0f 85 56 ff ff ff    	jne    804c120
 804c1ca:	e8 d1 26 02 00       	call   806e8a0
 804c1cf:	b9 40 61 88 08       	mov    ecx,0x8886140
 804c1d4:	8d 74 26 00          	lea    esi,[esi]
 804c1d8:	31 c0                	xor    eax,eax
 804c1da:	8d b6 00 00 00 00    	lea    esi,[esi]
 804c1e0:	0f b6 14 01          	movzx  edx,BYTE PTR [ecx+eax]
 804c1e4:	30 90 40 61 08 08    	xor    BYTE PTR [eax+0x8086140],dl
 804c1ea:	83 c0 01             	add    eax,0x1
 804c1ed:	83 f8 20             	cmp    eax,0x20
 804c1f0:	75 ee                	jne    804c1e0
 804c1f2:	83 c1 20             	add    ecx,0x20
 804c1f5:	81 f9 e0 63 88 08    	cmp    ecx,0x88863e0
 804c1fb:	75 db                	jne    804c1d8
 804c1fd:	31 f6                	xor    esi,esi
 804c1ff:	90                   	nop
 804c200:	e8 cb 3c 02 00       	call   806fed0
 804c205:	89 04 f5 80 60 08 08 	mov    DWORD PTR [esi*8+0x8086080],eax
 804c20c:	89 14 f5 84 60 08 08 	mov    DWORD PTR [esi*8+0x8086084],edx
 804c213:	83 c6 01             	add    esi,0x1
 804c216:	83 fe 15             	cmp    esi,0x15
 804c219:	75 e5                	jne    804c200
 804c21b:	31 ff                	xor    edi,edi
 804c21d:	be 40 69 88 08       	mov    esi,0x8886940
 804c222:	c7 44 24 24 40 61 88 	mov    DWORD PTR [esp+0x24],0x8886140
 804c229:	08 
 804c22a:	8d b6 00 00 00 00    	lea    esi,[esi]
 804c230:	e8 9b 3c 02 00       	call   806fed0
 804c235:	89 34 24             	mov    DWORD PTR [esp],esi
 804c238:	89 5c 24 10          	mov    DWORD PTR [esp+0x10],ebx
 804c23c:	89 04 fd 80 60 08 08 	mov    DWORD PTR [edi*8+0x8086080],eax
 804c243:	8d 86 00 04 00 00    	lea    eax,[esi+0x400]
 804c249:	89 44 24 0c          	mov    DWORD PTR [esp+0xc],eax
 804c24d:	8d 86 00 fc ff ff    	lea    eax,[esi-0x400]
 804c253:	81 c6 00 00 04 00    	add    esi,0x40000
 804c259:	89 44 24 08          	mov    DWORD PTR [esp+0x8],eax
 804c25d:	8b 44 24 24          	mov    eax,DWORD PTR [esp+0x24]
 804c261:	89 14 fd 84 60 08 08 	mov    DWORD PTR [edi*8+0x8086084],edx
 804c268:	83 c7 01             	add    edi,0x1
 804c26b:	89 44 24 04          	mov    DWORD PTR [esp+0x4],eax
 804c26f:	e8 dc 26 02 00       	call   806e950
 804c274:	83 44 24 24 20       	add    DWORD PTR [esp+0x24],0x20
 804c279:	81 fe 40 69 dc 08    	cmp    esi,0x8dc6940
 804c27f:	75 af                	jne    804c230
 804c281:	89 5c 24 08          	mov    DWORD PTR [esp+0x8],ebx
 804c285:	31 f6                	xor    esi,esi
 804c287:	c7 44 24 04 af ff 06 	mov    DWORD PTR [esp+0x4],0x806ffaf
 804c28e:	08 
 804c28f:	c7 04 24 01 00 00 00 	mov    DWORD PTR [esp],0x1
 804c296:	e8 c5 c1 ff ff       	call   8048460
 804c29b:	c7 04 24 56 00 00 00 	mov    DWORD PTR [esp],0x56
 804c2a2:	e8 a9 c1 ff ff       	call   8048450
 804c2a7:	c7 44 24 04 b4 ff 06 	mov    DWORD PTR [esp+0x4],0x806ffb4
 804c2ae:	08 
 804c2af:	c7 04 24 01 00 00 00 	mov    DWORD PTR [esp],0x1
 804c2b6:	e8 a5 c1 ff ff       	call   8048460
 804c2bb:	c7 04 24 4b 00 00 00 	mov    DWORD PTR [esp],0x4b
 804c2c2:	e8 89 c1 ff ff       	call   8048450
 804c2c7:	c7 04 24 2d 00 00 00 	mov    DWORD PTR [esp],0x2d
 804c2ce:	e8 7d c1 ff ff       	call   8048450
 804c2d3:	90                   	nop
 804c2d4:	8d 74 26 00          	lea    esi,[esi]
 804c2d8:	83 c6 01             	add    esi,0x1
 804c2db:	8b 04 f5 80 60 08 08 	mov    eax,DWORD PTR [esi*8+0x8086080]
 804c2e2:	8b 14 f5 84 60 08 08 	mov    edx,DWORD PTR [esi*8+0x8086084]
 804c2e9:	2b 04 f5 78 60 08 08 	sub    eax,DWORD PTR [esi*8+0x8086078]
 804c2f0:	1b 14 f5 7c 60 08 08 	sbb    edx,DWORD PTR [esi*8+0x808607c]
 804c2f7:	c7 44 24 04 b9 ff 06 	mov    DWORD PTR [esp+0x4],0x806ffb9
 804c2fe:	08 
 804c2ff:	89 44 24 08          	mov    DWORD PTR [esp+0x8],eax
 804c303:	89 54 24 0c          	mov    DWORD PTR [esp+0xc],edx
 804c307:	c7 04 24 01 00 00 00 	mov    DWORD PTR [esp],0x1
 804c30e:	e8 4d c1 ff ff       	call   8048460
 804c313:	83 fe 14             	cmp    esi,0x14
 804c316:	75 c0                	jne    804c2d8
 804c318:	c7 04 24 0a 00 00 00 	mov    DWORD PTR [esp],0xa
 804c31f:	be 41 61 88 08       	mov    esi,0x8886141
 804c324:	e8 27 c1 ff ff       	call   8048450
 804c329:	a1 40 60 08 08       	mov    eax,ds:0x8086040
 804c32e:	89 04 24             	mov    DWORD PTR [esp],eax
 804c331:	e8 ca c0 ff ff       	call   8048400
 804c336:	c7 44 24 1c 41 6d 88 	mov    DWORD PTR [esp+0x1c],0x8886d41
 804c33d:	08 
 804c33e:	66 90                	xchg   ax,ax
 804c340:	8b 44 24 1c          	mov    eax,DWORD PTR [esp+0x1c]
 804c344:	31 ff                	xor    edi,edi
 804c346:	8d 90 00 f8 ff ff    	lea    edx,[eax-0x800]
 804c34c:	2d 00 04 00 00       	sub    eax,0x400
 804c351:	89 54 24 20          	mov    DWORD PTR [esp+0x20],edx
 804c355:	89 44 24 24          	mov    DWORD PTR [esp+0x24],eax
 804c359:	8d b4 26 00 00 00 00 	lea    esi,[esi]
 804c360:	e8 0b c1 ff ff       	call   8048470
 804c365:	88 04 3e             	mov    BYTE PTR [esi+edi],al
 804c368:	83 c7 01             	add    edi,0x1
 804c36b:	83 ff 20             	cmp    edi,0x20
 804c36e:	75 f0                	jne    804c360
 804c370:	66 31 ff             	xor    di,di
 804c373:	90                   	nop
 804c374:	8d 74 26 00          	lea    esi,[esi]
 804c378:	e8 f3 c0 ff ff       	call   8048470
 804c37d:	8b 4c 24 20          	mov    ecx,DWORD PTR [esp+0x20]
 804c381:	88 04 39             	mov    BYTE PTR [ecx+edi],al
 804c384:	83 c7 01             	add    edi,0x1
 804c387:	83 ff 10             	cmp    edi,0x10
 804c38a:	75 ec                	jne    804c378
 804c38c:	66 31 ff             	xor    di,di
 804c38f:	90                   	nop
 804c390:	e8 db c0 ff ff       	call   8048470
 804c395:	8b 4c 24 24          	mov    ecx,DWORD PTR [esp+0x24]
 804c399:	88 04 39             	mov    BYTE PTR [ecx+edi],al
 804c39c:	83 c7 01             	add    edi,0x1
 804c39f:	83 ff 10             	cmp    edi,0x10
 804c3a2:	75 ec                	jne    804c390
 804c3a4:	8b 44 24 1c          	mov    eax,DWORD PTR [esp+0x1c]
 804c3a8:	85 db                	test   ebx,ebx
 804c3aa:	8d 0c 18             	lea    ecx,[eax+ebx]
 804c3ad:	89 c7                	mov    edi,eax
 804c3af:	89 4c 24 24          	mov    DWORD PTR [esp+0x24],ecx
 804c3b3:	74 14                	je     804c3c9
 804c3b5:	8d 76 00             	lea    esi,[esi]
 804c3b8:	e8 b3 c0 ff ff       	call   8048470
 804c3bd:	83 c7 01             	add    edi,0x1
 804c3c0:	88 47 ff             	mov    BYTE PTR [edi-0x1],al
 804c3c3:	39 7c 24 24          	cmp    DWORD PTR [esp+0x24],edi
 804c3c7:	75 ef                	jne    804c3b8
 804c3c9:	89 34 24             	mov    DWORD PTR [esp],esi
 804c3cc:	83 c6 20             	add    esi,0x20
 804c3cf:	e8 4c 26 02 00       	call   806ea20
 804c3d4:	81 44 24 1c 00 00 04 	add    DWORD PTR [esp+0x1c],0x40000
 804c3db:	00 
 804c3dc:	81 7c 24 1c 41 6d dc 	cmp    DWORD PTR [esp+0x1c],0x8dc6d41
 804c3e3:	08 
 804c3e4:	0f 85 56 ff ff ff    	jne    804c340
 804c3ea:	e8 b1 24 02 00       	call   806e8a0
 804c3ef:	b9 41 61 88 08       	mov    ecx,0x8886141
 804c3f4:	8d 74 26 00          	lea    esi,[esi]
 804c3f8:	31 c0                	xor    eax,eax
 804c3fa:	8d b6 00 00 00 00    	lea    esi,[esi]
 804c400:	0f b6 14 01          	movzx  edx,BYTE PTR [ecx+eax]
 804c404:	30 90 40 61 08 08    	xor    BYTE PTR [eax+0x8086140],dl
 804c40a:	83 c0 01             	add    eax,0x1
 804c40d:	83 f8 20             	cmp    eax,0x20
 804c410:	75 ee                	jne    804c400
 804c412:	83 c1 20             	add    ecx,0x20
 804c415:	81 f9 e1 63 88 08    	cmp    ecx,0x88863e1
 804c41b:	75 db                	jne    804c3f8
 804c41d:	31 f6                	xor    esi,esi
 804c41f:	90                   	nop
 804c420:	e8 ab 3a 02 00       	call   806fed0
 804c425:	89 04 f5 80 60 08 08 	mov    DWORD PTR [esi*8+0x8086080],eax
 804c42c:	89 14 f5 84 60 08 08 	mov    DWORD PTR [esi*8+0x8086084],edx
 804c433:	83 c6 01             	add    esi,0x1
 804c436:	83 fe 15             	cmp    esi,0x15
 804c439:	75 e5                	jne    804c420
 804c43b:	31 ff                	xor    edi,edi
 804c43d:	be 41 69 88 08       	mov    esi,0x8886941
 804c442:	c7 44 24 24 41 61 88 	mov    DWORD PTR [esp+0x24],0x8886141
 804c449:	08 
 804c44a:	8d b6 00 00 00 00    	lea    esi,[esi]
 804c450:	e8 7b 3a 02 00       	call   806fed0
 804c455:	89 34 24             	mov    DWORD PTR [esp],esi
 804c458:	89 5c 24 10          	mov    DWORD PTR [esp+0x10],ebx
 804c45c:	89 04 fd 80 60 08 08 	mov    DWORD PTR [edi*8+0x8086080],eax
 804c463:	8d 86 00 04 00 00    	lea    eax,[esi+0x400]
 804c469:	89 44 24 0c          	mov    DWORD PTR [esp+0xc],eax
 804c46d:	8d 86 00 fc ff ff    	lea    eax,[esi-0x400]
 804c473:	81 c6 00 00 04 00    	add    esi,0x40000
 804c479:	89 44 24 08          	mov    DWORD PTR [esp+0x8],eax
 804c47d:	8b 44 24 24          	mov    eax,DWORD PTR [esp+0x24]
 804c481:	89 14 fd 84 60 08 08 	mov    DWORD PTR [edi*8+0x8086084],edx
 804c488:	83 c7 01             	add    edi,0x1
 804c48b:	89 44 24 04          	mov    DWORD PTR [esp+0x4],eax
 804c48f:	e8 fc 25 02 00       	call   806ea90
 804c494:	83 44 24 24 20       	add    DWORD PTR [esp+0x24],0x20
 804c499:	81 fe 41 69 dc 08    	cmp    esi,0x8dc6941
 804c49f:	75 af                	jne    804c450
 804c4a1:	89 5c 24 08          	mov    DWORD PTR [esp+0x8],ebx
 804c4a5:	31 f6                	xor    esi,esi
 804c4a7:	c7 44 24 04 af ff 06 	mov    DWORD PTR [esp+0x4],0x806ffaf
 804c4ae:	08 
 804c4af:	c7 04 24 01 00 00 00 	mov    DWORD PTR [esp],0x1
 804c4b6:	e8 a5 bf ff ff       	call   8048460
 804c4bb:	c7 04 24 41 00 00 00 	mov    DWORD PTR [esp],0x41
 804c4c2:	e8 89 bf ff ff       	call   8048450
 804c4c7:	c7 44 24 04 c0 ff 06 	mov    DWORD PTR [esp+0x4],0x806ffc0
 804c4ce:	08 
 804c4cf:	c7 04 24 01 00 00 00 	mov    DWORD PTR [esp],0x1
 804c4d6:	e8 85 bf ff ff       	call   8048460
 804c4db:	c7 04 24 4b 00 00 00 	mov    DWORD PTR [esp],0x4b
 804c4e2:	e8 69 bf ff ff       	call   8048450
 804c4e7:	c7 04 24 2d 00 00 00 	mov    DWORD PTR [esp],0x2d
 804c4ee:	e8 5d bf ff ff       	call   8048450
 804c4f3:	90                   	nop
 804c4f4:	8d 74 26 00          	lea    esi,[esi]
 804c4f8:	83 c6 01             	add    esi,0x1
 804c4fb:	8b 04 f5 80 60 08 08 	mov    eax,DWORD PTR [esi*8+0x8086080]
 804c502:	8b 14 f5 84 60 08 08 	mov    edx,DWORD PTR [esi*8+0x8086084]
 804c509:	2b 04 f5 78 60 08 08 	sub    eax,DWORD PTR [esi*8+0x8086078]
 804c510:	1b 14 f5 7c 60 08 08 	sbb    edx,DWORD PTR [esi*8+0x808607c]
 804c517:	c7 44 24 04 b9 ff 06 	mov    DWORD PTR [esp+0x4],0x806ffb9
 804c51e:	08 
 804c51f:	89 44 24 08          	mov    DWORD PTR [esp+0x8],eax
 804c523:	89 54 24 0c          	mov    DWORD PTR [esp+0xc],edx
 804c527:	c7 04 24 01 00 00 00 	mov    DWORD PTR [esp],0x1
 804c52e:	e8 2d bf ff ff       	call   8048460
 804c533:	83 fe 14             	cmp    esi,0x14
 804c536:	75 c0                	jne    804c4f8
 804c538:	c7 04 24 0a 00 00 00 	mov    DWORD PTR [esp],0xa
 804c53f:	be 41 61 88 08       	mov    esi,0x8886141
 804c544:	e8 07 bf ff ff       	call   8048450
 804c549:	a1 40 60 08 08       	mov    eax,ds:0x8086040
 804c54e:	89 04 24             	mov    DWORD PTR [esp],eax
 804c551:	e8 aa be ff ff       	call   8048400
 804c556:	c7 44 24 1c 41 6d 88 	mov    DWORD PTR [esp+0x1c],0x8886d41
 804c55d:	08 
 804c55e:	66 90                	xchg   ax,ax
 804c560:	8b 44 24 1c          	mov    eax,DWORD PTR [esp+0x1c]
 804c564:	31 ff                	xor    edi,edi
 804c566:	8d 90 00 f8 ff ff    	lea    edx,[eax-0x800]
 804c56c:	2d 00 04 00 00       	sub    eax,0x400
 804c571:	89 54 24 20          	mov    DWORD PTR [esp+0x20],edx
 804c575:	89 44 24 24          	mov    DWORD PTR [esp+0x24],eax
 804c579:	8d b4 26 00 00 00 00 	lea    esi,[esi]
 804c580:	e8 eb be ff ff       	call   8048470
 804c585:	88 04 3e             	mov    BYTE PTR [esi+edi],al
 804c588:	83 c7 01             	add    edi,0x1
 804c58b:	83 ff 20             	cmp    edi,0x20
 804c58e:	75 f0                	jne    804c580
 804c590:	66 31 ff             	xor    di,di
 804c593:	90                   	nop
 804c594:	8d 74 26 00          	lea    esi,[esi]
 804c598:	e8 d3 be ff ff       	call   8048470
 804c59d:	8b 4c 24 20          	mov    ecx,DWORD PTR [esp+0x20]
 804c5a1:	88 04 39             	mov    BYTE PTR [ecx+edi],al
 804c5a4:	83 c7 01             	add    edi,0x1
 804c5a7:	83 ff 10             	cmp    edi,0x10
 804c5aa:	75 ec                	jne    804c598
 804c5ac:	66 31 ff             	xor    di,di
 804c5af:	90                   	nop
 804c5b0:	e8 bb be ff ff       	call   8048470
 804c5b5:	8b 4c 24 24          	mov    ecx,DWORD PTR [esp+0x24]
 804c5b9:	88 04 39             	mov    BYTE PTR [ecx+edi],al
 804c5bc:	83 c7 01             	add    edi,0x1
 804c5bf:	83 ff 10             	cmp    edi,0x10
 804c5c2:	75 ec                	jne    804c5b0
 804c5c4:	8b 44 24 1c          	mov    eax,DWORD PTR [esp+0x1c]
 804c5c8:	85 db                	test   ebx,ebx
 804c5ca:	8d 0c 18             	lea    ecx,[eax+ebx]
 804c5cd:	89 c7                	mov    edi,eax
 804c5cf:	89 4c 24 24          	mov    DWORD PTR [esp+0x24],ecx
 804c5d3:	74 14                	je     804c5e9
 804c5d5:	8d 76 00             	lea    esi,[esi]
 804c5d8:	e8 93 be ff ff       	call   8048470
 804c5dd:	83 c7 01             	add    edi,0x1
 804c5e0:	88 47 ff             	mov    BYTE PTR [edi-0x1],al
 804c5e3:	39 7c 24 24          	cmp    DWORD PTR [esp+0x24],edi
 804c5e7:	75 ef                	jne    804c5d8
 804c5e9:	89 34 24             	mov    DWORD PTR [esp],esi
 804c5ec:	83 c6 20             	add    esi,0x20
 804c5ef:	e8 2c 24 02 00       	call   806ea20
 804c5f4:	81 44 24 1c 00 00 04 	add    DWORD PTR [esp+0x1c],0x40000
 804c5fb:	00 
 804c5fc:	81 7c 24 1c 41 6d dc 	cmp    DWORD PTR [esp+0x1c],0x8dc6d41
 804c603:	08 
 804c604:	0f 85 56 ff ff ff    	jne    804c560
 804c60a:	e8 91 22 02 00       	call   806e8a0
 804c60f:	b9 41 61 88 08       	mov    ecx,0x8886141
 804c614:	8d 74 26 00          	lea    esi,[esi]
 804c618:	31 c0                	xor    eax,eax
 804c61a:	8d b6 00 00 00 00    	lea    esi,[esi]
 804c620:	0f b6 14 01          	movzx  edx,BYTE PTR [ecx+eax]
 804c624:	30 90 40 61 08 08    	xor    BYTE PTR [eax+0x8086140],dl
 804c62a:	83 c0 01             	add    eax,0x1
 804c62d:	83 f8 20             	cmp    eax,0x20
 804c630:	75 ee                	jne    804c620
 804c632:	83 c1 20             	add    ecx,0x20
 804c635:	81 f9 e1 63 88 08    	cmp    ecx,0x88863e1
 804c63b:	75 db                	jne    804c618
 804c63d:	31 f6                	xor    esi,esi
 804c63f:	90                   	nop
 804c640:	e8 8b 38 02 00       	call   806fed0
 804c645:	89 04 f5 80 60 08 08 	mov    DWORD PTR [esi*8+0x8086080],eax
 804c64c:	89 14 f5 84 60 08 08 	mov    DWORD PTR [esi*8+0x8086084],edx
 804c653:	83 c6 01             	add    esi,0x1
 804c656:	83 fe 15             	cmp    esi,0x15
 804c659:	75 e5                	jne    804c640
 804c65b:	31 ff                	xor    edi,edi
 804c65d:	be 41 69 88 08       	mov    esi,0x8886941
 804c662:	c7 44 24 24 41 61 88 	mov    DWORD PTR [esp+0x24],0x8886141
 804c669:	08 
 804c66a:	8d b6 00 00 00 00    	lea    esi,[esi]
 804c670:	e8 5b 38 02 00       	call   806fed0
 804c675:	89 34 24             	mov    DWORD PTR [esp],esi
 804c678:	89 5c 24 10          	mov    DWORD PTR [esp+0x10],ebx
 804c67c:	89 04 fd 80 60 08 08 	mov    DWORD PTR [edi*8+0x8086080],eax
 804c683:	8d 86 00 04 00 00    	lea    eax,[esi+0x400]
 804c689:	89 44 24 0c          	mov    DWORD PTR [esp+0xc],eax
 804c68d:	8d 86 00 fc ff ff    	lea    eax,[esi-0x400]
 804c693:	81 c6 00 00 04 00    	add    esi,0x40000
 804c699:	89 44 24 08          	mov    DWORD PTR [esp+0x8],eax
 804c69d:	8b 44 24 24          	mov    eax,DWORD PTR [esp+0x24]
 804c6a1:	89 14 fd 84 60 08 08 	mov    DWORD PTR [edi*8+0x8086084],edx
 804c6a8:	83 c7 01             	add    edi,0x1
 804c6ab:	89 44 24 04          	mov    DWORD PTR [esp+0x4],eax
 804c6af:	e8 dc 23 02 00       	call   806ea90
 804c6b4:	83 44 24 24 20       	add    DWORD PTR [esp+0x24],0x20
 804c6b9:	81 fe 41 69 dc 08    	cmp    esi,0x8dc6941
 804c6bf:	75 af                	jne    804c670
 804c6c1:	89 5c 24 08          	mov    DWORD PTR [esp+0x8],ebx
 804c6c5:	31 f6                	xor    esi,esi
 804c6c7:	c7 44 24 04 af ff 06 	mov    DWORD PTR [esp+0x4],0x806ffaf
 804c6ce:	08 
 804c6cf:	c7 04 24 01 00 00 00 	mov    DWORD PTR [esp],0x1
 804c6d6:	e8 85 bd ff ff       	call   8048460
 804c6db:	c7 04 24 41 00 00 00 	mov    DWORD PTR [esp],0x41
 804c6e2:	e8 69 bd ff ff       	call   8048450
 804c6e7:	c7 44 24 04 c0 ff 06 	mov    DWORD PTR [esp+0x4],0x806ffc0
 804c6ee:	08 
 804c6ef:	c7 04 24 01 00 00 00 	mov    DWORD PTR [esp],0x1
 804c6f6:	e8 65 bd ff ff       	call   8048460
 804c6fb:	c7 04 24 4b 00 00 00 	mov    DWORD PTR [esp],0x4b
 804c702:	e8 49 bd ff ff       	call   8048450
 804c707:	c7 04 24 2d 00 00 00 	mov    DWORD PTR [esp],0x2d
 804c70e:	e8 3d bd ff ff       	call   8048450
 804c713:	90                   	nop
 804c714:	8d 74 26 00          	lea    esi,[esi]
 804c718:	83 c6 01             	add    esi,0x1
 804c71b:	8b 04 f5 80 60 08 08 	mov    eax,DWORD PTR [esi*8+0x8086080]
 804c722:	8b 14 f5 84 60 08 08 	mov    edx,DWORD PTR [esi*8+0x8086084]
 804c729:	2b 04 f5 78 60 08 08 	sub    eax,DWORD PTR [esi*8+0x8086078]
 804c730:	1b 14 f5 7c 60 08 08 	sbb    edx,DWORD PTR [esi*8+0x808607c]
 804c737:	c7 44 24 04 b9 ff 06 	mov    DWORD PTR [esp+0x4],0x806ffb9
 804c73e:	08 
 804c73f:	89 44 24 08          	mov    DWORD PTR [esp+0x8],eax
 804c743:	89 54 24 0c          	mov    DWORD PTR [esp+0xc],edx
 804c747:	c7 04 24 01 00 00 00 	mov    DWORD PTR [esp],0x1
 804c74e:	e8 0d bd ff ff       	call   8048460
 804c753:	83 fe 14             	cmp    esi,0x14
 804c756:	75 c0                	jne    804c718
 804c758:	c7 04 24 0a 00 00 00 	mov    DWORD PTR [esp],0xa
 804c75f:	be 41 61 88 08       	mov    esi,0x8886141
 804c764:	e8 e7 bc ff ff       	call   8048450
 804c769:	a1 40 60 08 08       	mov    eax,ds:0x8086040
 804c76e:	89 04 24             	mov    DWORD PTR [esp],eax
 804c771:	e8 8a bc ff ff       	call   8048400
 804c776:	c7 44 24 1c 41 6d 88 	mov    DWORD PTR [esp+0x1c],0x8886d41
 804c77d:	08 
 804c77e:	66 90                	xchg   ax,ax
 804c780:	8b 44 24 1c          	mov    eax,DWORD PTR [esp+0x1c]
 804c784:	31 ff                	xor    edi,edi
 804c786:	8d 90 00 f8 ff ff    	lea    edx,[eax-0x800]
 804c78c:	2d 00 04 00 00       	sub    eax,0x400
 804c791:	89 54 24 20          	mov    DWORD PTR [esp+0x20],edx
 804c795:	89 44 24 24          	mov    DWORD PTR [esp+0x24],eax
 804c799:	8d b4 26 00 00 00 00 	lea    esi,[esi]
 804c7a0:	e8 cb bc ff ff       	call   8048470
 804c7a5:	88 04 3e             	mov    BYTE PTR [esi+edi],al
 804c7a8:	83 c7 01             	add    edi,0x1
 804c7ab:	83 ff 20             	cmp    edi,0x20
 804c7ae:	75 f0                	jne    804c7a0
 804c7b0:	66 31 ff             	xor    di,di
 804c7b3:	90                   	nop
 804c7b4:	8d 74 26 00          	lea    esi,[esi]
 804c7b8:	e8 b3 bc ff ff       	call   8048470
 804c7bd:	8b 4c 24 20          	mov    ecx,DWORD PTR [esp+0x20]
 804c7c1:	88 04 39             	mov    BYTE PTR [ecx+edi],al
 804c7c4:	83 c7 01             	add    edi,0x1
 804c7c7:	83 ff 10             	cmp    edi,0x10
 804c7ca:	75 ec                	jne    804c7b8
 804c7cc:	66 31 ff             	xor    di,di
 804c7cf:	90                   	nop
 804c7d0:	e8 9b bc ff ff       	call   8048470
 804c7d5:	8b 4c 24 24          	mov    ecx,DWORD PTR [esp+0x24]
 804c7d9:	88 04 39             	mov    BYTE PTR [ecx+edi],al
 804c7dc:	83 c7 01             	add    edi,0x1
 804c7df:	83 ff 10             	cmp    edi,0x10
 804c7e2:	75 ec                	jne    804c7d0
 804c7e4:	8b 44 24 1c          	mov    eax,DWORD PTR [esp+0x1c]
 804c7e8:	85 db                	test   ebx,ebx
 804c7ea:	8d 0c 18             	lea    ecx,[eax+ebx]
 804c7ed:	89 c7                	mov    edi,eax
 804c7ef:	89 4c 24 24          	mov    DWORD PTR [esp+0x24],ecx
 804c7f3:	74 14                	je     804c809
 804c7f5:	8d 76 00             	lea    esi,[esi]
 804c7f8:	e8 73 bc ff ff       	call   8048470
 804c7fd:	83 c7 01             	add    edi,0x1
 804c800:	88 47 ff             	mov    BYTE PTR [edi-0x1],al
 804c803:	39 7c 24 24          	cmp    DWORD PTR [esp+0x24],edi
 804c807:	75 ef                	jne    804c7f8
 804c809:	89 34 24             	mov    DWORD PTR [esp],esi
 804c80c:	83 c6 20             	add    esi,0x20
 804c80f:	e8 0c 22 02 00       	call   806ea20
 804c814:	81 44 24 1c 00 00 04 	add    DWORD PTR [esp+0x1c],0x40000
 804c81b:	00 
 804c81c:	81 7c 24 1c 41 6d dc 	cmp    DWORD PTR [esp+0x1c],0x8dc6d41
 804c823:	08 
 804c824:	0f 85 56 ff ff ff    	jne    804c780
 804c82a:	e8 71 20 02 00       	call   806e8a0
 804c82f:	b9 41 61 88 08       	mov    ecx,0x8886141
 804c834:	8d 74 26 00          	lea    esi,[esi]
 804c838:	31 c0                	xor    eax,eax
 804c83a:	8d b6 00 00 00 00    	lea    esi,[esi]
 804c840:	0f b6 14 01          	movzx  edx,BYTE PTR [ecx+eax]
 804c844:	30 90 40 61 08 08    	xor    BYTE PTR [eax+0x8086140],dl
 804c84a:	83 c0 01             	add    eax,0x1
 804c84d:	83 f8 20             	cmp    eax,0x20
 804c850:	75 ee                	jne    804c840
 804c852:	83 c1 20             	add    ecx,0x20
 804c855:	81 f9 e1 63 88 08    	cmp    ecx,0x88863e1
 804c85b:	75 db                	jne    804c838
 804c85d:	31 f6                	xor    esi,esi
 804c85f:	90                   	nop
 804c860:	e8 6b 36 02 00       	call   806fed0
 804c865:	89 04 f5 80 60 08 08 	mov    DWORD PTR [esi*8+0x8086080],eax
 804c86c:	89 14 f5 84 60 08 08 	mov    DWORD PTR [esi*8+0x8086084],edx
 804c873:	83 c6 01             	add    esi,0x1
 804c876:	83 fe 15             	cmp    esi,0x15
 804c879:	75 e5                	jne    804c860
 804c87b:	31 ff                	xor    edi,edi
 804c87d:	be 41 69 88 08       	mov    esi,0x8886941
 804c882:	c7 44 24 24 41 61 88 	mov    DWORD PTR [esp+0x24],0x8886141
 804c889:	08 
 804c88a:	8d b6 00 00 00 00    	lea    esi,[esi]
 804c890:	e8 3b 36 02 00       	call   806fed0
 804c895:	89 34 24             	mov    DWORD PTR [esp],esi
 804c898:	89 5c 24 10          	mov    DWORD PTR [esp+0x10],ebx
 804c89c:	89 04 fd 80 60 08 08 	mov    DWORD PTR [edi*8+0x8086080],eax
 804c8a3:	8d 86 00 04 00 00    	lea    eax,[esi+0x400]
 804c8a9:	89 44 24 0c          	mov    DWORD PTR [esp+0xc],eax
 804c8ad:	8d 86 00 fc ff ff    	lea    eax,[esi-0x400]
 804c8b3:	81 c6 00 00 04 00    	add    esi,0x40000
 804c8b9:	89 44 24 08          	mov    DWORD PTR [esp+0x8],eax
 804c8bd:	8b 44 24 24          	mov    eax,DWORD PTR [esp+0x24]
 804c8c1:	89 14 fd 84 60 08 08 	mov    DWORD PTR [edi*8+0x8086084],edx
 804c8c8:	83 c7 01             	add    edi,0x1
 804c8cb:	89 44 24 04          	mov    DWORD PTR [esp+0x4],eax
 804c8cf:	e8 bc 21 02 00       	call   806ea90
 804c8d4:	83 44 24 24 20       	add    DWORD PTR [esp+0x24],0x20
 804c8d9:	81 fe 41 69 dc 08    	cmp    esi,0x8dc6941
 804c8df:	75 af                	jne    804c890
 804c8e1:	89 5c 24 08          	mov    DWORD PTR [esp+0x8],ebx
 804c8e5:	31 f6                	xor    esi,esi
 804c8e7:	c7 44 24 04 af ff 06 	mov    DWORD PTR [esp+0x4],0x806ffaf
 804c8ee:	08 
 804c8ef:	c7 04 24 01 00 00 00 	mov    DWORD PTR [esp],0x1
 804c8f6:	e8 65 bb ff ff       	call   8048460
 804c8fb:	c7 04 24 41 00 00 00 	mov    DWORD PTR [esp],0x41
 804c902:	e8 49 bb ff ff       	call   8048450
 804c907:	c7 44 24 04 c0 ff 06 	mov    DWORD PTR [esp+0x4],0x806ffc0
 804c90e:	08 
 804c90f:	c7 04 24 01 00 00 00 	mov    DWORD PTR [esp],0x1
 804c916:	e8 45 bb ff ff       	call   8048460
 804c91b:	c7 04 24 4b 00 00 00 	mov    DWORD PTR [esp],0x4b
 804c922:	e8 29 bb ff ff       	call   8048450
 804c927:	c7 04 24 2d 00 00 00 	mov    DWORD PTR [esp],0x2d
 804c92e:	e8 1d bb ff ff       	call   8048450
 804c933:	90                   	nop
 804c934:	8d 74 26 00          	lea    esi,[esi]
 804c938:	83 c6 01             	add    esi,0x1
 804c93b:	8b 04 f5 80 60 08 08 	mov    eax,DWORD PTR [esi*8+0x8086080]
 804c942:	8b 14 f5 84 60 08 08 	mov    edx,DWORD PTR [esi*8+0x8086084]
 804c949:	2b 04 f5 78 60 08 08 	sub    eax,DWORD PTR [esi*8+0x8086078]
 804c950:	1b 14 f5 7c 60 08 08 	sbb    edx,DWORD PTR [esi*8+0x808607c]
 804c957:	c7 44 24 04 b9 ff 06 	mov    DWORD PTR [esp+0x4],0x806ffb9
 804c95e:	08 
 804c95f:	89 44 24 08          	mov    DWORD PTR [esp+0x8],eax
 804c963:	89 54 24 0c          	mov    DWORD PTR [esp+0xc],edx
 804c967:	c7 04 24 01 00 00 00 	mov    DWORD PTR [esp],0x1
 804c96e:	e8 ed ba ff ff       	call   8048460
 804c973:	83 fe 14             	cmp    esi,0x14
 804c976:	75 c0                	jne    804c938
 804c978:	c7 04 24 0a 00 00 00 	mov    DWORD PTR [esp],0xa
 804c97f:	be 41 61 88 08       	mov    esi,0x8886141
 804c984:	e8 c7 ba ff ff       	call   8048450
 804c989:	a1 40 60 08 08       	mov    eax,ds:0x8086040
 804c98e:	89 04 24             	mov    DWORD PTR [esp],eax
 804c991:	e8 6a ba ff ff       	call   8048400
 804c996:	c7 44 24 1c 41 6d 88 	mov    DWORD PTR [esp+0x1c],0x8886d41
 804c99d:	08 
 804c99e:	66 90                	xchg   ax,ax
 804c9a0:	8b 44 24 1c          	mov    eax,DWORD PTR [esp+0x1c]
 804c9a4:	31 ff                	xor    edi,edi
 804c9a6:	8d 90 00 f8 ff ff    	lea    edx,[eax-0x800]
 804c9ac:	2d 00 04 00 00       	sub    eax,0x400
 804c9b1:	89 54 24 20          	mov    DWORD PTR [esp+0x20],edx
 804c9b5:	89 44 24 24          	mov    DWORD PTR [esp+0x24],eax
 804c9b9:	8d b4 26 00 00 00 00 	lea    esi,[esi]
 804c9c0:	e8 ab ba ff ff       	call   8048470
 804c9c5:	88 04 3e             	mov    BYTE PTR [esi+edi],al
 804c9c8:	83 c7 01             	add    edi,0x1
 804c9cb:	83 ff 20             	cmp    edi,0x20
 804c9ce:	75 f0                	jne    804c9c0
 804c9d0:	66 31 ff             	xor    di,di
 804c9d3:	90                   	nop
 804c9d4:	8d 74 26 00          	lea    esi,[esi]
 804c9d8:	e8 93 ba ff ff       	call   8048470
 804c9dd:	8b 4c 24 20          	mov    ecx,DWORD PTR [esp+0x20]
 804c9e1:	88 04 39             	mov    BYTE PTR [ecx+edi],al
 804c9e4:	83 c7 01             	add    edi,0x1
 804c9e7:	83 ff 10             	cmp    edi,0x10
 804c9ea:	75 ec                	jne    804c9d8
 804c9ec:	66 31 ff             	xor    di,di
 804c9ef:	90                   	nop
 804c9f0:	e8 7b ba ff ff       	call   8048470
 804c9f5:	8b 4c 24 24          	mov    ecx,DWORD PTR [esp+0x24]
 804c9f9:	88 04 39             	mov    BYTE PTR [ecx+edi],al
 804c9fc:	83 c7 01             	add    edi,0x1
 804c9ff:	83 ff 10             	cmp    edi,0x10
 804ca02:	75 ec                	jne    804c9f0
 804ca04:	8b 44 24 1c          	mov    eax,DWORD PTR [esp+0x1c]
 804ca08:	85 db                	test   ebx,ebx
 804ca0a:	8d 0c 18             	lea    ecx,[eax+ebx]
 804ca0d:	89 c7                	mov    edi,eax
 804ca0f:	89 4c 24 24          	mov    DWORD PTR [esp+0x24],ecx
 804ca13:	74 14                	je     804ca29
 804ca15:	8d 76 00             	lea    esi,[esi]
 804ca18:	e8 53 ba ff ff       	call   8048470
 804ca1d:	83 c7 01             	add    edi,0x1
 804ca20:	88 47 ff             	mov    BYTE PTR [edi-0x1],al
 804ca23:	39 7c 24 24          	cmp    DWORD PTR [esp+0x24],edi
 804ca27:	75 ef                	jne    804ca18
 804ca29:	89 34 24             	mov    DWORD PTR [esp],esi
 804ca2c:	83 c6 20             	add    esi,0x20
 804ca2f:	e8 ec 1f 02 00       	call   806ea20
 804ca34:	81 44 24 1c 00 00 04 	add    DWORD PTR [esp+0x1c],0x40000
 804ca3b:	00 
 804ca3c:	81 7c 24 1c 41 6d dc 	cmp    DWORD PTR [esp+0x1c],0x8dc6d41
 804ca43:	08 
 804ca44:	0f 85 56 ff ff ff    	jne    804c9a0
 804ca4a:	e8 51 1e 02 00       	call   806e8a0
 804ca4f:	b9 41 61 88 08       	mov    ecx,0x8886141
 804ca54:	8d 74 26 00          	lea    esi,[esi]
 804ca58:	31 c0                	xor    eax,eax
 804ca5a:	8d b6 00 00 00 00    	lea    esi,[esi]
 804ca60:	0f b6 14 01          	movzx  edx,BYTE PTR [ecx+eax]
 804ca64:	30 90 40 61 08 08    	xor    BYTE PTR [eax+0x8086140],dl
 804ca6a:	83 c0 01             	add    eax,0x1
 804ca6d:	83 f8 20             	cmp    eax,0x20
 804ca70:	75 ee                	jne    804ca60
 804ca72:	83 c1 20             	add    ecx,0x20
 804ca75:	81 f9 e1 63 88 08    	cmp    ecx,0x88863e1
 804ca7b:	75 db                	jne    804ca58
 804ca7d:	31 f6                	xor    esi,esi
 804ca7f:	90                   	nop
 804ca80:	e8 4b 34 02 00       	call   806fed0
 804ca85:	89 04 f5 80 60 08 08 	mov    DWORD PTR [esi*8+0x8086080],eax
 804ca8c:	89 14 f5 84 60 08 08 	mov    DWORD PTR [esi*8+0x8086084],edx
 804ca93:	83 c6 01             	add    esi,0x1
 804ca96:	83 fe 15             	cmp    esi,0x15
 804ca99:	75 e5                	jne    804ca80
 804ca9b:	31 ff                	xor    edi,edi
 804ca9d:	be 41 69 88 08       	mov    esi,0x8886941
 804caa2:	c7 44 24 24 41 61 88 	mov    DWORD PTR [esp+0x24],0x8886141
 804caa9:	08 
 804caaa:	8d b6 00 00 00 00    	lea    esi,[esi]
 804cab0:	e8 1b 34 02 00       	call   806fed0
 804cab5:	89 34 24             	mov    DWORD PTR [esp],esi
 804cab8:	89 5c 24 10          	mov    DWORD PTR [esp+0x10],ebx
 804cabc:	89 04 fd 80 60 08 08 	mov    DWORD PTR [edi*8+0x8086080],eax
 804cac3:	8d 86 00 04 00 00    	lea    eax,[esi+0x400]
 804cac9:	89 44 24 0c          	mov    DWORD PTR [esp+0xc],eax
 804cacd:	8d 86 00 fc ff ff    	lea    eax,[esi-0x400]
 804cad3:	81 c6 00 00 04 00    	add    esi,0x40000
 804cad9:	89 44 24 08          	mov    DWORD PTR [esp+0x8],eax
 804cadd:	8b 44 24 24          	mov    eax,DWORD PTR [esp+0x24]
 804cae1:	89 14 fd 84 60 08 08 	mov    DWORD PTR [edi*8+0x8086084],edx
 804cae8:	83 c7 01             	add    edi,0x1
 804caeb:	89 44 24 04          	mov    DWORD PTR [esp+0x4],eax
 804caef:	e8 5c 1e 02 00       	call   806e950
 804caf4:	83 44 24 24 20       	add    DWORD PTR [esp+0x24],0x20
 804caf9:	81 fe 41 69 dc 08    	cmp    esi,0x8dc6941
 804caff:	75 af                	jne    804cab0
 804cb01:	89 5c 24 08          	mov    DWORD PTR [esp+0x8],ebx
 804cb05:	31 f6                	xor    esi,esi
 804cb07:	c7 44 24 04 af ff 06 	mov    DWORD PTR [esp+0x4],0x806ffaf
 804cb0e:	08 
 804cb0f:	c7 04 24 01 00 00 00 	mov    DWORD PTR [esp],0x1
 804cb16:	e8 45 b9 ff ff       	call   8048460
 804cb1b:	c7 04 24 56 00 00 00 	mov    DWORD PTR [esp],0x56
 804cb22:	e8 29 b9 ff ff       	call   8048450
 804cb27:	c7 44 24 04 c0 ff 06 	mov    DWORD PTR [esp+0x4],0x806ffc0
 804cb2e:	08 
 804cb2f:	c7 04 24 01 00 00 00 	mov    DWORD PTR [esp],0x1
 804cb36:	e8 25 b9 ff ff       	call   8048460
 804cb3b:	c7 04 24 4b 00 00 00 	mov    DWORD PTR [esp],0x4b
 804cb42:	e8 09 b9 ff ff       	call   8048450
 804cb47:	c7 04 24 2d 00 00 00 	mov    DWORD PTR [esp],0x2d
 804cb4e:	e8 fd b8 ff ff       	call   8048450
 804cb53:	90                   	nop
 804cb54:	8d 74 26 00          	lea    esi,[esi]
 804cb58:	83 c6 01             	add    esi,0x1
 804cb5b:	8b 04 f5 80 60 08 08 	mov    eax,DWORD PTR [esi*8+0x8086080]
 804cb62:	8b 14 f5 84 60 08 08 	mov    edx,DWORD PTR [esi*8+0x8086084]
 804cb69:	2b 04 f5 78 60 08 08 	sub    eax,DWORD PTR [esi*8+0x8086078]
 804cb70:	1b 14 f5 7c 60 08 08 	sbb    edx,DWORD PTR [esi*8+0x808607c]
 804cb77:	c7 44 24 04 b9 ff 06 	mov    DWORD PTR [esp+0x4],0x806ffb9
 804cb7e:	08 
 804cb7f:	89 44 24 08          	mov    DWORD PTR [esp+0x8],eax
 804cb83:	89 54 24 0c          	mov    DWORD PTR [esp+0xc],edx
 804cb87:	c7 04 24 01 00 00 00 	mov    DWORD PTR [esp],0x1
 804cb8e:	e8 cd b8 ff ff       	call   8048460
 804cb93:	83 fe 14             	cmp    esi,0x14
 804cb96:	75 c0                	jne    804cb58
 804cb98:	c7 04 24 0a 00 00 00 	mov    DWORD PTR [esp],0xa
 804cb9f:	be 41 61 88 08       	mov    esi,0x8886141
 804cba4:	e8 a7 b8 ff ff       	call   8048450
 804cba9:	a1 40 60 08 08       	mov    eax,ds:0x8086040
 804cbae:	89 04 24             	mov    DWORD PTR [esp],eax
 804cbb1:	e8 4a b8 ff ff       	call   8048400
 804cbb6:	c7 44 24 1c 41 6d 88 	mov    DWORD PTR [esp+0x1c],0x8886d41
 804cbbd:	08 
 804cbbe:	66 90                	xchg   ax,ax
 804cbc0:	8b 44 24 1c          	mov    eax,DWORD PTR [esp+0x1c]
 804cbc4:	31 ff                	xor    edi,edi
 804cbc6:	8d 90 00 f8 ff ff    	lea    edx,[eax-0x800]
 804cbcc:	2d 00 04 00 00       	sub    eax,0x400
 804cbd1:	89 54 24 20          	mov    DWORD PTR [esp+0x20],edx
 804cbd5:	89 44 24 24          	mov    DWORD PTR [esp+0x24],eax
 804cbd9:	8d b4 26 00 00 00 00 	lea    esi,[esi]
 804cbe0:	e8 8b b8 ff ff       	call   8048470
 804cbe5:	88 04 3e             	mov    BYTE PTR [esi+edi],al
 804cbe8:	83 c7 01             	add    edi,0x1
 804cbeb:	83 ff 20             	cmp    edi,0x20
 804cbee:	75 f0                	jne    804cbe0
 804cbf0:	66 31 ff             	xor    di,di
 804cbf3:	90                   	nop
 804cbf4:	8d 74 26 00          	lea    esi,[esi]
 804cbf8:	e8 73 b8 ff ff       	call   8048470
 804cbfd:	8b 4c 24 20          	mov    ecx,DWORD PTR [esp+0x20]
 804cc01:	88 04 39             	mov    BYTE PTR [ecx+edi],al
 804cc04:	83 c7 01             	add    edi,0x1
 804cc07:	83 ff 10             	cmp    edi,0x10
 804cc0a:	75 ec                	jne    804cbf8
 804cc0c:	66 31 ff             	xor    di,di
 804cc0f:	90                   	nop
 804cc10:	e8 5b b8 ff ff       	call   8048470
 804cc15:	8b 4c 24 24          	mov    ecx,DWORD PTR [esp+0x24]
 804cc19:	88 04 39             	mov    BYTE PTR [ecx+edi],al
 804cc1c:	83 c7 01             	add    edi,0x1
 804cc1f:	83 ff 10             	cmp    edi,0x10
 804cc22:	75 ec                	jne    804cc10
 804cc24:	8b 44 24 1c          	mov    eax,DWORD PTR [esp+0x1c]
 804cc28:	85 db                	test   ebx,ebx
 804cc2a:	8d 0c 18             	lea    ecx,[eax+ebx]
 804cc2d:	89 c7                	mov    edi,eax
 804cc2f:	89 4c 24 24          	mov    DWORD PTR [esp+0x24],ecx
 804cc33:	74 14                	je     804cc49
 804cc35:	8d 76 00             	lea    esi,[esi]
 804cc38:	e8 33 b8 ff ff       	call   8048470
 804cc3d:	83 c7 01             	add    edi,0x1
 804cc40:	88 47 ff             	mov    BYTE PTR [edi-0x1],al
 804cc43:	39 7c 24 24          	cmp    DWORD PTR [esp+0x24],edi
 804cc47:	75 ef                	jne    804cc38
 804cc49:	89 34 24             	mov    DWORD PTR [esp],esi
 804cc4c:	83 c6 20             	add    esi,0x20
 804cc4f:	e8 cc 1d 02 00       	call   806ea20
 804cc54:	81 44 24 1c 00 00 04 	add    DWORD PTR [esp+0x1c],0x40000
 804cc5b:	00 
 804cc5c:	81 7c 24 1c 41 6d dc 	cmp    DWORD PTR [esp+0x1c],0x8dc6d41
 804cc63:	08 
 804cc64:	0f 85 56 ff ff ff    	jne    804cbc0
 804cc6a:	e8 31 1c 02 00       	call   806e8a0
 804cc6f:	b9 41 61 88 08       	mov    ecx,0x8886141
 804cc74:	8d 74 26 00          	lea    esi,[esi]
 804cc78:	31 c0                	xor    eax,eax
 804cc7a:	8d b6 00 00 00 00    	lea    esi,[esi]
 804cc80:	0f b6 14 01          	movzx  edx,BYTE PTR [ecx+eax]
 804cc84:	30 90 40 61 08 08    	xor    BYTE PTR [eax+0x8086140],dl
 804cc8a:	83 c0 01             	add    eax,0x1
 804cc8d:	83 f8 20             	cmp    eax,0x20
 804cc90:	75 ee                	jne    804cc80
 804cc92:	83 c1 20             	add    ecx,0x20
 804cc95:	81 f9 e1 63 88 08    	cmp    ecx,0x88863e1
 804cc9b:	75 db                	jne    804cc78
 804cc9d:	31 f6                	xor    esi,esi
 804cc9f:	90                   	nop
 804cca0:	e8 2b 32 02 00       	call   806fed0
 804cca5:	89 04 f5 80 60 08 08 	mov    DWORD PTR [esi*8+0x8086080],eax
 804ccac:	89 14 f5 84 60 08 08 	mov    DWORD PTR [esi*8+0x8086084],edx
 804ccb3:	83 c6 01             	add    esi,0x1
 804ccb6:	83 fe 15             	cmp    esi,0x15
 804ccb9:	75 e5                	jne    804cca0
 804ccbb:	31 ff                	xor    edi,edi
 804ccbd:	be 41 69 88 08       	mov    esi,0x8886941
 804ccc2:	c7 44 24 24 41 61 88 	mov    DWORD PTR [esp+0x24],0x8886141
 804ccc9:	08 
 804ccca:	8d b6 00 00 00 00    	lea    esi,[esi]
 804ccd0:	e8 fb 31 02 00       	call   806fed0
 804ccd5:	89 34 24             	mov    DWORD PTR [esp],esi
 804ccd8:	89 5c 24 10          	mov    DWORD PTR [esp+0x10],ebx
 804ccdc:	89 04 fd 80 60 08 08 	mov    DWORD PTR [edi*8+0x8086080],eax
 804cce3:	8d 86 00 04 00 00    	lea    eax,[esi+0x400]
 804cce9:	89 44 24 0c          	mov    DWORD PTR [esp+0xc],eax
 804cced:	8d 86 00 fc ff ff    	lea    eax,[esi-0x400]
 804ccf3:	81 c6 00 00 04 00    	add    esi,0x40000
 804ccf9:	89 44 24 08          	mov    DWORD PTR [esp+0x8],eax
 804ccfd:	8b 44 24 24          	mov    eax,DWORD PTR [esp+0x24]
 804cd01:	89 14 fd 84 60 08 08 	mov    DWORD PTR [edi*8+0x8086084],edx
 804cd08:	83 c7 01             	add    edi,0x1
 804cd0b:	89 44 24 04          	mov    DWORD PTR [esp+0x4],eax
 804cd0f:	e8 3c 1c 02 00       	call   806e950
 804cd14:	83 44 24 24 20       	add    DWORD PTR [esp+0x24],0x20
 804cd19:	81 fe 41 69 dc 08    	cmp    esi,0x8dc6941
 804cd1f:	75 af                	jne    804ccd0
 804cd21:	89 5c 24 08          	mov    DWORD PTR [esp+0x8],ebx
 804cd25:	31 f6                	xor    esi,esi
 804cd27:	c7 44 24 04 af ff 06 	mov    DWORD PTR [esp+0x4],0x806ffaf
 804cd2e:	08 
 804cd2f:	c7 04 24 01 00 00 00 	mov    DWORD PTR [esp],0x1
 804cd36:	e8 25 b7 ff ff       	call   8048460
 804cd3b:	c7 04 24 56 00 00 00 	mov    DWORD PTR [esp],0x56
 804cd42:	e8 09 b7 ff ff       	call   8048450
 804cd47:	c7 44 24 04 c0 ff 06 	mov    DWORD PTR [esp+0x4],0x806ffc0
 804cd4e:	08 
 804cd4f:	c7 04 24 01 00 00 00 	mov    DWORD PTR [esp],0x1
 804cd56:	e8 05 b7 ff ff       	call   8048460
 804cd5b:	c7 04 24 4b 00 00 00 	mov    DWORD PTR [esp],0x4b
 804cd62:	e8 e9 b6 ff ff       	call   8048450
 804cd67:	c7 04 24 2d 00 00 00 	mov    DWORD PTR [esp],0x2d
 804cd6e:	e8 dd b6 ff ff       	call   8048450
 804cd73:	90                   	nop
 804cd74:	8d 74 26 00          	lea    esi,[esi]
 804cd78:	83 c6 01             	add    esi,0x1
 804cd7b:	8b 04 f5 80 60 08 08 	mov    eax,DWORD PTR [esi*8+0x8086080]
 804cd82:	8b 14 f5 84 60 08 08 	mov    edx,DWORD PTR [esi*8+0x8086084]
 804cd89:	2b 04 f5 78 60 08 08 	sub    eax,DWORD PTR [esi*8+0x8086078]
 804cd90:	1b 14 f5 7c 60 08 08 	sbb    edx,DWORD PTR [esi*8+0x808607c]
 804cd97:	c7 44 24 04 b9 ff 06 	mov    DWORD PTR [esp+0x4],0x806ffb9
 804cd9e:	08 
 804cd9f:	89 44 24 08          	mov    DWORD PTR [esp+0x8],eax
 804cda3:	89 54 24 0c          	mov    DWORD PTR [esp+0xc],edx
 804cda7:	c7 04 24 01 00 00 00 	mov    DWORD PTR [esp],0x1
 804cdae:	e8 ad b6 ff ff       	call   8048460
 804cdb3:	83 fe 14             	cmp    esi,0x14
 804cdb6:	75 c0                	jne    804cd78
 804cdb8:	c7 04 24 0a 00 00 00 	mov    DWORD PTR [esp],0xa
 804cdbf:	be 41 61 88 08       	mov    esi,0x8886141
 804cdc4:	e8 87 b6 ff ff       	call   8048450
 804cdc9:	a1 40 60 08 08       	mov    eax,ds:0x8086040
 804cdce:	89 04 24             	mov    DWORD PTR [esp],eax
 804cdd1:	e8 2a b6 ff ff       	call   8048400
 804cdd6:	c7 44 24 1c 41 6d 88 	mov    DWORD PTR [esp+0x1c],0x8886d41
 804cddd:	08 
 804cdde:	66 90                	xchg   ax,ax
 804cde0:	8b 44 24 1c          	mov    eax,DWORD PTR [esp+0x1c]
 804cde4:	31 ff                	xor    edi,edi
 804cde6:	8d 90 00 f8 ff ff    	lea    edx,[eax-0x800]
 804cdec:	2d 00 04 00 00       	sub    eax,0x400
 804cdf1:	89 54 24 20          	mov    DWORD PTR [esp+0x20],edx
 804cdf5:	89 44 24 24          	mov    DWORD PTR [esp+0x24],eax
 804cdf9:	8d b4 26 00 00 00 00 	lea    esi,[esi]
 804ce00:	e8 6b b6 ff ff       	call   8048470
 804ce05:	88 04 3e             	mov    BYTE PTR [esi+edi],al
 804ce08:	83 c7 01             	add    edi,0x1
 804ce0b:	83 ff 20             	cmp    edi,0x20
 804ce0e:	75 f0                	jne    804ce00
 804ce10:	66 31 ff             	xor    di,di
 804ce13:	90                   	nop
 804ce14:	8d 74 26 00          	lea    esi,[esi]
 804ce18:	e8 53 b6 ff ff       	call   8048470
 804ce1d:	8b 4c 24 20          	mov    ecx,DWORD PTR [esp+0x20]
 804ce21:	88 04 39             	mov    BYTE PTR [ecx+edi],al
 804ce24:	83 c7 01             	add    edi,0x1
 804ce27:	83 ff 10             	cmp    edi,0x10
 804ce2a:	75 ec                	jne    804ce18
 804ce2c:	66 31 ff             	xor    di,di
 804ce2f:	90                   	nop
 804ce30:	e8 3b b6 ff ff       	call   8048470
 804ce35:	8b 4c 24 24          	mov    ecx,DWORD PTR [esp+0x24]
 804ce39:	88 04 39             	mov    BYTE PTR [ecx+edi],al
 804ce3c:	83 c7 01             	add    edi,0x1
 804ce3f:	83 ff 10             	cmp    edi,0x10
 804ce42:	75 ec                	jne    804ce30
 804ce44:	8b 44 24 1c          	mov    eax,DWORD PTR [esp+0x1c]
 804ce48:	85 db                	test   ebx,ebx
 804ce4a:	8d 0c 18             	lea    ecx,[eax+ebx]
 804ce4d:	89 c7                	mov    edi,eax
 804ce4f:	89 4c 24 24          	mov    DWORD PTR [esp+0x24],ecx
 804ce53:	74 14                	je     804ce69
 804ce55:	8d 76 00             	lea    esi,[esi]
 804ce58:	e8 13 b6 ff ff       	call   8048470
 804ce5d:	83 c7 01             	add    edi,0x1
 804ce60:	88 47 ff             	mov    BYTE PTR [edi-0x1],al
 804ce63:	39 7c 24 24          	cmp    DWORD PTR [esp+0x24],edi
 804ce67:	75 ef                	jne    804ce58
 804ce69:	89 34 24             	mov    DWORD PTR [esp],esi
 804ce6c:	83 c6 20             	add    esi,0x20
 804ce6f:	e8 ac 1b 02 00       	call   806ea20
 804ce74:	81 44 24 1c 00 00 04 	add    DWORD PTR [esp+0x1c],0x40000
 804ce7b:	00 
 804ce7c:	81 7c 24 1c 41 6d dc 	cmp    DWORD PTR [esp+0x1c],0x8dc6d41
 804ce83:	08 
 804ce84:	0f 85 56 ff ff ff    	jne    804cde0
 804ce8a:	e8 11 1a 02 00       	call   806e8a0
 804ce8f:	b9 41 61 88 08       	mov    ecx,0x8886141
 804ce94:	8d 74 26 00          	lea    esi,[esi]
 804ce98:	31 c0                	xor    eax,eax
 804ce9a:	8d b6 00 00 00 00    	lea    esi,[esi]
 804cea0:	0f b6 14 01          	movzx  edx,BYTE PTR [ecx+eax]
 804cea4:	30 90 40 61 08 08    	xor    BYTE PTR [eax+0x8086140],dl
 804ceaa:	83 c0 01             	add    eax,0x1
 804cead:	83 f8 20             	cmp    eax,0x20
 804ceb0:	75 ee                	jne    804cea0
 804ceb2:	83 c1 20             	add    ecx,0x20
 804ceb5:	81 f9 e1 63 88 08    	cmp    ecx,0x88863e1
 804cebb:	75 db                	jne    804ce98
 804cebd:	31 f6                	xor    esi,esi
 804cebf:	90                   	nop
 804cec0:	e8 0b 30 02 00       	call   806fed0
 804cec5:	89 04 f5 80 60 08 08 	mov    DWORD PTR [esi*8+0x8086080],eax
 804cecc:	89 14 f5 84 60 08 08 	mov    DWORD PTR [esi*8+0x8086084],edx
 804ced3:	83 c6 01             	add    esi,0x1
 804ced6:	83 fe 15             	cmp    esi,0x15
 804ced9:	75 e5                	jne    804cec0
 804cedb:	31 ff                	xor    edi,edi
 804cedd:	be 41 69 88 08       	mov    esi,0x8886941
 804cee2:	c7 44 24 24 41 61 88 	mov    DWORD PTR [esp+0x24],0x8886141
 804cee9:	08 
 804ceea:	8d b6 00 00 00 00    	lea    esi,[esi]
 804cef0:	e8 db 2f 02 00       	call   806fed0
 804cef5:	89 34 24             	mov    DWORD PTR [esp],esi
 804cef8:	89 5c 24 10          	mov    DWORD PTR [esp+0x10],ebx
 804cefc:	89 04 fd 80 60 08 08 	mov    DWORD PTR [edi*8+0x8086080],eax
 804cf03:	8d 86 00 04 00 00    	lea    eax,[esi+0x400]
 804cf09:	89 44 24 0c          	mov    DWORD PTR [esp+0xc],eax
 804cf0d:	8d 86 00 fc ff ff    	lea    eax,[esi-0x400]
 804cf13:	81 c6 00 00 04 00    	add    esi,0x40000
 804cf19:	89 44 24 08          	mov    DWORD PTR [esp+0x8],eax
 804cf1d:	8b 44 24 24          	mov    eax,DWORD PTR [esp+0x24]
 804cf21:	89 14 fd 84 60 08 08 	mov    DWORD PTR [edi*8+0x8086084],edx
 804cf28:	83 c7 01             	add    edi,0x1
 804cf2b:	89 44 24 04          	mov    DWORD PTR [esp+0x4],eax
 804cf2f:	e8 1c 1a 02 00       	call   806e950
 804cf34:	83 44 24 24 20       	add    DWORD PTR [esp+0x24],0x20
 804cf39:	81 fe 41 69 dc 08    	cmp    esi,0x8dc6941
 804cf3f:	75 af                	jne    804cef0
 804cf41:	89 5c 24 08          	mov    DWORD PTR [esp+0x8],ebx
 804cf45:	31 f6                	xor    esi,esi
 804cf47:	c7 44 24 04 af ff 06 	mov    DWORD PTR [esp+0x4],0x806ffaf
 804cf4e:	08 
 804cf4f:	c7 04 24 01 00 00 00 	mov    DWORD PTR [esp],0x1
 804cf56:	e8 05 b5 ff ff       	call   8048460
 804cf5b:	c7 04 24 56 00 00 00 	mov    DWORD PTR [esp],0x56
 804cf62:	e8 e9 b4 ff ff       	call   8048450
 804cf67:	c7 44 24 04 c0 ff 06 	mov    DWORD PTR [esp+0x4],0x806ffc0
 804cf6e:	08 
 804cf6f:	c7 04 24 01 00 00 00 	mov    DWORD PTR [esp],0x1
 804cf76:	e8 e5 b4 ff ff       	call   8048460
 804cf7b:	c7 04 24 4b 00 00 00 	mov    DWORD PTR [esp],0x4b
 804cf82:	e8 c9 b4 ff ff       	call   8048450
 804cf87:	c7 04 24 2d 00 00 00 	mov    DWORD PTR [esp],0x2d
 804cf8e:	e8 bd b4 ff ff       	call   8048450
 804cf93:	90                   	nop
 804cf94:	8d 74 26 00          	lea    esi,[esi]
 804cf98:	83 c6 01             	add    esi,0x1
 804cf9b:	8b 04 f5 80 60 08 08 	mov    eax,DWORD PTR [esi*8+0x8086080]
 804cfa2:	8b 14 f5 84 60 08 08 	mov    edx,DWORD PTR [esi*8+0x8086084]
 804cfa9:	2b 04 f5 78 60 08 08 	sub    eax,DWORD PTR [esi*8+0x8086078]
 804cfb0:	1b 14 f5 7c 60 08 08 	sbb    edx,DWORD PTR [esi*8+0x808607c]
 804cfb7:	c7 44 24 04 b9 ff 06 	mov    DWORD PTR [esp+0x4],0x806ffb9
 804cfbe:	08 
 804cfbf:	89 44 24 08          	mov    DWORD PTR [esp+0x8],eax
 804cfc3:	89 54 24 0c          	mov    DWORD PTR [esp+0xc],edx
 804cfc7:	c7 04 24 01 00 00 00 	mov    DWORD PTR [esp],0x1
 804cfce:	e8 8d b4 ff ff       	call   8048460
 804cfd3:	83 fe 14             	cmp    esi,0x14
 804cfd6:	75 c0                	jne    804cf98
 804cfd8:	c7 04 24 0a 00 00 00 	mov    DWORD PTR [esp],0xa
 804cfdf:	be 40 61 88 08       	mov    esi,0x8886140
 804cfe4:	e8 67 b4 ff ff       	call   8048450
 804cfe9:	a1 40 60 08 08       	mov    eax,ds:0x8086040
 804cfee:	89 04 24             	mov    DWORD PTR [esp],eax
 804cff1:	e8 0a b4 ff ff       	call   8048400
 804cff6:	c7 44 24 1c 40 6d 88 	mov    DWORD PTR [esp+0x1c],0x8886d40
 804cffd:	08 
 804cffe:	66 90                	xchg   ax,ax
 804d000:	8b 44 24 1c          	mov    eax,DWORD PTR [esp+0x1c]
 804d004:	31 ff                	xor    edi,edi
 804d006:	8d 90 00 f8 ff ff    	lea    edx,[eax-0x800]
 804d00c:	2d 00 04 00 00       	sub    eax,0x400
 804d011:	89 54 24 20          	mov    DWORD PTR [esp+0x20],edx
 804d015:	89 44 24 24          	mov    DWORD PTR [esp+0x24],eax
 804d019:	8d b4 26 00 00 00 00 	lea    esi,[esi]
 804d020:	e8 4b b4 ff ff       	call   8048470
 804d025:	88 04 3e             	mov    BYTE PTR [esi+edi],al
 804d028:	83 c7 01             	add    edi,0x1
 804d02b:	83 ff 20             	cmp    edi,0x20
 804d02e:	75 f0                	jne    804d020
 804d030:	66 31 ff             	xor    di,di
 804d033:	90                   	nop
 804d034:	8d 74 26 00          	lea    esi,[esi]
 804d038:	e8 33 b4 ff ff       	call   8048470
 804d03d:	8b 4c 24 20          	mov    ecx,DWORD PTR [esp+0x20]
 804d041:	88 04 39             	mov    BYTE PTR [ecx+edi],al
 804d044:	83 c7 01             	add    edi,0x1
 804d047:	83 ff 10             	cmp    edi,0x10
 804d04a:	75 ec                	jne    804d038
 804d04c:	66 31 ff             	xor    di,di
 804d04f:	90                   	nop
 804d050:	e8 1b b4 ff ff       	call   8048470
 804d055:	8b 4c 24 24          	mov    ecx,DWORD PTR [esp+0x24]
 804d059:	88 04 39             	mov    BYTE PTR [ecx+edi],al
 804d05c:	83 c7 01             	add    edi,0x1
 804d05f:	83 ff 10             	cmp    edi,0x10
 804d062:	75 ec                	jne    804d050
 804d064:	8b 44 24 1c          	mov    eax,DWORD PTR [esp+0x1c]
 804d068:	85 db                	test   ebx,ebx
 804d06a:	8d 0c 18             	lea    ecx,[eax+ebx]
 804d06d:	89 c7                	mov    edi,eax
 804d06f:	89 4c 24 24          	mov    DWORD PTR [esp+0x24],ecx
 804d073:	74 14                	je     804d089
 804d075:	8d 76 00             	lea    esi,[esi]
 804d078:	e8 f3 b3 ff ff       	call   8048470
 804d07d:	83 c7 01             	add    edi,0x1
 804d080:	88 47 ff             	mov    BYTE PTR [edi-0x1],al
 804d083:	39 7c 24 24          	cmp    DWORD PTR [esp+0x24],edi
 804d087:	75 ef                	jne    804d078
 804d089:	89 34 24             	mov    DWORD PTR [esp],esi
 804d08c:	81 c6 00 00 01 00    	add    esi,0x10000
 804d092:	e8 89 19 02 00       	call   806ea20
 804d097:	81 44 24 1c 00 00 04 	add    DWORD PTR [esp+0x1c],0x40000
 804d09e:	00 
 804d09f:	81 7c 24 1c 40 6d dc 	cmp    DWORD PTR [esp+0x1c],0x8dc6d40
 804d0a6:	08 
 804d0a7:	0f 85 53 ff ff ff    	jne    804d000
 804d0ad:	e8 ee 17 02 00       	call   806e8a0
 804d0b2:	31 f6                	xor    esi,esi
 804d0b4:	8d 74 26 00          	lea    esi,[esi]
 804d0b8:	e8 13 2e 02 00       	call   806fed0
 804d0bd:	89 04 f5 80 60 08 08 	mov    DWORD PTR [esi*8+0x8086080],eax
 804d0c4:	89 14 f5 84 60 08 08 	mov    DWORD PTR [esi*8+0x8086084],edx
 804d0cb:	83 c6 01             	add    esi,0x1
 804d0ce:	83 fe 15             	cmp    esi,0x15
 804d0d1:	75 e5                	jne    804d0b8
 804d0d3:	31 ff                	xor    edi,edi
 804d0d5:	be 40 69 88 08       	mov    esi,0x8886940
 804d0da:	8d b6 00 00 00 00    	lea    esi,[esi]
 804d0e0:	e8 eb 2d 02 00       	call   806fed0
 804d0e5:	89 34 24             	mov    DWORD PTR [esp],esi
 804d0e8:	89 5c 24 10          	mov    DWORD PTR [esp+0x10],ebx
 804d0ec:	89 04 fd 80 60 08 08 	mov    DWORD PTR [edi*8+0x8086080],eax
 804d0f3:	8d 86 00 04 00 00    	lea    eax,[esi+0x400]
 804d0f9:	89 44 24 0c          	mov    DWORD PTR [esp+0xc],eax
 804d0fd:	8d 86 00 fc ff ff    	lea    eax,[esi-0x400]
 804d103:	89 44 24 08          	mov    DWORD PTR [esp+0x8],eax
 804d107:	8d 86 00 f8 ff ff    	lea    eax,[esi-0x800]
 804d10d:	81 c6 00 00 04 00    	add    esi,0x40000
 804d113:	89 44 24 04          	mov    DWORD PTR [esp+0x4],eax
 804d117:	89 14 fd 84 60 08 08 	mov    DWORD PTR [edi*8+0x8086084],edx
 804d11e:	83 c7 01             	add    edi,0x1
