Disassembly of section .init:

080482cc <_init>:
 80482cc:	53                   	push   ebx
 80482cd:	83 ec 08             	sub    esp,0x8
 80482d0:	e8 0b 01 00 00       	call   80483e0
 80482d5:	81 c3 2b 7d 00 00    	add    ebx,0x7d2b
 80482db:	8b 83 fc ff ff ff    	mov    eax,DWORD PTR [ebx-0x4]
 80482e1:	85 c0                	test   eax,eax
 80482e3:	74 05                	je     80482ea
 80482e5:	e8 46 00 00 00       	call   8048330
 80482ea:	83 c4 08             	add    esp,0x8
 80482ed:	5b                   	pop    ebx
 80482ee:	c3                   	ret

Disassembly of section .plt:
 80482f0:	ff 35 04 00 05 08    	push   DWORD PTR ds:0x8050004
 80482f6:	ff 25 08 00 05 08    	jmp    DWORD PTR ds:0x8050008
 80482fc:	00 00                	add    BYTE PTR [eax],al
 80482fe:	00 00                	add    BYTE PTR [eax],al
 8048300:	ff 25 0c 00 05 08    	jmp    DWORD PTR ds:0x805000c
 8048306:	68 00 00 00 00       	push   0x0
 804830b:	e9 e0 ff ff ff       	jmp    80482f0
 8048310:	ff 25 10 00 05 08    	jmp    DWORD PTR ds:0x8050010
 8048316:	68 08 00 00 00       	push   0x8
 804831b:	e9 d0 ff ff ff       	jmp    80482f0
 8048320:	ff 25 14 00 05 08    	jmp    DWORD PTR ds:0x8050014
 8048326:	68 10 00 00 00       	push   0x10
 804832b:	e9 c0 ff ff ff       	jmp    80482f0

Disassembly of section .plt.got:
 8048330:	ff 25 fc ff 04 08    	jmp    DWORD PTR ds:0x804fffc
 8048336:	66 90                	xchg   ax,ax

Disassembly of section .text:

08048340 <main>:
 8048340:	8d 4c 24 04          	lea    ecx,[esp+0x4]
 8048344:	83 e4 f0             	and    esp,0xf0
 8048347:	ff 71 fc             	push   DWORD PTR [ecx-0x4]
 804834a:	55                   	push   ebp
 804834b:	89 e5                	mov    ebp,esp
 804834d:	57                   	push   edi
 804834e:	56                   	push   esi
 804834f:	53                   	push   ebx
 8048350:	51                   	push   ecx
 8048351:	bb 6b ca 5f 6b       	mov    ebx,0x6b5fca6b
 8048356:	83 ec 24             	sub    esp,0x24
 8048359:	68 00 10 00 00       	push   0x1000
 804835e:	e8 9d ff ff ff       	call   8048300
 8048363:	8d b0 00 10 00 00    	lea    esi,[eax+0x1000]
 8048369:	89 45 e4             	mov    DWORD PTR [ebp-0x1c],eax
 804836c:	89 c7                	mov    edi,eax
 804836e:	83 c4 10             	add    esp,0x10
 8048371:	8d b4 26 00 00 00 00 	lea    esi,[esi]
 8048378:	e8 a3 ff ff ff       	call   8048320
 804837d:	89 c1                	mov    ecx,eax
 804837f:	83 c7 04             	add    edi,0x4
 8048382:	f7 eb                	imul   ebx
 8048384:	c1 f9 1f             	sar    ecx,0x1f
 8048387:	c1 fa 16             	sar    edx,0x16
 804838a:	29 ca                	sub    edx,ecx
 804838c:	89 57 fc             	mov    DWORD PTR [edi-0x4],edx
 804838f:	39 f7                	cmp    edi,esi
 8048391:	75 e5                	jne    8048378
 8048393:	83 ec 0c             	sub    esp,0xc
 8048396:	8b 45 e4             	mov    eax,DWORD PTR [ebp-0x1c]
 8048399:	b9 00 04 00 00       	mov    ecx,0x400
 804839e:	6a 01                	push   0x1
 80483a0:	31 d2                	xor    edx,edx
 80483a2:	e8 09 06 00 00       	call   80489b0
 80483a7:	83 c4 10             	add    esp,0x10
 80483aa:	8d 65 f0             	lea    esp,[ebp-0x10]
 80483ad:	31 c0                	xor    eax,eax
 80483af:	59                   	pop    ecx
 80483b0:	5b                   	pop    ebx
 80483b1:	5e                   	pop    esi
 80483b2:	5f                   	pop    edi
 80483b3:	5d                   	pop    ebp
 80483b4:	8d 61 fc             	lea    esp,[ecx-0x4]
 80483b7:	c3                   	ret

080483b8 <_start>:
 80483b8:	31 ed                	xor    ebp,ebp
 80483ba:	5e                   	pop    esi
 80483bb:	89 e1                	mov    ecx,esp
 80483bd:	83 e4 f0             	and    esp,0xf0
 80483c0:	50                   	push   eax
 80483c1:	54                   	push   esp
 80483c2:	52                   	push   edx
 80483c3:	68 60 db 04 08       	push   0x804db60
 80483c8:	68 00 db 04 08       	push   0x804db00
 80483cd:	51                   	push   ecx
 80483ce:	56                   	push   esi
 80483cf:	68 40 83 04 08       	push   0x8048340
 80483d4:	e8 37 ff ff ff       	call   8048310
 80483d9:	f4                   	hlt
 80483da:	66 90                	xchg   ax,ax
 80483dc:	66 90                	xchg   ax,ax
 80483de:	66 90                	xchg   ax,ax

080483e0 <__x86.get_pc_thunk.bx>:
 80483e0:	8b 1c 24             	mov    ebx,DWORD PTR [esp]
 80483e3:	c3                   	ret
 80483e4:	66 90                	xchg   ax,ax
 80483e6:	66 90                	xchg   ax,ax
 80483e8:	66 90                	xchg   ax,ax
 80483ea:	66 90                	xchg   ax,ax
 80483ec:	66 90                	xchg   ax,ax
 80483ee:	66 90                	xchg   ax,ax

080483f0 <deregister_tm_clones>:
 80483f0:	b8 23 00 05 08       	mov    eax,0x8050023
 80483f5:	2d 20 00 05 08       	sub    eax,0x8050020
 80483fa:	83 f8 06             	cmp    eax,0x6
 80483fd:	76 1a                	jbe    8048419
 80483ff:	b8 00 00 00 00       	mov    eax,0x0
 8048404:	85 c0                	test   eax,eax
 8048406:	74 11                	je     8048419
 8048408:	55                   	push   ebp
 8048409:	89 e5                	mov    ebp,esp
 804840b:	83 ec 14             	sub    esp,0x14
 804840e:	68 20 00 05 08       	push   0x8050020
 8048413:	ff d0                	call   eax
 8048415:	83 c4 10             	add    esp,0x10
 8048418:	c9                   	leave
 8048419:	f3 c3                	repz   ret
 804841b:	90                   	nop
 804841c:	8d 74 26 00          	lea    esi,[esi]

08048420 <register_tm_clones>:
 8048420:	b8 20 00 05 08       	mov    eax,0x8050020
 8048425:	2d 20 00 05 08       	sub    eax,0x8050020
 804842a:	c1 f8 02             	sar    eax,0x2
 804842d:	89 c2                	mov    edx,eax
 804842f:	c1 ea 1f             	shr    edx,0x1f
 8048432:	01 d0                	add    eax,edx
 8048434:	d1 f8                	sar    eax,1
 8048436:	74 1b                	je     8048453
 8048438:	ba 00 00 00 00       	mov    edx,0x0
 804843d:	85 d2                	test   edx,edx
 804843f:	74 12                	je     8048453
 8048441:	55                   	push   ebp
 8048442:	89 e5                	mov    ebp,esp
 8048444:	83 ec 10             	sub    esp,0x10
 8048447:	50                   	push   eax
 8048448:	68 20 00 05 08       	push   0x8050020
 804844d:	ff d2                	call   edx
 804844f:	83 c4 10             	add    esp,0x10
 8048452:	c9                   	leave
 8048453:	f3 c3                	repz   ret
 8048455:	8d 74 26 00          	lea    esi,[esi]
 8048459:	8d bc 27 00 00 00 00 	lea    edi,[edi]

08048460 <__do_global_dtors_aux>:
 8048460:	80 3d 20 00 05 08 00 	cmp    BYTE PTR ds:0x8050020,0x0
 8048467:	75 13                	jne    804847c
 8048469:	55                   	push   ebp
 804846a:	89 e5                	mov    ebp,esp
 804846c:	83 ec 08             	sub    esp,0x8
 804846f:	e8 7c ff ff ff       	call   80483f0
 8048474:	c6 05 20 00 05 08 01 	mov    BYTE PTR ds:0x8050020,0x1
 804847b:	c9                   	leave
 804847c:	f3 c3                	repz   ret
 804847e:	66 90                	xchg   ax,ax

08048480 <frame_dummy>:
 8048480:	b8 10 ff 04 08       	mov    eax,0x804ff10
 8048485:	8b 10                	mov    edx,DWORD PTR [eax]
 8048487:	85 d2                	test   edx,edx
 8048489:	75 05                	jne    8048490
 804848b:	eb 93                	jmp    8048420
 804848d:	8d 76 00             	lea    esi,[esi]
 8048490:	ba 00 00 00 00       	mov    edx,0x0
 8048495:	85 d2                	test   edx,edx
 8048497:	74 f2                	je     804848b
 8048499:	55                   	push   ebp
 804849a:	89 e5                	mov    ebp,esp
 804849c:	83 ec 14             	sub    esp,0x14
 804849f:	50                   	push   eax
 80484a0:	ff d2                	call   edx
 80484a2:	83 c4 10             	add    esp,0x10
 80484a5:	c9                   	leave
 80484a6:	e9 75 ff ff ff       	jmp    8048420
 80484ab:	66 90                	xchg   ax,ax
 80484ad:	66 90                	xchg   ax,ax
 80484af:	90                   	nop

080484b0 <CompAndSwap>:
 80484b0:	56                   	push   esi
 80484b1:	53                   	push   ebx
 80484b2:	31 db                	xor    ebx,ebx
 80484b4:	8b 44 24 0c          	mov    eax,DWORD PTR [esp+0xc]
 80484b8:	8b 54 24 10          	mov    edx,DWORD PTR [esp+0x10]
 80484bc:	8b 4c 24 14          	mov    ecx,DWORD PTR [esp+0x14]
 80484c0:	8d 14 90             	lea    edx,[eax+edx*4]
 80484c3:	8d 34 88             	lea    esi,[eax+ecx*4]
 80484c6:	8b 06                	mov    eax,DWORD PTR [esi]
 80484c8:	39 02                	cmp    DWORD PTR [edx],eax
 80484ca:	8b 44 24 18          	mov    eax,DWORD PTR [esp+0x18]
 80484ce:	0f 9f c3             	setg   bl
 80484d1:	39 c3                	cmp    ebx,eax
 80484d3:	8b 02                	mov    eax,DWORD PTR [edx]
 80484d5:	8b 1e                	mov    ebx,DWORD PTR [esi]
 80484d7:	89 c1                	mov    ecx,eax
 80484d9:	0f 44 c3             	cmove  eax,ebx
 80484dc:	0f 44 d9             	cmove  ebx,ecx
 80484df:	89 02                	mov    DWORD PTR [edx],eax
 80484e1:	89 1e                	mov    DWORD PTR [esi],ebx
 80484e3:	5b                   	pop    ebx
 80484e4:	5e                   	pop    esi
 80484e5:	c3                   	ret
 80484e6:	8d 76 00             	lea    esi,[esi]
 80484e9:	8d bc 27 00 00 00 00 	lea    edi,[edi]

080484f0 <BitonicMerge>:
 80484f0:	55                   	push   ebp
 80484f1:	57                   	push   edi
 80484f2:	56                   	push   esi
 80484f3:	53                   	push   ebx
 80484f4:	83 ec 5c             	sub    esp,0x5c
 80484f7:	83 7c 24 78 01       	cmp    DWORD PTR [esp+0x78],0x1
 80484fc:	8b 6c 24 74          	mov    ebp,DWORD PTR [esp+0x74]
 8048500:	8b 44 24 7c          	mov    eax,DWORD PTR [esp+0x7c]
 8048504:	0f 8e 7e 04 00 00    	jle    8048988
 804850a:	d1 7c 24 78          	sar    DWORD PTR [esp+0x78],1
 804850e:	8b 74 24 78          	mov    esi,DWORD PTR [esp+0x78]
 8048512:	01 ee                	add    esi,ebp
 8048514:	39 ee                	cmp    esi,ebp
 8048516:	89 74 24 34          	mov    DWORD PTR [esp+0x34],esi
 804851a:	7e 4f                	jle    804856b
 804851c:	8b 5c 24 70          	mov    ebx,DWORD PTR [esp+0x70]
 8048520:	8b 4c 24 78          	mov    ecx,DWORD PTR [esp+0x78]
 8048524:	8d 3c ab             	lea    edi,[ebx+ebp*4]
 8048527:	8d 1c b3             	lea    ebx,[ebx+esi*4]
 804852a:	89 5c 24 04          	mov    DWORD PTR [esp+0x4],ebx
 804852e:	8d 1c 8d 00 00 00 00 	lea    ebx,[ecx*4]
 8048535:	89 5c 24 08          	mov    DWORD PTR [esp+0x8],ebx
 8048539:	8b 5c 24 78          	mov    ebx,DWORD PTR [esp+0x78]
 804853d:	8b 4c 24 08          	mov    ecx,DWORD PTR [esp+0x8]
 8048541:	8b 34 9f             	mov    esi,DWORD PTR [edi+ebx*4]
 8048544:	31 db                	xor    ebx,ebx
 8048546:	39 37                	cmp    DWORD PTR [edi],esi
 8048548:	8d 14 0f             	lea    edx,[edi+ecx]
 804854b:	89 fe                	mov    esi,edi
 804854d:	0f 9f c3             	setg   bl
 8048550:	39 c3                	cmp    ebx,eax
 8048552:	8b 06                	mov    eax,DWORD PTR [esi]
 8048554:	8b 1a                	mov    ebx,DWORD PTR [edx]
 8048556:	89 c1                	mov    ecx,eax
 8048558:	0f 44 c3             	cmove  eax,ebx
 804855b:	0f 44 d9             	cmove  ebx,ecx
 804855e:	89 06                	mov    DWORD PTR [esi],eax
 8048560:	89 1a                	mov    DWORD PTR [edx],ebx
 8048562:	83 c7 04             	add    edi,0x4
 8048565:	3b 7c 24 04          	cmp    edi,DWORD PTR [esp+0x4]
 8048569:	75 ce                	jne    8048539
 804856b:	83 7c 24 78 01       	cmp    DWORD PTR [esp+0x78],0x1
 8048570:	0f 84 12 04 00 00    	je     8048988
 8048576:	8b 7c 24 78          	mov    edi,DWORD PTR [esp+0x78]
 804857a:	89 7c 24 20          	mov    DWORD PTR [esp+0x20],edi
 804857e:	89 ef                	mov    edi,ebp
 8048580:	d1 7c 24 20          	sar    DWORD PTR [esp+0x20],1
 8048584:	8b 4c 24 20          	mov    ecx,DWORD PTR [esp+0x20]
 8048588:	8d 1c 39             	lea    ebx,[ecx+edi]
 804858b:	39 fb                	cmp    ebx,edi
 804858d:	89 5c 24 38          	mov    DWORD PTR [esp+0x38],ebx
 8048591:	7e 55                	jle    80485e8
 8048593:	8b 4c 24 70          	mov    ecx,DWORD PTR [esp+0x70]
 8048597:	89 de                	mov    esi,ebx
 8048599:	8d 2c b9             	lea    ebp,[ecx+edi*4]
 804859c:	8d 0c b1             	lea    ecx,[ecx+esi*4]
 804859f:	8b 74 24 20          	mov    esi,DWORD PTR [esp+0x20]
 80485a3:	89 4c 24 04          	mov    DWORD PTR [esp+0x4],ecx
 80485a7:	8d 1c b5 00 00 00 00 	lea    ebx,[esi*4]
 80485ae:	89 5c 24 08          	mov    DWORD PTR [esp+0x8],ebx
 80485b2:	8b 4c 24 20          	mov    ecx,DWORD PTR [esp+0x20]
 80485b6:	8b 74 24 08          	mov    esi,DWORD PTR [esp+0x8]
 80485ba:	8b 5c 8d 00          	mov    ebx,DWORD PTR [ebp+ecx*4]
 80485be:	39 5d 00             	cmp    DWORD PTR [ebp],ebx
 80485c1:	8d 54 35 00          	lea    edx,[ebp+esi]
 80485c5:	89 ee                	mov    esi,ebp
 80485c7:	0f 9f c3             	setg   bl
 80485ca:	0f b6 db             	movzx  ebx,bl
 80485cd:	39 c3                	cmp    ebx,eax
 80485cf:	8b 06                	mov    eax,DWORD PTR [esi]
 80485d1:	8b 1a                	mov    ebx,DWORD PTR [edx]
 80485d3:	89 c1                	mov    ecx,eax
 80485d5:	0f 44 c3             	cmove  eax,ebx
 80485d8:	0f 44 d9             	cmove  ebx,ecx
 80485db:	89 06                	mov    DWORD PTR [esi],eax
 80485dd:	89 1a                	mov    DWORD PTR [edx],ebx
 80485df:	83 c5 04             	add    ebp,0x4
 80485e2:	3b 6c 24 04          	cmp    ebp,DWORD PTR [esp+0x4]
 80485e6:	75 ca                	jne    80485b2
 80485e8:	83 7c 24 20 01       	cmp    DWORD PTR [esp+0x20],0x1
 80485ed:	8b 6c 24 34          	mov    ebp,DWORD PTR [esp+0x34]
 80485f1:	0f 84 13 ff ff ff    	je     804850a
 80485f7:	8b 5c 24 20          	mov    ebx,DWORD PTR [esp+0x20]
 80485fb:	89 fd                	mov    ebp,edi
 80485fd:	89 5c 24 24          	mov    DWORD PTR [esp+0x24],ebx
 8048601:	d1 7c 24 24          	sar    DWORD PTR [esp+0x24],1
 8048605:	8b 7c 24 24          	mov    edi,DWORD PTR [esp+0x24]
 8048609:	01 ef                	add    edi,ebp
 804860b:	39 ef                	cmp    edi,ebp
 804860d:	89 7c 24 40          	mov    DWORD PTR [esp+0x40],edi
 8048611:	7e 55                	jle    8048668
 8048613:	8b 4c 24 70          	mov    ecx,DWORD PTR [esp+0x70]
 8048617:	89 fb                	mov    ebx,edi
 8048619:	8b 7c 24 70          	mov    edi,DWORD PTR [esp+0x70]
 804861d:	8d 34 99             	lea    esi,[ecx+ebx*4]
 8048620:	8b 5c 24 24          	mov    ebx,DWORD PTR [esp+0x24]
 8048624:	8d 3c af             	lea    edi,[edi+ebp*4]
 8048627:	89 74 24 04          	mov    DWORD PTR [esp+0x4],esi
 804862b:	8d 0c 9d 00 00 00 00 	lea    ecx,[ebx*4]
 8048632:	89 4c 24 08          	mov    DWORD PTR [esp+0x8],ecx
 8048636:	8b 74 24 24          	mov    esi,DWORD PTR [esp+0x24]
 804863a:	31 db                	xor    ebx,ebx
 804863c:	8b 0c b7             	mov    ecx,DWORD PTR [edi+esi*4]
 804863f:	39 0f                	cmp    DWORD PTR [edi],ecx
 8048641:	8b 74 24 08          	mov    esi,DWORD PTR [esp+0x8]
 8048645:	0f 9f c3             	setg   bl
 8048648:	8d 14 37             	lea    edx,[edi+esi]
 804864b:	89 fe                	mov    esi,edi
 804864d:	39 c3                	cmp    ebx,eax
 804864f:	8b 06                	mov    eax,DWORD PTR [esi]
 8048651:	8b 1a                	mov    ebx,DWORD PTR [edx]
 8048653:	89 c1                	mov    ecx,eax
 8048655:	0f 44 c3             	cmove  eax,ebx
 8048658:	0f 44 d9             	cmove  ebx,ecx
 804865b:	89 06                	mov    DWORD PTR [esi],eax
 804865d:	89 1a                	mov    DWORD PTR [edx],ebx
 804865f:	83 c7 04             	add    edi,0x4
 8048662:	3b 7c 24 04          	cmp    edi,DWORD PTR [esp+0x4]
 8048666:	75 ce                	jne    8048636
 8048668:	83 7c 24 24 01       	cmp    DWORD PTR [esp+0x24],0x1
 804866d:	8b 7c 24 38          	mov    edi,DWORD PTR [esp+0x38]
 8048671:	0f 84 09 ff ff ff    	je     8048580
 8048677:	8b 7c 24 24          	mov    edi,DWORD PTR [esp+0x24]
 804867b:	89 7c 24 28          	mov    DWORD PTR [esp+0x28],edi
 804867f:	89 ef                	mov    edi,ebp
 8048681:	d1 7c 24 28          	sar    DWORD PTR [esp+0x28],1
 8048685:	8b 74 24 28          	mov    esi,DWORD PTR [esp+0x28]
 8048689:	01 fe                	add    esi,edi
 804868b:	39 fe                	cmp    esi,edi
 804868d:	89 74 24 44          	mov    DWORD PTR [esp+0x44],esi
 8048691:	7e 54                	jle    80486e7
 8048693:	8b 5c 24 70          	mov    ebx,DWORD PTR [esp+0x70]
 8048697:	89 f1                	mov    ecx,esi
 8048699:	8d 2c bb             	lea    ebp,[ebx+edi*4]
 804869c:	8d 1c 8b             	lea    ebx,[ebx+ecx*4]
 804869f:	8b 4c 24 28          	mov    ecx,DWORD PTR [esp+0x28]
 80486a3:	89 5c 24 04          	mov    DWORD PTR [esp+0x4],ebx
 80486a7:	8d 34 8d 00 00 00 00 	lea    esi,[ecx*4]
 80486ae:	89 74 24 08          	mov    DWORD PTR [esp+0x8],esi
 80486b2:	8b 5c 24 28          	mov    ebx,DWORD PTR [esp+0x28]
 80486b6:	8b 4c 24 08          	mov    ecx,DWORD PTR [esp+0x8]
 80486ba:	8b 74 9d 00          	mov    esi,DWORD PTR [ebp+ebx*4]
 80486be:	31 db                	xor    ebx,ebx
 80486c0:	39 75 00             	cmp    DWORD PTR [ebp],esi
 80486c3:	8d 54 0d 00          	lea    edx,[ebp+ecx]
 80486c7:	89 ee                	mov    esi,ebp
 80486c9:	0f 9f c3             	setg   bl
 80486cc:	39 c3                	cmp    ebx,eax
 80486ce:	8b 06                	mov    eax,DWORD PTR [esi]
 80486d0:	8b 1a                	mov    ebx,DWORD PTR [edx]
 80486d2:	89 c1                	mov    ecx,eax
 80486d4:	0f 44 c3             	cmove  eax,ebx
 80486d7:	0f 44 d9             	cmove  ebx,ecx
 80486da:	89 06                	mov    DWORD PTR [esi],eax
 80486dc:	89 1a                	mov    DWORD PTR [edx],ebx
 80486de:	83 c5 04             	add    ebp,0x4
 80486e1:	3b 6c 24 04          	cmp    ebp,DWORD PTR [esp+0x4]
 80486e5:	75 cb                	jne    80486b2
 80486e7:	83 7c 24 28 01       	cmp    DWORD PTR [esp+0x28],0x1
 80486ec:	8b 6c 24 40          	mov    ebp,DWORD PTR [esp+0x40]
 80486f0:	0f 84 0b ff ff ff    	je     8048601
 80486f6:	8b 74 24 28          	mov    esi,DWORD PTR [esp+0x28]
 80486fa:	89 fd                	mov    ebp,edi
 80486fc:	89 74 24 2c          	mov    DWORD PTR [esp+0x2c],esi
 8048700:	d1 7c 24 2c          	sar    DWORD PTR [esp+0x2c],1
 8048704:	8b 4c 24 2c          	mov    ecx,DWORD PTR [esp+0x2c]
 8048708:	01 e9                	add    ecx,ebp
 804870a:	39 e9                	cmp    ecx,ebp
 804870c:	89 4c 24 3c          	mov    DWORD PTR [esp+0x3c],ecx
 8048710:	7e 54                	jle    8048766
 8048712:	8b 5c 24 70          	mov    ebx,DWORD PTR [esp+0x70]
 8048716:	8b 74 24 2c          	mov    esi,DWORD PTR [esp+0x2c]
 804871a:	8b 7c 24 70          	mov    edi,DWORD PTR [esp+0x70]
 804871e:	8d 0c 8b             	lea    ecx,[ebx+ecx*4]
 8048721:	8d 1c b5 00 00 00 00 	lea    ebx,[esi*4]
 8048728:	8d 3c af             	lea    edi,[edi+ebp*4]
 804872b:	89 4c 24 04          	mov    DWORD PTR [esp+0x4],ecx
 804872f:	89 5c 24 08          	mov    DWORD PTR [esp+0x8],ebx
 8048733:	8b 4c 24 2c          	mov    ecx,DWORD PTR [esp+0x2c]
 8048737:	8b 74 24 08          	mov    esi,DWORD PTR [esp+0x8]
 804873b:	8b 1c 8f             	mov    ebx,DWORD PTR [edi+ecx*4]
 804873e:	39 1f                	cmp    DWORD PTR [edi],ebx
 8048740:	8d 14 37             	lea    edx,[edi+esi]
 8048743:	89 fe                	mov    esi,edi
 8048745:	0f 9f c3             	setg   bl
 8048748:	0f b6 db             	movzx  ebx,bl
 804874b:	39 c3                	cmp    ebx,eax
 804874d:	8b 06                	mov    eax,DWORD PTR [esi]
 804874f:	8b 1a                	mov    ebx,DWORD PTR [edx]
 8048751:	89 c1                	mov    ecx,eax
 8048753:	0f 44 c3             	cmove  eax,ebx
 8048756:	0f 44 d9             	cmove  ebx,ecx
 8048759:	89 06                	mov    DWORD PTR [esi],eax
 804875b:	89 1a                	mov    DWORD PTR [edx],ebx
 804875d:	83 c7 04             	add    edi,0x4
 8048760:	3b 7c 24 04          	cmp    edi,DWORD PTR [esp+0x4]
 8048764:	75 cd                	jne    8048733
 8048766:	83 7c 24 2c 01       	cmp    DWORD PTR [esp+0x2c],0x1
 804876b:	8b 7c 24 44          	mov    edi,DWORD PTR [esp+0x44]
 804876f:	0f 84 0c ff ff ff    	je     8048681
 8048775:	8b 7c 24 2c          	mov    edi,DWORD PTR [esp+0x2c]
 8048779:	89 6c 24 0c          	mov    DWORD PTR [esp+0xc],ebp
 804877d:	89 7c 24 30          	mov    DWORD PTR [esp+0x30],edi
 8048781:	89 ef                	mov    edi,ebp
 8048783:	d1 7c 24 30          	sar    DWORD PTR [esp+0x30],1
 8048787:	8b 4c 24 30          	mov    ecx,DWORD PTR [esp+0x30]
 804878b:	01 f9                	add    ecx,edi
 804878d:	39 f9                	cmp    ecx,edi
 804878f:	89 4c 24 4c          	mov    DWORD PTR [esp+0x4c],ecx
 8048793:	7e 4e                	jle    80487e3
 8048795:	89 fb                	mov    ebx,edi
 8048797:	8b 74 24 70          	mov    esi,DWORD PTR [esp+0x70]
 804879b:	8b 7c 24 70          	mov    edi,DWORD PTR [esp+0x70]
 804879f:	8d 3c 9f             	lea    edi,[edi+ebx*4]
 80487a2:	8d 1c 8e             	lea    ebx,[esi+ecx*4]
 80487a5:	8b 74 24 30          	mov    esi,DWORD PTR [esp+0x30]
 80487a9:	89 5c 24 04          	mov    DWORD PTR [esp+0x4],ebx
 80487ad:	8d 2c b5 00 00 00 00 	lea    ebp,[esi*4]
 80487b4:	8b 4c 24 30          	mov    ecx,DWORD PTR [esp+0x30]
 80487b8:	8d 14 2f             	lea    edx,[edi+ebp]
 80487bb:	89 fe                	mov    esi,edi
 80487bd:	8b 1c 8f             	mov    ebx,DWORD PTR [edi+ecx*4]
 80487c0:	39 1f                	cmp    DWORD PTR [edi],ebx
 80487c2:	0f 9f c3             	setg   bl
 80487c5:	0f b6 db             	movzx  ebx,bl
 80487c8:	39 c3                	cmp    ebx,eax
 80487ca:	8b 06                	mov    eax,DWORD PTR [esi]
 80487cc:	8b 1a                	mov    ebx,DWORD PTR [edx]
 80487ce:	89 c1                	mov    ecx,eax
 80487d0:	0f 44 c3             	cmove  eax,ebx
 80487d3:	0f 44 d9             	cmove  ebx,ecx
 80487d6:	89 06                	mov    DWORD PTR [esi],eax
 80487d8:	89 1a                	mov    DWORD PTR [edx],ebx
 80487da:	83 c7 04             	add    edi,0x4
 80487dd:	3b 7c 24 04          	cmp    edi,DWORD PTR [esp+0x4]
 80487e1:	75 d1                	jne    80487b4
 80487e3:	83 7c 24 30 01       	cmp    DWORD PTR [esp+0x30],0x1
 80487e8:	8b 6c 24 3c          	mov    ebp,DWORD PTR [esp+0x3c]
 80487ec:	0f 84 0e ff ff ff    	je     8048700
 80487f2:	8b 7c 24 30          	mov    edi,DWORD PTR [esp+0x30]
 80487f6:	8b 74 24 0c          	mov    esi,DWORD PTR [esp+0xc]
 80487fa:	89 7c 24 1c          	mov    DWORD PTR [esp+0x1c],edi
 80487fe:	d1 7c 24 1c          	sar    DWORD PTR [esp+0x1c],1
 8048802:	8b 5c 24 1c          	mov    ebx,DWORD PTR [esp+0x1c]
 8048806:	01 f3                	add    ebx,esi
 8048808:	39 f3                	cmp    ebx,esi
 804880a:	89 5c 24 48          	mov    DWORD PTR [esp+0x48],ebx
 804880e:	7e 4f                	jle    804885f
 8048810:	8b 7c 24 70          	mov    edi,DWORD PTR [esp+0x70]
 8048814:	8b 5c 24 70          	mov    ebx,DWORD PTR [esp+0x70]
 8048818:	8d 3c b7             	lea    edi,[edi+esi*4]
 804881b:	8b 74 24 48          	mov    esi,DWORD PTR [esp+0x48]
 804881f:	8d 0c b3             	lea    ecx,[ebx+esi*4]
 8048822:	8b 5c 24 1c          	mov    ebx,DWORD PTR [esp+0x1c]
 8048826:	89 4c 24 04          	mov    DWORD PTR [esp+0x4],ecx
 804882a:	8d 2c 9d 00 00 00 00 	lea    ebp,[ebx*4]
 8048831:	8b 74 24 1c          	mov    esi,DWORD PTR [esp+0x1c]
 8048835:	31 db                	xor    ebx,ebx
 8048837:	8d 14 2f             	lea    edx,[edi+ebp]
 804883a:	8b 0c b7             	mov    ecx,DWORD PTR [edi+esi*4]
 804883d:	39 0f                	cmp    DWORD PTR [edi],ecx
 804883f:	89 fe                	mov    esi,edi
 8048841:	0f 9f c3             	setg   bl
 8048844:	39 c3                	cmp    ebx,eax
 8048846:	8b 06                	mov    eax,DWORD PTR [esi]
 8048848:	8b 1a                	mov    ebx,DWORD PTR [edx]
 804884a:	89 c1                	mov    ecx,eax
 804884c:	0f 44 c3             	cmove  eax,ebx
 804884f:	0f 44 d9             	cmove  ebx,ecx
 8048852:	89 06                	mov    DWORD PTR [esi],eax
 8048854:	89 1a                	mov    DWORD PTR [edx],ebx
 8048856:	83 c7 04             	add    edi,0x4
 8048859:	3b 7c 24 04          	cmp    edi,DWORD PTR [esp+0x4]
 804885d:	75 d2                	jne    8048831
 804885f:	83 7c 24 1c 01       	cmp    DWORD PTR [esp+0x1c],0x1
 8048864:	0f 84 35 01 00 00    	je     804899f
 804886a:	8b 7c 24 1c          	mov    edi,DWORD PTR [esp+0x1c]
 804886e:	8b 4c 24 0c          	mov    ecx,DWORD PTR [esp+0xc]
 8048872:	89 7c 24 14          	mov    DWORD PTR [esp+0x14],edi
 8048876:	d1 7c 24 14          	sar    DWORD PTR [esp+0x14],1
 804887a:	8b 74 24 14          	mov    esi,DWORD PTR [esp+0x14]
 804887e:	01 ce                	add    esi,ecx
 8048880:	39 ce                	cmp    esi,ecx
 8048882:	89 74 24 18          	mov    DWORD PTR [esp+0x18],esi
 8048886:	7e 4e                	jle    80488d6
 8048888:	8b 7c 24 70          	mov    edi,DWORD PTR [esp+0x70]
 804888c:	8d 14 8f             	lea    edx,[edi+ecx*4]
 804888f:	8d 3c b7             	lea    edi,[edi+esi*4]
 8048892:	8b 74 24 14          	mov    esi,DWORD PTR [esp+0x14]
 8048896:	89 7c 24 04          	mov    DWORD PTR [esp+0x4],edi
 804889a:	8d 2c b5 00 00 00 00 	lea    ebp,[esi*4]
 80488a1:	8d b4 26 00 00 00 00 	lea    esi,[esi]
 80488a8:	8b 7c 24 14          	mov    edi,DWORD PTR [esp+0x14]
 80488ac:	31 db                	xor    ebx,ebx
 80488ae:	8d 34 2a             	lea    esi,[edx+ebp]
 80488b1:	8b 3c ba             	mov    edi,DWORD PTR [edx+edi*4]
 80488b4:	39 3a                	cmp    DWORD PTR [edx],edi
 80488b6:	89 d7                	mov    edi,edx
 80488b8:	0f 9f c3             	setg   bl
 80488bb:	39 c3                	cmp    ebx,eax
 80488bd:	8b 07                	mov    eax,DWORD PTR [edi]
 80488bf:	8b 1e                	mov    ebx,DWORD PTR [esi]
 80488c1:	89 c1                	mov    ecx,eax
 80488c3:	0f 44 c3             	cmove  eax,ebx
 80488c6:	0f 44 d9             	cmove  ebx,ecx
 80488c9:	89 07                	mov    DWORD PTR [edi],eax
 80488cb:	89 1e                	mov    DWORD PTR [esi],ebx
 80488cd:	83 c2 04             	add    edx,0x4
 80488d0:	3b 54 24 04          	cmp    edx,DWORD PTR [esp+0x4]
 80488d4:	75 d2                	jne    80488a8
 80488d6:	83 7c 24 14 01       	cmp    DWORD PTR [esp+0x14],0x1
 80488db:	0f 84 af 00 00 00    	je     8048990
 80488e1:	8b 6c 24 14          	mov    ebp,DWORD PTR [esp+0x14]
 80488e5:	8d 76 00             	lea    esi,[esi]
 80488e8:	8b 4c 24 0c          	mov    ecx,DWORD PTR [esp+0xc]
 80488ec:	d1 fd                	sar    ebp,1
 80488ee:	89 cf                	mov    edi,ecx
 80488f0:	01 ef                	add    edi,ebp
 80488f2:	39 cf                	cmp    edi,ecx
 80488f4:	89 7c 24 10          	mov    DWORD PTR [esp+0x10],edi
 80488f8:	7e 54                	jle    804894e
 80488fa:	8b 7c 24 70          	mov    edi,DWORD PTR [esp+0x70]
 80488fe:	8b 5c 24 10          	mov    ebx,DWORD PTR [esp+0x10]
 8048902:	8d 14 8f             	lea    edx,[edi+ecx*4]
 8048905:	8d 3c 9f             	lea    edi,[edi+ebx*4]
 8048908:	89 7c 24 04          	mov    DWORD PTR [esp+0x4],edi
 804890c:	8d 3c ad 00 00 00 00 	lea    edi,[ebp*4]
 8048913:	89 7c 24 08          	mov    DWORD PTR [esp+0x8],edi
 8048917:	89 f6                	mov    esi,esi
 8048919:	8d bc 27 00 00 00 00 	lea    edi,[edi]
 8048920:	8b 0c aa             	mov    ecx,DWORD PTR [edx+ebp*4]
 8048923:	31 db                	xor    ebx,ebx
 8048925:	39 0a                	cmp    DWORD PTR [edx],ecx
 8048927:	8b 4c 24 08          	mov    ecx,DWORD PTR [esp+0x8]
 804892b:	89 d7                	mov    edi,edx
 804892d:	0f 9f c3             	setg   bl
 8048930:	8d 34 0a             	lea    esi,[edx+ecx]
 8048933:	39 c3                	cmp    ebx,eax
 8048935:	8b 07                	mov    eax,DWORD PTR [edi]
 8048937:	8b 1e                	mov    ebx,DWORD PTR [esi]
 8048939:	89 c1                	mov    ecx,eax
 804893b:	0f 44 c3             	cmove  eax,ebx
 804893e:	0f 44 d9             	cmove  ebx,ecx
 8048941:	89 07                	mov    DWORD PTR [edi],eax
 8048943:	89 1e                	mov    DWORD PTR [esi],ebx
 8048945:	83 c2 04             	add    edx,0x4
 8048948:	3b 54 24 04          	cmp    edx,DWORD PTR [esp+0x4]
 804894c:	75 d2                	jne    8048920
 804894e:	50                   	push   eax
 804894f:	89 44 24 08          	mov    DWORD PTR [esp+0x8],eax
 8048953:	55                   	push   ebp
 8048954:	ff 74 24 14          	push   DWORD PTR [esp+0x14]
 8048958:	ff 74 24 7c          	push   DWORD PTR [esp+0x7c]
 804895c:	e8 8f fb ff ff       	call   80484f0
 8048961:	8b 44 24 20          	mov    eax,DWORD PTR [esp+0x20]
 8048965:	89 44 24 1c          	mov    DWORD PTR [esp+0x1c],eax
 8048969:	83 c4 10             	add    esp,0x10
 804896c:	83 fd 01             	cmp    ebp,0x1
 804896f:	8b 44 24 04          	mov    eax,DWORD PTR [esp+0x4]
 8048973:	0f 85 6f ff ff ff    	jne    80488e8
 8048979:	8b 7c 24 18          	mov    edi,DWORD PTR [esp+0x18]
 804897d:	89 7c 24 0c          	mov    DWORD PTR [esp+0xc],edi
 8048981:	89 f9                	mov    ecx,edi
 8048983:	e9 ee fe ff ff       	jmp    8048876
 8048988:	83 c4 5c             	add    esp,0x5c
 804898b:	5b                   	pop    ebx
 804898c:	5e                   	pop    esi
 804898d:	5f                   	pop    edi
 804898e:	5d                   	pop    ebp
 804898f:	c3                   	ret
 8048990:	8b 7c 24 48          	mov    edi,DWORD PTR [esp+0x48]
 8048994:	89 7c 24 0c          	mov    DWORD PTR [esp+0xc],edi
 8048998:	89 fe                	mov    esi,edi
 804899a:	e9 5f fe ff ff       	jmp    80487fe
 804899f:	8b 7c 24 4c          	mov    edi,DWORD PTR [esp+0x4c]
 80489a3:	89 7c 24 0c          	mov    DWORD PTR [esp+0xc],edi
 80489a7:	e9 d7 fd ff ff       	jmp    8048783
 80489ac:	8d 74 26 00          	lea    esi,[esi]

080489b0 <BitonicSort.part.0>:
 80489b0:	55                   	push   ebp
 80489b1:	57                   	push   edi
 80489b2:	89 c5                	mov    ebp,eax
 80489b4:	56                   	push   esi
 80489b5:	53                   	push   ebx
 80489b6:	83 ec 4c             	sub    esp,0x4c
 80489b9:	89 44 24 10          	mov    DWORD PTR [esp+0x10],eax
 80489bd:	89 c8                	mov    eax,ecx
 80489bf:	89 54 24 14          	mov    DWORD PTR [esp+0x14],edx
 80489c3:	c1 e8 1f             	shr    eax,0x1f
 80489c6:	89 4c 24 28          	mov    DWORD PTR [esp+0x28],ecx
 80489ca:	01 c8                	add    eax,ecx
 80489cc:	d1 f8                	sar    eax,1
 80489ce:	83 f8 01             	cmp    eax,0x1
 80489d1:	89 44 24 20          	mov    DWORD PTR [esp+0x20],eax
 80489d5:	89 44 24 30          	mov    DWORD PTR [esp+0x30],eax
 80489d9:	0f 8e 2c 08 00 00    	jle    804920b
 80489df:	8d 41 03             	lea    eax,[ecx+0x3]
 80489e2:	85 c9                	test   ecx,ecx
 80489e4:	0f 49 c1             	cmovns eax,ecx
 80489e7:	89 c7                	mov    edi,eax
 80489e9:	c1 ff 02             	sar    edi,0x2
 80489ec:	83 ff 01             	cmp    edi,0x1
 80489ef:	89 7c 24 24          	mov    DWORD PTR [esp+0x24],edi
 80489f3:	89 7c 24 34          	mov    DWORD PTR [esp+0x34],edi
 80489f7:	0f 8e c6 01 00 00    	jle    8048bc3
 80489fd:	8d 41 07             	lea    eax,[ecx+0x7]
 8048a00:	85 c9                	test   ecx,ecx
 8048a02:	0f 49 c1             	cmovns eax,ecx
 8048a05:	c1 f8 03             	sar    eax,0x3
 8048a08:	83 f8 01             	cmp    eax,0x1
 8048a0b:	89 44 24 2c          	mov    DWORD PTR [esp+0x2c],eax
 8048a0f:	89 c7                	mov    edi,eax
 8048a11:	7e 27                	jle    8048a3a
 8048a13:	83 ec 0c             	sub    esp,0xc
 8048a16:	89 c1                	mov    ecx,eax
 8048a18:	89 d3                	mov    ebx,edx
 8048a1a:	6a 01                	push   0x1
 8048a1c:	89 e8                	mov    eax,ebp
 8048a1e:	e8 8d ff ff ff       	call   80489b0
 8048a23:	89 da                	mov    edx,ebx
 8048a25:	89 f9                	mov    ecx,edi
 8048a27:	89 e8                	mov    eax,ebp
 8048a29:	01 fa                	add    edx,edi
 8048a2b:	c7 04 24 00 00 00 00 	mov    DWORD PTR [esp],0x0
 8048a32:	e8 79 ff ff ff       	call   80489b0
 8048a37:	83 c4 10             	add    esp,0x10
 8048a3a:	8b 44 24 14          	mov    eax,DWORD PTR [esp+0x14]
 8048a3e:	8b 6c 24 24          	mov    ebp,DWORD PTR [esp+0x24]
 8048a42:	89 44 24 18          	mov    DWORD PTR [esp+0x18],eax
 8048a46:	b8 01 00 00 00       	mov    eax,0x1
 8048a4b:	90                   	nop
 8048a4c:	8d 74 26 00          	lea    esi,[esi]
 8048a50:	8b 5c 24 18          	mov    ebx,DWORD PTR [esp+0x18]
 8048a54:	d1 fd                	sar    ebp,1
 8048a56:	89 d9                	mov    ecx,ebx
 8048a58:	01 e9                	add    ecx,ebp
 8048a5a:	39 cb                	cmp    ebx,ecx
 8048a5c:	89 4c 24 1c          	mov    DWORD PTR [esp+0x1c],ecx
 8048a60:	7d 4d                	jge    8048aaf
 8048a62:	8b 7c 24 10          	mov    edi,DWORD PTR [esp+0x10]
 8048a66:	8d 14 9f             	lea    edx,[edi+ebx*4]
 8048a69:	8b 5c 24 1c          	mov    ebx,DWORD PTR [esp+0x1c]
 8048a6d:	8d 0c 9f             	lea    ecx,[edi+ebx*4]
 8048a70:	8d 1c ad 00 00 00 00 	lea    ebx,[ebp*4]
 8048a77:	89 4c 24 08          	mov    DWORD PTR [esp+0x8],ecx
 8048a7b:	89 5c 24 0c          	mov    DWORD PTR [esp+0xc],ebx
 8048a7f:	90                   	nop
 8048a80:	8b 1c aa             	mov    ebx,DWORD PTR [edx+ebp*4]
 8048a83:	39 1a                	cmp    DWORD PTR [edx],ebx
 8048a85:	8b 7c 24 0c          	mov    edi,DWORD PTR [esp+0xc]
 8048a89:	0f 9f c3             	setg   bl
 8048a8c:	8d 34 3a             	lea    esi,[edx+edi]
 8048a8f:	89 d7                	mov    edi,edx
 8048a91:	0f b6 db             	movzx  ebx,bl
 8048a94:	39 c3                	cmp    ebx,eax
 8048a96:	8b 07                	mov    eax,DWORD PTR [edi]
 8048a98:	8b 1e                	mov    ebx,DWORD PTR [esi]
 8048a9a:	89 c1                	mov    ecx,eax
 8048a9c:	0f 44 c3             	cmove  eax,ebx
 8048a9f:	0f 44 d9             	cmove  ebx,ecx
 8048aa2:	89 07                	mov    DWORD PTR [edi],eax
 8048aa4:	89 1e                	mov    DWORD PTR [esi],ebx
 8048aa6:	83 c2 04             	add    edx,0x4
 8048aa9:	3b 54 24 08          	cmp    edx,DWORD PTR [esp+0x8]
 8048aad:	75 d1                	jne    8048a80
 8048aaf:	89 44 24 08          	mov    DWORD PTR [esp+0x8],eax
 8048ab3:	6a 01                	push   0x1
 8048ab5:	55                   	push   ebp
 8048ab6:	ff 74 24 20          	push   DWORD PTR [esp+0x20]
 8048aba:	ff 74 24 1c          	push   DWORD PTR [esp+0x1c]
 8048abe:	e8 2d fa ff ff       	call   80484f0
 8048ac3:	8b 44 24 2c          	mov    eax,DWORD PTR [esp+0x2c]
 8048ac7:	89 44 24 28          	mov    DWORD PTR [esp+0x28],eax
 8048acb:	83 c4 10             	add    esp,0x10
 8048ace:	83 fd 01             	cmp    ebp,0x1
 8048ad1:	8b 44 24 08          	mov    eax,DWORD PTR [esp+0x8]
 8048ad5:	0f 85 75 ff ff ff    	jne    8048a50
 8048adb:	8b 44 24 14          	mov    eax,DWORD PTR [esp+0x14]
 8048adf:	03 44 24 24          	add    eax,DWORD PTR [esp+0x24]
 8048ae3:	83 7c 24 2c 01       	cmp    DWORD PTR [esp+0x2c],0x1
 8048ae8:	89 44 24 18          	mov    DWORD PTR [esp+0x18],eax
 8048aec:	7e 33                	jle    8048b21
 8048aee:	83 ec 0c             	sub    esp,0xc
 8048af1:	6a 01                	push   0x1
 8048af3:	8b 5c 24 3c          	mov    ebx,DWORD PTR [esp+0x3c]
 8048af7:	8b 74 24 28          	mov    esi,DWORD PTR [esp+0x28]
 8048afb:	8b 7c 24 20          	mov    edi,DWORD PTR [esp+0x20]
 8048aff:	89 d9                	mov    ecx,ebx
 8048b01:	89 f2                	mov    edx,esi
 8048b03:	89 f8                	mov    eax,edi
 8048b05:	e8 a6 fe ff ff       	call   80489b0
 8048b0a:	89 da                	mov    edx,ebx
 8048b0c:	89 d9                	mov    ecx,ebx
 8048b0e:	89 f8                	mov    eax,edi
 8048b10:	01 f2                	add    edx,esi
 8048b12:	c7 04 24 00 00 00 00 	mov    DWORD PTR [esp],0x0
 8048b19:	e8 92 fe ff ff       	call   80489b0
 8048b1e:	83 c4 10             	add    esp,0x10
 8048b21:	8b 6c 24 24          	mov    ebp,DWORD PTR [esp+0x24]
 8048b25:	31 c0                	xor    eax,eax
 8048b27:	89 f6                	mov    esi,esi
 8048b29:	8d bc 27 00 00 00 00 	lea    edi,[edi]
 8048b30:	8b 4c 24 18          	mov    ecx,DWORD PTR [esp+0x18]
 8048b34:	d1 fd                	sar    ebp,1
 8048b36:	8d 7c 0d 00          	lea    edi,[ebp+ecx]
 8048b3a:	39 cf                	cmp    edi,ecx
 8048b3c:	89 7c 24 1c          	mov    DWORD PTR [esp+0x1c],edi
 8048b40:	7e 55                	jle    8048b97
 8048b42:	89 cf                	mov    edi,ecx
 8048b44:	8b 74 24 1c          	mov    esi,DWORD PTR [esp+0x1c]
 8048b48:	8b 4c 24 10          	mov    ecx,DWORD PTR [esp+0x10]
 8048b4c:	8d 1c ad 00 00 00 00 	lea    ebx,[ebp*4]
 8048b53:	8d 14 b9             	lea    edx,[ecx+edi*4]
 8048b56:	8d 0c b1             	lea    ecx,[ecx+esi*4]
 8048b59:	89 5c 24 0c          	mov    DWORD PTR [esp+0xc],ebx
 8048b5d:	89 4c 24 08          	mov    DWORD PTR [esp+0x8],ecx
 8048b61:	8d b4 26 00 00 00 00 	lea    esi,[esi]
 8048b68:	8b 1c aa             	mov    ebx,DWORD PTR [edx+ebp*4]
 8048b6b:	39 1a                	cmp    DWORD PTR [edx],ebx
 8048b6d:	8b 7c 24 0c          	mov    edi,DWORD PTR [esp+0xc]
 8048b71:	0f 9f c3             	setg   bl
 8048b74:	8d 34 3a             	lea    esi,[edx+edi]
 8048b77:	89 d7                	mov    edi,edx
 8048b79:	0f b6 db             	movzx  ebx,bl
 8048b7c:	39 c3                	cmp    ebx,eax
 8048b7e:	8b 07                	mov    eax,DWORD PTR [edi]
 8048b80:	8b 1e                	mov    ebx,DWORD PTR [esi]
 8048b82:	89 c1                	mov    ecx,eax
 8048b84:	0f 44 c3             	cmove  eax,ebx
 8048b87:	0f 44 d9             	cmove  ebx,ecx
 8048b8a:	89 07                	mov    DWORD PTR [edi],eax
 8048b8c:	89 1e                	mov    DWORD PTR [esi],ebx
 8048b8e:	83 c2 04             	add    edx,0x4
 8048b91:	3b 54 24 08          	cmp    edx,DWORD PTR [esp+0x8]
 8048b95:	75 d1                	jne    8048b68
 8048b97:	89 44 24 08          	mov    DWORD PTR [esp+0x8],eax
 8048b9b:	6a 00                	push   0x0
 8048b9d:	55                   	push   ebp
 8048b9e:	ff 74 24 20          	push   DWORD PTR [esp+0x20]
 8048ba2:	ff 74 24 1c          	push   DWORD PTR [esp+0x1c]
 8048ba6:	e8 45 f9 ff ff       	call   80484f0
 8048bab:	8b 44 24 2c          	mov    eax,DWORD PTR [esp+0x2c]
 8048baf:	89 44 24 28          	mov    DWORD PTR [esp+0x28],eax
 8048bb3:	83 c4 10             	add    esp,0x10
 8048bb6:	83 fd 01             	cmp    ebp,0x1
 8048bb9:	8b 44 24 08          	mov    eax,DWORD PTR [esp+0x8]
 8048bbd:	0f 85 6d ff ff ff    	jne    8048b30
 8048bc3:	8b 44 24 14          	mov    eax,DWORD PTR [esp+0x14]
 8048bc7:	8b 6c 24 20          	mov    ebp,DWORD PTR [esp+0x20]
 8048bcb:	89 44 24 18          	mov    DWORD PTR [esp+0x18],eax
 8048bcf:	b8 01 00 00 00       	mov    eax,0x1
 8048bd4:	8d 74 26 00          	lea    esi,[esi]
 8048bd8:	8b 5c 24 18          	mov    ebx,DWORD PTR [esp+0x18]
 8048bdc:	d1 fd                	sar    ebp,1
 8048bde:	8d 4c 1d 00          	lea    ecx,[ebp+ebx]
 8048be2:	39 cb                	cmp    ebx,ecx
 8048be4:	89 4c 24 1c          	mov    DWORD PTR [esp+0x1c],ecx
 8048be8:	7d 4c                	jge    8048c36
 8048bea:	89 df                	mov    edi,ebx
 8048bec:	8b 5c 24 10          	mov    ebx,DWORD PTR [esp+0x10]
 8048bf0:	8d 14 bb             	lea    edx,[ebx+edi*4]
 8048bf3:	8d 3c 8b             	lea    edi,[ebx+ecx*4]
 8048bf6:	8d 0c ad 00 00 00 00 	lea    ecx,[ebp*4]
 8048bfd:	89 7c 24 08          	mov    DWORD PTR [esp+0x8],edi
 8048c01:	89 4c 24 0c          	mov    DWORD PTR [esp+0xc],ecx
 8048c05:	8d 76 00             	lea    esi,[esi]
 8048c08:	8b 0c aa             	mov    ecx,DWORD PTR [edx+ebp*4]
 8048c0b:	31 db                	xor    ebx,ebx
 8048c0d:	39 0a                	cmp    DWORD PTR [edx],ecx
 8048c0f:	8b 4c 24 0c          	mov    ecx,DWORD PTR [esp+0xc]
 8048c13:	89 d7                	mov    edi,edx
 8048c15:	0f 9f c3             	setg   bl
 8048c18:	8d 34 0a             	lea    esi,[edx+ecx]
 8048c1b:	39 c3                	cmp    ebx,eax
 8048c1d:	8b 07                	mov    eax,DWORD PTR [edi]
 8048c1f:	8b 1e                	mov    ebx,DWORD PTR [esi]
 8048c21:	89 c1                	mov    ecx,eax
 8048c23:	0f 44 c3             	cmove  eax,ebx
 8048c26:	0f 44 d9             	cmove  ebx,ecx
 8048c29:	89 07                	mov    DWORD PTR [edi],eax
 8048c2b:	89 1e                	mov    DWORD PTR [esi],ebx
 8048c2d:	83 c2 04             	add    edx,0x4
 8048c30:	3b 54 24 08          	cmp    edx,DWORD PTR [esp+0x8]
 8048c34:	75 d2                	jne    8048c08
 8048c36:	89 44 24 08          	mov    DWORD PTR [esp+0x8],eax
 8048c3a:	6a 01                	push   0x1
 8048c3c:	55                   	push   ebp
 8048c3d:	ff 74 24 20          	push   DWORD PTR [esp+0x20]
 8048c41:	ff 74 24 1c          	push   DWORD PTR [esp+0x1c]
 8048c45:	e8 a6 f8 ff ff       	call   80484f0
 8048c4a:	8b 44 24 2c          	mov    eax,DWORD PTR [esp+0x2c]
 8048c4e:	89 44 24 28          	mov    DWORD PTR [esp+0x28],eax
 8048c52:	83 c4 10             	add    esp,0x10
 8048c55:	83 fd 01             	cmp    ebp,0x1
 8048c58:	8b 44 24 08          	mov    eax,DWORD PTR [esp+0x8]
 8048c5c:	0f 85 76 ff ff ff    	jne    8048bd8
 8048c62:	8b 44 24 20          	mov    eax,DWORD PTR [esp+0x20]
 8048c66:	03 44 24 14          	add    eax,DWORD PTR [esp+0x14]
 8048c6a:	83 7c 24 24 01       	cmp    DWORD PTR [esp+0x24],0x1
 8048c6f:	89 44 24 18          	mov    DWORD PTR [esp+0x18],eax
 8048c73:	0f 8e fa 04 00 00    	jle    8049173
 8048c79:	8b 4c 24 28          	mov    ecx,DWORD PTR [esp+0x28]
 8048c7d:	89 c8                	mov    eax,ecx
 8048c7f:	83 c0 07             	add    eax,0x7
 8048c82:	85 c9                	test   ecx,ecx
 8048c84:	0f 49 c1             	cmovns eax,ecx
 8048c87:	c1 f8 03             	sar    eax,0x3
 8048c8a:	83 f8 01             	cmp    eax,0x1
 8048c8d:	89 44 24 2c          	mov    DWORD PTR [esp+0x2c],eax
 8048c91:	89 44 24 38          	mov    DWORD PTR [esp+0x38],eax
 8048c95:	0f 8e c0 01 00 00    	jle    8048e5b
 8048c9b:	8d 41 0f             	lea    eax,[ecx+0xf]
 8048c9e:	85 c9                	test   ecx,ecx
 8048ca0:	0f 49 c1             	cmovns eax,ecx
 8048ca3:	c1 f8 04             	sar    eax,0x4
 8048ca6:	83 f8 01             	cmp    eax,0x1
 8048ca9:	89 44 24 3c          	mov    DWORD PTR [esp+0x3c],eax
 8048cad:	89 c3                	mov    ebx,eax
 8048caf:	7e 31                	jle    8048ce2
 8048cb1:	83 ec 0c             	sub    esp,0xc
 8048cb4:	89 c1                	mov    ecx,eax
 8048cb6:	6a 01                	push   0x1
 8048cb8:	8b 74 24 28          	mov    esi,DWORD PTR [esp+0x28]
 8048cbc:	8b 7c 24 20          	mov    edi,DWORD PTR [esp+0x20]
 8048cc0:	89 f2                	mov    edx,esi
 8048cc2:	89 f8                	mov    eax,edi
 8048cc4:	e8 e7 fc ff ff       	call   80489b0
 8048cc9:	89 d8                	mov    eax,ebx
 8048ccb:	89 da                	mov    edx,ebx
 8048ccd:	c7 04 24 00 00 00 00 	mov    DWORD PTR [esp],0x0
 8048cd4:	89 c1                	mov    ecx,eax
 8048cd6:	01 f2                	add    edx,esi
 8048cd8:	89 f8                	mov    eax,edi
 8048cda:	e8 d1 fc ff ff       	call   80489b0
 8048cdf:	83 c4 10             	add    esp,0x10
 8048ce2:	8b 44 24 18          	mov    eax,DWORD PTR [esp+0x18]
 8048ce6:	8b 6c 24 2c          	mov    ebp,DWORD PTR [esp+0x2c]
 8048cea:	89 44 24 1c          	mov    DWORD PTR [esp+0x1c],eax
 8048cee:	b8 01 00 00 00       	mov    eax,0x1
 8048cf3:	90                   	nop
 8048cf4:	8d 74 26 00          	lea    esi,[esi]
 8048cf8:	8b 5c 24 1c          	mov    ebx,DWORD PTR [esp+0x1c]
 8048cfc:	d1 fd                	sar    ebp,1
 8048cfe:	8d 0c 2b             	lea    ecx,[ebx+ebp]
 8048d01:	39 cb                	cmp    ebx,ecx
 8048d03:	89 4c 24 20          	mov    DWORD PTR [esp+0x20],ecx
 8048d07:	7d 4e                	jge    8048d57
 8048d09:	8b 7c 24 10          	mov    edi,DWORD PTR [esp+0x10]
 8048d0d:	8d 34 ad 00 00 00 00 	lea    esi,[ebp*4]
 8048d14:	89 74 24 0c          	mov    DWORD PTR [esp+0xc],esi
 8048d18:	8d 14 9f             	lea    edx,[edi+ebx*4]
 8048d1b:	8d 1c 8f             	lea    ebx,[edi+ecx*4]
 8048d1e:	89 5c 24 08          	mov    DWORD PTR [esp+0x8],ebx
 8048d22:	8d b6 00 00 00 00    	lea    esi,[esi]
 8048d28:	8b 1c aa             	mov    ebx,DWORD PTR [edx+ebp*4]
 8048d2b:	39 1a                	cmp    DWORD PTR [edx],ebx
 8048d2d:	8b 7c 24 0c          	mov    edi,DWORD PTR [esp+0xc]
 8048d31:	0f 9f c3             	setg   bl
 8048d34:	8d 34 3a             	lea    esi,[edx+edi]
 8048d37:	89 d7                	mov    edi,edx
 8048d39:	0f b6 db             	movzx  ebx,bl
 8048d3c:	39 c3                	cmp    ebx,eax
 8048d3e:	8b 07                	mov    eax,DWORD PTR [edi]
 8048d40:	8b 1e                	mov    ebx,DWORD PTR [esi]
 8048d42:	89 c1                	mov    ecx,eax
 8048d44:	0f 44 c3             	cmove  eax,ebx
 8048d47:	0f 44 d9             	cmove  ebx,ecx
 8048d4a:	89 07                	mov    DWORD PTR [edi],eax
 8048d4c:	89 1e                	mov    DWORD PTR [esi],ebx
 8048d4e:	83 c2 04             	add    edx,0x4
 8048d51:	3b 54 24 08          	cmp    edx,DWORD PTR [esp+0x8]
 8048d55:	75 d1                	jne    8048d28
 8048d57:	89 44 24 08          	mov    DWORD PTR [esp+0x8],eax
 8048d5b:	6a 01                	push   0x1
 8048d5d:	55                   	push   ebp
 8048d5e:	ff 74 24 24          	push   DWORD PTR [esp+0x24]
 8048d62:	ff 74 24 1c          	push   DWORD PTR [esp+0x1c]
 8048d66:	e8 85 f7 ff ff       	call   80484f0
 8048d6b:	8b 44 24 30          	mov    eax,DWORD PTR [esp+0x30]
 8048d6f:	89 44 24 2c          	mov    DWORD PTR [esp+0x2c],eax
 8048d73:	83 c4 10             	add    esp,0x10
 8048d76:	83 fd 01             	cmp    ebp,0x1
 8048d79:	8b 44 24 08          	mov    eax,DWORD PTR [esp+0x8]
 8048d7d:	0f 85 75 ff ff ff    	jne    8048cf8
 8048d83:	8b 44 24 2c          	mov    eax,DWORD PTR [esp+0x2c]
 8048d87:	03 44 24 18          	add    eax,DWORD PTR [esp+0x18]
 8048d8b:	83 7c 24 3c 01       	cmp    DWORD PTR [esp+0x3c],0x1
 8048d90:	89 44 24 1c          	mov    DWORD PTR [esp+0x1c],eax
 8048d94:	7e 33                	jle    8048dc9
 8048d96:	83 ec 0c             	sub    esp,0xc
 8048d99:	6a 01                	push   0x1
 8048d9b:	8b 5c 24 4c          	mov    ebx,DWORD PTR [esp+0x4c]
 8048d9f:	8b 74 24 2c          	mov    esi,DWORD PTR [esp+0x2c]
 8048da3:	8b 7c 24 20          	mov    edi,DWORD PTR [esp+0x20]
 8048da7:	89 d9                	mov    ecx,ebx
 8048da9:	89 f2                	mov    edx,esi
 8048dab:	89 f8                	mov    eax,edi
 8048dad:	e8 fe fb ff ff       	call   80489b0
 8048db2:	89 da                	mov    edx,ebx
 8048db4:	89 d9                	mov    ecx,ebx
 8048db6:	89 f8                	mov    eax,edi
 8048db8:	01 f2                	add    edx,esi
 8048dba:	c7 04 24 00 00 00 00 	mov    DWORD PTR [esp],0x0
 8048dc1:	e8 ea fb ff ff       	call   80489b0
 8048dc6:	83 c4 10             	add    esp,0x10
 8048dc9:	8b 6c 24 2c          	mov    ebp,DWORD PTR [esp+0x2c]
 8048dcd:	31 c0                	xor    eax,eax
 8048dcf:	90                   	nop
 8048dd0:	8b 7c 24 1c          	mov    edi,DWORD PTR [esp+0x1c]
 8048dd4:	d1 fd                	sar    ebp,1
 8048dd6:	8d 4c 3d 00          	lea    ecx,[ebp+edi]
 8048dda:	39 f9                	cmp    ecx,edi
 8048ddc:	89 4c 24 20          	mov    DWORD PTR [esp+0x20],ecx
 8048de0:	7e 4d                	jle    8048e2f
 8048de2:	8b 74 24 10          	mov    esi,DWORD PTR [esp+0x10]
 8048de6:	8d 1c 8e             	lea    ebx,[esi+ecx*4]
 8048de9:	8d 14 be             	lea    edx,[esi+edi*4]
 8048dec:	8d 34 ad 00 00 00 00 	lea    esi,[ebp*4]
 8048df3:	89 5c 24 08          	mov    DWORD PTR [esp+0x8],ebx
 8048df7:	89 74 24 0c          	mov    DWORD PTR [esp+0xc],esi
 8048dfb:	90                   	nop
 8048dfc:	8d 74 26 00          	lea    esi,[esi]
 8048e00:	8b 1c aa             	mov    ebx,DWORD PTR [edx+ebp*4]
 8048e03:	39 1a                	cmp    DWORD PTR [edx],ebx
 8048e05:	8b 7c 24 0c          	mov    edi,DWORD PTR [esp+0xc]
 8048e09:	0f 9f c3             	setg   bl
 8048e0c:	8d 34 3a             	lea    esi,[edx+edi]
 8048e0f:	89 d7                	mov    edi,edx
 8048e11:	0f b6 db             	movzx  ebx,bl
 8048e14:	39 c3                	cmp    ebx,eax
 8048e16:	8b 07                	mov    eax,DWORD PTR [edi]
 8048e18:	8b 1e                	mov    ebx,DWORD PTR [esi]
 8048e1a:	89 c1                	mov    ecx,eax
 8048e1c:	0f 44 c3             	cmove  eax,ebx
 8048e1f:	0f 44 d9             	cmove  ebx,ecx
 8048e22:	89 07                	mov    DWORD PTR [edi],eax
 8048e24:	89 1e                	mov    DWORD PTR [esi],ebx
 8048e26:	83 c2 04             	add    edx,0x4
 8048e29:	3b 54 24 08          	cmp    edx,DWORD PTR [esp+0x8]
 8048e2d:	75 d1                	jne    8048e00
 8048e2f:	89 44 24 08          	mov    DWORD PTR [esp+0x8],eax
 8048e33:	6a 00                	push   0x0
 8048e35:	55                   	push   ebp
 8048e36:	ff 74 24 24          	push   DWORD PTR [esp+0x24]
 8048e3a:	ff 74 24 1c          	push   DWORD PTR [esp+0x1c]
 8048e3e:	e8 ad f6 ff ff       	call   80484f0
 8048e43:	8b 44 24 30          	mov    eax,DWORD PTR [esp+0x30]
 8048e47:	89 44 24 2c          	mov    DWORD PTR [esp+0x2c],eax
 8048e4b:	83 c4 10             	add    esp,0x10
 8048e4e:	83 fd 01             	cmp    ebp,0x1
 8048e51:	8b 44 24 08          	mov    eax,DWORD PTR [esp+0x8]
 8048e55:	0f 85 75 ff ff ff    	jne    8048dd0
 8048e5b:	8b 44 24 18          	mov    eax,DWORD PTR [esp+0x18]
 8048e5f:	8b 6c 24 24          	mov    ebp,DWORD PTR [esp+0x24]
 8048e63:	89 44 24 1c          	mov    DWORD PTR [esp+0x1c],eax
 8048e67:	b8 01 00 00 00       	mov    eax,0x1
 8048e6c:	8d 74 26 00          	lea    esi,[esi]
 8048e70:	8b 7c 24 1c          	mov    edi,DWORD PTR [esp+0x1c]
 8048e74:	d1 fd                	sar    ebp,1
 8048e76:	8d 1c 2f             	lea    ebx,[edi+ebp]
 8048e79:	39 df                	cmp    edi,ebx
 8048e7b:	89 5c 24 20          	mov    DWORD PTR [esp+0x20],ebx
 8048e7f:	7d 4e                	jge    8048ecf
 8048e81:	89 de                	mov    esi,ebx
 8048e83:	8b 5c 24 10          	mov    ebx,DWORD PTR [esp+0x10]
 8048e87:	8d 0c b3             	lea    ecx,[ebx+esi*4]
 8048e8a:	8d 14 bb             	lea    edx,[ebx+edi*4]
 8048e8d:	8d 1c ad 00 00 00 00 	lea    ebx,[ebp*4]
 8048e94:	89 4c 24 08          	mov    DWORD PTR [esp+0x8],ecx
 8048e98:	89 5c 24 0c          	mov    DWORD PTR [esp+0xc],ebx
 8048e9c:	8d 74 26 00          	lea    esi,[esi]
 8048ea0:	8b 1c aa             	mov    ebx,DWORD PTR [edx+ebp*4]
 8048ea3:	39 1a                	cmp    DWORD PTR [edx],ebx
 8048ea5:	8b 7c 24 0c          	mov    edi,DWORD PTR [esp+0xc]
 8048ea9:	0f 9f c3             	setg   bl
 8048eac:	8d 34 3a             	lea    esi,[edx+edi]
 8048eaf:	89 d7                	mov    edi,edx
 8048eb1:	0f b6 db             	movzx  ebx,bl
 8048eb4:	39 c3                	cmp    ebx,eax
 8048eb6:	8b 07                	mov    eax,DWORD PTR [edi]
 8048eb8:	8b 1e                	mov    ebx,DWORD PTR [esi]
 8048eba:	89 c1                	mov    ecx,eax
 8048ebc:	0f 44 c3             	cmove  eax,ebx
 8048ebf:	0f 44 d9             	cmove  ebx,ecx
 8048ec2:	89 07                	mov    DWORD PTR [edi],eax
 8048ec4:	89 1e                	mov    DWORD PTR [esi],ebx
 8048ec6:	83 c2 04             	add    edx,0x4
 8048ec9:	3b 54 24 08          	cmp    edx,DWORD PTR [esp+0x8]
 8048ecd:	75 d1                	jne    8048ea0
 8048ecf:	89 44 24 08          	mov    DWORD PTR [esp+0x8],eax
 8048ed3:	6a 01                	push   0x1
 8048ed5:	55                   	push   ebp
 8048ed6:	ff 74 24 24          	push   DWORD PTR [esp+0x24]
 8048eda:	ff 74 24 1c          	push   DWORD PTR [esp+0x1c]
 8048ede:	e8 0d f6 ff ff       	call   80484f0
 8048ee3:	8b 44 24 30          	mov    eax,DWORD PTR [esp+0x30]
 8048ee7:	89 44 24 2c          	mov    DWORD PTR [esp+0x2c],eax
 8048eeb:	83 c4 10             	add    esp,0x10
 8048eee:	83 fd 01             	cmp    ebp,0x1
 8048ef1:	8b 44 24 08          	mov    eax,DWORD PTR [esp+0x8]
 8048ef5:	0f 85 75 ff ff ff    	jne    8048e70
 8048efb:	8b 44 24 24          	mov    eax,DWORD PTR [esp+0x24]
 8048eff:	03 44 24 18          	add    eax,DWORD PTR [esp+0x18]
 8048f03:	83 7c 24 2c 01       	cmp    DWORD PTR [esp+0x2c],0x1
 8048f08:	89 44 24 1c          	mov    DWORD PTR [esp+0x1c],eax
 8048f0c:	0f 8e c9 01 00 00    	jle    80490db
 8048f12:	8b 74 24 28          	mov    esi,DWORD PTR [esp+0x28]
 8048f16:	89 f0                	mov    eax,esi
 8048f18:	83 c0 0f             	add    eax,0xf
 8048f1b:	85 f6                	test   esi,esi
 8048f1d:	0f 49 c6             	cmovns eax,esi
 8048f20:	c1 f8 04             	sar    eax,0x4
 8048f23:	83 f8 01             	cmp    eax,0x1
 8048f26:	89 44 24 3c          	mov    DWORD PTR [esp+0x3c],eax
 8048f2a:	89 c3                	mov    ebx,eax
 8048f2c:	7e 31                	jle    8048f5f
 8048f2e:	83 ec 0c             	sub    esp,0xc
 8048f31:	89 c1                	mov    ecx,eax
 8048f33:	6a 01                	push   0x1
 8048f35:	8b 74 24 2c          	mov    esi,DWORD PTR [esp+0x2c]
 8048f39:	8b 7c 24 20          	mov    edi,DWORD PTR [esp+0x20]
 8048f3d:	89 f2                	mov    edx,esi
 8048f3f:	89 f8                	mov    eax,edi
 8048f41:	e8 6a fa ff ff       	call   80489b0
 8048f46:	89 d8                	mov    eax,ebx
 8048f48:	89 da                	mov    edx,ebx
 8048f4a:	c7 04 24 00 00 00 00 	mov    DWORD PTR [esp],0x0
 8048f51:	89 c1                	mov    ecx,eax
 8048f53:	01 f2                	add    edx,esi
 8048f55:	89 f8                	mov    eax,edi
 8048f57:	e8 54 fa ff ff       	call   80489b0
 8048f5c:	83 c4 10             	add    esp,0x10
 8048f5f:	8b 44 24 1c          	mov    eax,DWORD PTR [esp+0x1c]
 8048f63:	8b 6c 24 2c          	mov    ebp,DWORD PTR [esp+0x2c]
 8048f67:	89 44 24 20          	mov    DWORD PTR [esp+0x20],eax
 8048f6b:	b8 01 00 00 00       	mov    eax,0x1
 8048f70:	8b 5c 24 20          	mov    ebx,DWORD PTR [esp+0x20]
 8048f74:	d1 fd                	sar    ebp,1
 8048f76:	8d 74 1d 00          	lea    esi,[ebp+ebx]
 8048f7a:	39 de                	cmp    esi,ebx
 8048f7c:	89 74 24 24          	mov    DWORD PTR [esp+0x24],esi
 8048f80:	7e 4d                	jle    8048fcf
 8048f82:	8b 4c 24 10          	mov    ecx,DWORD PTR [esp+0x10]
 8048f86:	8d 34 ad 00 00 00 00 	lea    esi,[ebp*4]
 8048f8d:	89 74 24 0c          	mov    DWORD PTR [esp+0xc],esi
 8048f91:	8d 14 99             	lea    edx,[ecx+ebx*4]
 8048f94:	8b 5c 24 24          	mov    ebx,DWORD PTR [esp+0x24]
 8048f98:	8d 0c 99             	lea    ecx,[ecx+ebx*4]
 8048f9b:	89 4c 24 08          	mov    DWORD PTR [esp+0x8],ecx
 8048f9f:	90                   	nop
 8048fa0:	8b 1c aa             	mov    ebx,DWORD PTR [edx+ebp*4]
 8048fa3:	39 1a                	cmp    DWORD PTR [edx],ebx
 8048fa5:	8b 7c 24 0c          	mov    edi,DWORD PTR [esp+0xc]
 8048fa9:	0f 9f c3             	setg   bl
 8048fac:	8d 34 3a             	lea    esi,[edx+edi]
 8048faf:	89 d7                	mov    edi,edx
 8048fb1:	0f b6 db             	movzx  ebx,bl
 8048fb4:	39 c3                	cmp    ebx,eax
 8048fb6:	8b 07                	mov    eax,DWORD PTR [edi]
 8048fb8:	8b 1e                	mov    ebx,DWORD PTR [esi]
 8048fba:	89 c1                	mov    ecx,eax
 8048fbc:	0f 44 c3             	cmove  eax,ebx
 8048fbf:	0f 44 d9             	cmove  ebx,ecx
 8048fc2:	89 07                	mov    DWORD PTR [edi],eax
 8048fc4:	89 1e                	mov    DWORD PTR [esi],ebx
 8048fc6:	83 c2 04             	add    edx,0x4
 8048fc9:	3b 54 24 08          	cmp    edx,DWORD PTR [esp+0x8]
 8048fcd:	75 d1                	jne    8048fa0
 8048fcf:	89 44 24 08          	mov    DWORD PTR [esp+0x8],eax
 8048fd3:	6a 01                	push   0x1
 8048fd5:	55                   	push   ebp
 8048fd6:	ff 74 24 28          	push   DWORD PTR [esp+0x28]
 8048fda:	ff 74 24 1c          	push   DWORD PTR [esp+0x1c]
 8048fde:	e8 0d f5 ff ff       	call   80484f0
 8048fe3:	8b 44 24 34          	mov    eax,DWORD PTR [esp+0x34]
 8048fe7:	89 44 24 30          	mov    DWORD PTR [esp+0x30],eax
 8048feb:	83 c4 10             	add    esp,0x10
 8048fee:	83 fd 01             	cmp    ebp,0x1
 8048ff1:	8b 44 24 08          	mov    eax,DWORD PTR [esp+0x8]
 8048ff5:	0f 85 75 ff ff ff    	jne    8048f70
 8048ffb:	8b 44 24 2c          	mov    eax,DWORD PTR [esp+0x2c]
 8048fff:	03 44 24 1c          	add    eax,DWORD PTR [esp+0x1c]
 8049003:	83 7c 24 3c 01       	cmp    DWORD PTR [esp+0x3c],0x1
 8049008:	89 44 24 20          	mov    DWORD PTR [esp+0x20],eax
 804900c:	7e 33                	jle    8049041
 804900e:	83 ec 0c             	sub    esp,0xc
 8049011:	6a 01                	push   0x1
 8049013:	8b 74 24 4c          	mov    esi,DWORD PTR [esp+0x4c]
 8049017:	8b 5c 24 30          	mov    ebx,DWORD PTR [esp+0x30]
 804901b:	8b 7c 24 20          	mov    edi,DWORD PTR [esp+0x20]
 804901f:	89 f1                	mov    ecx,esi
 8049021:	89 da                	mov    edx,ebx
 8049023:	89 f8                	mov    eax,edi
 8049025:	e8 86 f9 ff ff       	call   80489b0
 804902a:	89 f2                	mov    edx,esi
 804902c:	89 f1                	mov    ecx,esi
 804902e:	89 f8                	mov    eax,edi
 8049030:	01 da                	add    edx,ebx
 8049032:	c7 04 24 00 00 00 00 	mov    DWORD PTR [esp],0x0
 8049039:	e8 72 f9 ff ff       	call   80489b0
 804903e:	83 c4 10             	add    esp,0x10
 8049041:	8b 6c 24 38          	mov    ebp,DWORD PTR [esp+0x38]
 8049045:	31 c0                	xor    eax,eax
 8049047:	89 f6                	mov    esi,esi
 8049049:	8d bc 27 00 00 00 00 	lea    edi,[edi]
 8049050:	8b 7c 24 20          	mov    edi,DWORD PTR [esp+0x20]
 8049054:	d1 fd                	sar    ebp,1
 8049056:	8d 4c 3d 00          	lea    ecx,[ebp+edi]
 804905a:	39 f9                	cmp    ecx,edi
 804905c:	89 4c 24 24          	mov    DWORD PTR [esp+0x24],ecx
 8049060:	7e 4d                	jle    80490af
 8049062:	8b 5c 24 10          	mov    ebx,DWORD PTR [esp+0x10]
 8049066:	8d 34 ad 00 00 00 00 	lea    esi,[ebp*4]
 804906d:	89 74 24 0c          	mov    DWORD PTR [esp+0xc],esi
 8049071:	8d 14 bb             	lea    edx,[ebx+edi*4]
 8049074:	8d 1c 8b             	lea    ebx,[ebx+ecx*4]
 8049077:	89 5c 24 08          	mov    DWORD PTR [esp+0x8],ebx
 804907b:	90                   	nop
 804907c:	8d 74 26 00          	lea    esi,[esi]
 8049080:	8b 1c aa             	mov    ebx,DWORD PTR [edx+ebp*4]
 8049083:	39 1a                	cmp    DWORD PTR [edx],ebx
 8049085:	8b 7c 24 0c          	mov    edi,DWORD PTR [esp+0xc]
 8049089:	0f 9f c3             	setg   bl
 804908c:	8d 34 3a             	lea    esi,[edx+edi]
 804908f:	89 d7                	mov    edi,edx
 8049091:	0f b6 db             	movzx  ebx,bl
 8049094:	39 c3                	cmp    ebx,eax
 8049096:	8b 07                	mov    eax,DWORD PTR [edi]
 8049098:	8b 1e                	mov    ebx,DWORD PTR [esi]
 804909a:	89 c1                	mov    ecx,eax
 804909c:	0f 44 c3             	cmove  eax,ebx
 804909f:	0f 44 d9             	cmove  ebx,ecx
 80490a2:	89 07                	mov    DWORD PTR [edi],eax
 80490a4:	89 1e                	mov    DWORD PTR [esi],ebx
 80490a6:	83 c2 04             	add    edx,0x4
 80490a9:	3b 54 24 08          	cmp    edx,DWORD PTR [esp+0x8]
 80490ad:	75 d1                	jne    8049080
 80490af:	89 44 24 08          	mov    DWORD PTR [esp+0x8],eax
 80490b3:	6a 00                	push   0x0
 80490b5:	55                   	push   ebp
 80490b6:	ff 74 24 28          	push   DWORD PTR [esp+0x28]
 80490ba:	ff 74 24 1c          	push   DWORD PTR [esp+0x1c]
 80490be:	e8 2d f4 ff ff       	call   80484f0
 80490c3:	8b 44 24 34          	mov    eax,DWORD PTR [esp+0x34]
 80490c7:	89 44 24 30          	mov    DWORD PTR [esp+0x30],eax
 80490cb:	83 c4 10             	add    esp,0x10
 80490ce:	83 fd 01             	cmp    ebp,0x1
 80490d1:	8b 44 24 08          	mov    eax,DWORD PTR [esp+0x8]
 80490d5:	0f 85 75 ff ff ff    	jne    8049050
 80490db:	8b 6c 24 34          	mov    ebp,DWORD PTR [esp+0x34]
 80490df:	31 c0                	xor    eax,eax
 80490e1:	8d b4 26 00 00 00 00 	lea    esi,[esi]
 80490e8:	8b 5c 24 1c          	mov    ebx,DWORD PTR [esp+0x1c]
 80490ec:	d1 fd                	sar    ebp,1
 80490ee:	8d 4c 1d 00          	lea    ecx,[ebp+ebx]
 80490f2:	39 d9                	cmp    ecx,ebx
 80490f4:	89 4c 24 20          	mov    DWORD PTR [esp+0x20],ecx
 80490f8:	7e 4d                	jle    8049147
 80490fa:	8b 7c 24 10          	mov    edi,DWORD PTR [esp+0x10]
 80490fe:	8d 14 9f             	lea    edx,[edi+ebx*4]
 8049101:	8d 3c 8f             	lea    edi,[edi+ecx*4]
 8049104:	8d 1c ad 00 00 00 00 	lea    ebx,[ebp*4]
 804910b:	89 7c 24 08          	mov    DWORD PTR [esp+0x8],edi
 804910f:	89 5c 24 0c          	mov    DWORD PTR [esp+0xc],ebx
 8049113:	90                   	nop
 8049114:	8d 74 26 00          	lea    esi,[esi]
 8049118:	8b 1c aa             	mov    ebx,DWORD PTR [edx+ebp*4]
 804911b:	39 1a                	cmp    DWORD PTR [edx],ebx
 804911d:	8b 7c 24 0c          	mov    edi,DWORD PTR [esp+0xc]
 8049121:	0f 9f c3             	setg   bl
 8049124:	8d 34 3a             	lea    esi,[edx+edi]
 8049127:	89 d7                	mov    edi,edx
 8049129:	0f b6 db             	movzx  ebx,bl
 804912c:	39 c3                	cmp    ebx,eax
 804912e:	8b 07                	mov    eax,DWORD PTR [edi]
 8049130:	8b 1e                	mov    ebx,DWORD PTR [esi]
 8049132:	89 c1                	mov    ecx,eax
 8049134:	0f 44 c3             	cmove  eax,ebx
 8049137:	0f 44 d9             	cmove  ebx,ecx
 804913a:	89 07                	mov    DWORD PTR [edi],eax
 804913c:	89 1e                	mov    DWORD PTR [esi],ebx
 804913e:	83 c2 04             	add    edx,0x4
 8049141:	3b 54 24 08          	cmp    edx,DWORD PTR [esp+0x8]
 8049145:	75 d1                	jne    8049118
 8049147:	89 44 24 08          	mov    DWORD PTR [esp+0x8],eax
 804914b:	6a 00                	push   0x0
 804914d:	55                   	push   ebp
 804914e:	ff 74 24 24          	push   DWORD PTR [esp+0x24]
 8049152:	ff 74 24 1c          	push   DWORD PTR [esp+0x1c]
 8049156:	e8 95 f3 ff ff       	call   80484f0
 804915b:	8b 44 24 30          	mov    eax,DWORD PTR [esp+0x30]
 804915f:	89 44 24 2c          	mov    DWORD PTR [esp+0x2c],eax
 8049163:	83 c4 10             	add    esp,0x10
 8049166:	83 fd 01             	cmp    ebp,0x1
 8049169:	8b 44 24 08          	mov    eax,DWORD PTR [esp+0x8]
 804916d:	0f 85 75 ff ff ff    	jne    80490e8
 8049173:	8b 6c 24 30          	mov    ebp,DWORD PTR [esp+0x30]
 8049177:	31 c0                	xor    eax,eax
 8049179:	8d b4 26 00 00 00 00 	lea    esi,[esi]
 8049180:	8b 4c 24 18          	mov    ecx,DWORD PTR [esp+0x18]
 8049184:	d1 fd                	sar    ebp,1
 8049186:	8d 7c 0d 00          	lea    edi,[ebp+ecx]
 804918a:	39 cf                	cmp    edi,ecx
 804918c:	89 7c 24 1c          	mov    DWORD PTR [esp+0x1c],edi
 8049190:	7e 4d                	jle    80491df
 8049192:	8b 7c 24 10          	mov    edi,DWORD PTR [esp+0x10]
 8049196:	8d 1c ad 00 00 00 00 	lea    ebx,[ebp*4]
 804919d:	89 5c 24 0c          	mov    DWORD PTR [esp+0xc],ebx
 80491a1:	8d 14 8f             	lea    edx,[edi+ecx*4]
 80491a4:	8b 4c 24 1c          	mov    ecx,DWORD PTR [esp+0x1c]
 80491a8:	8d 3c 8f             	lea    edi,[edi+ecx*4]
 80491ab:	89 7c 24 08          	mov    DWORD PTR [esp+0x8],edi
 80491af:	90                   	nop
 80491b0:	8b 1c aa             	mov    ebx,DWORD PTR [edx+ebp*4]
 80491b3:	39 1a                	cmp    DWORD PTR [edx],ebx
 80491b5:	8b 7c 24 0c          	mov    edi,DWORD PTR [esp+0xc]
 80491b9:	0f 9f c3             	setg   bl
 80491bc:	8d 34 3a             	lea    esi,[edx+edi]
 80491bf:	89 d7                	mov    edi,edx
 80491c1:	0f b6 db             	movzx  ebx,bl
 80491c4:	39 c3                	cmp    ebx,eax
 80491c6:	8b 07                	mov    eax,DWORD PTR [edi]
 80491c8:	8b 1e                	mov    ebx,DWORD PTR [esi]
 80491ca:	89 c1                	mov    ecx,eax
 80491cc:	0f 44 c3             	cmove  eax,ebx
 80491cf:	0f 44 d9             	cmove  ebx,ecx
 80491d2:	89 07                	mov    DWORD PTR [edi],eax
 80491d4:	89 1e                	mov    DWORD PTR [esi],ebx
 80491d6:	83 c2 04             	add    edx,0x4
 80491d9:	3b 54 24 08          	cmp    edx,DWORD PTR [esp+0x8]
 80491dd:	75 d1                	jne    80491b0
 80491df:	89 44 24 08          	mov    DWORD PTR [esp+0x8],eax
 80491e3:	6a 00                	push   0x0
 80491e5:	55                   	push   ebp
 80491e6:	ff 74 24 20          	push   DWORD PTR [esp+0x20]
 80491ea:	ff 74 24 1c          	push   DWORD PTR [esp+0x1c]
 80491ee:	e8 fd f2 ff ff       	call   80484f0
 80491f3:	8b 44 24 2c          	mov    eax,DWORD PTR [esp+0x2c]
 80491f7:	89 44 24 28          	mov    DWORD PTR [esp+0x28],eax
 80491fb:	83 c4 10             	add    esp,0x10
 80491fe:	83 fd 01             	cmp    ebp,0x1
 8049201:	8b 44 24 08          	mov    eax,DWORD PTR [esp+0x8]
 8049205:	0f 85 75 ff ff ff    	jne    8049180
 804920b:	83 7c 24 28 01       	cmp    DWORD PTR [esp+0x28],0x1
 8049210:	0f 8e 93 00 00 00    	jle    80492a9
 8049216:	8b 6c 24 28          	mov    ebp,DWORD PTR [esp+0x28]
 804921a:	8b 44 24 60          	mov    eax,DWORD PTR [esp+0x60]
 804921e:	66 90                	xchg   ax,ax
 8049220:	8b 7c 24 14          	mov    edi,DWORD PTR [esp+0x14]
 8049224:	d1 fd                	sar    ebp,1
 8049226:	8d 5c 3d 00          	lea    ebx,[ebp+edi]
 804922a:	39 fb                	cmp    ebx,edi
 804922c:	89 5c 24 18          	mov    DWORD PTR [esp+0x18],ebx
 8049230:	7e 4c                	jle    804927e
 8049232:	8b 4c 24 10          	mov    ecx,DWORD PTR [esp+0x10]
 8049236:	8d 14 b9             	lea    edx,[ecx+edi*4]
 8049239:	8b 7c 24 18          	mov    edi,DWORD PTR [esp+0x18]
 804923d:	8d 1c b9             	lea    ebx,[ecx+edi*4]
 8049240:	8d 3c ad 00 00 00 00 	lea    edi,[ebp*4]
 8049247:	89 5c 24 08          	mov    DWORD PTR [esp+0x8],ebx
 804924b:	89 7c 24 0c          	mov    DWORD PTR [esp+0xc],edi
 804924f:	90                   	nop
 8049250:	8b 0c aa             	mov    ecx,DWORD PTR [edx+ebp*4]
 8049253:	31 db                	xor    ebx,ebx
 8049255:	39 0a                	cmp    DWORD PTR [edx],ecx
 8049257:	8b 4c 24 0c          	mov    ecx,DWORD PTR [esp+0xc]
 804925b:	89 d7                	mov    edi,edx
 804925d:	0f 9f c3             	setg   bl
 8049260:	8d 34 11             	lea    esi,[ecx+edx]
 8049263:	39 c3                	cmp    ebx,eax
 8049265:	8b 07                	mov    eax,DWORD PTR [edi]
 8049267:	8b 1e                	mov    ebx,DWORD PTR [esi]
 8049269:	89 c1                	mov    ecx,eax
 804926b:	0f 44 c3             	cmove  eax,ebx
 804926e:	0f 44 d9             	cmove  ebx,ecx
 8049271:	89 07                	mov    DWORD PTR [edi],eax
 8049273:	89 1e                	mov    DWORD PTR [esi],ebx
 8049275:	83 c2 04             	add    edx,0x4
 8049278:	39 54 24 08          	cmp    DWORD PTR [esp+0x8],edx
 804927c:	75 d2                	jne    8049250
 804927e:	50                   	push   eax
 804927f:	89 44 24 0c          	mov    DWORD PTR [esp+0xc],eax
 8049283:	55                   	push   ebp
 8049284:	ff 74 24 1c          	push   DWORD PTR [esp+0x1c]
 8049288:	ff 74 24 1c          	push   DWORD PTR [esp+0x1c]
 804928c:	e8 5f f2 ff ff       	call   80484f0
 8049291:	8b 44 24 28          	mov    eax,DWORD PTR [esp+0x28]
 8049295:	89 44 24 24          	mov    DWORD PTR [esp+0x24],eax
 8049299:	83 c4 10             	add    esp,0x10
 804929c:	83 fd 01             	cmp    ebp,0x1
 804929f:	8b 44 24 08          	mov    eax,DWORD PTR [esp+0x8]
 80492a3:	0f 85 77 ff ff ff    	jne    8049220
 80492a9:	83 c4 4c             	add    esp,0x4c
 80492ac:	5b                   	pop    ebx
 80492ad:	5e                   	pop    esi
 80492ae:	5f                   	pop    edi
 80492af:	5d                   	pop    ebp
 80492b0:	c3                   	ret
 80492b1:	eb 0d                	jmp    80492c0
 80492b3:	90                   	nop
 80492b4:	90                   	nop
 80492b5:	90                   	nop
 80492b6:	90                   	nop
 80492b7:	90                   	nop
 80492b8:	90                   	nop
 80492b9:	90                   	nop
 80492ba:	90                   	nop
 80492bb:	90                   	nop
 80492bc:	90                   	nop
 80492bd:	90                   	nop
 80492be:	90                   	nop
 80492bf:	90                   	nop

080492c0 <BitonicSort>:
 80492c0:	55                   	push   ebp
 80492c1:	57                   	push   edi
 80492c2:	56                   	push   esi
 80492c3:	53                   	push   ebx
 80492c4:	83 ec 3c             	sub    esp,0x3c
 80492c7:	83 7c 24 58 01       	cmp    DWORD PTR [esp+0x58],0x1
 80492cc:	0f 8e 3d 18 00 00    	jle    804ab0f
 80492d2:	8b 44 24 58          	mov    eax,DWORD PTR [esp+0x58]
 80492d6:	d1 f8                	sar    eax,1
 80492d8:	83 f8 01             	cmp    eax,0x1
 80492db:	89 44 24 20          	mov    DWORD PTR [esp+0x20],eax
 80492df:	0f 84 92 17 00 00    	je     804aa77
 80492e5:	8b 44 24 58          	mov    eax,DWORD PTR [esp+0x58]
 80492e9:	c1 f8 02             	sar    eax,0x2
 80492ec:	83 f8 01             	cmp    eax,0x1
 80492ef:	89 44 24 1c          	mov    DWORD PTR [esp+0x1c],eax
 80492f3:	0f 84 fe 0a 00 00    	je     8049df7
 80492f9:	8b 44 24 58          	mov    eax,DWORD PTR [esp+0x58]
 80492fd:	c1 f8 03             	sar    eax,0x3
 8049300:	83 f8 01             	cmp    eax,0x1
 8049303:	89 44 24 18          	mov    DWORD PTR [esp+0x18],eax
 8049307:	0f 84 cb 04 00 00    	je     80497d8
 804930d:	8b 44 24 58          	mov    eax,DWORD PTR [esp+0x58]
 8049311:	c1 f8 04             	sar    eax,0x4
 8049314:	83 f8 01             	cmp    eax,0x1
 8049317:	89 44 24 14          	mov    DWORD PTR [esp+0x14],eax
 804931b:	0f 84 b6 01 00 00    	je     80494d7
 8049321:	8b 44 24 58          	mov    eax,DWORD PTR [esp+0x58]
 8049325:	c1 f8 05             	sar    eax,0x5
 8049328:	83 f8 01             	cmp    eax,0x1
 804932b:	89 c6                	mov    esi,eax
 804932d:	89 44 24 10          	mov    DWORD PTR [esp+0x10],eax
 8049331:	74 2f                	je     8049362
 8049333:	83 ec 0c             	sub    esp,0xc
 8049336:	89 c1                	mov    ecx,eax
 8049338:	6a 01                	push   0x1
 804933a:	8b 54 24 64          	mov    edx,DWORD PTR [esp+0x64]
 804933e:	8b 44 24 60          	mov    eax,DWORD PTR [esp+0x60]
 8049342:	e8 69 f6 ff ff       	call   80489b0
 8049347:	8b 54 24 64          	mov    edx,DWORD PTR [esp+0x64]
 804934b:	8b 44 24 60          	mov    eax,DWORD PTR [esp+0x60]
 804934f:	89 f1                	mov    ecx,esi
 8049351:	c7 04 24 00 00 00 00 	mov    DWORD PTR [esp],0x0
 8049358:	01 f2                	add    edx,esi
 804935a:	e8 51 f6 ff ff       	call   80489b0
 804935f:	83 c4 10             	add    esp,0x10
 8049362:	8b 44 24 54          	mov    eax,DWORD PTR [esp+0x54]
 8049366:	8b 6c 24 14          	mov    ebp,DWORD PTR [esp+0x14]
 804936a:	89 44 24 08          	mov    DWORD PTR [esp+0x8],eax
 804936e:	b8 01 00 00 00       	mov    eax,0x1
 8049373:	90                   	nop
 8049374:	8d 74 26 00          	lea    esi,[esi]
 8049378:	8b 7c 24 08          	mov    edi,DWORD PTR [esp+0x8]
 804937c:	d1 fd                	sar    ebp,1
 804937e:	8d 5c 3d 00          	lea    ebx,[ebp+edi]
 8049382:	39 df                	cmp    edi,ebx
 8049384:	89 5c 24 0c          	mov    DWORD PTR [esp+0xc],ebx
 8049388:	7d 4b                	jge    80493d5
 804938a:	8b 74 24 50          	mov    esi,DWORD PTR [esp+0x50]
 804938e:	89 d9                	mov    ecx,ebx
 8049390:	8d 14 be             	lea    edx,[esi+edi*4]
 8049393:	8d 34 8e             	lea    esi,[esi+ecx*4]
 8049396:	8d 3c ad 00 00 00 00 	lea    edi,[ebp*4]
 804939d:	89 34 24             	mov    DWORD PTR [esp],esi
 80493a0:	89 7c 24 04          	mov    DWORD PTR [esp+0x4],edi
 80493a4:	8d 74 26 00          	lea    esi,[esi]
 80493a8:	8b 3c aa             	mov    edi,DWORD PTR [edx+ebp*4]
 80493ab:	31 db                	xor    ebx,ebx
 80493ad:	39 3a                	cmp    DWORD PTR [edx],edi
 80493af:	8b 4c 24 04          	mov    ecx,DWORD PTR [esp+0x4]
 80493b3:	89 d7                	mov    edi,edx
 80493b5:	0f 9f c3             	setg   bl
 80493b8:	8d 34 0a             	lea    esi,[edx+ecx]
 80493bb:	39 c3                	cmp    ebx,eax
 80493bd:	8b 07                	mov    eax,DWORD PTR [edi]
 80493bf:	8b 1e                	mov    ebx,DWORD PTR [esi]
 80493c1:	89 c1                	mov    ecx,eax
 80493c3:	0f 44 c3             	cmove  eax,ebx
 80493c6:	0f 44 d9             	cmove  ebx,ecx
 80493c9:	89 07                	mov    DWORD PTR [edi],eax
 80493cb:	89 1e                	mov    DWORD PTR [esi],ebx
 80493cd:	83 c2 04             	add    edx,0x4
 80493d0:	3b 14 24             	cmp    edx,DWORD PTR [esp]
 80493d3:	75 d3                	jne    80493a8
 80493d5:	89 04 24             	mov    DWORD PTR [esp],eax
 80493d8:	6a 01                	push   0x1
 80493da:	55                   	push   ebp
 80493db:	ff 74 24 10          	push   DWORD PTR [esp+0x10]
 80493df:	ff 74 24 5c          	push   DWORD PTR [esp+0x5c]
 80493e3:	e8 08 f1 ff ff       	call   80484f0
 80493e8:	8b 44 24 1c          	mov    eax,DWORD PTR [esp+0x1c]
 80493ec:	89 44 24 18          	mov    DWORD PTR [esp+0x18],eax
 80493f0:	83 c4 10             	add    esp,0x10
 80493f3:	83 fd 01             	cmp    ebp,0x1
 80493f6:	8b 04 24             	mov    eax,DWORD PTR [esp]
 80493f9:	0f 85 79 ff ff ff    	jne    8049378
 80493ff:	8b 44 24 14          	mov    eax,DWORD PTR [esp+0x14]
 8049403:	03 44 24 54          	add    eax,DWORD PTR [esp+0x54]
 8049407:	83 7c 24 10 01       	cmp    DWORD PTR [esp+0x10],0x1
 804940c:	89 44 24 08          	mov    DWORD PTR [esp+0x8],eax
 8049410:	74 33                	je     8049445
 8049412:	83 ec 0c             	sub    esp,0xc
 8049415:	6a 01                	push   0x1
 8049417:	8b 7c 24 20          	mov    edi,DWORD PTR [esp+0x20]
 804941b:	8b 74 24 18          	mov    esi,DWORD PTR [esp+0x18]
 804941f:	8b 44 24 60          	mov    eax,DWORD PTR [esp+0x60]
 8049423:	89 f9                	mov    ecx,edi
 8049425:	89 f2                	mov    edx,esi
 8049427:	e8 84 f5 ff ff       	call   80489b0
 804942c:	8b 44 24 60          	mov    eax,DWORD PTR [esp+0x60]
 8049430:	89 fa                	mov    edx,edi
 8049432:	89 f9                	mov    ecx,edi
 8049434:	01 f2                	add    edx,esi
 8049436:	c7 04 24 00 00 00 00 	mov    DWORD PTR [esp],0x0
 804943d:	e8 6e f5 ff ff       	call   80489b0
 8049442:	83 c4 10             	add    esp,0x10
 8049445:	8b 6c 24 14          	mov    ebp,DWORD PTR [esp+0x14]
 8049449:	31 c0                	xor    eax,eax
 804944b:	90                   	nop
 804944c:	8d 74 26 00          	lea    esi,[esi]
 8049450:	8b 5c 24 08          	mov    ebx,DWORD PTR [esp+0x8]
 8049454:	d1 fd                	sar    ebp,1
 8049456:	8d 0c 2b             	lea    ecx,[ebx+ebp]
 8049459:	39 cb                	cmp    ebx,ecx
 804945b:	89 4c 24 0c          	mov    DWORD PTR [esp+0xc],ecx
 804945f:	7d 4c                	jge    80494ad
 8049461:	89 d9                	mov    ecx,ebx
 8049463:	8b 7c 24 0c          	mov    edi,DWORD PTR [esp+0xc]
 8049467:	8b 5c 24 50          	mov    ebx,DWORD PTR [esp+0x50]
 804946b:	8d 14 8b             	lea    edx,[ebx+ecx*4]
 804946e:	8d 1c bb             	lea    ebx,[ebx+edi*4]
 8049471:	8d 0c ad 00 00 00 00 	lea    ecx,[ebp*4]
 8049478:	89 1c 24             	mov    DWORD PTR [esp],ebx
 804947b:	89 4c 24 04          	mov    DWORD PTR [esp+0x4],ecx
 804947f:	90                   	nop
 8049480:	8b 0c aa             	mov    ecx,DWORD PTR [edx+ebp*4]
 8049483:	31 db                	xor    ebx,ebx
 8049485:	39 0a                	cmp    DWORD PTR [edx],ecx
 8049487:	8b 7c 24 04          	mov    edi,DWORD PTR [esp+0x4]
 804948b:	0f 9f c3             	setg   bl
 804948e:	8d 34 3a             	lea    esi,[edx+edi]
 8049491:	89 d7                	mov    edi,edx
 8049493:	39 c3                	cmp    ebx,eax
 8049495:	8b 07                	mov    eax,DWORD PTR [edi]
 8049497:	8b 1e                	mov    ebx,DWORD PTR [esi]
 8049499:	89 c1                	mov    ecx,eax
 804949b:	0f 44 c3             	cmove  eax,ebx
 804949e:	0f 44 d9             	cmove  ebx,ecx
 80494a1:	89 07                	mov    DWORD PTR [edi],eax
 80494a3:	89 1e                	mov    DWORD PTR [esi],ebx
 80494a5:	83 c2 04             	add    edx,0x4
 80494a8:	3b 14 24             	cmp    edx,DWORD PTR [esp]
 80494ab:	75 d3                	jne    8049480
 80494ad:	89 04 24             	mov    DWORD PTR [esp],eax
 80494b0:	6a 00                	push   0x0
 80494b2:	55                   	push   ebp
 80494b3:	ff 74 24 10          	push   DWORD PTR [esp+0x10]
 80494b7:	ff 74 24 5c          	push   DWORD PTR [esp+0x5c]
 80494bb:	e8 30 f0 ff ff       	call   80484f0
 80494c0:	8b 44 24 1c          	mov    eax,DWORD PTR [esp+0x1c]
 80494c4:	89 44 24 18          	mov    DWORD PTR [esp+0x18],eax
 80494c8:	83 c4 10             	add    esp,0x10
 80494cb:	83 fd 01             	cmp    ebp,0x1
 80494ce:	8b 04 24             	mov    eax,DWORD PTR [esp]
 80494d1:	0f 85 79 ff ff ff    	jne    8049450
 80494d7:	8b 44 24 54          	mov    eax,DWORD PTR [esp+0x54]
 80494db:	8b 6c 24 18          	mov    ebp,DWORD PTR [esp+0x18]
 80494df:	89 44 24 08          	mov    DWORD PTR [esp+0x8],eax
 80494e3:	b8 01 00 00 00       	mov    eax,0x1
 80494e8:	90                   	nop
 80494e9:	8d b4 26 00 00 00 00 	lea    esi,[esi]
 80494f0:	8b 7c 24 08          	mov    edi,DWORD PTR [esp+0x8]
 80494f4:	d1 fd                	sar    ebp,1
 80494f6:	8d 0c 2f             	lea    ecx,[edi+ebp]
 80494f9:	39 cf                	cmp    edi,ecx
 80494fb:	89 4c 24 0c          	mov    DWORD PTR [esp+0xc],ecx
 80494ff:	7d 4c                	jge    804954d
 8049501:	8b 4c 24 50          	mov    ecx,DWORD PTR [esp+0x50]
 8049505:	8b 5c 24 0c          	mov    ebx,DWORD PTR [esp+0xc]
 8049509:	8d 14 b9             	lea    edx,[ecx+edi*4]
 804950c:	8d 0c 99             	lea    ecx,[ecx+ebx*4]
 804950f:	8d 3c ad 00 00 00 00 	lea    edi,[ebp*4]
 8049516:	89 0c 24             	mov    DWORD PTR [esp],ecx
 8049519:	89 7c 24 04          	mov    DWORD PTR [esp+0x4],edi
 804951d:	8d 76 00             	lea    esi,[esi]
 8049520:	8b 3c aa             	mov    edi,DWORD PTR [edx+ebp*4]
 8049523:	31 db                	xor    ebx,ebx
 8049525:	39 3a                	cmp    DWORD PTR [edx],edi
 8049527:	8b 7c 24 04          	mov    edi,DWORD PTR [esp+0x4]
 804952b:	0f 9f c3             	setg   bl
 804952e:	8d 34 3a             	lea    esi,[edx+edi]
 8049531:	89 d7                	mov    edi,edx
 8049533:	39 c3                	cmp    ebx,eax
 8049535:	8b 07                	mov    eax,DWORD PTR [edi]
 8049537:	8b 1e                	mov    ebx,DWORD PTR [esi]
 8049539:	89 c1                	mov    ecx,eax
 804953b:	0f 44 c3             	cmove  eax,ebx
 804953e:	0f 44 d9             	cmove  ebx,ecx
 8049541:	89 07                	mov    DWORD PTR [edi],eax
 8049543:	89 1e                	mov    DWORD PTR [esi],ebx
 8049545:	83 c2 04             	add    edx,0x4
 8049548:	3b 14 24             	cmp    edx,DWORD PTR [esp]
 804954b:	75 d3                	jne    8049520
 804954d:	89 04 24             	mov    DWORD PTR [esp],eax
 8049550:	6a 01                	push   0x1
 8049552:	55                   	push   ebp
 8049553:	ff 74 24 10          	push   DWORD PTR [esp+0x10]
 8049557:	ff 74 24 5c          	push   DWORD PTR [esp+0x5c]
 804955b:	e8 90 ef ff ff       	call   80484f0
 8049560:	8b 44 24 1c          	mov    eax,DWORD PTR [esp+0x1c]
 8049564:	89 44 24 18          	mov    DWORD PTR [esp+0x18],eax
 8049568:	83 c4 10             	add    esp,0x10
 804956b:	83 fd 01             	cmp    ebp,0x1
 804956e:	8b 04 24             	mov    eax,DWORD PTR [esp]
 8049571:	0f 85 79 ff ff ff    	jne    80494f0
 8049577:	8b 44 24 18          	mov    eax,DWORD PTR [esp+0x18]
 804957b:	03 44 24 54          	add    eax,DWORD PTR [esp+0x54]
 804957f:	83 7c 24 14 01       	cmp    DWORD PTR [esp+0x14],0x1
 8049584:	89 44 24 08          	mov    DWORD PTR [esp+0x8],eax
 8049588:	0f 84 b9 01 00 00    	je     8049747
 804958e:	8b 44 24 58          	mov    eax,DWORD PTR [esp+0x58]
 8049592:	c1 f8 05             	sar    eax,0x5
 8049595:	83 f8 01             	cmp    eax,0x1
 8049598:	89 c7                	mov    edi,eax
 804959a:	89 44 24 24          	mov    DWORD PTR [esp+0x24],eax
 804959e:	74 2f                	je     80495cf
 80495a0:	83 ec 0c             	sub    esp,0xc
 80495a3:	89 c1                	mov    ecx,eax
 80495a5:	6a 01                	push   0x1
 80495a7:	8b 5c 24 18          	mov    ebx,DWORD PTR [esp+0x18]
 80495ab:	8b 44 24 60          	mov    eax,DWORD PTR [esp+0x60]
 80495af:	89 da                	mov    edx,ebx
 80495b1:	e8 fa f3 ff ff       	call   80489b0
 80495b6:	8b 44 24 60          	mov    eax,DWORD PTR [esp+0x60]
 80495ba:	89 fa                	mov    edx,edi
 80495bc:	89 f9                	mov    ecx,edi
 80495be:	01 da                	add    edx,ebx
 80495c0:	c7 04 24 00 00 00 00 	mov    DWORD PTR [esp],0x0
 80495c7:	e8 e4 f3 ff ff       	call   80489b0
 80495cc:	83 c4 10             	add    esp,0x10
 80495cf:	8b 44 24 08          	mov    eax,DWORD PTR [esp+0x8]
 80495d3:	8b 6c 24 14          	mov    ebp,DWORD PTR [esp+0x14]
 80495d7:	89 44 24 0c          	mov    DWORD PTR [esp+0xc],eax
 80495db:	b8 01 00 00 00       	mov    eax,0x1
 80495e0:	8b 4c 24 0c          	mov    ecx,DWORD PTR [esp+0xc]
 80495e4:	d1 fd                	sar    ebp,1
 80495e6:	8d 7c 0d 00          	lea    edi,[ebp+ecx]
 80495ea:	39 f9                	cmp    ecx,edi
 80495ec:	89 7c 24 10          	mov    DWORD PTR [esp+0x10],edi
 80495f0:	7d 4b                	jge    804963d
 80495f2:	8b 74 24 50          	mov    esi,DWORD PTR [esp+0x50]
 80495f6:	8d 3c ad 00 00 00 00 	lea    edi,[ebp*4]
 80495fd:	89 7c 24 04          	mov    DWORD PTR [esp+0x4],edi
 8049601:	8d 14 8e             	lea    edx,[esi+ecx*4]
 8049604:	8b 4c 24 10          	mov    ecx,DWORD PTR [esp+0x10]
 8049608:	8d 34 8e             	lea    esi,[esi+ecx*4]
 804960b:	89 34 24             	mov    DWORD PTR [esp],esi
 804960e:	66 90                	xchg   ax,ax
 8049610:	8b 0c aa             	mov    ecx,DWORD PTR [edx+ebp*4]
 8049613:	31 db                	xor    ebx,ebx
 8049615:	39 0a                	cmp    DWORD PTR [edx],ecx
 8049617:	8b 7c 24 04          	mov    edi,DWORD PTR [esp+0x4]
 804961b:	0f 9f c3             	setg   bl
 804961e:	8d 34 3a             	lea    esi,[edx+edi]
 8049621:	89 d7                	mov    edi,edx
 8049623:	39 c3                	cmp    ebx,eax
 8049625:	8b 07                	mov    eax,DWORD PTR [edi]
 8049627:	8b 1e                	mov    ebx,DWORD PTR [esi]
 8049629:	89 c1                	mov    ecx,eax
 804962b:	0f 44 c3             	cmove  eax,ebx
 804962e:	0f 44 d9             	cmove  ebx,ecx
 8049631:	89 07                	mov    DWORD PTR [edi],eax
 8049633:	89 1e                	mov    DWORD PTR [esi],ebx
 8049635:	83 c2 04             	add    edx,0x4
 8049638:	3b 14 24             	cmp    edx,DWORD PTR [esp]
 804963b:	75 d3                	jne    8049610
 804963d:	89 04 24             	mov    DWORD PTR [esp],eax
 8049640:	6a 01                	push   0x1
 8049642:	55                   	push   ebp
 8049643:	ff 74 24 14          	push   DWORD PTR [esp+0x14]
 8049647:	ff 74 24 5c          	push   DWORD PTR [esp+0x5c]
 804964b:	e8 a0 ee ff ff       	call   80484f0
 8049650:	8b 44 24 20          	mov    eax,DWORD PTR [esp+0x20]
 8049654:	89 44 24 1c          	mov    DWORD PTR [esp+0x1c],eax
 8049658:	83 c4 10             	add    esp,0x10
 804965b:	83 fd 01             	cmp    ebp,0x1
 804965e:	8b 04 24             	mov    eax,DWORD PTR [esp]
 8049661:	0f 85 79 ff ff ff    	jne    80495e0
 8049667:	8b 44 24 14          	mov    eax,DWORD PTR [esp+0x14]
 804966b:	03 44 24 08          	add    eax,DWORD PTR [esp+0x8]
 804966f:	83 7c 24 24 01       	cmp    DWORD PTR [esp+0x24],0x1
 8049674:	89 44 24 0c          	mov    DWORD PTR [esp+0xc],eax
 8049678:	74 33                	je     80496ad
 804967a:	83 ec 0c             	sub    esp,0xc
 804967d:	6a 01                	push   0x1
 804967f:	8b 7c 24 34          	mov    edi,DWORD PTR [esp+0x34]
 8049683:	8b 74 24 1c          	mov    esi,DWORD PTR [esp+0x1c]
 8049687:	8b 44 24 60          	mov    eax,DWORD PTR [esp+0x60]
 804968b:	89 f9                	mov    ecx,edi
 804968d:	89 f2                	mov    edx,esi
 804968f:	e8 1c f3 ff ff       	call   80489b0
 8049694:	8b 44 24 60          	mov    eax,DWORD PTR [esp+0x60]
 8049698:	89 fa                	mov    edx,edi
 804969a:	89 f9                	mov    ecx,edi
 804969c:	01 f2                	add    edx,esi
 804969e:	c7 04 24 00 00 00 00 	mov    DWORD PTR [esp],0x0
 80496a5:	e8 06 f3 ff ff       	call   80489b0
 80496aa:	83 c4 10             	add    esp,0x10
 80496ad:	8b 6c 24 14          	mov    ebp,DWORD PTR [esp+0x14]
 80496b1:	31 c0                	xor    eax,eax
 80496b3:	90                   	nop
 80496b4:	8d 74 26 00          	lea    esi,[esi]
 80496b8:	8b 7c 24 0c          	mov    edi,DWORD PTR [esp+0xc]
 80496bc:	d1 fd                	sar    ebp,1
 80496be:	8d 5c 3d 00          	lea    ebx,[ebp+edi]
 80496c2:	39 df                	cmp    edi,ebx
 80496c4:	89 5c 24 10          	mov    DWORD PTR [esp+0x10],ebx
 80496c8:	7d 53                	jge    804971d
 80496ca:	8b 5c 24 50          	mov    ebx,DWORD PTR [esp+0x50]
 80496ce:	8d 0c ad 00 00 00 00 	lea    ecx,[ebp*4]
 80496d5:	89 4c 24 04          	mov    DWORD PTR [esp+0x4],ecx
 80496d9:	8d 14 bb             	lea    edx,[ebx+edi*4]
 80496dc:	8b 7c 24 10          	mov    edi,DWORD PTR [esp+0x10]
 80496e0:	8d 1c bb             	lea    ebx,[ebx+edi*4]
 80496e3:	89 1c 24             	mov    DWORD PTR [esp],ebx
 80496e6:	8d 76 00             	lea    esi,[esi]
 80496e9:	8d bc 27 00 00 00 00 	lea    edi,[edi]
 80496f0:	8b 0c aa             	mov    ecx,DWORD PTR [edx+ebp*4]
 80496f3:	31 db                	xor    ebx,ebx
 80496f5:	39 0a                	cmp    DWORD PTR [edx],ecx
 80496f7:	8b 7c 24 04          	mov    edi,DWORD PTR [esp+0x4]
 80496fb:	0f 9f c3             	setg   bl
 80496fe:	8d 34 3a             	lea    esi,[edx+edi]
 8049701:	89 d7                	mov    edi,edx
 8049703:	39 c3                	cmp    ebx,eax
 8049705:	8b 07                	mov    eax,DWORD PTR [edi]
 8049707:	8b 1e                	mov    ebx,DWORD PTR [esi]
 8049709:	89 c1                	mov    ecx,eax
 804970b:	0f 44 c3             	cmove  eax,ebx
 804970e:	0f 44 d9             	cmove  ebx,ecx
 8049711:	89 07                	mov    DWORD PTR [edi],eax
 8049713:	89 1e                	mov    DWORD PTR [esi],ebx
 8049715:	83 c2 04             	add    edx,0x4
 8049718:	3b 14 24             	cmp    edx,DWORD PTR [esp]
 804971b:	75 d3                	jne    80496f0
 804971d:	89 04 24             	mov    DWORD PTR [esp],eax
 8049720:	6a 00                	push   0x0
 8049722:	55                   	push   ebp
 8049723:	ff 74 24 14          	push   DWORD PTR [esp+0x14]
 8049727:	ff 74 24 5c          	push   DWORD PTR [esp+0x5c]
 804972b:	e8 c0 ed ff ff       	call   80484f0
 8049730:	8b 44 24 20          	mov    eax,DWORD PTR [esp+0x20]
 8049734:	89 44 24 1c          	mov    DWORD PTR [esp+0x1c],eax
 8049738:	83 c4 10             	add    esp,0x10
 804973b:	83 fd 01             	cmp    ebp,0x1
 804973e:	8b 04 24             	mov    eax,DWORD PTR [esp]
 8049741:	0f 85 71 ff ff ff    	jne    80496b8
 8049747:	8b 6c 24 18          	mov    ebp,DWORD PTR [esp+0x18]
 804974b:	31 c0                	xor    eax,eax
 804974d:	8d 76 00             	lea    esi,[esi]
 8049750:	8b 4c 24 08          	mov    ecx,DWORD PTR [esp+0x8]
 8049754:	d1 fd                	sar    ebp,1
 8049756:	8d 5c 0d 00          	lea    ebx,[ebp+ecx]
 804975a:	39 d9                	cmp    ecx,ebx
 804975c:	89 5c 24 0c          	mov    DWORD PTR [esp+0xc],ebx
 8049760:	7d 4c                	jge    80497ae
 8049762:	8b 5c 24 50          	mov    ebx,DWORD PTR [esp+0x50]
 8049766:	89 df                	mov    edi,ebx
 8049768:	8d 14 8b             	lea    edx,[ebx+ecx*4]
 804976b:	8b 5c 24 0c          	mov    ebx,DWORD PTR [esp+0xc]
 804976f:	8d 0c 9f             	lea    ecx,[edi+ebx*4]
 8049772:	8d 3c ad 00 00 00 00 	lea    edi,[ebp*4]
 8049779:	89 0c 24             	mov    DWORD PTR [esp],ecx
 804977c:	89 7c 24 04          	mov    DWORD PTR [esp+0x4],edi
 8049780:	8b 1c aa             	mov    ebx,DWORD PTR [edx+ebp*4]
 8049783:	39 1a                	cmp    DWORD PTR [edx],ebx
 8049785:	8b 7c 24 04          	mov    edi,DWORD PTR [esp+0x4]
 8049789:	0f 9f c3             	setg   bl
 804978c:	8d 34 3a             	lea    esi,[edx+edi]
 804978f:	89 d7                	mov    edi,edx
 8049791:	0f b6 db             	movzx  ebx,bl
 8049794:	39 c3                	cmp    ebx,eax
 8049796:	8b 07                	mov    eax,DWORD PTR [edi]
 8049798:	8b 1e                	mov    ebx,DWORD PTR [esi]
 804979a:	89 c1                	mov    ecx,eax
 804979c:	0f 44 c3             	cmove  eax,ebx
 804979f:	0f 44 d9             	cmove  ebx,ecx
 80497a2:	89 07                	mov    DWORD PTR [edi],eax
 80497a4:	89 1e                	mov    DWORD PTR [esi],ebx
 80497a6:	83 c2 04             	add    edx,0x4
 80497a9:	3b 14 24             	cmp    edx,DWORD PTR [esp]
 80497ac:	75 d2                	jne    8049780
 80497ae:	89 04 24             	mov    DWORD PTR [esp],eax
 80497b1:	6a 00                	push   0x0
 80497b3:	55                   	push   ebp
 80497b4:	ff 74 24 10          	push   DWORD PTR [esp+0x10]
 80497b8:	ff 74 24 5c          	push   DWORD PTR [esp+0x5c]
 80497bc:	e8 2f ed ff ff       	call   80484f0
 80497c1:	8b 44 24 1c          	mov    eax,DWORD PTR [esp+0x1c]
 80497c5:	89 44 24 18          	mov    DWORD PTR [esp+0x18],eax
 80497c9:	83 c4 10             	add    esp,0x10
 80497cc:	83 fd 01             	cmp    ebp,0x1
 80497cf:	8b 04 24             	mov    eax,DWORD PTR [esp]
 80497d2:	0f 85 78 ff ff ff    	jne    8049750
 80497d8:	8b 44 24 54          	mov    eax,DWORD PTR [esp+0x54]
 80497dc:	8b 6c 24 1c          	mov    ebp,DWORD PTR [esp+0x1c]
 80497e0:	89 44 24 08          	mov    DWORD PTR [esp+0x8],eax
 80497e4:	b8 01 00 00 00       	mov    eax,0x1
 80497e9:	8d b4 26 00 00 00 00 	lea    esi,[esi]
 80497f0:	8b 5c 24 08          	mov    ebx,DWORD PTR [esp+0x8]
 80497f4:	d1 fd                	sar    ebp,1
 80497f6:	8d 3c 2b             	lea    edi,[ebx+ebp]
 80497f9:	39 fb                	cmp    ebx,edi
 80497fb:	89 7c 24 0c          	mov    DWORD PTR [esp+0xc],edi
 80497ff:	7d 4c                	jge    804984d
 8049801:	8b 7c 24 50          	mov    edi,DWORD PTR [esp+0x50]
 8049805:	8d 0c ad 00 00 00 00 	lea    ecx,[ebp*4]
 804980c:	89 4c 24 04          	mov    DWORD PTR [esp+0x4],ecx
 8049810:	8d 14 9f             	lea    edx,[edi+ebx*4]
 8049813:	8b 5c 24 0c          	mov    ebx,DWORD PTR [esp+0xc]
 8049817:	8d 3c 9f             	lea    edi,[edi+ebx*4]
 804981a:	89 3c 24             	mov    DWORD PTR [esp],edi
 804981d:	8d 76 00             	lea    esi,[esi]
 8049820:	8b 0c aa             	mov    ecx,DWORD PTR [edx+ebp*4]
 8049823:	31 db                	xor    ebx,ebx
 8049825:	39 0a                	cmp    DWORD PTR [edx],ecx
 8049827:	8b 4c 24 04          	mov    ecx,DWORD PTR [esp+0x4]
 804982b:	89 d7                	mov    edi,edx
 804982d:	0f 9f c3             	setg   bl
 8049830:	8d 34 0a             	lea    esi,[edx+ecx]
 8049833:	39 c3                	cmp    ebx,eax
 8049835:	8b 07                	mov    eax,DWORD PTR [edi]
 8049837:	8b 1e                	mov    ebx,DWORD PTR [esi]
 8049839:	89 c1                	mov    ecx,eax
 804983b:	0f 44 c3             	cmove  eax,ebx
 804983e:	0f 44 d9             	cmove  ebx,ecx
 8049841:	89 07                	mov    DWORD PTR [edi],eax
 8049843:	89 1e                	mov    DWORD PTR [esi],ebx
 8049845:	83 c2 04             	add    edx,0x4
 8049848:	3b 14 24             	cmp    edx,DWORD PTR [esp]
 804984b:	75 d3                	jne    8049820
 804984d:	89 04 24             	mov    DWORD PTR [esp],eax
 8049850:	6a 01                	push   0x1
 8049852:	55                   	push   ebp
 8049853:	ff 74 24 10          	push   DWORD PTR [esp+0x10]
 8049857:	ff 74 24 5c          	push   DWORD PTR [esp+0x5c]
 804985b:	e8 90 ec ff ff       	call   80484f0
 8049860:	8b 44 24 1c          	mov    eax,DWORD PTR [esp+0x1c]
 8049864:	89 44 24 18          	mov    DWORD PTR [esp+0x18],eax
 8049868:	83 c4 10             	add    esp,0x10
 804986b:	83 fd 01             	cmp    ebp,0x1
 804986e:	8b 04 24             	mov    eax,DWORD PTR [esp]
 8049871:	0f 85 79 ff ff ff    	jne    80497f0
 8049877:	8b 44 24 1c          	mov    eax,DWORD PTR [esp+0x1c]
 804987b:	03 44 24 54          	add    eax,DWORD PTR [esp+0x54]
 804987f:	83 7c 24 18 01       	cmp    DWORD PTR [esp+0x18],0x1
 8049884:	89 44 24 08          	mov    DWORD PTR [esp+0x8],eax
 8049888:	0f 84 da 04 00 00    	je     8049d68
 804988e:	8b 44 24 58          	mov    eax,DWORD PTR [esp+0x58]
 8049892:	c1 f8 04             	sar    eax,0x4
 8049895:	83 f8 01             	cmp    eax,0x1
 8049898:	89 44 24 24          	mov    DWORD PTR [esp+0x24],eax
 804989c:	0f 84 b5 01 00 00    	je     8049a57
 80498a2:	8b 44 24 58          	mov    eax,DWORD PTR [esp+0x58]
 80498a6:	c1 f8 05             	sar    eax,0x5
 80498a9:	83 f8 01             	cmp    eax,0x1
 80498ac:	89 c6                	mov    esi,eax
 80498ae:	89 44 24 14          	mov    DWORD PTR [esp+0x14],eax
 80498b2:	74 2f                	je     80498e3
 80498b4:	83 ec 0c             	sub    esp,0xc
 80498b7:	89 c1                	mov    ecx,eax
 80498b9:	6a 01                	push   0x1
 80498bb:	8b 7c 24 18          	mov    edi,DWORD PTR [esp+0x18]
 80498bf:	8b 44 24 60          	mov    eax,DWORD PTR [esp+0x60]
 80498c3:	89 fa                	mov    edx,edi
 80498c5:	e8 e6 f0 ff ff       	call   80489b0
 80498ca:	8b 44 24 60          	mov    eax,DWORD PTR [esp+0x60]
 80498ce:	89 f2                	mov    edx,esi
 80498d0:	89 f1                	mov    ecx,esi
 80498d2:	01 fa                	add    edx,edi
 80498d4:	c7 04 24 00 00 00 00 	mov    DWORD PTR [esp],0x0
 80498db:	e8 d0 f0 ff ff       	call   80489b0
 80498e0:	83 c4 10             	add    esp,0x10
 80498e3:	8b 44 24 08          	mov    eax,DWORD PTR [esp+0x8]
 80498e7:	8b 6c 24 24          	mov    ebp,DWORD PTR [esp+0x24]
 80498eb:	89 44 24 0c          	mov    DWORD PTR [esp+0xc],eax
 80498ef:	b8 01 00 00 00       	mov    eax,0x1
 80498f4:	8d 74 26 00          	lea    esi,[esi]
 80498f8:	8b 5c 24 0c          	mov    ebx,DWORD PTR [esp+0xc]
 80498fc:	d1 fd                	sar    ebp,1
 80498fe:	8d 0c 2b             	lea    ecx,[ebx+ebp]
 8049901:	39 cb                	cmp    ebx,ecx
 8049903:	89 4c 24 10          	mov    DWORD PTR [esp+0x10],ecx
 8049907:	7d 4c                	jge    8049955
 8049909:	8b 74 24 50          	mov    esi,DWORD PTR [esp+0x50]
 804990d:	8d 3c ad 00 00 00 00 	lea    edi,[ebp*4]
 8049914:	89 7c 24 04          	mov    DWORD PTR [esp+0x4],edi
 8049918:	8d 14 9e             	lea    edx,[esi+ebx*4]
 804991b:	8d 34 8e             	lea    esi,[esi+ecx*4]
 804991e:	89 34 24             	mov    DWORD PTR [esp],esi
 8049921:	8d b4 26 00 00 00 00 	lea    esi,[esi]
 8049928:	8b 0c aa             	mov    ecx,DWORD PTR [edx+ebp*4]
 804992b:	31 db                	xor    ebx,ebx
 804992d:	39 0a                	cmp    DWORD PTR [edx],ecx
 804992f:	8b 7c 24 04          	mov    edi,DWORD PTR [esp+0x4]
 8049933:	0f 9f c3             	setg   bl
 8049936:	8d 34 3a             	lea    esi,[edx+edi]
 8049939:	89 d7                	mov    edi,edx
 804993b:	39 c3                	cmp    ebx,eax
 804993d:	8b 07                	mov    eax,DWORD PTR [edi]
 804993f:	8b 1e                	mov    ebx,DWORD PTR [esi]
 8049941:	89 c1                	mov    ecx,eax
 8049943:	0f 44 c3             	cmove  eax,ebx
 8049946:	0f 44 d9             	cmove  ebx,ecx
 8049949:	89 07                	mov    DWORD PTR [edi],eax
 804994b:	89 1e                	mov    DWORD PTR [esi],ebx
 804994d:	83 c2 04             	add    edx,0x4
 8049950:	3b 14 24             	cmp    edx,DWORD PTR [esp]
 8049953:	75 d3                	jne    8049928
 8049955:	89 04 24             	mov    DWORD PTR [esp],eax
 8049958:	6a 01                	push   0x1
 804995a:	55                   	push   ebp
 804995b:	ff 74 24 14          	push   DWORD PTR [esp+0x14]
 804995f:	ff 74 24 5c          	push   DWORD PTR [esp+0x5c]
 8049963:	e8 88 eb ff ff       	call   80484f0
 8049968:	8b 44 24 20          	mov    eax,DWORD PTR [esp+0x20]
 804996c:	89 44 24 1c          	mov    DWORD PTR [esp+0x1c],eax
 8049970:	83 c4 10             	add    esp,0x10
 8049973:	83 fd 01             	cmp    ebp,0x1
 8049976:	8b 04 24             	mov    eax,DWORD PTR [esp]
 8049979:	0f 85 79 ff ff ff    	jne    80498f8
 804997f:	8b 44 24 24          	mov    eax,DWORD PTR [esp+0x24]
 8049983:	03 44 24 08          	add    eax,DWORD PTR [esp+0x8]
 8049987:	83 7c 24 14 01       	cmp    DWORD PTR [esp+0x14],0x1
 804998c:	89 44 24 0c          	mov    DWORD PTR [esp+0xc],eax
 8049990:	74 33                	je     80499c5
 8049992:	83 ec 0c             	sub    esp,0xc
 8049995:	6a 01                	push   0x1
 8049997:	8b 74 24 24          	mov    esi,DWORD PTR [esp+0x24]
 804999b:	8b 5c 24 1c          	mov    ebx,DWORD PTR [esp+0x1c]
 804999f:	8b 44 24 60          	mov    eax,DWORD PTR [esp+0x60]
 80499a3:	89 f1                	mov    ecx,esi
 80499a5:	89 da                	mov    edx,ebx
 80499a7:	e8 04 f0 ff ff       	call   80489b0
 80499ac:	8b 44 24 60          	mov    eax,DWORD PTR [esp+0x60]
 80499b0:	89 f2                	mov    edx,esi
 80499b2:	89 f1                	mov    ecx,esi
 80499b4:	01 da                	add    edx,ebx
 80499b6:	c7 04 24 00 00 00 00 	mov    DWORD PTR [esp],0x0
 80499bd:	e8 ee ef ff ff       	call   80489b0
 80499c2:	83 c4 10             	add    esp,0x10
 80499c5:	8b 6c 24 24          	mov    ebp,DWORD PTR [esp+0x24]
 80499c9:	31 c0                	xor    eax,eax
 80499cb:	90                   	nop
 80499cc:	8d 74 26 00          	lea    esi,[esi]
 80499d0:	8b 4c 24 0c          	mov    ecx,DWORD PTR [esp+0xc]
 80499d4:	d1 fd                	sar    ebp,1
 80499d6:	8d 3c 29             	lea    edi,[ecx+ebp]
 80499d9:	39 f9                	cmp    ecx,edi
 80499db:	89 7c 24 10          	mov    DWORD PTR [esp+0x10],edi
 80499df:	7d 4c                	jge    8049a2d
 80499e1:	8b 5c 24 50          	mov    ebx,DWORD PTR [esp+0x50]
 80499e5:	8d 14 8b             	lea    edx,[ebx+ecx*4]
 80499e8:	8d 1c bb             	lea    ebx,[ebx+edi*4]
 80499eb:	8d 0c ad 00 00 00 00 	lea    ecx,[ebp*4]
 80499f2:	89 1c 24             	mov    DWORD PTR [esp],ebx
 80499f5:	89 4c 24 04          	mov    DWORD PTR [esp+0x4],ecx
 80499f9:	8d b4 26 00 00 00 00 	lea    esi,[esi]
 8049a00:	8b 0c aa             	mov    ecx,DWORD PTR [edx+ebp*4]
 8049a03:	31 db                	xor    ebx,ebx
 8049a05:	39 0a                	cmp    DWORD PTR [edx],ecx
 8049a07:	8b 7c 24 04          	mov    edi,DWORD PTR [esp+0x4]
 8049a0b:	0f 9f c3             	setg   bl
 8049a0e:	8d 34 3a             	lea    esi,[edx+edi]
 8049a11:	89 d7                	mov    edi,edx
 8049a13:	39 c3                	cmp    ebx,eax
 8049a15:	8b 07                	mov    eax,DWORD PTR [edi]
 8049a17:	8b 1e                	mov    ebx,DWORD PTR [esi]
 8049a19:	89 c1                	mov    ecx,eax
 8049a1b:	0f 44 c3             	cmove  eax,ebx
 8049a1e:	0f 44 d9             	cmove  ebx,ecx
 8049a21:	89 07                	mov    DWORD PTR [edi],eax
 8049a23:	89 1e                	mov    DWORD PTR [esi],ebx
 8049a25:	83 c2 04             	add    edx,0x4
 8049a28:	3b 14 24             	cmp    edx,DWORD PTR [esp]
 8049a2b:	75 d3                	jne    8049a00
 8049a2d:	89 04 24             	mov    DWORD PTR [esp],eax
 8049a30:	6a 00                	push   0x0
 8049a32:	55                   	push   ebp
 8049a33:	ff 74 24 14          	push   DWORD PTR [esp+0x14]
 8049a37:	ff 74 24 5c          	push   DWORD PTR [esp+0x5c]
 8049a3b:	e8 b0 ea ff ff       	call   80484f0
 8049a40:	8b 44 24 20          	mov    eax,DWORD PTR [esp+0x20]
 8049a44:	89 44 24 1c          	mov    DWORD PTR [esp+0x1c],eax
 8049a48:	83 c4 10             	add    esp,0x10
 8049a4b:	83 fd 01             	cmp    ebp,0x1
 8049a4e:	8b 04 24             	mov    eax,DWORD PTR [esp]
 8049a51:	0f 85 79 ff ff ff    	jne    80499d0
 8049a57:	8b 44 24 08          	mov    eax,DWORD PTR [esp+0x8]
 8049a5b:	8b 6c 24 18          	mov    ebp,DWORD PTR [esp+0x18]
 8049a5f:	89 44 24 0c          	mov    DWORD PTR [esp+0xc],eax
 8049a63:	b8 01 00 00 00       	mov    eax,0x1
 8049a68:	90                   	nop
 8049a69:	8d b4 26 00 00 00 00 	lea    esi,[esi]
 8049a70:	8b 5c 24 0c          	mov    ebx,DWORD PTR [esp+0xc]
 8049a74:	d1 fd                	sar    ebp,1
 8049a76:	8d 3c 2b             	lea    edi,[ebx+ebp]
 8049a79:	39 fb                	cmp    ebx,edi
 8049a7b:	89 7c 24 10          	mov    DWORD PTR [esp+0x10],edi
 8049a7f:	7d 55                	jge    8049ad6
 8049a81:	89 d9                	mov    ecx,ebx
 8049a83:	8b 5c 24 50          	mov    ebx,DWORD PTR [esp+0x50]
 8049a87:	89 df                	mov    edi,ebx
 8049a89:	8d 14 8b             	lea    edx,[ebx+ecx*4]
 8049a8c:	8b 5c 24 10          	mov    ebx,DWORD PTR [esp+0x10]
 8049a90:	8d 0c 9f             	lea    ecx,[edi+ebx*4]
 8049a93:	8d 3c ad 00 00 00 00 	lea    edi,[ebp*4]
 8049a9a:	89 0c 24             	mov    DWORD PTR [esp],ecx
 8049a9d:	89 7c 24 04          	mov    DWORD PTR [esp+0x4],edi
 8049aa1:	8d b4 26 00 00 00 00 	lea    esi,[esi]
 8049aa8:	8b 1c aa             	mov    ebx,DWORD PTR [edx+ebp*4]
 8049aab:	39 1a                	cmp    DWORD PTR [edx],ebx
 8049aad:	8b 7c 24 04          	mov    edi,DWORD PTR [esp+0x4]
 8049ab1:	0f 9f c3             	setg   bl
 8049ab4:	8d 34 3a             	lea    esi,[edx+edi]
 8049ab7:	89 d7                	mov    edi,edx
 8049ab9:	0f b6 db             	movzx  ebx,bl
 8049abc:	39 c3                	cmp    ebx,eax
 8049abe:	8b 07                	mov    eax,DWORD PTR [edi]
 8049ac0:	8b 1e                	mov    ebx,DWORD PTR [esi]
 8049ac2:	89 c1                	mov    ecx,eax
 8049ac4:	0f 44 c3             	cmove  eax,ebx
 8049ac7:	0f 44 d9             	cmove  ebx,ecx
 8049aca:	89 07                	mov    DWORD PTR [edi],eax
 8049acc:	89 1e                	mov    DWORD PTR [esi],ebx
 8049ace:	83 c2 04             	add    edx,0x4
 8049ad1:	3b 14 24             	cmp    edx,DWORD PTR [esp]
 8049ad4:	75 d2                	jne    8049aa8
 8049ad6:	89 04 24             	mov    DWORD PTR [esp],eax
 8049ad9:	6a 01                	push   0x1
 8049adb:	55                   	push   ebp
 8049adc:	ff 74 24 14          	push   DWORD PTR [esp+0x14]
 8049ae0:	ff 74 24 5c          	push   DWORD PTR [esp+0x5c]
 8049ae4:	e8 07 ea ff ff       	call   80484f0
 8049ae9:	8b 44 24 20          	mov    eax,DWORD PTR [esp+0x20]
 8049aed:	89 44 24 1c          	mov    DWORD PTR [esp+0x1c],eax
 8049af1:	83 c4 10             	add    esp,0x10
 8049af4:	83 fd 01             	cmp    ebp,0x1
 8049af7:	8b 04 24             	mov    eax,DWORD PTR [esp]
 8049afa:	0f 85 70 ff ff ff    	jne    8049a70
 8049b00:	8b 44 24 18          	mov    eax,DWORD PTR [esp+0x18]
 8049b04:	03 44 24 08          	add    eax,DWORD PTR [esp+0x8]
 8049b08:	83 7c 24 24 01       	cmp    DWORD PTR [esp+0x24],0x1
 8049b0d:	89 44 24 0c          	mov    DWORD PTR [esp+0xc],eax
 8049b11:	0f 84 c0 01 00 00    	je     8049cd7
 8049b17:	8b 44 24 58          	mov    eax,DWORD PTR [esp+0x58]
 8049b1b:	c1 f8 05             	sar    eax,0x5
 8049b1e:	83 f8 01             	cmp    eax,0x1
 8049b21:	89 c7                	mov    edi,eax
 8049b23:	89 44 24 28          	mov    DWORD PTR [esp+0x28],eax
 8049b27:	74 2f                	je     8049b58
 8049b29:	83 ec 0c             	sub    esp,0xc
 8049b2c:	89 c1                	mov    ecx,eax
 8049b2e:	6a 01                	push   0x1
 8049b30:	8b 74 24 1c          	mov    esi,DWORD PTR [esp+0x1c]
 8049b34:	8b 44 24 60          	mov    eax,DWORD PTR [esp+0x60]
 8049b38:	89 f2                	mov    edx,esi
 8049b3a:	e8 71 ee ff ff       	call   80489b0
 8049b3f:	8b 44 24 60          	mov    eax,DWORD PTR [esp+0x60]
 8049b43:	89 fa                	mov    edx,edi
 8049b45:	89 f9                	mov    ecx,edi
 8049b47:	01 f2                	add    edx,esi
 8049b49:	c7 04 24 00 00 00 00 	mov    DWORD PTR [esp],0x0
 8049b50:	e8 5b ee ff ff       	call   80489b0
 8049b55:	83 c4 10             	add    esp,0x10
 8049b58:	8b 44 24 0c          	mov    eax,DWORD PTR [esp+0xc]
 8049b5c:	8b 6c 24 24          	mov    ebp,DWORD PTR [esp+0x24]
 8049b60:	89 44 24 10          	mov    DWORD PTR [esp+0x10],eax
 8049b64:	b8 01 00 00 00       	mov    eax,0x1
 8049b69:	8d b4 26 00 00 00 00 	lea    esi,[esi]
 8049b70:	8b 7c 24 10          	mov    edi,DWORD PTR [esp+0x10]
 8049b74:	d1 fd                	sar    ebp,1
 8049b76:	8d 5c 3d 00          	lea    ebx,[ebp+edi]
 8049b7a:	39 fb                	cmp    ebx,edi
 8049b7c:	89 5c 24 14          	mov    DWORD PTR [esp+0x14],ebx
 8049b80:	7e 4b                	jle    8049bcd
 8049b82:	8b 74 24 50          	mov    esi,DWORD PTR [esp+0x50]
 8049b86:	89 d9                	mov    ecx,ebx
 8049b88:	8d 14 be             	lea    edx,[esi+edi*4]
 8049b8b:	8d 34 8e             	lea    esi,[esi+ecx*4]
 8049b8e:	8d 3c ad 00 00 00 00 	lea    edi,[ebp*4]
 8049b95:	89 34 24             	mov    DWORD PTR [esp],esi
 8049b98:	89 7c 24 04          	mov    DWORD PTR [esp+0x4],edi
 8049b9c:	8d 74 26 00          	lea    esi,[esi]
 8049ba0:	8b 0c aa             	mov    ecx,DWORD PTR [edx+ebp*4]
 8049ba3:	31 db                	xor    ebx,ebx
 8049ba5:	39 0a                	cmp    DWORD PTR [edx],ecx
 8049ba7:	8b 7c 24 04          	mov    edi,DWORD PTR [esp+0x4]
 8049bab:	0f 9f c3             	setg   bl
 8049bae:	8d 34 3a             	lea    esi,[edx+edi]
 8049bb1:	89 d7                	mov    edi,edx
 8049bb3:	39 c3                	cmp    ebx,eax
 8049bb5:	8b 07                	mov    eax,DWORD PTR [edi]
 8049bb7:	8b 1e                	mov    ebx,DWORD PTR [esi]
 8049bb9:	89 c1                	mov    ecx,eax
 8049bbb:	0f 44 c3             	cmove  eax,ebx
 8049bbe:	0f 44 d9             	cmove  ebx,ecx
 8049bc1:	89 07                	mov    DWORD PTR [edi],eax
 8049bc3:	89 1e                	mov    DWORD PTR [esi],ebx
 8049bc5:	83 c2 04             	add    edx,0x4
 8049bc8:	3b 14 24             	cmp    edx,DWORD PTR [esp]
 8049bcb:	75 d3                	jne    8049ba0
 8049bcd:	89 04 24             	mov    DWORD PTR [esp],eax
 8049bd0:	6a 01                	push   0x1
 8049bd2:	55                   	push   ebp
 8049bd3:	ff 74 24 18          	push   DWORD PTR [esp+0x18]
 8049bd7:	ff 74 24 5c          	push   DWORD PTR [esp+0x5c]
 8049bdb:	e8 10 e9 ff ff       	call   80484f0
 8049be0:	8b 44 24 24          	mov    eax,DWORD PTR [esp+0x24]
 8049be4:	89 44 24 20          	mov    DWORD PTR [esp+0x20],eax
 8049be8:	83 c4 10             	add    esp,0x10
 8049beb:	83 fd 01             	cmp    ebp,0x1
 8049bee:	8b 04 24             	mov    eax,DWORD PTR [esp]
 8049bf1:	0f 85 79 ff ff ff    	jne    8049b70
 8049bf7:	8b 44 24 24          	mov    eax,DWORD PTR [esp+0x24]
 8049bfb:	03 44 24 0c          	add    eax,DWORD PTR [esp+0xc]
 8049bff:	83 7c 24 28 01       	cmp    DWORD PTR [esp+0x28],0x1
 8049c04:	89 44 24 10          	mov    DWORD PTR [esp+0x10],eax
 8049c08:	74 33                	je     8049c3d
 8049c0a:	83 ec 0c             	sub    esp,0xc
 8049c0d:	6a 01                	push   0x1
 8049c0f:	8b 5c 24 38          	mov    ebx,DWORD PTR [esp+0x38]
 8049c13:	8b 7c 24 20          	mov    edi,DWORD PTR [esp+0x20]
 8049c17:	8b 44 24 60          	mov    eax,DWORD PTR [esp+0x60]
 8049c1b:	89 d9                	mov    ecx,ebx
 8049c1d:	89 fa                	mov    edx,edi
 8049c1f:	e8 8c ed ff ff       	call   80489b0
 8049c24:	8b 44 24 60          	mov    eax,DWORD PTR [esp+0x60]
 8049c28:	89 da                	mov    edx,ebx
 8049c2a:	89 d9                	mov    ecx,ebx
 8049c2c:	01 fa                	add    edx,edi
 8049c2e:	c7 04 24 00 00 00 00 	mov    DWORD PTR [esp],0x0
 8049c35:	e8 76 ed ff ff       	call   80489b0
 8049c3a:	83 c4 10             	add    esp,0x10
 8049c3d:	8b 6c 24 24          	mov    ebp,DWORD PTR [esp+0x24]
 8049c41:	31 c0                	xor    eax,eax
 8049c43:	90                   	nop
 8049c44:	8d 74 26 00          	lea    esi,[esi]
 8049c48:	8b 5c 24 10          	mov    ebx,DWORD PTR [esp+0x10]
 8049c4c:	d1 fd                	sar    ebp,1
 8049c4e:	8d 4c 1d 00          	lea    ecx,[ebp+ebx]
 8049c52:	39 d9                	cmp    ecx,ebx
 8049c54:	89 4c 24 14          	mov    DWORD PTR [esp+0x14],ecx
 8049c58:	7e 53                	jle    8049cad
 8049c5a:	89 d9                	mov    ecx,ebx
 8049c5c:	8b 7c 24 14          	mov    edi,DWORD PTR [esp+0x14]
 8049c60:	8b 5c 24 50          	mov    ebx,DWORD PTR [esp+0x50]
 8049c64:	8d 14 8b             	lea    edx,[ebx+ecx*4]
 8049c67:	8d 1c bb             	lea    ebx,[ebx+edi*4]
 8049c6a:	8d 0c ad 00 00 00 00 	lea    ecx,[ebp*4]
 8049c71:	89 1c 24             	mov    DWORD PTR [esp],ebx
 8049c74:	89 4c 24 04          	mov    DWORD PTR [esp+0x4],ecx
 8049c78:	90                   	nop
 8049c79:	8d b4 26 00 00 00 00 	lea    esi,[esi]
 8049c80:	8b 0c aa             	mov    ecx,DWORD PTR [edx+ebp*4]
 8049c83:	31 db                	xor    ebx,ebx
 8049c85:	39 0a                	cmp    DWORD PTR [edx],ecx
 8049c87:	8b 7c 24 04          	mov    edi,DWORD PTR [esp+0x4]
 8049c8b:	0f 9f c3             	setg   bl
 8049c8e:	8d 34 3a             	lea    esi,[edx+edi]
 8049c91:	89 d7                	mov    edi,edx
 8049c93:	39 c3                	cmp    ebx,eax
 8049c95:	8b 07                	mov    eax,DWORD PTR [edi]
 8049c97:	8b 1e                	mov    ebx,DWORD PTR [esi]
 8049c99:	89 c1                	mov    ecx,eax
 8049c9b:	0f 44 c3             	cmove  eax,ebx
 8049c9e:	0f 44 d9             	cmove  ebx,ecx
 8049ca1:	89 07                	mov    DWORD PTR [edi],eax
 8049ca3:	89 1e                	mov    DWORD PTR [esi],ebx
 8049ca5:	83 c2 04             	add    edx,0x4
 8049ca8:	3b 14 24             	cmp    edx,DWORD PTR [esp]
 8049cab:	75 d3                	jne    8049c80
 8049cad:	89 04 24             	mov    DWORD PTR [esp],eax
 8049cb0:	6a 00                	push   0x0
 8049cb2:	55                   	push   ebp
 8049cb3:	ff 74 24 18          	push   DWORD PTR [esp+0x18]
 8049cb7:	ff 74 24 5c          	push   DWORD PTR [esp+0x5c]
 8049cbb:	e8 30 e8 ff ff       	call   80484f0
 8049cc0:	8b 44 24 24          	mov    eax,DWORD PTR [esp+0x24]
 8049cc4:	89 44 24 20          	mov    DWORD PTR [esp+0x20],eax
 8049cc8:	83 c4 10             	add    esp,0x10
 8049ccb:	83 fd 01             	cmp    ebp,0x1
 8049cce:	8b 04 24             	mov    eax,DWORD PTR [esp]
 8049cd1:	0f 85 71 ff ff ff    	jne    8049c48
 8049cd7:	8b 6c 24 18          	mov    ebp,DWORD PTR [esp+0x18]
 8049cdb:	31 c0                	xor    eax,eax
 8049cdd:	8d 76 00             	lea    esi,[esi]
 8049ce0:	8b 7c 24 0c          	mov    edi,DWORD PTR [esp+0xc]
 8049ce4:	d1 fd                	sar    ebp,1
 8049ce6:	8d 4c 3d 00          	lea    ecx,[ebp+edi]
 8049cea:	39 cf                	cmp    edi,ecx
 8049cec:	89 4c 24 10          	mov    DWORD PTR [esp+0x10],ecx
 8049cf0:	7d 4c                	jge    8049d3e
 8049cf2:	8b 5c 24 50          	mov    ebx,DWORD PTR [esp+0x50]
 8049cf6:	8d 14 bb             	lea    edx,[ebx+edi*4]
 8049cf9:	89 df                	mov    edi,ebx
 8049cfb:	8b 5c 24 10          	mov    ebx,DWORD PTR [esp+0x10]
 8049cff:	8d 0c 9f             	lea    ecx,[edi+ebx*4]
 8049d02:	8d 3c ad 00 00 00 00 	lea    edi,[ebp*4]
 8049d09:	89 0c 24             	mov    DWORD PTR [esp],ecx
 8049d0c:	89 7c 24 04          	mov    DWORD PTR [esp+0x4],edi
 8049d10:	8b 1c aa             	mov    ebx,DWORD PTR [edx+ebp*4]
 8049d13:	39 1a                	cmp    DWORD PTR [edx],ebx
 8049d15:	8b 7c 24 04          	mov    edi,DWORD PTR [esp+0x4]
 8049d19:	0f 9f c3             	setg   bl
 8049d1c:	8d 34 3a             	lea    esi,[edx+edi]
 8049d1f:	89 d7                	mov    edi,edx
 8049d21:	0f b6 db             	movzx  ebx,bl
 8049d24:	39 c3                	cmp    ebx,eax
 8049d26:	8b 07                	mov    eax,DWORD PTR [edi]
 8049d28:	8b 1e                	mov    ebx,DWORD PTR [esi]
 8049d2a:	89 c1                	mov    ecx,eax
 8049d2c:	0f 44 c3             	cmove  eax,ebx
 8049d2f:	0f 44 d9             	cmove  ebx,ecx
 8049d32:	89 07                	mov    DWORD PTR [edi],eax
 8049d34:	89 1e                	mov    DWORD PTR [esi],ebx
 8049d36:	83 c2 04             	add    edx,0x4
 8049d39:	3b 14 24             	cmp    edx,DWORD PTR [esp]
 8049d3c:	75 d2                	jne    8049d10
 8049d3e:	89 04 24             	mov    DWORD PTR [esp],eax
 8049d41:	6a 00                	push   0x0
 8049d43:	55                   	push   ebp
 8049d44:	ff 74 24 14          	push   DWORD PTR [esp+0x14]
 8049d48:	ff 74 24 5c          	push   DWORD PTR [esp+0x5c]
 8049d4c:	e8 9f e7 ff ff       	call   80484f0
 8049d51:	8b 44 24 20          	mov    eax,DWORD PTR [esp+0x20]
 8049d55:	89 44 24 1c          	mov    DWORD PTR [esp+0x1c],eax
 8049d59:	83 c4 10             	add    esp,0x10
 8049d5c:	83 fd 01             	cmp    ebp,0x1
 8049d5f:	8b 04 24             	mov    eax,DWORD PTR [esp]
 8049d62:	0f 85 78 ff ff ff    	jne    8049ce0
 8049d68:	8b 6c 24 1c          	mov    ebp,DWORD PTR [esp+0x1c]
 8049d6c:	31 c0                	xor    eax,eax
 8049d6e:	66 90                	xchg   ax,ax
 8049d70:	8b 7c 24 08          	mov    edi,DWORD PTR [esp+0x8]
 8049d74:	d1 fd                	sar    ebp,1
 8049d76:	8d 0c 2f             	lea    ecx,[edi+ebp]
 8049d79:	39 cf                	cmp    edi,ecx
 8049d7b:	89 4c 24 0c          	mov    DWORD PTR [esp+0xc],ecx
 8049d7f:	7d 4c                	jge    8049dcd
 8049d81:	8b 5c 24 50          	mov    ebx,DWORD PTR [esp+0x50]
 8049d85:	89 d9                	mov    ecx,ebx
 8049d87:	8d 14 bb             	lea    edx,[ebx+edi*4]
 8049d8a:	8b 5c 24 0c          	mov    ebx,DWORD PTR [esp+0xc]
 8049d8e:	8d 3c 99             	lea    edi,[ecx+ebx*4]
 8049d91:	8d 0c ad 00 00 00 00 	lea    ecx,[ebp*4]
 8049d98:	89 3c 24             	mov    DWORD PTR [esp],edi
 8049d9b:	89 4c 24 04          	mov    DWORD PTR [esp+0x4],ecx
 8049d9f:	90                   	nop
 8049da0:	8b 0c aa             	mov    ecx,DWORD PTR [edx+ebp*4]
 8049da3:	31 db                	xor    ebx,ebx
 8049da5:	39 0a                	cmp    DWORD PTR [edx],ecx
 8049da7:	8b 4c 24 04          	mov    ecx,DWORD PTR [esp+0x4]
 8049dab:	89 d7                	mov    edi,edx
 8049dad:	0f 9f c3             	setg   bl
 8049db0:	8d 34 0a             	lea    esi,[edx+ecx]
 8049db3:	39 c3                	cmp    ebx,eax
 8049db5:	8b 07                	mov    eax,DWORD PTR [edi]
 8049db7:	8b 1e                	mov    ebx,DWORD PTR [esi]
 8049db9:	89 c1                	mov    ecx,eax
 8049dbb:	0f 44 c3             	cmove  eax,ebx
 8049dbe:	0f 44 d9             	cmove  ebx,ecx
 8049dc1:	89 07                	mov    DWORD PTR [edi],eax
 8049dc3:	89 1e                	mov    DWORD PTR [esi],ebx
 8049dc5:	83 c2 04             	add    edx,0x4
 8049dc8:	3b 14 24             	cmp    edx,DWORD PTR [esp]
 8049dcb:	75 d3                	jne    8049da0
 8049dcd:	89 04 24             	mov    DWORD PTR [esp],eax
 8049dd0:	6a 00                	push   0x0
 8049dd2:	55                   	push   ebp
 8049dd3:	ff 74 24 10          	push   DWORD PTR [esp+0x10]
 8049dd7:	ff 74 24 5c          	push   DWORD PTR [esp+0x5c]
 8049ddb:	e8 10 e7 ff ff       	call   80484f0
 8049de0:	8b 44 24 1c          	mov    eax,DWORD PTR [esp+0x1c]
 8049de4:	89 44 24 18          	mov    DWORD PTR [esp+0x18],eax
 8049de8:	83 c4 10             	add    esp,0x10
 8049deb:	83 fd 01             	cmp    ebp,0x1
 8049dee:	8b 04 24             	mov    eax,DWORD PTR [esp]
 8049df1:	0f 85 79 ff ff ff    	jne    8049d70
 8049df7:	8b 44 24 54          	mov    eax,DWORD PTR [esp+0x54]
 8049dfb:	8b 6c 24 20          	mov    ebp,DWORD PTR [esp+0x20]
 8049dff:	89 44 24 08          	mov    DWORD PTR [esp+0x8],eax
 8049e03:	b8 01 00 00 00       	mov    eax,0x1
 8049e08:	90                   	nop
 8049e09:	8d b4 26 00 00 00 00 	lea    esi,[esi]
 8049e10:	8b 5c 24 08          	mov    ebx,DWORD PTR [esp+0x8]
 8049e14:	d1 fd                	sar    ebp,1
 8049e16:	8d 4c 1d 00          	lea    ecx,[ebp+ebx]
 8049e1a:	39 d9                	cmp    ecx,ebx
 8049e1c:	89 4c 24 0c          	mov    DWORD PTR [esp+0xc],ecx
 8049e20:	7e 4b                	jle    8049e6d
 8049e22:	8b 4c 24 50          	mov    ecx,DWORD PTR [esp+0x50]
 8049e26:	8b 7c 24 0c          	mov    edi,DWORD PTR [esp+0xc]
 8049e2a:	8d 14 99             	lea    edx,[ecx+ebx*4]
 8049e2d:	8d 0c b9             	lea    ecx,[ecx+edi*4]
 8049e30:	8d 1c ad 00 00 00 00 	lea    ebx,[ebp*4]
 8049e37:	89 0c 24             	mov    DWORD PTR [esp],ecx
 8049e3a:	89 5c 24 04          	mov    DWORD PTR [esp+0x4],ebx
 8049e3e:	66 90                	xchg   ax,ax
 8049e40:	8b 0c aa             	mov    ecx,DWORD PTR [edx+ebp*4]
 8049e43:	31 db                	xor    ebx,ebx
 8049e45:	39 0a                	cmp    DWORD PTR [edx],ecx
 8049e47:	8b 4c 24 04          	mov    ecx,DWORD PTR [esp+0x4]
 8049e4b:	89 d7                	mov    edi,edx
 8049e4d:	0f 9f c3             	setg   bl
 8049e50:	8d 34 0a             	lea    esi,[edx+ecx]
 8049e53:	39 c3                	cmp    ebx,eax
 8049e55:	8b 07                	mov    eax,DWORD PTR [edi]
 8049e57:	8b 1e                	mov    ebx,DWORD PTR [esi]
 8049e59:	89 c1                	mov    ecx,eax
 8049e5b:	0f 44 c3             	cmove  eax,ebx
 8049e5e:	0f 44 d9             	cmove  ebx,ecx
 8049e61:	89 07                	mov    DWORD PTR [edi],eax
 8049e63:	89 1e                	mov    DWORD PTR [esi],ebx
 8049e65:	83 c2 04             	add    edx,0x4
 8049e68:	3b 14 24             	cmp    edx,DWORD PTR [esp]
 8049e6b:	75 d3                	jne    8049e40
 8049e6d:	89 04 24             	mov    DWORD PTR [esp],eax
 8049e70:	6a 01                	push   0x1
 8049e72:	55                   	push   ebp
 8049e73:	ff 74 24 10          	push   DWORD PTR [esp+0x10]
 8049e77:	ff 74 24 5c          	push   DWORD PTR [esp+0x5c]
 8049e7b:	e8 70 e6 ff ff       	call   80484f0
 8049e80:	8b 44 24 1c          	mov    eax,DWORD PTR [esp+0x1c]
 8049e84:	89 44 24 18          	mov    DWORD PTR [esp+0x18],eax
 8049e88:	83 c4 10             	add    esp,0x10
 8049e8b:	83 fd 01             	cmp    ebp,0x1
 8049e8e:	8b 04 24             	mov    eax,DWORD PTR [esp]
 8049e91:	0f 85 79 ff ff ff    	jne    8049e10
 8049e97:	8b 44 24 20          	mov    eax,DWORD PTR [esp+0x20]
 8049e9b:	03 44 24 54          	add    eax,DWORD PTR [esp+0x54]
 8049e9f:	83 7c 24 1c 01       	cmp    DWORD PTR [esp+0x1c],0x1
 8049ea4:	89 44 24 08          	mov    DWORD PTR [esp+0x8],eax
 8049ea8:	0f 84 31 0b 00 00    	je     804a9df
 8049eae:	8b 44 24 58          	mov    eax,DWORD PTR [esp+0x58]
 8049eb2:	c1 f8 03             	sar    eax,0x3
 8049eb5:	83 f8 01             	cmp    eax,0x1
 8049eb8:	89 44 24 24          	mov    DWORD PTR [esp+0x24],eax
 8049ebc:	0f 84 de 04 00 00    	je     804a3a0
 8049ec2:	8b 44 24 58          	mov    eax,DWORD PTR [esp+0x58]
 8049ec6:	c1 f8 04             	sar    eax,0x4
 8049ec9:	83 f8 01             	cmp    eax,0x1
 8049ecc:	89 44 24 18          	mov    DWORD PTR [esp+0x18],eax
 8049ed0:	0f 84 c1 01 00 00    	je     804a097
 8049ed6:	8b 44 24 58          	mov    eax,DWORD PTR [esp+0x58]
 8049eda:	c1 f8 05             	sar    eax,0x5
 8049edd:	83 f8 01             	cmp    eax,0x1
 8049ee0:	89 c6                	mov    esi,eax
 8049ee2:	89 44 24 14          	mov    DWORD PTR [esp+0x14],eax
 8049ee6:	74 2f                	je     8049f17
 8049ee8:	83 ec 0c             	sub    esp,0xc
 8049eeb:	89 c1                	mov    ecx,eax
 8049eed:	6a 01                	push   0x1
 8049eef:	8b 5c 24 18          	mov    ebx,DWORD PTR [esp+0x18]
 8049ef3:	8b 44 24 60          	mov    eax,DWORD PTR [esp+0x60]
 8049ef7:	89 da                	mov    edx,ebx
 8049ef9:	e8 b2 ea ff ff       	call   80489b0
 8049efe:	8b 44 24 60          	mov    eax,DWORD PTR [esp+0x60]
 8049f02:	89 f2                	mov    edx,esi
 8049f04:	89 f1                	mov    ecx,esi
 8049f06:	01 da                	add    edx,ebx
 8049f08:	c7 04 24 00 00 00 00 	mov    DWORD PTR [esp],0x0
 8049f0f:	e8 9c ea ff ff       	call   80489b0
 8049f14:	83 c4 10             	add    esp,0x10
 8049f17:	8b 44 24 08          	mov    eax,DWORD PTR [esp+0x8]
 8049f1b:	8b 6c 24 18          	mov    ebp,DWORD PTR [esp+0x18]
 8049f1f:	89 44 24 0c          	mov    DWORD PTR [esp+0xc],eax
 8049f23:	b8 01 00 00 00       	mov    eax,0x1
 8049f28:	90                   	nop
 8049f29:	8d b4 26 00 00 00 00 	lea    esi,[esi]
 8049f30:	8b 4c 24 0c          	mov    ecx,DWORD PTR [esp+0xc]
 8049f34:	d1 fd                	sar    ebp,1
 8049f36:	8d 7c 0d 00          	lea    edi,[ebp+ecx]
 8049f3a:	39 cf                	cmp    edi,ecx
 8049f3c:	89 7c 24 10          	mov    DWORD PTR [esp+0x10],edi
 8049f40:	7e 4b                	jle    8049f8d
 8049f42:	8b 74 24 50          	mov    esi,DWORD PTR [esp+0x50]
 8049f46:	8d 3c ad 00 00 00 00 	lea    edi,[ebp*4]
 8049f4d:	89 7c 24 04          	mov    DWORD PTR [esp+0x4],edi
 8049f51:	8d 14 8e             	lea    edx,[esi+ecx*4]
 8049f54:	8b 4c 24 10          	mov    ecx,DWORD PTR [esp+0x10]
 8049f58:	8d 34 8e             	lea    esi,[esi+ecx*4]
 8049f5b:	89 34 24             	mov    DWORD PTR [esp],esi
 8049f5e:	66 90                	xchg   ax,ax
 8049f60:	8b 0c aa             	mov    ecx,DWORD PTR [edx+ebp*4]
 8049f63:	31 db                	xor    ebx,ebx
 8049f65:	39 0a                	cmp    DWORD PTR [edx],ecx
 8049f67:	8b 7c 24 04          	mov    edi,DWORD PTR [esp+0x4]
 8049f6b:	0f 9f c3             	setg   bl
 8049f6e:	8d 34 3a             	lea    esi,[edx+edi]
 8049f71:	89 d7                	mov    edi,edx
 8049f73:	39 c3                	cmp    ebx,eax
 8049f75:	8b 07                	mov    eax,DWORD PTR [edi]
 8049f77:	8b 1e                	mov    ebx,DWORD PTR [esi]
 8049f79:	89 c1                	mov    ecx,eax
 8049f7b:	0f 44 c3             	cmove  eax,ebx
 8049f7e:	0f 44 d9             	cmove  ebx,ecx
 8049f81:	89 07                	mov    DWORD PTR [edi],eax
 8049f83:	89 1e                	mov    DWORD PTR [esi],ebx
 8049f85:	83 c2 04             	add    edx,0x4
 8049f88:	3b 14 24             	cmp    edx,DWORD PTR [esp]
 8049f8b:	75 d3                	jne    8049f60
 8049f8d:	89 04 24             	mov    DWORD PTR [esp],eax
 8049f90:	6a 01                	push   0x1
 8049f92:	55                   	push   ebp
 8049f93:	ff 74 24 14          	push   DWORD PTR [esp+0x14]
 8049f97:	ff 74 24 5c          	push   DWORD PTR [esp+0x5c]
 8049f9b:	e8 50 e5 ff ff       	call   80484f0
 8049fa0:	8b 44 24 20          	mov    eax,DWORD PTR [esp+0x20]
 8049fa4:	89 44 24 1c          	mov    DWORD PTR [esp+0x1c],eax
 8049fa8:	83 c4 10             	add    esp,0x10
 8049fab:	83 fd 01             	cmp    ebp,0x1
 8049fae:	8b 04 24             	mov    eax,DWORD PTR [esp]
 8049fb1:	0f 85 79 ff ff ff    	jne    8049f30
 8049fb7:	8b 44 24 18          	mov    eax,DWORD PTR [esp+0x18]
 8049fbb:	03 44 24 08          	add    eax,DWORD PTR [esp+0x8]
 8049fbf:	83 7c 24 14 01       	cmp    DWORD PTR [esp+0x14],0x1
 8049fc4:	89 44 24 0c          	mov    DWORD PTR [esp+0xc],eax
 8049fc8:	74 33                	je     8049ffd
 8049fca:	83 ec 0c             	sub    esp,0xc
 8049fcd:	6a 01                	push   0x1
 8049fcf:	8b 7c 24 24          	mov    edi,DWORD PTR [esp+0x24]
 8049fd3:	8b 74 24 1c          	mov    esi,DWORD PTR [esp+0x1c]
 8049fd7:	8b 44 24 60          	mov    eax,DWORD PTR [esp+0x60]
 8049fdb:	89 f9                	mov    ecx,edi
 8049fdd:	89 f2                	mov    edx,esi
 8049fdf:	e8 cc e9 ff ff       	call   80489b0
 8049fe4:	8b 44 24 60          	mov    eax,DWORD PTR [esp+0x60]
 8049fe8:	89 fa                	mov    edx,edi
 8049fea:	89 f9                	mov    ecx,edi
 8049fec:	01 f2                	add    edx,esi
 8049fee:	c7 04 24 00 00 00 00 	mov    DWORD PTR [esp],0x0
 8049ff5:	e8 b6 e9 ff ff       	call   80489b0
 8049ffa:	83 c4 10             	add    esp,0x10
 8049ffd:	8b 6c 24 18          	mov    ebp,DWORD PTR [esp+0x18]
 804a001:	31 c0                	xor    eax,eax
 804a003:	90                   	nop
 804a004:	8d 74 26 00          	lea    esi,[esi]
 804a008:	8b 7c 24 0c          	mov    edi,DWORD PTR [esp+0xc]
 804a00c:	d1 fd                	sar    ebp,1
 804a00e:	8d 5c 3d 00          	lea    ebx,[ebp+edi]
 804a012:	39 fb                	cmp    ebx,edi
 804a014:	89 5c 24 10          	mov    DWORD PTR [esp+0x10],ebx
 804a018:	7e 53                	jle    804a06d
 804a01a:	8b 5c 24 50          	mov    ebx,DWORD PTR [esp+0x50]
 804a01e:	8d 0c ad 00 00 00 00 	lea    ecx,[ebp*4]
 804a025:	89 4c 24 04          	mov    DWORD PTR [esp+0x4],ecx
 804a029:	8d 14 bb             	lea    edx,[ebx+edi*4]
 804a02c:	8b 7c 24 10          	mov    edi,DWORD PTR [esp+0x10]
 804a030:	8d 1c bb             	lea    ebx,[ebx+edi*4]
 804a033:	89 1c 24             	mov    DWORD PTR [esp],ebx
 804a036:	8d 76 00             	lea    esi,[esi]
 804a039:	8d bc 27 00 00 00 00 	lea    edi,[edi]
 804a040:	8b 0c aa             	mov    ecx,DWORD PTR [edx+ebp*4]
 804a043:	31 db                	xor    ebx,ebx
 804a045:	39 0a                	cmp    DWORD PTR [edx],ecx
 804a047:	8b 7c 24 04          	mov    edi,DWORD PTR [esp+0x4]
 804a04b:	0f 9f c3             	setg   bl
 804a04e:	8d 34 3a             	lea    esi,[edx+edi]
 804a051:	89 d7                	mov    edi,edx
 804a053:	39 c3                	cmp    ebx,eax
 804a055:	8b 07                	mov    eax,DWORD PTR [edi]
 804a057:	8b 1e                	mov    ebx,DWORD PTR [esi]
 804a059:	89 c1                	mov    ecx,eax
 804a05b:	0f 44 c3             	cmove  eax,ebx
 804a05e:	0f 44 d9             	cmove  ebx,ecx
 804a061:	89 07                	mov    DWORD PTR [edi],eax
 804a063:	89 1e                	mov    DWORD PTR [esi],ebx
 804a065:	83 c2 04             	add    edx,0x4
 804a068:	3b 14 24             	cmp    edx,DWORD PTR [esp]
 804a06b:	75 d3                	jne    804a040
 804a06d:	89 04 24             	mov    DWORD PTR [esp],eax
 804a070:	6a 00                	push   0x0
 804a072:	55                   	push   ebp
 804a073:	ff 74 24 14          	push   DWORD PTR [esp+0x14]
 804a077:	ff 74 24 5c          	push   DWORD PTR [esp+0x5c]
 804a07b:	e8 70 e4 ff ff       	call   80484f0
 804a080:	8b 44 24 20          	mov    eax,DWORD PTR [esp+0x20]
 804a084:	89 44 24 1c          	mov    DWORD PTR [esp+0x1c],eax
 804a088:	83 c4 10             	add    esp,0x10
 804a08b:	83 fd 01             	cmp    ebp,0x1
 804a08e:	8b 04 24             	mov    eax,DWORD PTR [esp]
 804a091:	0f 85 71 ff ff ff    	jne    804a008
 804a097:	8b 44 24 08          	mov    eax,DWORD PTR [esp+0x8]
 804a09b:	8b 6c 24 24          	mov    ebp,DWORD PTR [esp+0x24]
 804a09f:	89 44 24 0c          	mov    DWORD PTR [esp+0xc],eax
 804a0a3:	b8 01 00 00 00       	mov    eax,0x1
 804a0a8:	90                   	nop
 804a0a9:	8d b4 26 00 00 00 00 	lea    esi,[esi]
 804a0b0:	8b 4c 24 0c          	mov    ecx,DWORD PTR [esp+0xc]
 804a0b4:	d1 fd                	sar    ebp,1
 804a0b6:	8d 5c 0d 00          	lea    ebx,[ebp+ecx]
 804a0ba:	39 cb                	cmp    ebx,ecx
 804a0bc:	89 5c 24 10          	mov    DWORD PTR [esp+0x10],ebx
 804a0c0:	7e 4c                	jle    804a10e
 804a0c2:	8b 5c 24 50          	mov    ebx,DWORD PTR [esp+0x50]
 804a0c6:	89 df                	mov    edi,ebx
 804a0c8:	8d 14 8b             	lea    edx,[ebx+ecx*4]
 804a0cb:	8b 5c 24 10          	mov    ebx,DWORD PTR [esp+0x10]
 804a0cf:	8d 0c 9f             	lea    ecx,[edi+ebx*4]
 804a0d2:	8d 3c ad 00 00 00 00 	lea    edi,[ebp*4]
 804a0d9:	89 0c 24             	mov    DWORD PTR [esp],ecx
 804a0dc:	89 7c 24 04          	mov    DWORD PTR [esp+0x4],edi
 804a0e0:	8b 1c aa             	mov    ebx,DWORD PTR [edx+ebp*4]
 804a0e3:	39 1a                	cmp    DWORD PTR [edx],ebx
 804a0e5:	8b 7c 24 04          	mov    edi,DWORD PTR [esp+0x4]
 804a0e9:	0f 9f c3             	setg   bl
 804a0ec:	8d 34 3a             	lea    esi,[edx+edi]
 804a0ef:	89 d7                	mov    edi,edx
 804a0f1:	0f b6 db             	movzx  ebx,bl
 804a0f4:	39 c3                	cmp    ebx,eax
 804a0f6:	8b 07                	mov    eax,DWORD PTR [edi]
 804a0f8:	8b 1e                	mov    ebx,DWORD PTR [esi]
 804a0fa:	89 c1                	mov    ecx,eax
 804a0fc:	0f 44 c3             	cmove  eax,ebx
 804a0ff:	0f 44 d9             	cmove  ebx,ecx
 804a102:	89 07                	mov    DWORD PTR [edi],eax
 804a104:	89 1e                	mov    DWORD PTR [esi],ebx
 804a106:	83 c2 04             	add    edx,0x4
 804a109:	3b 14 24             	cmp    edx,DWORD PTR [esp]
 804a10c:	75 d2                	jne    804a0e0
 804a10e:	89 04 24             	mov    DWORD PTR [esp],eax
 804a111:	6a 01                	push   0x1
 804a113:	55                   	push   ebp
 804a114:	ff 74 24 14          	push   DWORD PTR [esp+0x14]
 804a118:	ff 74 24 5c          	push   DWORD PTR [esp+0x5c]
 804a11c:	e8 cf e3 ff ff       	call   80484f0
 804a121:	8b 44 24 20          	mov    eax,DWORD PTR [esp+0x20]
 804a125:	89 44 24 1c          	mov    DWORD PTR [esp+0x1c],eax
 804a129:	83 c4 10             	add    esp,0x10
 804a12c:	83 fd 01             	cmp    ebp,0x1
 804a12f:	8b 04 24             	mov    eax,DWORD PTR [esp]
 804a132:	0f 85 78 ff ff ff    	jne    804a0b0
 804a138:	8b 44 24 24          	mov    eax,DWORD PTR [esp+0x24]
 804a13c:	03 44 24 08          	add    eax,DWORD PTR [esp+0x8]
 804a140:	83 7c 24 18 01       	cmp    DWORD PTR [esp+0x18],0x1
 804a145:	89 44 24 0c          	mov    DWORD PTR [esp+0xc],eax
 804a149:	0f 84 b8 01 00 00    	je     804a307
 804a14f:	8b 44 24 58          	mov    eax,DWORD PTR [esp+0x58]
 804a153:	c1 f8 05             	sar    eax,0x5
 804a156:	83 f8 01             	cmp    eax,0x1
 804a159:	89 c7                	mov    edi,eax
 804a15b:	89 44 24 28          	mov    DWORD PTR [esp+0x28],eax
 804a15f:	74 31                	je     804a192
 804a161:	83 ec 0c             	sub    esp,0xc
 804a164:	89 c1                	mov    ecx,eax
 804a166:	6a 01                	push   0x1
 804a168:	8b 5c 24 1c          	mov    ebx,DWORD PTR [esp+0x1c]
 804a16c:	8b 44 24 60          	mov    eax,DWORD PTR [esp+0x60]
 804a170:	89 da                	mov    edx,ebx
 804a172:	e8 39 e8 ff ff       	call   80489b0
 804a177:	89 f8                	mov    eax,edi
 804a179:	89 fa                	mov    edx,edi
 804a17b:	c7 04 24 00 00 00 00 	mov    DWORD PTR [esp],0x0
 804a182:	89 c1                	mov    ecx,eax
 804a184:	8b 44 24 60          	mov    eax,DWORD PTR [esp+0x60]
 804a188:	01 da                	add    edx,ebx
 804a18a:	e8 21 e8 ff ff       	call   80489b0
 804a18f:	83 c4 10             	add    esp,0x10
 804a192:	8b 44 24 0c          	mov    eax,DWORD PTR [esp+0xc]
 804a196:	8b 6c 24 18          	mov    ebp,DWORD PTR [esp+0x18]
 804a19a:	89 44 24 10          	mov    DWORD PTR [esp+0x10],eax
 804a19e:	b8 01 00 00 00       	mov    eax,0x1
 804a1a3:	90                   	nop
 804a1a4:	8d 74 26 00          	lea    esi,[esi]
 804a1a8:	8b 5c 24 10          	mov    ebx,DWORD PTR [esp+0x10]
 804a1ac:	d1 fd                	sar    ebp,1
 804a1ae:	8d 4c 1d 00          	lea    ecx,[ebp+ebx]
 804a1b2:	39 d9                	cmp    ecx,ebx
 804a1b4:	89 4c 24 14          	mov    DWORD PTR [esp+0x14],ecx
 804a1b8:	7e 4b                	jle    804a205
 804a1ba:	8b 74 24 50          	mov    esi,DWORD PTR [esp+0x50]
 804a1be:	8d 3c ad 00 00 00 00 	lea    edi,[ebp*4]
 804a1c5:	89 7c 24 04          	mov    DWORD PTR [esp+0x4],edi
 804a1c9:	8d 14 9e             	lea    edx,[esi+ebx*4]
 804a1cc:	8d 34 8e             	lea    esi,[esi+ecx*4]
 804a1cf:	89 34 24             	mov    DWORD PTR [esp],esi
 804a1d2:	8d b6 00 00 00 00    	lea    esi,[esi]
 804a1d8:	8b 0c aa             	mov    ecx,DWORD PTR [edx+ebp*4]
 804a1db:	31 db                	xor    ebx,ebx
 804a1dd:	39 0a                	cmp    DWORD PTR [edx],ecx
 804a1df:	8b 7c 24 04          	mov    edi,DWORD PTR [esp+0x4]
 804a1e3:	0f 9f c3             	setg   bl
 804a1e6:	8d 34 3a             	lea    esi,[edx+edi]
 804a1e9:	89 d7                	mov    edi,edx
 804a1eb:	39 c3                	cmp    ebx,eax
 804a1ed:	8b 07                	mov    eax,DWORD PTR [edi]
 804a1ef:	8b 1e                	mov    ebx,DWORD PTR [esi]
 804a1f1:	89 c1                	mov    ecx,eax
 804a1f3:	0f 44 c3             	cmove  eax,ebx
 804a1f6:	0f 44 d9             	cmove  ebx,ecx
 804a1f9:	89 07                	mov    DWORD PTR [edi],eax
 804a1fb:	89 1e                	mov    DWORD PTR [esi],ebx
 804a1fd:	83 c2 04             	add    edx,0x4
 804a200:	3b 14 24             	cmp    edx,DWORD PTR [esp]
 804a203:	75 d3                	jne    804a1d8
 804a205:	89 04 24             	mov    DWORD PTR [esp],eax
 804a208:	6a 01                	push   0x1
 804a20a:	55                   	push   ebp
 804a20b:	ff 74 24 18          	push   DWORD PTR [esp+0x18]
 804a20f:	ff 74 24 5c          	push   DWORD PTR [esp+0x5c]
 804a213:	e8 d8 e2 ff ff       	call   80484f0
 804a218:	8b 44 24 24          	mov    eax,DWORD PTR [esp+0x24]
 804a21c:	89 44 24 20          	mov    DWORD PTR [esp+0x20],eax
 804a220:	83 c4 10             	add    esp,0x10
 804a223:	83 fd 01             	cmp    ebp,0x1
 804a226:	8b 04 24             	mov    eax,DWORD PTR [esp]
 804a229:	0f 85 79 ff ff ff    	jne    804a1a8
 804a22f:	8b 44 24 18          	mov    eax,DWORD PTR [esp+0x18]
 804a233:	03 44 24 0c          	add    eax,DWORD PTR [esp+0xc]
 804a237:	83 7c 24 28 01       	cmp    DWORD PTR [esp+0x28],0x1
 804a23c:	89 44 24 10          	mov    DWORD PTR [esp+0x10],eax
 804a240:	74 33                	je     804a275
 804a242:	83 ec 0c             	sub    esp,0xc
 804a245:	6a 01                	push   0x1
 804a247:	8b 74 24 38          	mov    esi,DWORD PTR [esp+0x38]
 804a24b:	8b 7c 24 20          	mov    edi,DWORD PTR [esp+0x20]
 804a24f:	8b 44 24 60          	mov    eax,DWORD PTR [esp+0x60]
 804a253:	89 f1                	mov    ecx,esi
 804a255:	89 fa                	mov    edx,edi
 804a257:	e8 54 e7 ff ff       	call   80489b0
 804a25c:	8b 44 24 60          	mov    eax,DWORD PTR [esp+0x60]
 804a260:	89 f2                	mov    edx,esi
 804a262:	89 f1                	mov    ecx,esi
 804a264:	01 fa                	add    edx,edi
 804a266:	c7 04 24 00 00 00 00 	mov    DWORD PTR [esp],0x0
 804a26d:	e8 3e e7 ff ff       	call   80489b0
 804a272:	83 c4 10             	add    esp,0x10
 804a275:	8b 6c 24 18          	mov    ebp,DWORD PTR [esp+0x18]
 804a279:	31 c0                	xor    eax,eax
 804a27b:	90                   	nop
 804a27c:	8d 74 26 00          	lea    esi,[esi]
 804a280:	8b 4c 24 10          	mov    ecx,DWORD PTR [esp+0x10]
 804a284:	d1 fd                	sar    ebp,1
 804a286:	8d 7c 0d 00          	lea    edi,[ebp+ecx]
 804a28a:	39 cf                	cmp    edi,ecx
 804a28c:	89 7c 24 14          	mov    DWORD PTR [esp+0x14],edi
 804a290:	7e 4b                	jle    804a2dd
 804a292:	8b 5c 24 50          	mov    ebx,DWORD PTR [esp+0x50]
 804a296:	8d 14 8b             	lea    edx,[ebx+ecx*4]
 804a299:	8d 1c bb             	lea    ebx,[ebx+edi*4]
 804a29c:	8d 0c ad 00 00 00 00 	lea    ecx,[ebp*4]
 804a2a3:	89 1c 24             	mov    DWORD PTR [esp],ebx
 804a2a6:	89 4c 24 04          	mov    DWORD PTR [esp+0x4],ecx
 804a2aa:	8d b6 00 00 00 00    	lea    esi,[esi]
 804a2b0:	8b 0c aa             	mov    ecx,DWORD PTR [edx+ebp*4]
 804a2b3:	31 db                	xor    ebx,ebx
 804a2b5:	39 0a                	cmp    DWORD PTR [edx],ecx
 804a2b7:	8b 7c 24 04          	mov    edi,DWORD PTR [esp+0x4]
 804a2bb:	0f 9f c3             	setg   bl
 804a2be:	8d 34 3a             	lea    esi,[edx+edi]
 804a2c1:	89 d7                	mov    edi,edx
 804a2c3:	39 c3                	cmp    ebx,eax
 804a2c5:	8b 07                	mov    eax,DWORD PTR [edi]
 804a2c7:	8b 1e                	mov    ebx,DWORD PTR [esi]
 804a2c9:	89 c1                	mov    ecx,eax
 804a2cb:	0f 44 c3             	cmove  eax,ebx
 804a2ce:	0f 44 d9             	cmove  ebx,ecx
 804a2d1:	89 07                	mov    DWORD PTR [edi],eax
 804a2d3:	89 1e                	mov    DWORD PTR [esi],ebx
 804a2d5:	83 c2 04             	add    edx,0x4
 804a2d8:	3b 14 24             	cmp    edx,DWORD PTR [esp]
 804a2db:	75 d3                	jne    804a2b0
 804a2dd:	89 04 24             	mov    DWORD PTR [esp],eax
 804a2e0:	6a 00                	push   0x0
 804a2e2:	55                   	push   ebp
 804a2e3:	ff 74 24 18          	push   DWORD PTR [esp+0x18]
 804a2e7:	ff 74 24 5c          	push   DWORD PTR [esp+0x5c]
 804a2eb:	e8 00 e2 ff ff       	call   80484f0
 804a2f0:	8b 44 24 24          	mov    eax,DWORD PTR [esp+0x24]
 804a2f4:	89 44 24 20          	mov    DWORD PTR [esp+0x20],eax
 804a2f8:	83 c4 10             	add    esp,0x10
 804a2fb:	83 fd 01             	cmp    ebp,0x1
 804a2fe:	8b 04 24             	mov    eax,DWORD PTR [esp]
 804a301:	0f 85 79 ff ff ff    	jne    804a280
 804a307:	8b 6c 24 24          	mov    ebp,DWORD PTR [esp+0x24]
 804a30b:	31 c0                	xor    eax,eax
 804a30d:	8d 76 00             	lea    esi,[esi]
 804a310:	8b 5c 24 0c          	mov    ebx,DWORD PTR [esp+0xc]
 804a314:	d1 fd                	sar    ebp,1
 804a316:	8d 7c 1d 00          	lea    edi,[ebp+ebx]
 804a31a:	39 df                	cmp    edi,ebx
 804a31c:	89 7c 24 10          	mov    DWORD PTR [esp+0x10],edi
 804a320:	7e 54                	jle    804a376
 804a322:	89 d9                	mov    ecx,ebx
 804a324:	8b 5c 24 50          	mov    ebx,DWORD PTR [esp+0x50]
 804a328:	89 df                	mov    edi,ebx
 804a32a:	8d 14 8b             	lea    edx,[ebx+ecx*4]
 804a32d:	8b 5c 24 10          	mov    ebx,DWORD PTR [esp+0x10]
 804a331:	8d 0c 9f             	lea    ecx,[edi+ebx*4]
 804a334:	8d 3c ad 00 00 00 00 	lea    edi,[ebp*4]
 804a33b:	89 0c 24             	mov    DWORD PTR [esp],ecx
 804a33e:	89 7c 24 04          	mov    DWORD PTR [esp+0x4],edi
 804a342:	8d b6 00 00 00 00    	lea    esi,[esi]
 804a348:	8b 1c aa             	mov    ebx,DWORD PTR [edx+ebp*4]
 804a34b:	39 1a                	cmp    DWORD PTR [edx],ebx
 804a34d:	8b 7c 24 04          	mov    edi,DWORD PTR [esp+0x4]
 804a351:	0f 9f c3             	setg   bl
 804a354:	8d 34 3a             	lea    esi,[edx+edi]
 804a357:	89 d7                	mov    edi,edx
 804a359:	0f b6 db             	movzx  ebx,bl
 804a35c:	39 c3                	cmp    ebx,eax
 804a35e:	8b 07                	mov    eax,DWORD PTR [edi]
 804a360:	8b 1e                	mov    ebx,DWORD PTR [esi]
 804a362:	89 c1                	mov    ecx,eax
 804a364:	0f 44 c3             	cmove  eax,ebx
 804a367:	0f 44 d9             	cmove  ebx,ecx
 804a36a:	89 07                	mov    DWORD PTR [edi],eax
 804a36c:	89 1e                	mov    DWORD PTR [esi],ebx
 804a36e:	83 c2 04             	add    edx,0x4
 804a371:	3b 14 24             	cmp    edx,DWORD PTR [esp]
 804a374:	75 d2                	jne    804a348
 804a376:	89 04 24             	mov    DWORD PTR [esp],eax
 804a379:	6a 00                	push   0x0
 804a37b:	55                   	push   ebp
 804a37c:	ff 74 24 14          	push   DWORD PTR [esp+0x14]
 804a380:	ff 74 24 5c          	push   DWORD PTR [esp+0x5c]
 804a384:	e8 67 e1 ff ff       	call   80484f0
 804a389:	8b 44 24 20          	mov    eax,DWORD PTR [esp+0x20]
 804a38d:	89 44 24 1c          	mov    DWORD PTR [esp+0x1c],eax
 804a391:	83 c4 10             	add    esp,0x10
 804a394:	83 fd 01             	cmp    ebp,0x1
 804a397:	8b 04 24             	mov    eax,DWORD PTR [esp]
 804a39a:	0f 85 70 ff ff ff    	jne    804a310
 804a3a0:	8b 44 24 08          	mov    eax,DWORD PTR [esp+0x8]
 804a3a4:	8b 6c 24 1c          	mov    ebp,DWORD PTR [esp+0x1c]
 804a3a8:	89 44 24 0c          	mov    DWORD PTR [esp+0xc],eax
 804a3ac:	b8 01 00 00 00       	mov    eax,0x1
 804a3b1:	8d b4 26 00 00 00 00 	lea    esi,[esi]
 804a3b8:	8b 4c 24 0c          	mov    ecx,DWORD PTR [esp+0xc]
 804a3bc:	d1 fd                	sar    ebp,1
 804a3be:	8d 5c 0d 00          	lea    ebx,[ebp+ecx]
 804a3c2:	39 cb                	cmp    ebx,ecx
 804a3c4:	89 5c 24 10          	mov    DWORD PTR [esp+0x10],ebx
 804a3c8:	7e 53                	jle    804a41d
 804a3ca:	8b 5c 24 50          	mov    ebx,DWORD PTR [esp+0x50]
 804a3ce:	8d 14 8b             	lea    edx,[ebx+ecx*4]
 804a3d1:	89 d9                	mov    ecx,ebx
 804a3d3:	8b 5c 24 10          	mov    ebx,DWORD PTR [esp+0x10]
 804a3d7:	8d 3c 99             	lea    edi,[ecx+ebx*4]
 804a3da:	8d 0c ad 00 00 00 00 	lea    ecx,[ebp*4]
 804a3e1:	89 3c 24             	mov    DWORD PTR [esp],edi
 804a3e4:	89 4c 24 04          	mov    DWORD PTR [esp+0x4],ecx
 804a3e8:	90                   	nop
 804a3e9:	8d b4 26 00 00 00 00 	lea    esi,[esi]
 804a3f0:	8b 3c aa             	mov    edi,DWORD PTR [edx+ebp*4]
 804a3f3:	31 db                	xor    ebx,ebx
 804a3f5:	39 3a                	cmp    DWORD PTR [edx],edi
 804a3f7:	8b 4c 24 04          	mov    ecx,DWORD PTR [esp+0x4]
 804a3fb:	89 d7                	mov    edi,edx
 804a3fd:	0f 9f c3             	setg   bl
 804a400:	8d 34 0a             	lea    esi,[edx+ecx]
 804a403:	39 c3                	cmp    ebx,eax
 804a405:	8b 07                	mov    eax,DWORD PTR [edi]
 804a407:	8b 1e                	mov    ebx,DWORD PTR [esi]
 804a409:	89 c1                	mov    ecx,eax
 804a40b:	0f 44 c3             	cmove  eax,ebx
 804a40e:	0f 44 d9             	cmove  ebx,ecx
 804a411:	89 07                	mov    DWORD PTR [edi],eax
 804a413:	89 1e                	mov    DWORD PTR [esi],ebx
 804a415:	83 c2 04             	add    edx,0x4
 804a418:	3b 14 24             	cmp    edx,DWORD PTR [esp]
 804a41b:	75 d3                	jne    804a3f0
 804a41d:	89 04 24             	mov    DWORD PTR [esp],eax
 804a420:	6a 01                	push   0x1
 804a422:	55                   	push   ebp
 804a423:	ff 74 24 14          	push   DWORD PTR [esp+0x14]
 804a427:	ff 74 24 5c          	push   DWORD PTR [esp+0x5c]
 804a42b:	e8 c0 e0 ff ff       	call   80484f0
 804a430:	8b 44 24 20          	mov    eax,DWORD PTR [esp+0x20]
 804a434:	89 44 24 1c          	mov    DWORD PTR [esp+0x1c],eax
 804a438:	83 c4 10             	add    esp,0x10
 804a43b:	83 fd 01             	cmp    ebp,0x1
 804a43e:	8b 04 24             	mov    eax,DWORD PTR [esp]
 804a441:	0f 85 71 ff ff ff    	jne    804a3b8
 804a447:	8b 44 24 1c          	mov    eax,DWORD PTR [esp+0x1c]
 804a44b:	03 44 24 08          	add    eax,DWORD PTR [esp+0x8]
 804a44f:	83 7c 24 24 01       	cmp    DWORD PTR [esp+0x24],0x1
 804a454:	89 44 24 0c          	mov    DWORD PTR [esp+0xc],eax
 804a458:	0f 84 ea 04 00 00    	je     804a948
 804a45e:	8b 44 24 58          	mov    eax,DWORD PTR [esp+0x58]
 804a462:	c1 f8 04             	sar    eax,0x4
 804a465:	83 f8 01             	cmp    eax,0x1
 804a468:	89 44 24 28          	mov    DWORD PTR [esp+0x28],eax
 804a46c:	0f 84 c5 01 00 00    	je     804a637
 804a472:	8b 44 24 58          	mov    eax,DWORD PTR [esp+0x58]
 804a476:	c1 f8 05             	sar    eax,0x5
 804a479:	83 f8 01             	cmp    eax,0x1
 804a47c:	89 c6                	mov    esi,eax
 804a47e:	89 44 24 18          	mov    DWORD PTR [esp+0x18],eax
 804a482:	74 31                	je     804a4b5
 804a484:	83 ec 0c             	sub    esp,0xc
 804a487:	89 c1                	mov    ecx,eax
 804a489:	6a 01                	push   0x1
 804a48b:	8b 7c 24 1c          	mov    edi,DWORD PTR [esp+0x1c]
 804a48f:	8b 44 24 60          	mov    eax,DWORD PTR [esp+0x60]
 804a493:	89 fa                	mov    edx,edi
 804a495:	e8 16 e5 ff ff       	call   80489b0
 804a49a:	89 f0                	mov    eax,esi
 804a49c:	89 f2                	mov    edx,esi
 804a49e:	c7 04 24 00 00 00 00 	mov    DWORD PTR [esp],0x0
 804a4a5:	89 c1                	mov    ecx,eax
 804a4a7:	8b 44 24 60          	mov    eax,DWORD PTR [esp+0x60]
 804a4ab:	01 fa                	add    edx,edi
 804a4ad:	e8 fe e4 ff ff       	call   80489b0
 804a4b2:	83 c4 10             	add    esp,0x10
 804a4b5:	8b 44 24 0c          	mov    eax,DWORD PTR [esp+0xc]
 804a4b9:	8b 6c 24 28          	mov    ebp,DWORD PTR [esp+0x28]
 804a4bd:	89 44 24 10          	mov    DWORD PTR [esp+0x10],eax
 804a4c1:	b8 01 00 00 00       	mov    eax,0x1
 804a4c6:	8d 76 00             	lea    esi,[esi]
 804a4c9:	8d bc 27 00 00 00 00 	lea    edi,[edi]
 804a4d0:	8b 7c 24 10          	mov    edi,DWORD PTR [esp+0x10]
 804a4d4:	d1 fd                	sar    ebp,1
 804a4d6:	8d 5c 3d 00          	lea    ebx,[ebp+edi]
 804a4da:	39 fb                	cmp    ebx,edi
 804a4dc:	89 5c 24 14          	mov    DWORD PTR [esp+0x14],ebx
 804a4e0:	7e 4b                	jle    804a52d
 804a4e2:	8b 74 24 50          	mov    esi,DWORD PTR [esp+0x50]
 804a4e6:	89 d9                	mov    ecx,ebx
 804a4e8:	8d 14 be             	lea    edx,[esi+edi*4]
 804a4eb:	8d 34 8e             	lea    esi,[esi+ecx*4]
 804a4ee:	8d 3c ad 00 00 00 00 	lea    edi,[ebp*4]
 804a4f5:	89 34 24             	mov    DWORD PTR [esp],esi
 804a4f8:	89 7c 24 04          	mov    DWORD PTR [esp+0x4],edi
 804a4fc:	8d 74 26 00          	lea    esi,[esi]
 804a500:	8b 0c aa             	mov    ecx,DWORD PTR [edx+ebp*4]
 804a503:	31 db                	xor    ebx,ebx
 804a505:	39 0a                	cmp    DWORD PTR [edx],ecx
 804a507:	8b 7c 24 04          	mov    edi,DWORD PTR [esp+0x4]
 804a50b:	0f 9f c3             	setg   bl
 804a50e:	8d 34 3a             	lea    esi,[edx+edi]
 804a511:	89 d7                	mov    edi,edx
 804a513:	39 c3                	cmp    ebx,eax
 804a515:	8b 07                	mov    eax,DWORD PTR [edi]
 804a517:	8b 1e                	mov    ebx,DWORD PTR [esi]
 804a519:	89 c1                	mov    ecx,eax
 804a51b:	0f 44 c3             	cmove  eax,ebx
 804a51e:	0f 44 d9             	cmove  ebx,ecx
 804a521:	89 07                	mov    DWORD PTR [edi],eax
 804a523:	89 1e                	mov    DWORD PTR [esi],ebx
 804a525:	83 c2 04             	add    edx,0x4
 804a528:	3b 14 24             	cmp    edx,DWORD PTR [esp]
 804a52b:	75 d3                	jne    804a500
 804a52d:	89 04 24             	mov    DWORD PTR [esp],eax
 804a530:	6a 01                	push   0x1
 804a532:	55                   	push   ebp
 804a533:	ff 74 24 18          	push   DWORD PTR [esp+0x18]
 804a537:	ff 74 24 5c          	push   DWORD PTR [esp+0x5c]
 804a53b:	e8 b0 df ff ff       	call   80484f0
 804a540:	8b 44 24 24          	mov    eax,DWORD PTR [esp+0x24]
 804a544:	89 44 24 20          	mov    DWORD PTR [esp+0x20],eax
 804a548:	83 c4 10             	add    esp,0x10
 804a54b:	83 fd 01             	cmp    ebp,0x1
 804a54e:	8b 04 24             	mov    eax,DWORD PTR [esp]
 804a551:	0f 85 79 ff ff ff    	jne    804a4d0
 804a557:	8b 44 24 28          	mov    eax,DWORD PTR [esp+0x28]
 804a55b:	03 44 24 0c          	add    eax,DWORD PTR [esp+0xc]
 804a55f:	83 7c 24 18 01       	cmp    DWORD PTR [esp+0x18],0x1
 804a564:	89 44 24 10          	mov    DWORD PTR [esp+0x10],eax
 804a568:	74 33                	je     804a59d
 804a56a:	83 ec 0c             	sub    esp,0xc
 804a56d:	6a 01                	push   0x1
 804a56f:	8b 5c 24 28          	mov    ebx,DWORD PTR [esp+0x28]
 804a573:	8b 74 24 20          	mov    esi,DWORD PTR [esp+0x20]
 804a577:	8b 44 24 60          	mov    eax,DWORD PTR [esp+0x60]
 804a57b:	89 d9                	mov    ecx,ebx
 804a57d:	89 f2                	mov    edx,esi
 804a57f:	e8 2c e4 ff ff       	call   80489b0
 804a584:	8b 44 24 60          	mov    eax,DWORD PTR [esp+0x60]
 804a588:	89 da                	mov    edx,ebx
 804a58a:	89 d9                	mov    ecx,ebx
 804a58c:	01 f2                	add    edx,esi
 804a58e:	c7 04 24 00 00 00 00 	mov    DWORD PTR [esp],0x0
 804a595:	e8 16 e4 ff ff       	call   80489b0
 804a59a:	83 c4 10             	add    esp,0x10
 804a59d:	8b 6c 24 28          	mov    ebp,DWORD PTR [esp+0x28]
 804a5a1:	31 c0                	xor    eax,eax
 804a5a3:	90                   	nop
 804a5a4:	8d 74 26 00          	lea    esi,[esi]
 804a5a8:	8b 5c 24 10          	mov    ebx,DWORD PTR [esp+0x10]
 804a5ac:	d1 fd                	sar    ebp,1
 804a5ae:	8d 4c 1d 00          	lea    ecx,[ebp+ebx]
 804a5b2:	39 d9                	cmp    ecx,ebx
 804a5b4:	89 4c 24 14          	mov    DWORD PTR [esp+0x14],ecx
 804a5b8:	7e 53                	jle    804a60d
 804a5ba:	89 d9                	mov    ecx,ebx
 804a5bc:	8b 7c 24 14          	mov    edi,DWORD PTR [esp+0x14]
 804a5c0:	8b 5c 24 50          	mov    ebx,DWORD PTR [esp+0x50]
 804a5c4:	8d 14 8b             	lea    edx,[ebx+ecx*4]
 804a5c7:	8d 1c bb             	lea    ebx,[ebx+edi*4]
 804a5ca:	8d 0c ad 00 00 00 00 	lea    ecx,[ebp*4]
 804a5d1:	89 1c 24             	mov    DWORD PTR [esp],ebx
 804a5d4:	89 4c 24 04          	mov    DWORD PTR [esp+0x4],ecx
 804a5d8:	90                   	nop
 804a5d9:	8d b4 26 00 00 00 00 	lea    esi,[esi]
 804a5e0:	8b 0c aa             	mov    ecx,DWORD PTR [edx+ebp*4]
 804a5e3:	31 db                	xor    ebx,ebx
 804a5e5:	39 0a                	cmp    DWORD PTR [edx],ecx
 804a5e7:	8b 7c 24 04          	mov    edi,DWORD PTR [esp+0x4]
 804a5eb:	0f 9f c3             	setg   bl
 804a5ee:	8d 34 3a             	lea    esi,[edx+edi]
 804a5f1:	89 d7                	mov    edi,edx
 804a5f3:	39 c3                	cmp    ebx,eax
 804a5f5:	8b 07                	mov    eax,DWORD PTR [edi]
 804a5f7:	8b 1e                	mov    ebx,DWORD PTR [esi]
 804a5f9:	89 c1                	mov    ecx,eax
 804a5fb:	0f 44 c3             	cmove  eax,ebx
 804a5fe:	0f 44 d9             	cmove  ebx,ecx
 804a601:	89 07                	mov    DWORD PTR [edi],eax
 804a603:	89 1e                	mov    DWORD PTR [esi],ebx
 804a605:	83 c2 04             	add    edx,0x4
 804a608:	3b 14 24             	cmp    edx,DWORD PTR [esp]
 804a60b:	75 d3                	jne    804a5e0
 804a60d:	89 04 24             	mov    DWORD PTR [esp],eax
 804a610:	6a 00                	push   0x0
 804a612:	55                   	push   ebp
 804a613:	ff 74 24 18          	push   DWORD PTR [esp+0x18]
 804a617:	ff 74 24 5c          	push   DWORD PTR [esp+0x5c]
 804a61b:	e8 d0 de ff ff       	call   80484f0
 804a620:	8b 44 24 24          	mov    eax,DWORD PTR [esp+0x24]
 804a624:	89 44 24 20          	mov    DWORD PTR [esp+0x20],eax
 804a628:	83 c4 10             	add    esp,0x10
 804a62b:	83 fd 01             	cmp    ebp,0x1
 804a62e:	8b 04 24             	mov    eax,DWORD PTR [esp]
 804a631:	0f 85 71 ff ff ff    	jne    804a5a8
 804a637:	8b 44 24 0c          	mov    eax,DWORD PTR [esp+0xc]
 804a63b:	8b 6c 24 24          	mov    ebp,DWORD PTR [esp+0x24]
 804a63f:	89 44 24 10          	mov    DWORD PTR [esp+0x10],eax
 804a643:	b8 01 00 00 00       	mov    eax,0x1
 804a648:	90                   	nop
 804a649:	8d b4 26 00 00 00 00 	lea    esi,[esi]
 804a650:	8b 7c 24 10          	mov    edi,DWORD PTR [esp+0x10]
 804a654:	d1 fd                	sar    ebp,1
 804a656:	8d 4c 3d 00          	lea    ecx,[ebp+edi]
 804a65a:	39 f9                	cmp    ecx,edi
 804a65c:	89 4c 24 14          	mov    DWORD PTR [esp+0x14],ecx
 804a660:	7e 4c                	jle    804a6ae
 804a662:	8b 5c 24 50          	mov    ebx,DWORD PTR [esp+0x50]
 804a666:	8d 14 bb             	lea    edx,[ebx+edi*4]
 804a669:	89 df                	mov    edi,ebx
 804a66b:	8b 5c 24 14          	mov    ebx,DWORD PTR [esp+0x14]
 804a66f:	8d 0c 9f             	lea    ecx,[edi+ebx*4]
 804a672:	8d 3c ad 00 00 00 00 	lea    edi,[ebp*4]
 804a679:	89 0c 24             	mov    DWORD PTR [esp],ecx
 804a67c:	89 7c 24 04          	mov    DWORD PTR [esp+0x4],edi
 804a680:	8b 1c aa             	mov    ebx,DWORD PTR [edx+ebp*4]
 804a683:	39 1a                	cmp    DWORD PTR [edx],ebx
 804a685:	8b 7c 24 04          	mov    edi,DWORD PTR [esp+0x4]
 804a689:	0f 9f c3             	setg   bl
 804a68c:	8d 34 3a             	lea    esi,[edx+edi]
 804a68f:	89 d7                	mov    edi,edx
 804a691:	0f b6 db             	movzx  ebx,bl
 804a694:	39 c3                	cmp    ebx,eax
 804a696:	8b 07                	mov    eax,DWORD PTR [edi]
 804a698:	8b 1e                	mov    ebx,DWORD PTR [esi]
 804a69a:	89 c1                	mov    ecx,eax
 804a69c:	0f 44 c3             	cmove  eax,ebx
 804a69f:	0f 44 d9             	cmove  ebx,ecx
 804a6a2:	89 07                	mov    DWORD PTR [edi],eax
 804a6a4:	89 1e                	mov    DWORD PTR [esi],ebx
 804a6a6:	83 c2 04             	add    edx,0x4
 804a6a9:	3b 14 24             	cmp    edx,DWORD PTR [esp]
 804a6ac:	75 d2                	jne    804a680
 804a6ae:	89 04 24             	mov    DWORD PTR [esp],eax
 804a6b1:	6a 01                	push   0x1
 804a6b3:	55                   	push   ebp
 804a6b4:	ff 74 24 18          	push   DWORD PTR [esp+0x18]
 804a6b8:	ff 74 24 5c          	push   DWORD PTR [esp+0x5c]
 804a6bc:	e8 2f de ff ff       	call   80484f0
 804a6c1:	8b 44 24 24          	mov    eax,DWORD PTR [esp+0x24]
 804a6c5:	89 44 24 20          	mov    DWORD PTR [esp+0x20],eax
 804a6c9:	83 c4 10             	add    esp,0x10
 804a6cc:	83 fd 01             	cmp    ebp,0x1
 804a6cf:	8b 04 24             	mov    eax,DWORD PTR [esp]
 804a6d2:	0f 85 78 ff ff ff    	jne    804a650
 804a6d8:	8b 44 24 24          	mov    eax,DWORD PTR [esp+0x24]
 804a6dc:	03 44 24 0c          	add    eax,DWORD PTR [esp+0xc]
 804a6e0:	83 7c 24 28 01       	cmp    DWORD PTR [esp+0x28],0x1
 804a6e5:	89 44 24 10          	mov    DWORD PTR [esp+0x10],eax
 804a6e9:	0f 84 c8 01 00 00    	je     804a8b7
 804a6ef:	8b 44 24 58          	mov    eax,DWORD PTR [esp+0x58]
 804a6f3:	c1 f8 05             	sar    eax,0x5
 804a6f6:	83 f8 01             	cmp    eax,0x1
 804a6f9:	89 c7                	mov    edi,eax
 804a6fb:	89 44 24 2c          	mov    DWORD PTR [esp+0x2c],eax
 804a6ff:	74 2f                	je     804a730
 804a701:	83 ec 0c             	sub    esp,0xc
 804a704:	89 c1                	mov    ecx,eax
 804a706:	6a 01                	push   0x1
 804a708:	8b 5c 24 20          	mov    ebx,DWORD PTR [esp+0x20]
 804a70c:	8b 44 24 60          	mov    eax,DWORD PTR [esp+0x60]
 804a710:	89 da                	mov    edx,ebx
 804a712:	e8 99 e2 ff ff       	call   80489b0
 804a717:	8b 44 24 60          	mov    eax,DWORD PTR [esp+0x60]
 804a71b:	89 fa                	mov    edx,edi
 804a71d:	89 f9                	mov    ecx,edi
 804a71f:	01 da                	add    edx,ebx
 804a721:	c7 04 24 00 00 00 00 	mov    DWORD PTR [esp],0x0
 804a728:	e8 83 e2 ff ff       	call   80489b0
 804a72d:	83 c4 10             	add    esp,0x10
 804a730:	8b 44 24 10          	mov    eax,DWORD PTR [esp+0x10]
 804a734:	8b 6c 24 28          	mov    ebp,DWORD PTR [esp+0x28]
 804a738:	89 44 24 14          	mov    DWORD PTR [esp+0x14],eax
 804a73c:	b8 01 00 00 00       	mov    eax,0x1
 804a741:	8d b4 26 00 00 00 00 	lea    esi,[esi]
 804a748:	8b 4c 24 14          	mov    ecx,DWORD PTR [esp+0x14]
 804a74c:	d1 fd                	sar    ebp,1
 804a74e:	8d 7c 0d 00          	lea    edi,[ebp+ecx]
 804a752:	39 cf                	cmp    edi,ecx
 804a754:	89 7c 24 18          	mov    DWORD PTR [esp+0x18],edi
 804a758:	7e 53                	jle    804a7ad
 804a75a:	8b 74 24 50          	mov    esi,DWORD PTR [esp+0x50]
 804a75e:	8d 3c ad 00 00 00 00 	lea    edi,[ebp*4]
 804a765:	89 7c 24 04          	mov    DWORD PTR [esp+0x4],edi
 804a769:	8d 14 8e             	lea    edx,[esi+ecx*4]
 804a76c:	8b 4c 24 18          	mov    ecx,DWORD PTR [esp+0x18]
 804a770:	8d 34 8e             	lea    esi,[esi+ecx*4]
 804a773:	89 34 24             	mov    DWORD PTR [esp],esi
 804a776:	8d 76 00             	lea    esi,[esi]
 804a779:	8d bc 27 00 00 00 00 	lea    edi,[edi]
 804a780:	8b 0c aa             	mov    ecx,DWORD PTR [edx+ebp*4]
 804a783:	31 db                	xor    ebx,ebx
 804a785:	39 0a                	cmp    DWORD PTR [edx],ecx
 804a787:	8b 7c 24 04          	mov    edi,DWORD PTR [esp+0x4]
 804a78b:	0f 9f c3             	setg   bl
 804a78e:	8d 34 3a             	lea    esi,[edx+edi]
 804a791:	89 d7                	mov    edi,edx
 804a793:	39 c3                	cmp    ebx,eax
 804a795:	8b 07                	mov    eax,DWORD PTR [edi]
 804a797:	8b 1e                	mov    ebx,DWORD PTR [esi]
 804a799:	89 c1                	mov    ecx,eax
 804a79b:	0f 44 c3             	cmove  eax,ebx
 804a79e:	0f 44 d9             	cmove  ebx,ecx
 804a7a1:	89 07                	mov    DWORD PTR [edi],eax
 804a7a3:	89 1e                	mov    DWORD PTR [esi],ebx
 804a7a5:	83 c2 04             	add    edx,0x4
 804a7a8:	3b 14 24             	cmp    edx,DWORD PTR [esp]
 804a7ab:	75 d3                	jne    804a780
 804a7ad:	89 04 24             	mov    DWORD PTR [esp],eax
 804a7b0:	6a 01                	push   0x1
 804a7b2:	55                   	push   ebp
 804a7b3:	ff 74 24 1c          	push   DWORD PTR [esp+0x1c]
 804a7b7:	ff 74 24 5c          	push   DWORD PTR [esp+0x5c]
 804a7bb:	e8 30 dd ff ff       	call   80484f0
 804a7c0:	8b 44 24 28          	mov    eax,DWORD PTR [esp+0x28]
 804a7c4:	89 44 24 24          	mov    DWORD PTR [esp+0x24],eax
 804a7c8:	83 c4 10             	add    esp,0x10
 804a7cb:	83 fd 01             	cmp    ebp,0x1
 804a7ce:	8b 04 24             	mov    eax,DWORD PTR [esp]
 804a7d1:	0f 85 71 ff ff ff    	jne    804a748
 804a7d7:	8b 44 24 28          	mov    eax,DWORD PTR [esp+0x28]
 804a7db:	03 44 24 10          	add    eax,DWORD PTR [esp+0x10]
 804a7df:	83 7c 24 2c 01       	cmp    DWORD PTR [esp+0x2c],0x1
 804a7e4:	89 44 24 14          	mov    DWORD PTR [esp+0x14],eax
 804a7e8:	74 33                	je     804a81d
 804a7ea:	83 ec 0c             	sub    esp,0xc
 804a7ed:	6a 01                	push   0x1
 804a7ef:	8b 7c 24 3c          	mov    edi,DWORD PTR [esp+0x3c]
 804a7f3:	8b 74 24 24          	mov    esi,DWORD PTR [esp+0x24]
 804a7f7:	8b 44 24 60          	mov    eax,DWORD PTR [esp+0x60]
 804a7fb:	89 f9                	mov    ecx,edi
 804a7fd:	89 f2                	mov    edx,esi
 804a7ff:	e8 ac e1 ff ff       	call   80489b0
 804a804:	8b 44 24 60          	mov    eax,DWORD PTR [esp+0x60]
 804a808:	89 fa                	mov    edx,edi
 804a80a:	89 f9                	mov    ecx,edi
 804a80c:	01 f2                	add    edx,esi
 804a80e:	c7 04 24 00 00 00 00 	mov    DWORD PTR [esp],0x0
 804a815:	e8 96 e1 ff ff       	call   80489b0
 804a81a:	83 c4 10             	add    esp,0x10
 804a81d:	8b 6c 24 28          	mov    ebp,DWORD PTR [esp+0x28]
 804a821:	31 c0                	xor    eax,eax
 804a823:	90                   	nop
 804a824:	8d 74 26 00          	lea    esi,[esi]
 804a828:	8b 7c 24 14          	mov    edi,DWORD PTR [esp+0x14]
 804a82c:	d1 fd                	sar    ebp,1
 804a82e:	8d 5c 3d 00          	lea    ebx,[ebp+edi]
 804a832:	39 fb                	cmp    ebx,edi
 804a834:	89 5c 24 18          	mov    DWORD PTR [esp+0x18],ebx
 804a838:	7e 53                	jle    804a88d
 804a83a:	8b 5c 24 50          	mov    ebx,DWORD PTR [esp+0x50]
 804a83e:	8d 0c ad 00 00 00 00 	lea    ecx,[ebp*4]
 804a845:	89 4c 24 04          	mov    DWORD PTR [esp+0x4],ecx
 804a849:	8d 14 bb             	lea    edx,[ebx+edi*4]
 804a84c:	8b 7c 24 18          	mov    edi,DWORD PTR [esp+0x18]
 804a850:	8d 1c bb             	lea    ebx,[ebx+edi*4]
 804a853:	89 1c 24             	mov    DWORD PTR [esp],ebx
 804a856:	8d 76 00             	lea    esi,[esi]
 804a859:	8d bc 27 00 00 00 00 	lea    edi,[edi]
 804a860:	8b 0c aa             	mov    ecx,DWORD PTR [edx+ebp*4]
 804a863:	31 db                	xor    ebx,ebx
 804a865:	39 0a                	cmp    DWORD PTR [edx],ecx
 804a867:	8b 7c 24 04          	mov    edi,DWORD PTR [esp+0x4]
 804a86b:	0f 9f c3             	setg   bl
 804a86e:	8d 34 3a             	lea    esi,[edx+edi]
 804a871:	89 d7                	mov    edi,edx
 804a873:	39 c3                	cmp    ebx,eax
 804a875:	8b 07                	mov    eax,DWORD PTR [edi]
 804a877:	8b 1e                	mov    ebx,DWORD PTR [esi]
 804a879:	89 c1                	mov    ecx,eax
 804a87b:	0f 44 c3             	cmove  eax,ebx
 804a87e:	0f 44 d9             	cmove  ebx,ecx
 804a881:	89 07                	mov    DWORD PTR [edi],eax
 804a883:	89 1e                	mov    DWORD PTR [esi],ebx
 804a885:	83 c2 04             	add    edx,0x4
 804a888:	3b 14 24             	cmp    edx,DWORD PTR [esp]
 804a88b:	75 d3                	jne    804a860
 804a88d:	89 04 24             	mov    DWORD PTR [esp],eax
 804a890:	6a 00                	push   0x0
 804a892:	55                   	push   ebp
 804a893:	ff 74 24 1c          	push   DWORD PTR [esp+0x1c]
 804a897:	ff 74 24 5c          	push   DWORD PTR [esp+0x5c]
 804a89b:	e8 50 dc ff ff       	call   80484f0
 804a8a0:	8b 44 24 28          	mov    eax,DWORD PTR [esp+0x28]
 804a8a4:	89 44 24 24          	mov    DWORD PTR [esp+0x24],eax
 804a8a8:	83 c4 10             	add    esp,0x10
 804a8ab:	83 fd 01             	cmp    ebp,0x1
 804a8ae:	8b 04 24             	mov    eax,DWORD PTR [esp]
 804a8b1:	0f 85 71 ff ff ff    	jne    804a828
 804a8b7:	8b 6c 24 24          	mov    ebp,DWORD PTR [esp+0x24]
 804a8bb:	31 c0                	xor    eax,eax
 804a8bd:	8d 76 00             	lea    esi,[esi]
 804a8c0:	8b 4c 24 10          	mov    ecx,DWORD PTR [esp+0x10]
 804a8c4:	d1 fd                	sar    ebp,1
 804a8c6:	8d 5c 0d 00          	lea    ebx,[ebp+ecx]
 804a8ca:	39 cb                	cmp    ebx,ecx
 804a8cc:	89 5c 24 14          	mov    DWORD PTR [esp+0x14],ebx
 804a8d0:	7e 4c                	jle    804a91e
 804a8d2:	89 df                	mov    edi,ebx
 804a8d4:	8b 5c 24 50          	mov    ebx,DWORD PTR [esp+0x50]
 804a8d8:	8d 14 8b             	lea    edx,[ebx+ecx*4]
 804a8db:	8d 1c bb             	lea    ebx,[ebx+edi*4]
 804a8de:	8d 0c ad 00 00 00 00 	lea    ecx,[ebp*4]
 804a8e5:	89 5c 24 04          	mov    DWORD PTR [esp+0x4],ebx
 804a8e9:	89 0c 24             	mov    DWORD PTR [esp],ecx
 804a8ec:	8d 74 26 00          	lea    esi,[esi]
 804a8f0:	8b 1c aa             	mov    ebx,DWORD PTR [edx+ebp*4]
 804a8f3:	39 1a                	cmp    DWORD PTR [edx],ebx
 804a8f5:	8b 3c 24             	mov    edi,DWORD PTR [esp]
 804a8f8:	0f 9f c3             	setg   bl
 804a8fb:	8d 34 17             	lea    esi,[edi+edx]
 804a8fe:	89 d7                	mov    edi,edx
 804a900:	0f b6 db             	movzx  ebx,bl
 804a903:	39 c3                	cmp    ebx,eax
 804a905:	8b 07                	mov    eax,DWORD PTR [edi]
 804a907:	8b 1e                	mov    ebx,DWORD PTR [esi]
 804a909:	89 c1                	mov    ecx,eax
 804a90b:	0f 44 c3             	cmove  eax,ebx
 804a90e:	0f 44 d9             	cmove  ebx,ecx
 804a911:	89 07                	mov    DWORD PTR [edi],eax
 804a913:	89 1e                	mov    DWORD PTR [esi],ebx
 804a915:	83 c2 04             	add    edx,0x4
 804a918:	3b 54 24 04          	cmp    edx,DWORD PTR [esp+0x4]
 804a91c:	75 d2                	jne    804a8f0
 804a91e:	89 04 24             	mov    DWORD PTR [esp],eax
 804a921:	6a 00                	push   0x0
 804a923:	55                   	push   ebp
 804a924:	ff 74 24 18          	push   DWORD PTR [esp+0x18]
 804a928:	ff 74 24 5c          	push   DWORD PTR [esp+0x5c]
 804a92c:	e8 bf db ff ff       	call   80484f0
 804a931:	8b 44 24 24          	mov    eax,DWORD PTR [esp+0x24]
 804a935:	89 44 24 20          	mov    DWORD PTR [esp+0x20],eax
 804a939:	83 c4 10             	add    esp,0x10
 804a93c:	83 fd 01             	cmp    ebp,0x1
 804a93f:	8b 04 24             	mov    eax,DWORD PTR [esp]
 804a942:	0f 85 78 ff ff ff    	jne    804a8c0
 804a948:	8b 6c 24 1c          	mov    ebp,DWORD PTR [esp+0x1c]
 804a94c:	31 c0                	xor    eax,eax
 804a94e:	66 90                	xchg   ax,ax
 804a950:	8b 5c 24 0c          	mov    ebx,DWORD PTR [esp+0xc]
 804a954:	d1 fd                	sar    ebp,1
 804a956:	8d 7c 1d 00          	lea    edi,[ebp+ebx]
 804a95a:	39 df                	cmp    edi,ebx
 804a95c:	89 7c 24 10          	mov    DWORD PTR [esp+0x10],edi
 804a960:	7e 53                	jle    804a9b5
 804a962:	89 df                	mov    edi,ebx
 804a964:	8b 5c 24 50          	mov    ebx,DWORD PTR [esp+0x50]
 804a968:	89 d9                	mov    ecx,ebx
 804a96a:	8d 14 bb             	lea    edx,[ebx+edi*4]
 804a96d:	8b 5c 24 10          	mov    ebx,DWORD PTR [esp+0x10]
 804a971:	8d 3c 99             	lea    edi,[ecx+ebx*4]
 804a974:	8d 0c ad 00 00 00 00 	lea    ecx,[ebp*4]
 804a97b:	89 7c 24 04          	mov    DWORD PTR [esp+0x4],edi
 804a97f:	89 0c 24             	mov    DWORD PTR [esp],ecx
 804a982:	8d b6 00 00 00 00    	lea    esi,[esi]
 804a988:	8b 3c aa             	mov    edi,DWORD PTR [edx+ebp*4]
 804a98b:	31 db                	xor    ebx,ebx
 804a98d:	39 3a                	cmp    DWORD PTR [edx],edi
 804a98f:	8b 0c 24             	mov    ecx,DWORD PTR [esp]
 804a992:	89 d7                	mov    edi,edx
 804a994:	0f 9f c3             	setg   bl
 804a997:	8d 34 11             	lea    esi,[ecx+edx]
 804a99a:	39 c3                	cmp    ebx,eax
 804a99c:	8b 07                	mov    eax,DWORD PTR [edi]
 804a99e:	8b 1e                	mov    ebx,DWORD PTR [esi]
 804a9a0:	89 c1                	mov    ecx,eax
 804a9a2:	0f 44 c3             	cmove  eax,ebx
 804a9a5:	0f 44 d9             	cmove  ebx,ecx
 804a9a8:	89 07                	mov    DWORD PTR [edi],eax
 804a9aa:	89 1e                	mov    DWORD PTR [esi],ebx
 804a9ac:	83 c2 04             	add    edx,0x4
 804a9af:	3b 54 24 04          	cmp    edx,DWORD PTR [esp+0x4]
 804a9b3:	75 d3                	jne    804a988
 804a9b5:	89 04 24             	mov    DWORD PTR [esp],eax
 804a9b8:	6a 00                	push   0x0
 804a9ba:	55                   	push   ebp
 804a9bb:	ff 74 24 14          	push   DWORD PTR [esp+0x14]
 804a9bf:	ff 74 24 5c          	push   DWORD PTR [esp+0x5c]
 804a9c3:	e8 28 db ff ff       	call   80484f0
 804a9c8:	8b 44 24 20          	mov    eax,DWORD PTR [esp+0x20]
 804a9cc:	89 44 24 1c          	mov    DWORD PTR [esp+0x1c],eax
 804a9d0:	83 c4 10             	add    esp,0x10
 804a9d3:	83 fd 01             	cmp    ebp,0x1
 804a9d6:	8b 04 24             	mov    eax,DWORD PTR [esp]
 804a9d9:	0f 85 71 ff ff ff    	jne    804a950
 804a9df:	8b 6c 24 20          	mov    ebp,DWORD PTR [esp+0x20]
 804a9e3:	31 c0                	xor    eax,eax
 804a9e5:	8d 76 00             	lea    esi,[esi]
 804a9e8:	8b 4c 24 08          	mov    ecx,DWORD PTR [esp+0x8]
 804a9ec:	d1 fd                	sar    ebp,1
 804a9ee:	8d 7c 0d 00          	lea    edi,[ebp+ecx]
 804a9f2:	39 cf                	cmp    edi,ecx
 804a9f4:	89 7c 24 0c          	mov    DWORD PTR [esp+0xc],edi
 804a9f8:	7e 53                	jle    804aa4d
 804a9fa:	89 cf                	mov    edi,ecx
 804a9fc:	8b 4c 24 50          	mov    ecx,DWORD PTR [esp+0x50]
 804aa00:	89 cb                	mov    ebx,ecx
 804aa02:	8d 14 b9             	lea    edx,[ecx+edi*4]
 804aa05:	8b 4c 24 0c          	mov    ecx,DWORD PTR [esp+0xc]
 804aa09:	8d 3c 8b             	lea    edi,[ebx+ecx*4]
 804aa0c:	8d 1c ad 00 00 00 00 	lea    ebx,[ebp*4]
 804aa13:	89 7c 24 04          	mov    DWORD PTR [esp+0x4],edi
 804aa17:	89 1c 24             	mov    DWORD PTR [esp],ebx
 804aa1a:	8d b6 00 00 00 00    	lea    esi,[esi]
 804aa20:	8b 0c aa             	mov    ecx,DWORD PTR [edx+ebp*4]
 804aa23:	31 db                	xor    ebx,ebx
 804aa25:	39 0a                	cmp    DWORD PTR [edx],ecx
 804aa27:	8b 0c 24             	mov    ecx,DWORD PTR [esp]
 804aa2a:	89 d7                	mov    edi,edx
 804aa2c:	0f 9f c3             	setg   bl
 804aa2f:	8d 34 0a             	lea    esi,[edx+ecx]
 804aa32:	39 c3                	cmp    ebx,eax
 804aa34:	8b 07                	mov    eax,DWORD PTR [edi]
 804aa36:	8b 1e                	mov    ebx,DWORD PTR [esi]
 804aa38:	89 c1                	mov    ecx,eax
 804aa3a:	0f 44 c3             	cmove  eax,ebx
 804aa3d:	0f 44 d9             	cmove  ebx,ecx
 804aa40:	89 07                	mov    DWORD PTR [edi],eax
 804aa42:	89 1e                	mov    DWORD PTR [esi],ebx
 804aa44:	83 c2 04             	add    edx,0x4
 804aa47:	3b 54 24 04          	cmp    edx,DWORD PTR [esp+0x4]
 804aa4b:	75 d3                	jne    804aa20
 804aa4d:	89 04 24             	mov    DWORD PTR [esp],eax
 804aa50:	6a 00                	push   0x0
 804aa52:	55                   	push   ebp
 804aa53:	ff 74 24 10          	push   DWORD PTR [esp+0x10]
 804aa57:	ff 74 24 5c          	push   DWORD PTR [esp+0x5c]
 804aa5b:	e8 90 da ff ff       	call   80484f0
 804aa60:	8b 44 24 1c          	mov    eax,DWORD PTR [esp+0x1c]
 804aa64:	89 44 24 18          	mov    DWORD PTR [esp+0x18],eax
 804aa68:	83 c4 10             	add    esp,0x10
 804aa6b:	83 fd 01             	cmp    ebp,0x1
 804aa6e:	8b 04 24             	mov    eax,DWORD PTR [esp]
 804aa71:	0f 85 71 ff ff ff    	jne    804a9e8
 804aa77:	8b 6c 24 58          	mov    ebp,DWORD PTR [esp+0x58]
 804aa7b:	8b 44 24 5c          	mov    eax,DWORD PTR [esp+0x5c]
 804aa7f:	90                   	nop
 804aa80:	8b 5c 24 54          	mov    ebx,DWORD PTR [esp+0x54]
 804aa84:	d1 fd                	sar    ebp,1
 804aa86:	01 eb                	add    ebx,ebp
 804aa88:	39 5c 24 54          	cmp    DWORD PTR [esp+0x54],ebx
 804aa8c:	89 5c 24 08          	mov    DWORD PTR [esp+0x8],ebx
 804aa90:	7d 53                	jge    804aae5
 804aa92:	8b 5c 24 50          	mov    ebx,DWORD PTR [esp+0x50]
 804aa96:	8b 7c 24 54          	mov    edi,DWORD PTR [esp+0x54]
 804aa9a:	8d 0c ad 00 00 00 00 	lea    ecx,[ebp*4]
 804aaa1:	89 4c 24 04          	mov    DWORD PTR [esp+0x4],ecx
 804aaa5:	8d 14 bb             	lea    edx,[ebx+edi*4]
 804aaa8:	8b 7c 24 08          	mov    edi,DWORD PTR [esp+0x8]
 804aaac:	8d 1c bb             	lea    ebx,[ebx+edi*4]
 804aaaf:	89 1c 24             	mov    DWORD PTR [esp],ebx
 804aab2:	8d b6 00 00 00 00    	lea    esi,[esi]
 804aab8:	8b 0c aa             	mov    ecx,DWORD PTR [edx+ebp*4]
 804aabb:	31 db                	xor    ebx,ebx
 804aabd:	39 0a                	cmp    DWORD PTR [edx],ecx
 804aabf:	8b 4c 24 04          	mov    ecx,DWORD PTR [esp+0x4]
 804aac3:	89 d7                	mov    edi,edx
 804aac5:	0f 9f c3             	setg   bl
 804aac8:	8d 34 0a             	lea    esi,[edx+ecx]
 804aacb:	39 c3                	cmp    ebx,eax
 804aacd:	8b 07                	mov    eax,DWORD PTR [edi]
 804aacf:	8b 1e                	mov    ebx,DWORD PTR [esi]
 804aad1:	89 c1                	mov    ecx,eax
 804aad3:	0f 44 c3             	cmove  eax,ebx
 804aad6:	0f 44 d9             	cmove  ebx,ecx
 804aad9:	89 07                	mov    DWORD PTR [edi],eax
 804aadb:	89 1e                	mov    DWORD PTR [esi],ebx
 804aadd:	83 c2 04             	add    edx,0x4
 804aae0:	39 14 24             	cmp    DWORD PTR [esp],edx
 804aae3:	75 d3                	jne    804aab8
 804aae5:	50                   	push   eax
 804aae6:	89 44 24 04          	mov    DWORD PTR [esp+0x4],eax
 804aaea:	55                   	push   ebp
 804aaeb:	ff 74 24 5c          	push   DWORD PTR [esp+0x5c]
 804aaef:	ff 74 24 5c          	push   DWORD PTR [esp+0x5c]
 804aaf3:	e8 f8 d9 ff ff       	call   80484f0
 804aaf8:	8b 44 24 18          	mov    eax,DWORD PTR [esp+0x18]
 804aafc:	89 44 24 64          	mov    DWORD PTR [esp+0x64],eax
 804ab00:	83 c4 10             	add    esp,0x10
 804ab03:	83 fd 01             	cmp    ebp,0x1
 804ab06:	8b 04 24             	mov    eax,DWORD PTR [esp]
 804ab09:	0f 85 71 ff ff ff    	jne    804aa80
 804ab0f:	83 c4 3c             	add    esp,0x3c
 804ab12:	5b                   	pop    ebx
 804ab13:	5e                   	pop    esi
 804ab14:	5f                   	pop    edi
 804ab15:	5d                   	pop    ebp
 804ab16:	c3                   	ret
 804ab17:	89 f6                	mov    esi,esi
 804ab19:	8d bc 27 00 00 00 00 	lea    edi,[edi]

0804ab20 <Sort>:
 804ab20:	55                   	push   ebp
 804ab21:	57                   	push   edi
 804ab22:	56                   	push   esi
 804ab23:	53                   	push   ebx
 804ab24:	83 ec 4c             	sub    esp,0x4c
 804ab27:	83 7c 24 64 01       	cmp    DWORD PTR [esp+0x64],0x1
 804ab2c:	0f 8e b7 2f 00 00    	jle    804dae9
 804ab32:	8b 44 24 64          	mov    eax,DWORD PTR [esp+0x64]
 804ab36:	d1 f8                	sar    eax,1
 804ab38:	83 f8 01             	cmp    eax,0x1
 804ab3b:	89 44 24 14          	mov    DWORD PTR [esp+0x14],eax
 804ab3f:	0f 84 fd 2e 00 00    	je     804da42
 804ab45:	8b 44 24 64          	mov    eax,DWORD PTR [esp+0x64]
 804ab49:	c1 f8 02             	sar    eax,0x2
 804ab4c:	83 f8 01             	cmp    eax,0x1
 804ab4f:	89 44 24 28          	mov    DWORD PTR [esp+0x28],eax
 804ab53:	0f 84 d5 16 00 00    	je     804c22e
 804ab59:	8b 44 24 64          	mov    eax,DWORD PTR [esp+0x64]
 804ab5d:	c1 f8 03             	sar    eax,0x3
 804ab60:	83 f8 01             	cmp    eax,0x1
 804ab63:	89 44 24 30          	mov    DWORD PTR [esp+0x30],eax
 804ab67:	0f 84 bd 0a 00 00    	je     804b62a
 804ab6d:	8b 44 24 64          	mov    eax,DWORD PTR [esp+0x64]
 804ab71:	c1 f8 04             	sar    eax,0x4
 804ab74:	83 f8 01             	cmp    eax,0x1
 804ab77:	89 44 24 2c          	mov    DWORD PTR [esp+0x2c],eax
 804ab7b:	0f 84 a9 04 00 00    	je     804b02a
 804ab81:	8b 44 24 64          	mov    eax,DWORD PTR [esp+0x64]
 804ab85:	c1 f8 05             	sar    eax,0x5
 804ab88:	83 f8 01             	cmp    eax,0x1
 804ab8b:	89 44 24 18          	mov    DWORD PTR [esp+0x18],eax
 804ab8f:	0f 84 99 01 00 00    	je     804ad2e
 804ab95:	8b 44 24 64          	mov    eax,DWORD PTR [esp+0x64]
 804ab99:	c1 f8 06             	sar    eax,0x6
 804ab9c:	83 f8 01             	cmp    eax,0x1
 804ab9f:	89 c7                	mov    edi,eax
 804aba1:	89 44 24 24          	mov    DWORD PTR [esp+0x24],eax
 804aba5:	74 29                	je     804abd0
 804aba7:	83 ec 0c             	sub    esp,0xc
 804abaa:	89 c1                	mov    ecx,eax
 804abac:	31 d2                	xor    edx,edx
 804abae:	6a 01                	push   0x1
 804abb0:	8b 44 24 70          	mov    eax,DWORD PTR [esp+0x70]
 804abb4:	e8 f7 dd ff ff       	call   80489b0
 804abb9:	8b 44 24 70          	mov    eax,DWORD PTR [esp+0x70]
 804abbd:	89 f9                	mov    ecx,edi
 804abbf:	89 fa                	mov    edx,edi
 804abc1:	c7 04 24 00 00 00 00 	mov    DWORD PTR [esp],0x0
 804abc8:	e8 e3 dd ff ff       	call   80489b0
 804abcd:	83 c4 10             	add    esp,0x10
 804abd0:	8b 6c 24 18          	mov    ebp,DWORD PTR [esp+0x18]
 804abd4:	c7 44 24 1c 00 00 00 	mov    DWORD PTR [esp+0x1c],0x0
 804abdb:	00 
 804abdc:	8d 74 26 00          	lea    esi,[esi]
 804abe0:	8b 5c 24 1c          	mov    ebx,DWORD PTR [esp+0x1c]
 804abe4:	d1 fd                	sar    ebp,1
 804abe6:	89 d8                	mov    eax,ebx
 804abe8:	01 e8                	add    eax,ebp
 804abea:	39 c3                	cmp    ebx,eax
 804abec:	89 44 24 20          	mov    DWORD PTR [esp+0x20],eax
 804abf0:	7d 54                	jge    804ac46
 804abf2:	89 c1                	mov    ecx,eax
 804abf4:	8b 44 24 60          	mov    eax,DWORD PTR [esp+0x60]
 804abf8:	8d 14 98             	lea    edx,[eax+ebx*4]
 804abfb:	8d 04 88             	lea    eax,[eax+ecx*4]
 804abfe:	89 44 24 0c          	mov    DWORD PTR [esp+0xc],eax
 804ac02:	8d 04 ad 00 00 00 00 	lea    eax,[ebp*4]
 804ac09:	89 44 24 10          	mov    DWORD PTR [esp+0x10],eax
 804ac0d:	b8 01 00 00 00       	mov    eax,0x1
 804ac12:	8d b6 00 00 00 00    	lea    esi,[esi]
 804ac18:	8b 3c aa             	mov    edi,DWORD PTR [edx+ebp*4]
 804ac1b:	31 db                	xor    ebx,ebx
 804ac1d:	39 3a                	cmp    DWORD PTR [edx],edi
 804ac1f:	8b 7c 24 10          	mov    edi,DWORD PTR [esp+0x10]
 804ac23:	0f 9f c3             	setg   bl
 804ac26:	8d 34 3a             	lea    esi,[edx+edi]
 804ac29:	89 d7                	mov    edi,edx
 804ac2b:	39 c3                	cmp    ebx,eax
 804ac2d:	8b 07                	mov    eax,DWORD PTR [edi]
 804ac2f:	8b 1e                	mov    ebx,DWORD PTR [esi]
 804ac31:	89 c1                	mov    ecx,eax
 804ac33:	0f 44 c3             	cmove  eax,ebx
 804ac36:	0f 44 d9             	cmove  ebx,ecx
 804ac39:	89 07                	mov    DWORD PTR [edi],eax
 804ac3b:	89 1e                	mov    DWORD PTR [esi],ebx
 804ac3d:	83 c2 04             	add    edx,0x4
 804ac40:	3b 54 24 0c          	cmp    edx,DWORD PTR [esp+0xc]
 804ac44:	75 d2                	jne    804ac18
 804ac46:	6a 01                	push   0x1
 804ac48:	55                   	push   ebp
 804ac49:	ff 74 24 24          	push   DWORD PTR [esp+0x24]
 804ac4d:	ff 74 24 6c          	push   DWORD PTR [esp+0x6c]
 804ac51:	e8 9a d8 ff ff       	call   80484f0
 804ac56:	8b 44 24 30          	mov    eax,DWORD PTR [esp+0x30]
 804ac5a:	89 44 24 2c          	mov    DWORD PTR [esp+0x2c],eax
 804ac5e:	83 c4 10             	add    esp,0x10
 804ac61:	83 fd 01             	cmp    ebp,0x1
 804ac64:	0f 85 76 ff ff ff    	jne    804abe0
 804ac6a:	83 7c 24 24 01       	cmp    DWORD PTR [esp+0x24],0x1
 804ac6f:	74 33                	je     804aca4
 804ac71:	83 ec 0c             	sub    esp,0xc
 804ac74:	6a 01                	push   0x1
 804ac76:	8b 5c 24 34          	mov    ebx,DWORD PTR [esp+0x34]
 804ac7a:	8b 7c 24 28          	mov    edi,DWORD PTR [esp+0x28]
 804ac7e:	8b 44 24 70          	mov    eax,DWORD PTR [esp+0x70]
 804ac82:	89 d9                	mov    ecx,ebx
 804ac84:	89 fa                	mov    edx,edi
 804ac86:	e8 25 dd ff ff       	call   80489b0
 804ac8b:	8b 44 24 70          	mov    eax,DWORD PTR [esp+0x70]
 804ac8f:	89 fa                	mov    edx,edi
 804ac91:	89 d9                	mov    ecx,ebx
 804ac93:	01 da                	add    edx,ebx
 804ac95:	c7 04 24 00 00 00 00 	mov    DWORD PTR [esp],0x0
 804ac9c:	e8 0f dd ff ff       	call   80489b0
 804aca1:	83 c4 10             	add    esp,0x10
 804aca4:	8b 44 24 18          	mov    eax,DWORD PTR [esp+0x18]
 804aca8:	89 44 24 1c          	mov    DWORD PTR [esp+0x1c],eax
 804acac:	89 c5                	mov    ebp,eax
 804acae:	66 90                	xchg   ax,ax
 804acb0:	8b 7c 24 1c          	mov    edi,DWORD PTR [esp+0x1c]
 804acb4:	d1 fd                	sar    ebp,1
 804acb6:	89 f8                	mov    eax,edi
 804acb8:	01 e8                	add    eax,ebp
 804acba:	39 c7                	cmp    edi,eax
 804acbc:	89 44 24 20          	mov    DWORD PTR [esp+0x20],eax
 804acc0:	7d 4c                	jge    804ad0e
 804acc2:	89 c3                	mov    ebx,eax
 804acc4:	8b 44 24 60          	mov    eax,DWORD PTR [esp+0x60]
 804acc8:	8d 14 b8             	lea    edx,[eax+edi*4]
 804accb:	8d 04 98             	lea    eax,[eax+ebx*4]
 804acce:	89 44 24 0c          	mov    DWORD PTR [esp+0xc],eax
 804acd2:	8d 04 ad 00 00 00 00 	lea    eax,[ebp*4]
 804acd9:	89 44 24 10          	mov    DWORD PTR [esp+0x10],eax
 804acdd:	31 c0                	xor    eax,eax
 804acdf:	90                   	nop
 804ace0:	8b 0c aa             	mov    ecx,DWORD PTR [edx+ebp*4]
 804ace3:	31 db                	xor    ebx,ebx
 804ace5:	39 0a                	cmp    DWORD PTR [edx],ecx
 804ace7:	8b 7c 24 10          	mov    edi,DWORD PTR [esp+0x10]
 804aceb:	0f 9f c3             	setg   bl
 804acee:	8d 34 3a             	lea    esi,[edx+edi]
 804acf1:	89 d7                	mov    edi,edx
 804acf3:	39 c3                	cmp    ebx,eax
 804acf5:	8b 07                	mov    eax,DWORD PTR [edi]
 804acf7:	8b 1e                	mov    ebx,DWORD PTR [esi]
 804acf9:	89 c1                	mov    ecx,eax
 804acfb:	0f 44 c3             	cmove  eax,ebx
 804acfe:	0f 44 d9             	cmove  ebx,ecx
 804ad01:	89 07                	mov    DWORD PTR [edi],eax
 804ad03:	89 1e                	mov    DWORD PTR [esi],ebx
 804ad05:	83 c2 04             	add    edx,0x4
 804ad08:	3b 54 24 0c          	cmp    edx,DWORD PTR [esp+0xc]
 804ad0c:	75 d2                	jne    804ace0
 804ad0e:	6a 00                	push   0x0
 804ad10:	55                   	push   ebp
 804ad11:	ff 74 24 24          	push   DWORD PTR [esp+0x24]
 804ad15:	ff 74 24 6c          	push   DWORD PTR [esp+0x6c]
 804ad19:	e8 d2 d7 ff ff       	call   80484f0
 804ad1e:	8b 44 24 30          	mov    eax,DWORD PTR [esp+0x30]
 804ad22:	89 44 24 2c          	mov    DWORD PTR [esp+0x2c],eax
 804ad26:	83 c4 10             	add    esp,0x10
 804ad29:	83 fd 01             	cmp    ebp,0x1
 804ad2c:	75 82                	jne    804acb0
 804ad2e:	8b 6c 24 2c          	mov    ebp,DWORD PTR [esp+0x2c]
 804ad32:	c7 44 24 1c 00 00 00 	mov    DWORD PTR [esp+0x1c],0x0
 804ad39:	00 
 804ad3a:	8d b6 00 00 00 00    	lea    esi,[esi]
 804ad40:	8b 7c 24 1c          	mov    edi,DWORD PTR [esp+0x1c]
 804ad44:	d1 fd                	sar    ebp,1
 804ad46:	89 f8                	mov    eax,edi
 804ad48:	01 e8                	add    eax,ebp
 804ad4a:	39 c7                	cmp    edi,eax
 804ad4c:	89 44 24 20          	mov    DWORD PTR [esp+0x20],eax
 804ad50:	7d 54                	jge    804ada6
 804ad52:	89 c3                	mov    ebx,eax
 804ad54:	8b 44 24 60          	mov    eax,DWORD PTR [esp+0x60]
 804ad58:	8d 14 b8             	lea    edx,[eax+edi*4]
 804ad5b:	8d 04 98             	lea    eax,[eax+ebx*4]
 804ad5e:	89 44 24 0c          	mov    DWORD PTR [esp+0xc],eax
 804ad62:	8d 04 ad 00 00 00 00 	lea    eax,[ebp*4]
 804ad69:	89 44 24 10          	mov    DWORD PTR [esp+0x10],eax
 804ad6d:	b8 01 00 00 00       	mov    eax,0x1
 804ad72:	8d b6 00 00 00 00    	lea    esi,[esi]
 804ad78:	8b 0c aa             	mov    ecx,DWORD PTR [edx+ebp*4]
 804ad7b:	31 db                	xor    ebx,ebx
 804ad7d:	39 0a                	cmp    DWORD PTR [edx],ecx
 804ad7f:	8b 7c 24 10          	mov    edi,DWORD PTR [esp+0x10]
 804ad83:	0f 9f c3             	setg   bl
 804ad86:	8d 34 3a             	lea    esi,[edx+edi]
 804ad89:	89 d7                	mov    edi,edx
 804ad8b:	39 c3                	cmp    ebx,eax
 804ad8d:	8b 07                	mov    eax,DWORD PTR [edi]
 804ad8f:	8b 1e                	mov    ebx,DWORD PTR [esi]
 804ad91:	89 c1                	mov    ecx,eax
 804ad93:	0f 44 c3             	cmove  eax,ebx
 804ad96:	0f 44 d9             	cmove  ebx,ecx
 804ad99:	89 07                	mov    DWORD PTR [edi],eax
 804ad9b:	89 1e                	mov    DWORD PTR [esi],ebx
 804ad9d:	83 c2 04             	add    edx,0x4
 804ada0:	3b 54 24 0c          	cmp    edx,DWORD PTR [esp+0xc]
 804ada4:	75 d2                	jne    804ad78
 804ada6:	6a 01                	push   0x1
 804ada8:	55                   	push   ebp
 804ada9:	ff 74 24 24          	push   DWORD PTR [esp+0x24]
 804adad:	ff 74 24 6c          	push   DWORD PTR [esp+0x6c]
 804adb1:	e8 3a d7 ff ff       	call   80484f0
 804adb6:	8b 44 24 30          	mov    eax,DWORD PTR [esp+0x30]
 804adba:	89 44 24 2c          	mov    DWORD PTR [esp+0x2c],eax
 804adbe:	83 c4 10             	add    esp,0x10
 804adc1:	83 fd 01             	cmp    ebp,0x1
 804adc4:	0f 85 76 ff ff ff    	jne    804ad40
 804adca:	83 7c 24 18 01       	cmp    DWORD PTR [esp+0x18],0x1
 804adcf:	0f 84 b9 01 00 00    	je     804af8e
 804add5:	8b 44 24 64          	mov    eax,DWORD PTR [esp+0x64]
 804add9:	c1 f8 06             	sar    eax,0x6
 804addc:	83 f8 01             	cmp    eax,0x1
 804addf:	89 c3                	mov    ebx,eax
 804ade1:	89 44 24 24          	mov    DWORD PTR [esp+0x24],eax
 804ade5:	74 2f                	je     804ae16
 804ade7:	83 ec 0c             	sub    esp,0xc
 804adea:	89 c1                	mov    ecx,eax
 804adec:	6a 01                	push   0x1
 804adee:	8b 7c 24 3c          	mov    edi,DWORD PTR [esp+0x3c]
 804adf2:	8b 44 24 70          	mov    eax,DWORD PTR [esp+0x70]
 804adf6:	89 fa                	mov    edx,edi
 804adf8:	e8 b3 db ff ff       	call   80489b0
 804adfd:	8b 44 24 70          	mov    eax,DWORD PTR [esp+0x70]
 804ae01:	89 fa                	mov    edx,edi
 804ae03:	89 d9                	mov    ecx,ebx
 804ae05:	01 da                	add    edx,ebx
 804ae07:	c7 04 24 00 00 00 00 	mov    DWORD PTR [esp],0x0
 804ae0e:	e8 9d db ff ff       	call   80489b0
 804ae13:	83 c4 10             	add    esp,0x10
 804ae16:	8b 44 24 2c          	mov    eax,DWORD PTR [esp+0x2c]
 804ae1a:	8b 6c 24 18          	mov    ebp,DWORD PTR [esp+0x18]
 804ae1e:	89 44 24 1c          	mov    DWORD PTR [esp+0x1c],eax
 804ae22:	8d b6 00 00 00 00    	lea    esi,[esi]
 804ae28:	8b 5c 24 1c          	mov    ebx,DWORD PTR [esp+0x1c]
 804ae2c:	d1 fd                	sar    ebp,1
 804ae2e:	89 d8                	mov    eax,ebx
 804ae30:	01 e8                	add    eax,ebp
 804ae32:	39 c3                	cmp    ebx,eax
 804ae34:	89 44 24 20          	mov    DWORD PTR [esp+0x20],eax
 804ae38:	7d 54                	jge    804ae8e
 804ae3a:	89 c7                	mov    edi,eax
 804ae3c:	8b 44 24 60          	mov    eax,DWORD PTR [esp+0x60]
 804ae40:	8d 14 98             	lea    edx,[eax+ebx*4]
 804ae43:	8d 04 b8             	lea    eax,[eax+edi*4]
 804ae46:	89 44 24 0c          	mov    DWORD PTR [esp+0xc],eax
 804ae4a:	8d 04 ad 00 00 00 00 	lea    eax,[ebp*4]
 804ae51:	89 44 24 10          	mov    DWORD PTR [esp+0x10],eax
 804ae55:	b8 01 00 00 00       	mov    eax,0x1
 804ae5a:	8d b6 00 00 00 00    	lea    esi,[esi]
 804ae60:	8b 0c aa             	mov    ecx,DWORD PTR [edx+ebp*4]
 804ae63:	31 db                	xor    ebx,ebx
 804ae65:	39 0a                	cmp    DWORD PTR [edx],ecx
 804ae67:	8b 7c 24 10          	mov    edi,DWORD PTR [esp+0x10]
 804ae6b:	0f 9f c3             	setg   bl
 804ae6e:	8d 34 3a             	lea    esi,[edx+edi]
 804ae71:	89 d7                	mov    edi,edx
 804ae73:	39 c3                	cmp    ebx,eax
 804ae75:	8b 07                	mov    eax,DWORD PTR [edi]
 804ae77:	8b 1e                	mov    ebx,DWORD PTR [esi]
 804ae79:	89 c1                	mov    ecx,eax
 804ae7b:	0f 44 c3             	cmove  eax,ebx
 804ae7e:	0f 44 d9             	cmove  ebx,ecx
 804ae81:	89 07                	mov    DWORD PTR [edi],eax
 804ae83:	89 1e                	mov    DWORD PTR [esi],ebx
 804ae85:	83 c2 04             	add    edx,0x4
 804ae88:	3b 54 24 0c          	cmp    edx,DWORD PTR [esp+0xc]
 804ae8c:	75 d2                	jne    804ae60
 804ae8e:	6a 01                	push   0x1
 804ae90:	55                   	push   ebp
 804ae91:	ff 74 24 24          	push   DWORD PTR [esp+0x24]
 804ae95:	ff 74 24 6c          	push   DWORD PTR [esp+0x6c]
 804ae99:	e8 52 d6 ff ff       	call   80484f0
 804ae9e:	8b 44 24 30          	mov    eax,DWORD PTR [esp+0x30]
 804aea2:	89 44 24 2c          	mov    DWORD PTR [esp+0x2c],eax
 804aea6:	83 c4 10             	add    esp,0x10
 804aea9:	83 fd 01             	cmp    ebp,0x1
 804aeac:	0f 85 76 ff ff ff    	jne    804ae28
 804aeb2:	8b 44 24 2c          	mov    eax,DWORD PTR [esp+0x2c]
 804aeb6:	03 44 24 18          	add    eax,DWORD PTR [esp+0x18]
 804aeba:	83 7c 24 24 01       	cmp    DWORD PTR [esp+0x24],0x1
 804aebf:	89 44 24 10          	mov    DWORD PTR [esp+0x10],eax
 804aec3:	74 3b                	je     804af00
 804aec5:	83 ec 0c             	sub    esp,0xc
 804aec8:	6a 01                	push   0x1
 804aeca:	8b 5c 24 34          	mov    ebx,DWORD PTR [esp+0x34]
 804aece:	8b 7c 24 20          	mov    edi,DWORD PTR [esp+0x20]
 804aed2:	8b 44 24 70          	mov    eax,DWORD PTR [esp+0x70]
 804aed6:	89 d9                	mov    ecx,ebx
 804aed8:	89 fa                	mov    edx,edi
 804aeda:	e8 d1 da ff ff       	call   80489b0
 804aedf:	8b 44 24 70          	mov    eax,DWORD PTR [esp+0x70]
 804aee3:	89 da                	mov    edx,ebx
 804aee5:	89 d9                	mov    ecx,ebx
 804aee7:	01 fa                	add    edx,edi
 804aee9:	c7 04 24 00 00 00 00 	mov    DWORD PTR [esp],0x0
 804aef0:	e8 bb da ff ff       	call   80489b0
 804aef5:	83 c4 10             	add    esp,0x10
 804aef8:	90                   	nop
 804aef9:	8d b4 26 00 00 00 00 	lea    esi,[esi]
 804af00:	d1 7c 24 18          	sar    DWORD PTR [esp+0x18],1
 804af04:	8b 4c 24 10          	mov    ecx,DWORD PTR [esp+0x10]
 804af08:	8b 44 24 18          	mov    eax,DWORD PTR [esp+0x18]
 804af0c:	01 c8                	add    eax,ecx
 804af0e:	39 c1                	cmp    ecx,eax
 804af10:	89 44 24 1c          	mov    DWORD PTR [esp+0x1c],eax
 804af14:	7d 50                	jge    804af66
 804af16:	8b 44 24 60          	mov    eax,DWORD PTR [esp+0x60]
 804af1a:	8d 14 88             	lea    edx,[eax+ecx*4]
 804af1d:	8b 4c 24 1c          	mov    ecx,DWORD PTR [esp+0x1c]
 804af21:	8d 04 88             	lea    eax,[eax+ecx*4]
 804af24:	89 44 24 0c          	mov    DWORD PTR [esp+0xc],eax
 804af28:	8b 44 24 18          	mov    eax,DWORD PTR [esp+0x18]
 804af2c:	8d 2c 85 00 00 00 00 	lea    ebp,[eax*4]
 804af33:	31 c0                	xor    eax,eax
 804af35:	8d 76 00             	lea    esi,[esi]
 804af38:	8b 4c 24 18          	mov    ecx,DWORD PTR [esp+0x18]
 804af3c:	31 db                	xor    ebx,ebx
 804af3e:	8d 34 2a             	lea    esi,[edx+ebp]
 804af41:	8b 3c 8a             	mov    edi,DWORD PTR [edx+ecx*4]
 804af44:	39 3a                	cmp    DWORD PTR [edx],edi
 804af46:	89 d7                	mov    edi,edx
 804af48:	0f 9f c3             	setg   bl
 804af4b:	39 c3                	cmp    ebx,eax
 804af4d:	8b 07                	mov    eax,DWORD PTR [edi]
 804af4f:	8b 1e                	mov    ebx,DWORD PTR [esi]
 804af51:	89 c1                	mov    ecx,eax
 804af53:	0f 44 c3             	cmove  eax,ebx
 804af56:	0f 44 d9             	cmove  ebx,ecx
 804af59:	89 07                	mov    DWORD PTR [edi],eax
 804af5b:	89 1e                	mov    DWORD PTR [esi],ebx
 804af5d:	83 c2 04             	add    edx,0x4
 804af60:	3b 54 24 0c          	cmp    edx,DWORD PTR [esp+0xc]
 804af64:	75 d2                	jne    804af38
 804af66:	6a 00                	push   0x0
 804af68:	8b 7c 24 1c          	mov    edi,DWORD PTR [esp+0x1c]
 804af6c:	57                   	push   edi
 804af6d:	ff 74 24 18          	push   DWORD PTR [esp+0x18]
 804af71:	ff 74 24 6c          	push   DWORD PTR [esp+0x6c]
 804af75:	e8 76 d5 ff ff       	call   80484f0
 804af7a:	8b 44 24 2c          	mov    eax,DWORD PTR [esp+0x2c]
 804af7e:	89 44 24 20          	mov    DWORD PTR [esp+0x20],eax
 804af82:	83 c4 10             	add    esp,0x10
 804af85:	83 ff 01             	cmp    edi,0x1
 804af88:	0f 85 72 ff ff ff    	jne    804af00
 804af8e:	8b 44 24 2c          	mov    eax,DWORD PTR [esp+0x2c]
 804af92:	89 44 24 18          	mov    DWORD PTR [esp+0x18],eax
 804af96:	89 c5                	mov    ebp,eax
 804af98:	90                   	nop
 804af99:	8d b4 26 00 00 00 00 	lea    esi,[esi]
 804afa0:	8b 4c 24 18          	mov    ecx,DWORD PTR [esp+0x18]
 804afa4:	d1 fd                	sar    ebp,1
 804afa6:	89 c8                	mov    eax,ecx
 804afa8:	01 e8                	add    eax,ebp
 804afaa:	39 c1                	cmp    ecx,eax
 804afac:	89 44 24 1c          	mov    DWORD PTR [esp+0x1c],eax
 804afb0:	7d 54                	jge    804b006
 804afb2:	8b 44 24 60          	mov    eax,DWORD PTR [esp+0x60]
 804afb6:	8d 14 88             	lea    edx,[eax+ecx*4]
 804afb9:	8b 4c 24 1c          	mov    ecx,DWORD PTR [esp+0x1c]
 804afbd:	8d 04 88             	lea    eax,[eax+ecx*4]
 804afc0:	89 44 24 0c          	mov    DWORD PTR [esp+0xc],eax
 804afc4:	8d 04 ad 00 00 00 00 	lea    eax,[ebp*4]
 804afcb:	89 44 24 10          	mov    DWORD PTR [esp+0x10],eax
 804afcf:	31 c0                	xor    eax,eax
 804afd1:	8d b4 26 00 00 00 00 	lea    esi,[esi]
 804afd8:	8b 0c aa             	mov    ecx,DWORD PTR [edx+ebp*4]
 804afdb:	31 db                	xor    ebx,ebx
 804afdd:	39 0a                	cmp    DWORD PTR [edx],ecx
 804afdf:	8b 7c 24 10          	mov    edi,DWORD PTR [esp+0x10]
 804afe3:	0f 9f c3             	setg   bl
 804afe6:	8d 34 3a             	lea    esi,[edx+edi]
 804afe9:	89 d7                	mov    edi,edx
 804afeb:	39 c3                	cmp    ebx,eax
 804afed:	8b 07                	mov    eax,DWORD PTR [edi]
 804afef:	8b 1e                	mov    ebx,DWORD PTR [esi]
 804aff1:	89 c1                	mov    ecx,eax
 804aff3:	0f 44 c3             	cmove  eax,ebx
 804aff6:	0f 44 d9             	cmove  ebx,ecx
 804aff9:	89 07                	mov    DWORD PTR [edi],eax
 804affb:	89 1e                	mov    DWORD PTR [esi],ebx
 804affd:	83 c2 04             	add    edx,0x4
 804b000:	3b 54 24 0c          	cmp    edx,DWORD PTR [esp+0xc]
 804b004:	75 d2                	jne    804afd8
 804b006:	6a 00                	push   0x0
 804b008:	55                   	push   ebp
 804b009:	ff 74 24 20          	push   DWORD PTR [esp+0x20]
 804b00d:	ff 74 24 6c          	push   DWORD PTR [esp+0x6c]
 804b011:	e8 da d4 ff ff       	call   80484f0
 804b016:	8b 44 24 2c          	mov    eax,DWORD PTR [esp+0x2c]
 804b01a:	89 44 24 28          	mov    DWORD PTR [esp+0x28],eax
 804b01e:	83 c4 10             	add    esp,0x10
 804b021:	83 fd 01             	cmp    ebp,0x1
 804b024:	0f 85 76 ff ff ff    	jne    804afa0
 804b02a:	8b 6c 24 30          	mov    ebp,DWORD PTR [esp+0x30]
 804b02e:	c7 44 24 18 00 00 00 	mov    DWORD PTR [esp+0x18],0x0
 804b035:	00 
 804b036:	8d 76 00             	lea    esi,[esi]
 804b039:	8d bc 27 00 00 00 00 	lea    edi,[edi]
 804b040:	8b 4c 24 18          	mov    ecx,DWORD PTR [esp+0x18]
 804b044:	d1 fd                	sar    ebp,1
 804b046:	89 c8                	mov    eax,ecx
 804b048:	01 e8                	add    eax,ebp
 804b04a:	39 c1                	cmp    ecx,eax
 804b04c:	89 44 24 1c          	mov    DWORD PTR [esp+0x1c],eax
 804b050:	7d 54                	jge    804b0a6
 804b052:	89 c3                	mov    ebx,eax
 804b054:	8b 44 24 60          	mov    eax,DWORD PTR [esp+0x60]
 804b058:	8d 14 88             	lea    edx,[eax+ecx*4]
 804b05b:	8d 04 98             	lea    eax,[eax+ebx*4]
 804b05e:	89 44 24 0c          	mov    DWORD PTR [esp+0xc],eax
 804b062:	8d 04 ad 00 00 00 00 	lea    eax,[ebp*4]
 804b069:	89 44 24 10          	mov    DWORD PTR [esp+0x10],eax
 804b06d:	b8 01 00 00 00       	mov    eax,0x1
 804b072:	8d b6 00 00 00 00    	lea    esi,[esi]
 804b078:	8b 0c aa             	mov    ecx,DWORD PTR [edx+ebp*4]
 804b07b:	31 db                	xor    ebx,ebx
 804b07d:	39 0a                	cmp    DWORD PTR [edx],ecx
 804b07f:	8b 7c 24 10          	mov    edi,DWORD PTR [esp+0x10]
 804b083:	0f 9f c3             	setg   bl
 804b086:	8d 34 3a             	lea    esi,[edx+edi]
 804b089:	89 d7                	mov    edi,edx
 804b08b:	39 c3                	cmp    ebx,eax
 804b08d:	8b 07                	mov    eax,DWORD PTR [edi]
 804b08f:	8b 1e                	mov    ebx,DWORD PTR [esi]
 804b091:	89 c1                	mov    ecx,eax
 804b093:	0f 44 c3             	cmove  eax,ebx
 804b096:	0f 44 d9             	cmove  ebx,ecx
 804b099:	89 07                	mov    DWORD PTR [edi],eax
 804b09b:	89 1e                	mov    DWORD PTR [esi],ebx
 804b09d:	83 c2 04             	add    edx,0x4
 804b0a0:	3b 54 24 0c          	cmp    edx,DWORD PTR [esp+0xc]
 804b0a4:	75 d2                	jne    804b078
 804b0a6:	6a 01                	push   0x1
 804b0a8:	55                   	push   ebp
 804b0a9:	ff 74 24 20          	push   DWORD PTR [esp+0x20]
 804b0ad:	ff 74 24 6c          	push   DWORD PTR [esp+0x6c]
 804b0b1:	e8 3a d4 ff ff       	call   80484f0
 804b0b6:	8b 44 24 2c          	mov    eax,DWORD PTR [esp+0x2c]
 804b0ba:	89 44 24 28          	mov    DWORD PTR [esp+0x28],eax
 804b0be:	83 c4 10             	add    esp,0x10
 804b0c1:	83 fd 01             	cmp    ebp,0x1
 804b0c4:	0f 85 76 ff ff ff    	jne    804b040
 804b0ca:	83 7c 24 2c 01       	cmp    DWORD PTR [esp+0x2c],0x1
 804b0cf:	0f 84 b9 04 00 00    	je     804b58e
 804b0d5:	8b 44 24 64          	mov    eax,DWORD PTR [esp+0x64]
 804b0d9:	c1 f8 05             	sar    eax,0x5
 804b0dc:	83 f8 01             	cmp    eax,0x1
 804b0df:	89 44 24 18          	mov    DWORD PTR [esp+0x18],eax
 804b0e3:	0f 84 b9 01 00 00    	je     804b2a2
 804b0e9:	8b 44 24 64          	mov    eax,DWORD PTR [esp+0x64]
 804b0ed:	c1 f8 06             	sar    eax,0x6
 804b0f0:	83 f8 01             	cmp    eax,0x1
 804b0f3:	89 c7                	mov    edi,eax
 804b0f5:	89 44 24 24          	mov    DWORD PTR [esp+0x24],eax
 804b0f9:	74 2f                	je     804b12a
 804b0fb:	83 ec 0c             	sub    esp,0xc
 804b0fe:	89 c1                	mov    ecx,eax
 804b100:	6a 01                	push   0x1
 804b102:	8b 5c 24 40          	mov    ebx,DWORD PTR [esp+0x40]
 804b106:	8b 44 24 70          	mov    eax,DWORD PTR [esp+0x70]
 804b10a:	89 da                	mov    edx,ebx
 804b10c:	e8 9f d8 ff ff       	call   80489b0
 804b111:	8b 44 24 70          	mov    eax,DWORD PTR [esp+0x70]
 804b115:	89 da                	mov    edx,ebx
 804b117:	89 f9                	mov    ecx,edi
 804b119:	01 fa                	add    edx,edi
 804b11b:	c7 04 24 00 00 00 00 	mov    DWORD PTR [esp],0x0
 804b122:	e8 89 d8 ff ff       	call   80489b0
 804b127:	83 c4 10             	add    esp,0x10
 804b12a:	8b 44 24 30          	mov    eax,DWORD PTR [esp+0x30]
 804b12e:	8b 6c 24 18          	mov    ebp,DWORD PTR [esp+0x18]
 804b132:	89 44 24 1c          	mov    DWORD PTR [esp+0x1c],eax
 804b136:	8d 76 00             	lea    esi,[esi]
 804b139:	8d bc 27 00 00 00 00 	lea    edi,[edi]
 804b140:	8b 5c 24 1c          	mov    ebx,DWORD PTR [esp+0x1c]
 804b144:	d1 fd                	sar    ebp,1
 804b146:	89 d8                	mov    eax,ebx
 804b148:	01 e8                	add    eax,ebp
 804b14a:	39 c3                	cmp    ebx,eax
 804b14c:	89 44 24 20          	mov    DWORD PTR [esp+0x20],eax
 804b150:	7d 54                	jge    804b1a6
 804b152:	8b 44 24 60          	mov    eax,DWORD PTR [esp+0x60]
 804b156:	8d 14 98             	lea    edx,[eax+ebx*4]
 804b159:	8b 5c 24 20          	mov    ebx,DWORD PTR [esp+0x20]
 804b15d:	8d 04 98             	lea    eax,[eax+ebx*4]
 804b160:	89 44 24 0c          	mov    DWORD PTR [esp+0xc],eax
 804b164:	8d 04 ad 00 00 00 00 	lea    eax,[ebp*4]
 804b16b:	89 44 24 10          	mov    DWORD PTR [esp+0x10],eax
 804b16f:	b8 01 00 00 00       	mov    eax,0x1
 804b174:	8d 74 26 00          	lea    esi,[esi]
 804b178:	8b 0c aa             	mov    ecx,DWORD PTR [edx+ebp*4]
 804b17b:	31 db                	xor    ebx,ebx
 804b17d:	39 0a                	cmp    DWORD PTR [edx],ecx
 804b17f:	8b 7c 24 10          	mov    edi,DWORD PTR [esp+0x10]
 804b183:	0f 9f c3             	setg   bl
 804b186:	8d 34 3a             	lea    esi,[edx+edi]
 804b189:	89 d7                	mov    edi,edx
 804b18b:	39 c3                	cmp    ebx,eax
 804b18d:	8b 07                	mov    eax,DWORD PTR [edi]
 804b18f:	8b 1e                	mov    ebx,DWORD PTR [esi]
 804b191:	89 c1                	mov    ecx,eax
 804b193:	0f 44 c3             	cmove  eax,ebx
 804b196:	0f 44 d9             	cmove  ebx,ecx
 804b199:	89 07                	mov    DWORD PTR [edi],eax
 804b19b:	89 1e                	mov    DWORD PTR [esi],ebx
 804b19d:	83 c2 04             	add    edx,0x4
 804b1a0:	3b 54 24 0c          	cmp    edx,DWORD PTR [esp+0xc]
 804b1a4:	75 d2                	jne    804b178
 804b1a6:	6a 01                	push   0x1
 804b1a8:	55                   	push   ebp
 804b1a9:	ff 74 24 24          	push   DWORD PTR [esp+0x24]
 804b1ad:	ff 74 24 6c          	push   DWORD PTR [esp+0x6c]
 804b1b1:	e8 3a d3 ff ff       	call   80484f0
 804b1b6:	8b 44 24 30          	mov    eax,DWORD PTR [esp+0x30]
 804b1ba:	89 44 24 2c          	mov    DWORD PTR [esp+0x2c],eax
 804b1be:	83 c4 10             	add    esp,0x10
 804b1c1:	83 fd 01             	cmp    ebp,0x1
 804b1c4:	0f 85 76 ff ff ff    	jne    804b140
 804b1ca:	8b 44 24 30          	mov    eax,DWORD PTR [esp+0x30]
 804b1ce:	03 44 24 18          	add    eax,DWORD PTR [esp+0x18]
 804b1d2:	83 7c 24 24 01       	cmp    DWORD PTR [esp+0x24],0x1
 804b1d7:	89 44 24 1c          	mov    DWORD PTR [esp+0x1c],eax
 804b1db:	74 33                	je     804b210
 804b1dd:	83 ec 0c             	sub    esp,0xc
 804b1e0:	6a 01                	push   0x1
 804b1e2:	8b 7c 24 34          	mov    edi,DWORD PTR [esp+0x34]
 804b1e6:	8b 5c 24 2c          	mov    ebx,DWORD PTR [esp+0x2c]
 804b1ea:	8b 44 24 70          	mov    eax,DWORD PTR [esp+0x70]
 804b1ee:	89 f9                	mov    ecx,edi
 804b1f0:	89 da                	mov    edx,ebx
 804b1f2:	e8 b9 d7 ff ff       	call   80489b0
 804b1f7:	8b 44 24 70          	mov    eax,DWORD PTR [esp+0x70]
 804b1fb:	89 fa                	mov    edx,edi
 804b1fd:	89 f9                	mov    ecx,edi
 804b1ff:	01 da                	add    edx,ebx
 804b201:	c7 04 24 00 00 00 00 	mov    DWORD PTR [esp],0x0
 804b208:	e8 a3 d7 ff ff       	call   80489b0
 804b20d:	83 c4 10             	add    esp,0x10
 804b210:	8b 6c 24 18          	mov    ebp,DWORD PTR [esp+0x18]
 804b214:	8d 74 26 00          	lea    esi,[esi]
 804b218:	8b 7c 24 1c          	mov    edi,DWORD PTR [esp+0x1c]
 804b21c:	d1 fd                	sar    ebp,1
 804b21e:	89 f8                	mov    eax,edi
 804b220:	01 e8                	add    eax,ebp
 804b222:	39 c7                	cmp    edi,eax
 804b224:	89 44 24 20          	mov    DWORD PTR [esp+0x20],eax
 804b228:	7d 54                	jge    804b27e
 804b22a:	8b 44 24 60          	mov    eax,DWORD PTR [esp+0x60]
 804b22e:	8d 14 b8             	lea    edx,[eax+edi*4]
 804b231:	8b 7c 24 20          	mov    edi,DWORD PTR [esp+0x20]
 804b235:	8d 04 b8             	lea    eax,[eax+edi*4]
 804b238:	89 44 24 0c          	mov    DWORD PTR [esp+0xc],eax
 804b23c:	8d 04 ad 00 00 00 00 	lea    eax,[ebp*4]
 804b243:	89 44 24 10          	mov    DWORD PTR [esp+0x10],eax
 804b247:	31 c0                	xor    eax,eax
 804b249:	8d b4 26 00 00 00 00 	lea    esi,[esi]
 804b250:	8b 0c aa             	mov    ecx,DWORD PTR [edx+ebp*4]
 804b253:	31 db                	xor    ebx,ebx
 804b255:	39 0a                	cmp    DWORD PTR [edx],ecx
 804b257:	8b 7c 24 10          	mov    edi,DWORD PTR [esp+0x10]
 804b25b:	0f 9f c3             	setg   bl
 804b25e:	8d 34 3a             	lea    esi,[edx+edi]
 804b261:	89 d7                	mov    edi,edx
 804b263:	39 c3                	cmp    ebx,eax
 804b265:	8b 07                	mov    eax,DWORD PTR [edi]
 804b267:	8b 1e                	mov    ebx,DWORD PTR [esi]
 804b269:	89 c1                	mov    ecx,eax
 804b26b:	0f 44 c3             	cmove  eax,ebx
 804b26e:	0f 44 d9             	cmove  ebx,ecx
 804b271:	89 07                	mov    DWORD PTR [edi],eax
 804b273:	89 1e                	mov    DWORD PTR [esi],ebx
 804b275:	83 c2 04             	add    edx,0x4
 804b278:	3b 54 24 0c          	cmp    edx,DWORD PTR [esp+0xc]
 804b27c:	75 d2                	jne    804b250
 804b27e:	6a 00                	push   0x0
 804b280:	55                   	push   ebp
 804b281:	ff 74 24 24          	push   DWORD PTR [esp+0x24]
 804b285:	ff 74 24 6c          	push   DWORD PTR [esp+0x6c]
 804b289:	e8 62 d2 ff ff       	call   80484f0
 804b28e:	8b 44 24 30          	mov    eax,DWORD PTR [esp+0x30]
 804b292:	89 44 24 2c          	mov    DWORD PTR [esp+0x2c],eax
 804b296:	83 c4 10             	add    esp,0x10
 804b299:	83 fd 01             	cmp    ebp,0x1
 804b29c:	0f 85 76 ff ff ff    	jne    804b218
 804b2a2:	8b 44 24 30          	mov    eax,DWORD PTR [esp+0x30]
 804b2a6:	8b 6c 24 2c          	mov    ebp,DWORD PTR [esp+0x2c]
 804b2aa:	89 44 24 1c          	mov    DWORD PTR [esp+0x1c],eax
 804b2ae:	66 90                	xchg   ax,ax
 804b2b0:	8b 5c 24 1c          	mov    ebx,DWORD PTR [esp+0x1c]
 804b2b4:	d1 fd                	sar    ebp,1
 804b2b6:	89 d8                	mov    eax,ebx
 804b2b8:	01 e8                	add    eax,ebp
 804b2ba:	39 c3                	cmp    ebx,eax
 804b2bc:	89 44 24 20          	mov    DWORD PTR [esp+0x20],eax
 804b2c0:	7d 54                	jge    804b316
 804b2c2:	89 c7                	mov    edi,eax
 804b2c4:	8b 44 24 60          	mov    eax,DWORD PTR [esp+0x60]
 804b2c8:	8d 14 98             	lea    edx,[eax+ebx*4]
 804b2cb:	8d 04 b8             	lea    eax,[eax+edi*4]
 804b2ce:	89 44 24 0c          	mov    DWORD PTR [esp+0xc],eax
 804b2d2:	8d 04 ad 00 00 00 00 	lea    eax,[ebp*4]
 804b2d9:	89 44 24 10          	mov    DWORD PTR [esp+0x10],eax
 804b2dd:	b8 01 00 00 00       	mov    eax,0x1
 804b2e2:	8d b6 00 00 00 00    	lea    esi,[esi]
 804b2e8:	8b 0c aa             	mov    ecx,DWORD PTR [edx+ebp*4]
 804b2eb:	31 db                	xor    ebx,ebx
 804b2ed:	39 0a                	cmp    DWORD PTR [edx],ecx
 804b2ef:	8b 7c 24 10          	mov    edi,DWORD PTR [esp+0x10]
 804b2f3:	0f 9f c3             	setg   bl
 804b2f6:	8d 34 3a             	lea    esi,[edx+edi]
 804b2f9:	89 d7                	mov    edi,edx
 804b2fb:	39 c3                	cmp    ebx,eax
 804b2fd:	8b 07                	mov    eax,DWORD PTR [edi]
 804b2ff:	8b 1e                	mov    ebx,DWORD PTR [esi]
 804b301:	89 c1                	mov    ecx,eax
 804b303:	0f 44 c3             	cmove  eax,ebx
 804b306:	0f 44 d9             	cmove  ebx,ecx
 804b309:	89 07                	mov    DWORD PTR [edi],eax
 804b30b:	89 1e                	mov    DWORD PTR [esi],ebx
 804b30d:	83 c2 04             	add    edx,0x4
 804b310:	3b 54 24 0c          	cmp    edx,DWORD PTR [esp+0xc]
 804b314:	75 d2                	jne    804b2e8
 804b316:	6a 01                	push   0x1
 804b318:	55                   	push   ebp
 804b319:	ff 74 24 24          	push   DWORD PTR [esp+0x24]
 804b31d:	ff 74 24 6c          	push   DWORD PTR [esp+0x6c]
 804b321:	e8 ca d1 ff ff       	call   80484f0
 804b326:	8b 44 24 30          	mov    eax,DWORD PTR [esp+0x30]
 804b32a:	89 44 24 2c          	mov    DWORD PTR [esp+0x2c],eax
 804b32e:	83 c4 10             	add    esp,0x10
 804b331:	83 fd 01             	cmp    ebp,0x1
 804b334:	0f 85 76 ff ff ff    	jne    804b2b0
 804b33a:	8b 44 24 30          	mov    eax,DWORD PTR [esp+0x30]
 804b33e:	03 44 24 2c          	add    eax,DWORD PTR [esp+0x2c]
 804b342:	83 7c 24 18 01       	cmp    DWORD PTR [esp+0x18],0x1
 804b347:	89 44 24 1c          	mov    DWORD PTR [esp+0x1c],eax
 804b34b:	0f 84 b5 01 00 00    	je     804b506
 804b351:	8b 44 24 64          	mov    eax,DWORD PTR [esp+0x64]
 804b355:	c1 f8 06             	sar    eax,0x6
 804b358:	83 f8 01             	cmp    eax,0x1
 804b35b:	89 c7                	mov    edi,eax
 804b35d:	89 44 24 34          	mov    DWORD PTR [esp+0x34],eax
 804b361:	74 2f                	je     804b392
 804b363:	83 ec 0c             	sub    esp,0xc
 804b366:	89 c1                	mov    ecx,eax
 804b368:	6a 01                	push   0x1
 804b36a:	8b 5c 24 2c          	mov    ebx,DWORD PTR [esp+0x2c]
 804b36e:	8b 44 24 70          	mov    eax,DWORD PTR [esp+0x70]
 804b372:	89 da                	mov    edx,ebx
 804b374:	e8 37 d6 ff ff       	call   80489b0
 804b379:	8b 44 24 70          	mov    eax,DWORD PTR [esp+0x70]
 804b37d:	89 fa                	mov    edx,edi
 804b37f:	89 f9                	mov    ecx,edi
 804b381:	01 da                	add    edx,ebx
 804b383:	c7 04 24 00 00 00 00 	mov    DWORD PTR [esp],0x0
 804b38a:	e8 21 d6 ff ff       	call   80489b0
 804b38f:	83 c4 10             	add    esp,0x10
 804b392:	8b 44 24 1c          	mov    eax,DWORD PTR [esp+0x1c]
 804b396:	8b 6c 24 18          	mov    ebp,DWORD PTR [esp+0x18]
 804b39a:	89 44 24 20          	mov    DWORD PTR [esp+0x20],eax
 804b39e:	66 90                	xchg   ax,ax
 804b3a0:	8b 4c 24 20          	mov    ecx,DWORD PTR [esp+0x20]
 804b3a4:	d1 fd                	sar    ebp,1
 804b3a6:	89 c8                	mov    eax,ecx
 804b3a8:	01 e8                	add    eax,ebp
 804b3aa:	39 c1                	cmp    ecx,eax
 804b3ac:	89 44 24 24          	mov    DWORD PTR [esp+0x24],eax
 804b3b0:	7d 54                	jge    804b406
 804b3b2:	8b 44 24 60          	mov    eax,DWORD PTR [esp+0x60]
 804b3b6:	8d 14 88             	lea    edx,[eax+ecx*4]
 804b3b9:	8b 4c 24 24          	mov    ecx,DWORD PTR [esp+0x24]
 804b3bd:	8d 04 88             	lea    eax,[eax+ecx*4]
 804b3c0:	89 44 24 0c          	mov    DWORD PTR [esp+0xc],eax
 804b3c4:	8d 04 ad 00 00 00 00 	lea    eax,[ebp*4]
 804b3cb:	89 44 24 10          	mov    DWORD PTR [esp+0x10],eax
 804b3cf:	b8 01 00 00 00       	mov    eax,0x1
 804b3d4:	8d 74 26 00          	lea    esi,[esi]
 804b3d8:	8b 0c aa             	mov    ecx,DWORD PTR [edx+ebp*4]
 804b3db:	31 db                	xor    ebx,ebx
 804b3dd:	39 0a                	cmp    DWORD PTR [edx],ecx
 804b3df:	8b 7c 24 10          	mov    edi,DWORD PTR [esp+0x10]
 804b3e3:	0f 9f c3             	setg   bl
 804b3e6:	8d 34 3a             	lea    esi,[edx+edi]
 804b3e9:	89 d7                	mov    edi,edx
 804b3eb:	39 c3                	cmp    ebx,eax
 804b3ed:	8b 07                	mov    eax,DWORD PTR [edi]
 804b3ef:	8b 1e                	mov    ebx,DWORD PTR [esi]
 804b3f1:	89 c1                	mov    ecx,eax
 804b3f3:	0f 44 c3             	cmove  eax,ebx
 804b3f6:	0f 44 d9             	cmove  ebx,ecx
 804b3f9:	89 07                	mov    DWORD PTR [edi],eax
 804b3fb:	89 1e                	mov    DWORD PTR [esi],ebx
 804b3fd:	83 c2 04             	add    edx,0x4
 804b400:	3b 54 24 0c          	cmp    edx,DWORD PTR [esp+0xc]
 804b404:	75 d2                	jne    804b3d8
 804b406:	6a 01                	push   0x1
 804b408:	55                   	push   ebp
 804b409:	ff 74 24 28          	push   DWORD PTR [esp+0x28]
 804b40d:	ff 74 24 6c          	push   DWORD PTR [esp+0x6c]
 804b411:	e8 da d0 ff ff       	call   80484f0
 804b416:	8b 44 24 34          	mov    eax,DWORD PTR [esp+0x34]
 804b41a:	89 44 24 30          	mov    DWORD PTR [esp+0x30],eax
 804b41e:	83 c4 10             	add    esp,0x10
 804b421:	83 fd 01             	cmp    ebp,0x1
 804b424:	0f 85 76 ff ff ff    	jne    804b3a0
 804b42a:	8b 44 24 18          	mov    eax,DWORD PTR [esp+0x18]
 804b42e:	03 44 24 1c          	add    eax,DWORD PTR [esp+0x1c]
 804b432:	83 7c 24 34 01       	cmp    DWORD PTR [esp+0x34],0x1
 804b437:	89 44 24 10          	mov    DWORD PTR [esp+0x10],eax
 804b43b:	74 33                	je     804b470
 804b43d:	83 ec 0c             	sub    esp,0xc
 804b440:	6a 01                	push   0x1
 804b442:	8b 5c 24 44          	mov    ebx,DWORD PTR [esp+0x44]
 804b446:	8b 7c 24 20          	mov    edi,DWORD PTR [esp+0x20]
 804b44a:	8b 44 24 70          	mov    eax,DWORD PTR [esp+0x70]
 804b44e:	89 d9                	mov    ecx,ebx
 804b450:	89 fa                	mov    edx,edi
 804b452:	e8 59 d5 ff ff       	call   80489b0
 804b457:	8b 44 24 70          	mov    eax,DWORD PTR [esp+0x70]
 804b45b:	89 da                	mov    edx,ebx
 804b45d:	89 d9                	mov    ecx,ebx
 804b45f:	01 fa                	add    edx,edi
 804b461:	c7 04 24 00 00 00 00 	mov    DWORD PTR [esp],0x0
 804b468:	e8 43 d5 ff ff       	call   80489b0
 804b46d:	83 c4 10             	add    esp,0x10
 804b470:	d1 7c 24 18          	sar    DWORD PTR [esp+0x18],1
 804b474:	8b 5c 24 10          	mov    ebx,DWORD PTR [esp+0x10]
 804b478:	8b 4c 24 18          	mov    ecx,DWORD PTR [esp+0x18]
 804b47c:	89 d8                	mov    eax,ebx
 804b47e:	01 c8                	add    eax,ecx
 804b480:	39 c3                	cmp    ebx,eax
 804b482:	89 44 24 20          	mov    DWORD PTR [esp+0x20],eax
 804b486:	7d 56                	jge    804b4de
 804b488:	8b 44 24 60          	mov    eax,DWORD PTR [esp+0x60]
 804b48c:	8d 14 98             	lea    edx,[eax+ebx*4]
 804b48f:	8b 5c 24 20          	mov    ebx,DWORD PTR [esp+0x20]
 804b493:	8d 04 98             	lea    eax,[eax+ebx*4]
 804b496:	89 44 24 0c          	mov    DWORD PTR [esp+0xc],eax
 804b49a:	8b 44 24 18          	mov    eax,DWORD PTR [esp+0x18]
 804b49e:	8d 2c 85 00 00 00 00 	lea    ebp,[eax*4]
 804b4a5:	31 c0                	xor    eax,eax
 804b4a7:	89 f6                	mov    esi,esi
 804b4a9:	8d bc 27 00 00 00 00 	lea    edi,[edi]
 804b4b0:	8b 4c 24 18          	mov    ecx,DWORD PTR [esp+0x18]
 804b4b4:	31 db                	xor    ebx,ebx
 804b4b6:	8d 34 2a             	lea    esi,[edx+ebp]
 804b4b9:	8b 3c 8a             	mov    edi,DWORD PTR [edx+ecx*4]
 804b4bc:	39 3a                	cmp    DWORD PTR [edx],edi
 804b4be:	89 d7                	mov    edi,edx
 804b4c0:	0f 9f c3             	setg   bl
 804b4c3:	39 c3                	cmp    ebx,eax
 804b4c5:	8b 07                	mov    eax,DWORD PTR [edi]
 804b4c7:	8b 1e                	mov    ebx,DWORD PTR [esi]
 804b4c9:	89 c1                	mov    ecx,eax
 804b4cb:	0f 44 c3             	cmove  eax,ebx
 804b4ce:	0f 44 d9             	cmove  ebx,ecx
 804b4d1:	89 07                	mov    DWORD PTR [edi],eax
 804b4d3:	89 1e                	mov    DWORD PTR [esi],ebx
 804b4d5:	83 c2 04             	add    edx,0x4
 804b4d8:	3b 54 24 0c          	cmp    edx,DWORD PTR [esp+0xc]
 804b4dc:	75 d2                	jne    804b4b0
 804b4de:	6a 00                	push   0x0
 804b4e0:	8b 5c 24 1c          	mov    ebx,DWORD PTR [esp+0x1c]
 804b4e4:	53                   	push   ebx
 804b4e5:	ff 74 24 18          	push   DWORD PTR [esp+0x18]
 804b4e9:	ff 74 24 6c          	push   DWORD PTR [esp+0x6c]
 804b4ed:	e8 fe cf ff ff       	call   80484f0
 804b4f2:	8b 44 24 30          	mov    eax,DWORD PTR [esp+0x30]
 804b4f6:	89 44 24 20          	mov    DWORD PTR [esp+0x20],eax
 804b4fa:	83 c4 10             	add    esp,0x10
 804b4fd:	83 fb 01             	cmp    ebx,0x1
 804b500:	0f 85 6a ff ff ff    	jne    804b470
 804b506:	8b 6c 24 2c          	mov    ebp,DWORD PTR [esp+0x2c]
 804b50a:	8d b6 00 00 00 00    	lea    esi,[esi]
 804b510:	8b 7c 24 1c          	mov    edi,DWORD PTR [esp+0x1c]
 804b514:	d1 fd                	sar    ebp,1
 804b516:	89 f8                	mov    eax,edi
 804b518:	01 e8                	add    eax,ebp
 804b51a:	39 c7                	cmp    edi,eax
 804b51c:	89 44 24 18          	mov    DWORD PTR [esp+0x18],eax
 804b520:	7d 4c                	jge    804b56e
 804b522:	89 c3                	mov    ebx,eax
 804b524:	8b 44 24 60          	mov    eax,DWORD PTR [esp+0x60]
 804b528:	8d 14 b8             	lea    edx,[eax+edi*4]
 804b52b:	8d 04 98             	lea    eax,[eax+ebx*4]
 804b52e:	89 44 24 0c          	mov    DWORD PTR [esp+0xc],eax
 804b532:	8d 04 ad 00 00 00 00 	lea    eax,[ebp*4]
 804b539:	89 44 24 10          	mov    DWORD PTR [esp+0x10],eax
 804b53d:	31 c0                	xor    eax,eax
 804b53f:	90                   	nop
 804b540:	8b 0c aa             	mov    ecx,DWORD PTR [edx+ebp*4]
 804b543:	31 db                	xor    ebx,ebx
 804b545:	39 0a                	cmp    DWORD PTR [edx],ecx
 804b547:	8b 7c 24 10          	mov    edi,DWORD PTR [esp+0x10]
 804b54b:	0f 9f c3             	setg   bl
 804b54e:	8d 34 3a             	lea    esi,[edx+edi]
 804b551:	89 d7                	mov    edi,edx
 804b553:	39 c3                	cmp    ebx,eax
 804b555:	8b 07                	mov    eax,DWORD PTR [edi]
 804b557:	8b 1e                	mov    ebx,DWORD PTR [esi]
 804b559:	89 c1                	mov    ecx,eax
 804b55b:	0f 44 c3             	cmove  eax,ebx
 804b55e:	0f 44 d9             	cmove  ebx,ecx
 804b561:	89 07                	mov    DWORD PTR [edi],eax
 804b563:	89 1e                	mov    DWORD PTR [esi],ebx
 804b565:	83 c2 04             	add    edx,0x4
 804b568:	3b 54 24 0c          	cmp    edx,DWORD PTR [esp+0xc]
 804b56c:	75 d2                	jne    804b540
 804b56e:	6a 00                	push   0x0
 804b570:	55                   	push   ebp
 804b571:	ff 74 24 24          	push   DWORD PTR [esp+0x24]
 804b575:	ff 74 24 6c          	push   DWORD PTR [esp+0x6c]
 804b579:	e8 72 cf ff ff       	call   80484f0
 804b57e:	8b 44 24 28          	mov    eax,DWORD PTR [esp+0x28]
 804b582:	89 44 24 2c          	mov    DWORD PTR [esp+0x2c],eax
 804b586:	83 c4 10             	add    esp,0x10
 804b589:	83 fd 01             	cmp    ebp,0x1
 804b58c:	75 82                	jne    804b510
 804b58e:	8b 44 24 30          	mov    eax,DWORD PTR [esp+0x30]
 804b592:	89 44 24 18          	mov    DWORD PTR [esp+0x18],eax
 804b596:	89 c5                	mov    ebp,eax
 804b598:	90                   	nop
 804b599:	8d b4 26 00 00 00 00 	lea    esi,[esi]
 804b5a0:	8b 7c 24 18          	mov    edi,DWORD PTR [esp+0x18]
 804b5a4:	d1 fd                	sar    ebp,1
 804b5a6:	89 f8                	mov    eax,edi
 804b5a8:	01 e8                	add    eax,ebp
 804b5aa:	39 c7                	cmp    edi,eax
 804b5ac:	89 44 24 1c          	mov    DWORD PTR [esp+0x1c],eax
 804b5b0:	7d 54                	jge    804b606
 804b5b2:	8b 44 24 60          	mov    eax,DWORD PTR [esp+0x60]
 804b5b6:	8d 14 b8             	lea    edx,[eax+edi*4]
 804b5b9:	8b 7c 24 1c          	mov    edi,DWORD PTR [esp+0x1c]
 804b5bd:	8d 04 b8             	lea    eax,[eax+edi*4]
 804b5c0:	89 44 24 0c          	mov    DWORD PTR [esp+0xc],eax
 804b5c4:	8d 04 ad 00 00 00 00 	lea    eax,[ebp*4]
 804b5cb:	89 44 24 10          	mov    DWORD PTR [esp+0x10],eax
 804b5cf:	31 c0                	xor    eax,eax
 804b5d1:	8d b4 26 00 00 00 00 	lea    esi,[esi]
 804b5d8:	8b 0c aa             	mov    ecx,DWORD PTR [edx+ebp*4]
 804b5db:	31 db                	xor    ebx,ebx
 804b5dd:	39 0a                	cmp    DWORD PTR [edx],ecx
 804b5df:	8b 7c 24 10          	mov    edi,DWORD PTR [esp+0x10]
 804b5e3:	0f 9f c3             	setg   bl
 804b5e6:	8d 34 3a             	lea    esi,[edx+edi]
 804b5e9:	89 d7                	mov    edi,edx
 804b5eb:	39 c3                	cmp    ebx,eax
 804b5ed:	8b 07                	mov    eax,DWORD PTR [edi]
 804b5ef:	8b 1e                	mov    ebx,DWORD PTR [esi]
 804b5f1:	89 c1                	mov    ecx,eax
 804b5f3:	0f 44 c3             	cmove  eax,ebx
 804b5f6:	0f 44 d9             	cmove  ebx,ecx
 804b5f9:	89 07                	mov    DWORD PTR [edi],eax
 804b5fb:	89 1e                	mov    DWORD PTR [esi],ebx
 804b5fd:	83 c2 04             	add    edx,0x4
 804b600:	3b 54 24 0c          	cmp    edx,DWORD PTR [esp+0xc]
 804b604:	75 d2                	jne    804b5d8
 804b606:	6a 00                	push   0x0
 804b608:	55                   	push   ebp
 804b609:	ff 74 24 20          	push   DWORD PTR [esp+0x20]
 804b60d:	ff 74 24 6c          	push   DWORD PTR [esp+0x6c]
 804b611:	e8 da ce ff ff       	call   80484f0
 804b616:	8b 44 24 2c          	mov    eax,DWORD PTR [esp+0x2c]
 804b61a:	89 44 24 28          	mov    DWORD PTR [esp+0x28],eax
 804b61e:	83 c4 10             	add    esp,0x10
 804b621:	83 fd 01             	cmp    ebp,0x1
 804b624:	0f 85 76 ff ff ff    	jne    804b5a0
 804b62a:	8b 6c 24 28          	mov    ebp,DWORD PTR [esp+0x28]
 804b62e:	c7 44 24 18 00 00 00 	mov    DWORD PTR [esp+0x18],0x0
 804b635:	00 
 804b636:	8d 76 00             	lea    esi,[esi]
 804b639:	8d bc 27 00 00 00 00 	lea    edi,[edi]
 804b640:	8b 7c 24 18          	mov    edi,DWORD PTR [esp+0x18]
 804b644:	d1 fd                	sar    ebp,1
 804b646:	89 f8                	mov    eax,edi
 804b648:	01 e8                	add    eax,ebp
 804b64a:	39 c7                	cmp    edi,eax
 804b64c:	89 44 24 1c          	mov    DWORD PTR [esp+0x1c],eax
 804b650:	7d 54                	jge    804b6a6
 804b652:	89 c1                	mov    ecx,eax
 804b654:	8b 44 24 60          	mov    eax,DWORD PTR [esp+0x60]
 804b658:	8d 14 b8             	lea    edx,[eax+edi*4]
 804b65b:	8d 04 88             	lea    eax,[eax+ecx*4]
 804b65e:	89 44 24 0c          	mov    DWORD PTR [esp+0xc],eax
 804b662:	8d 04 ad 00 00 00 00 	lea    eax,[ebp*4]
 804b669:	89 44 24 10          	mov    DWORD PTR [esp+0x10],eax
 804b66d:	b8 01 00 00 00       	mov    eax,0x1
 804b672:	8d b6 00 00 00 00    	lea    esi,[esi]
 804b678:	8b 0c aa             	mov    ecx,DWORD PTR [edx+ebp*4]
 804b67b:	31 db                	xor    ebx,ebx
 804b67d:	39 0a                	cmp    DWORD PTR [edx],ecx
 804b67f:	8b 4c 24 10          	mov    ecx,DWORD PTR [esp+0x10]
 804b683:	89 d7                	mov    edi,edx
 804b685:	0f 9f c3             	setg   bl
 804b688:	8d 34 0a             	lea    esi,[edx+ecx]
 804b68b:	39 c3                	cmp    ebx,eax
 804b68d:	8b 07                	mov    eax,DWORD PTR [edi]
 804b68f:	8b 1e                	mov    ebx,DWORD PTR [esi]
 804b691:	89 c1                	mov    ecx,eax
 804b693:	0f 44 c3             	cmove  eax,ebx
 804b696:	0f 44 d9             	cmove  ebx,ecx
 804b699:	89 07                	mov    DWORD PTR [edi],eax
 804b69b:	89 1e                	mov    DWORD PTR [esi],ebx
 804b69d:	83 c2 04             	add    edx,0x4
 804b6a0:	3b 54 24 0c          	cmp    edx,DWORD PTR [esp+0xc]
 804b6a4:	75 d2                	jne    804b678
 804b6a6:	6a 01                	push   0x1
 804b6a8:	55                   	push   ebp
 804b6a9:	ff 74 24 20          	push   DWORD PTR [esp+0x20]
 804b6ad:	ff 74 24 6c          	push   DWORD PTR [esp+0x6c]
 804b6b1:	e8 3a ce ff ff       	call   80484f0
 804b6b6:	8b 44 24 2c          	mov    eax,DWORD PTR [esp+0x2c]
 804b6ba:	89 44 24 28          	mov    DWORD PTR [esp+0x28],eax
 804b6be:	83 c4 10             	add    esp,0x10
 804b6c1:	83 fd 01             	cmp    ebp,0x1
 804b6c4:	0f 85 76 ff ff ff    	jne    804b640
 804b6ca:	83 7c 24 30 01       	cmp    DWORD PTR [esp+0x30],0x1
 804b6cf:	0f 84 c9 0a 00 00    	je     804c19e
 804b6d5:	8b 44 24 64          	mov    eax,DWORD PTR [esp+0x64]
 804b6d9:	c1 f8 04             	sar    eax,0x4
 804b6dc:	83 f8 01             	cmp    eax,0x1
 804b6df:	89 44 24 34          	mov    DWORD PTR [esp+0x34],eax
 804b6e3:	0f 84 b9 04 00 00    	je     804bba2
 804b6e9:	8b 44 24 64          	mov    eax,DWORD PTR [esp+0x64]
 804b6ed:	c1 f8 05             	sar    eax,0x5
 804b6f0:	83 f8 01             	cmp    eax,0x1
 804b6f3:	89 44 24 18          	mov    DWORD PTR [esp+0x18],eax
 804b6f7:	0f 84 b5 01 00 00    	je     804b8b2
 804b6fd:	8b 44 24 64          	mov    eax,DWORD PTR [esp+0x64]
 804b701:	c1 f8 06             	sar    eax,0x6
 804b704:	83 f8 01             	cmp    eax,0x1
 804b707:	89 c3                	mov    ebx,eax
 804b709:	89 44 24 24          	mov    DWORD PTR [esp+0x24],eax
 804b70d:	74 2f                	je     804b73e
 804b70f:	83 ec 0c             	sub    esp,0xc
 804b712:	89 c1                	mov    ecx,eax
 804b714:	6a 01                	push   0x1
 804b716:	8b 7c 24 38          	mov    edi,DWORD PTR [esp+0x38]
 804b71a:	8b 44 24 70          	mov    eax,DWORD PTR [esp+0x70]
 804b71e:	89 fa                	mov    edx,edi
 804b720:	e8 8b d2 ff ff       	call   80489b0
 804b725:	8b 44 24 70          	mov    eax,DWORD PTR [esp+0x70]
 804b729:	89 fa                	mov    edx,edi
 804b72b:	89 d9                	mov    ecx,ebx
 804b72d:	01 da                	add    edx,ebx
 804b72f:	c7 04 24 00 00 00 00 	mov    DWORD PTR [esp],0x0
 804b736:	e8 75 d2 ff ff       	call   80489b0
 804b73b:	83 c4 10             	add    esp,0x10
 804b73e:	8b 44 24 28          	mov    eax,DWORD PTR [esp+0x28]
 804b742:	8b 6c 24 18          	mov    ebp,DWORD PTR [esp+0x18]
 804b746:	89 44 24 1c          	mov    DWORD PTR [esp+0x1c],eax
 804b74a:	8d b6 00 00 00 00    	lea    esi,[esi]
 804b750:	8b 7c 24 1c          	mov    edi,DWORD PTR [esp+0x1c]
 804b754:	d1 fd                	sar    ebp,1
 804b756:	89 f8                	mov    eax,edi
 804b758:	01 e8                	add    eax,ebp
 804b75a:	39 c7                	cmp    edi,eax
 804b75c:	89 44 24 20          	mov    DWORD PTR [esp+0x20],eax
 804b760:	7d 54                	jge    804b7b6
 804b762:	8b 44 24 60          	mov    eax,DWORD PTR [esp+0x60]
 804b766:	8d 14 b8             	lea    edx,[eax+edi*4]
 804b769:	8b 7c 24 20          	mov    edi,DWORD PTR [esp+0x20]
 804b76d:	8d 04 b8             	lea    eax,[eax+edi*4]
 804b770:	89 44 24 0c          	mov    DWORD PTR [esp+0xc],eax
 804b774:	8d 04 ad 00 00 00 00 	lea    eax,[ebp*4]
 804b77b:	89 44 24 10          	mov    DWORD PTR [esp+0x10],eax
 804b77f:	b8 01 00 00 00       	mov    eax,0x1
 804b784:	8d 74 26 00          	lea    esi,[esi]
 804b788:	8b 0c aa             	mov    ecx,DWORD PTR [edx+ebp*4]
 804b78b:	31 db                	xor    ebx,ebx
 804b78d:	39 0a                	cmp    DWORD PTR [edx],ecx
 804b78f:	8b 7c 24 10          	mov    edi,DWORD PTR [esp+0x10]
 804b793:	0f 9f c3             	setg   bl
 804b796:	8d 34 3a             	lea    esi,[edx+edi]
 804b799:	89 d7                	mov    edi,edx
 804b79b:	39 c3                	cmp    ebx,eax
 804b79d:	8b 07                	mov    eax,DWORD PTR [edi]
 804b79f:	8b 1e                	mov    ebx,DWORD PTR [esi]
 804b7a1:	89 c1                	mov    ecx,eax
 804b7a3:	0f 44 c3             	cmove  eax,ebx
 804b7a6:	0f 44 d9             	cmove  ebx,ecx
 804b7a9:	89 07                	mov    DWORD PTR [edi],eax
 804b7ab:	89 1e                	mov    DWORD PTR [esi],ebx
 804b7ad:	83 c2 04             	add    edx,0x4
 804b7b0:	3b 54 24 0c          	cmp    edx,DWORD PTR [esp+0xc]
 804b7b4:	75 d2                	jne    804b788
 804b7b6:	6a 01                	push   0x1
 804b7b8:	55                   	push   ebp
 804b7b9:	ff 74 24 24          	push   DWORD PTR [esp+0x24]
 804b7bd:	ff 74 24 6c          	push   DWORD PTR [esp+0x6c]
 804b7c1:	e8 2a cd ff ff       	call   80484f0
 804b7c6:	8b 44 24 30          	mov    eax,DWORD PTR [esp+0x30]
 804b7ca:	89 44 24 2c          	mov    DWORD PTR [esp+0x2c],eax
 804b7ce:	83 c4 10             	add    esp,0x10
 804b7d1:	83 fd 01             	cmp    ebp,0x1
 804b7d4:	0f 85 76 ff ff ff    	jne    804b750
 804b7da:	8b 44 24 28          	mov    eax,DWORD PTR [esp+0x28]
 804b7de:	03 44 24 18          	add    eax,DWORD PTR [esp+0x18]
 804b7e2:	83 7c 24 24 01       	cmp    DWORD PTR [esp+0x24],0x1
 804b7e7:	89 44 24 1c          	mov    DWORD PTR [esp+0x1c],eax
 804b7eb:	74 33                	je     804b820
 804b7ed:	83 ec 0c             	sub    esp,0xc
 804b7f0:	6a 01                	push   0x1
 804b7f2:	8b 7c 24 34          	mov    edi,DWORD PTR [esp+0x34]
 804b7f6:	8b 5c 24 2c          	mov    ebx,DWORD PTR [esp+0x2c]
 804b7fa:	8b 44 24 70          	mov    eax,DWORD PTR [esp+0x70]
 804b7fe:	89 f9                	mov    ecx,edi
 804b800:	89 da                	mov    edx,ebx
 804b802:	e8 a9 d1 ff ff       	call   80489b0
 804b807:	8b 44 24 70          	mov    eax,DWORD PTR [esp+0x70]
 804b80b:	89 fa                	mov    edx,edi
 804b80d:	89 f9                	mov    ecx,edi
 804b80f:	01 da                	add    edx,ebx
 804b811:	c7 04 24 00 00 00 00 	mov    DWORD PTR [esp],0x0
 804b818:	e8 93 d1 ff ff       	call   80489b0
 804b81d:	83 c4 10             	add    esp,0x10
 804b820:	8b 6c 24 18          	mov    ebp,DWORD PTR [esp+0x18]
 804b824:	8d 74 26 00          	lea    esi,[esi]
 804b828:	8b 5c 24 1c          	mov    ebx,DWORD PTR [esp+0x1c]
 804b82c:	d1 fd                	sar    ebp,1
 804b82e:	89 d8                	mov    eax,ebx
 804b830:	01 e8                	add    eax,ebp
 804b832:	39 c3                	cmp    ebx,eax
 804b834:	89 44 24 20          	mov    DWORD PTR [esp+0x20],eax
 804b838:	7d 54                	jge    804b88e
 804b83a:	89 c1                	mov    ecx,eax
 804b83c:	8b 44 24 60          	mov    eax,DWORD PTR [esp+0x60]
 804b840:	8d 14 98             	lea    edx,[eax+ebx*4]
 804b843:	8d 04 88             	lea    eax,[eax+ecx*4]
 804b846:	89 44 24 0c          	mov    DWORD PTR [esp+0xc],eax
 804b84a:	8d 04 ad 00 00 00 00 	lea    eax,[ebp*4]
 804b851:	89 44 24 10          	mov    DWORD PTR [esp+0x10],eax
 804b855:	31 c0                	xor    eax,eax
 804b857:	89 f6                	mov    esi,esi
 804b859:	8d bc 27 00 00 00 00 	lea    edi,[edi]
 804b860:	8b 0c aa             	mov    ecx,DWORD PTR [edx+ebp*4]
 804b863:	31 db                	xor    ebx,ebx
 804b865:	39 0a                	cmp    DWORD PTR [edx],ecx
 804b867:	8b 7c 24 10          	mov    edi,DWORD PTR [esp+0x10]
 804b86b:	0f 9f c3             	setg   bl
 804b86e:	8d 34 3a             	lea    esi,[edx+edi]
 804b871:	89 d7                	mov    edi,edx
 804b873:	39 c3                	cmp    ebx,eax
 804b875:	8b 07                	mov    eax,DWORD PTR [edi]
 804b877:	8b 1e                	mov    ebx,DWORD PTR [esi]
 804b879:	89 c1                	mov    ecx,eax
 804b87b:	0f 44 c3             	cmove  eax,ebx
 804b87e:	0f 44 d9             	cmove  ebx,ecx
 804b881:	89 07                	mov    DWORD PTR [edi],eax
 804b883:	89 1e                	mov    DWORD PTR [esi],ebx
 804b885:	83 c2 04             	add    edx,0x4
 804b888:	3b 54 24 0c          	cmp    edx,DWORD PTR [esp+0xc]
 804b88c:	75 d2                	jne    804b860
 804b88e:	6a 00                	push   0x0
 804b890:	55                   	push   ebp
 804b891:	ff 74 24 24          	push   DWORD PTR [esp+0x24]
 804b895:	ff 74 24 6c          	push   DWORD PTR [esp+0x6c]
 804b899:	e8 52 cc ff ff       	call   80484f0
 804b89e:	8b 44 24 30          	mov    eax,DWORD PTR [esp+0x30]
 804b8a2:	89 44 24 2c          	mov    DWORD PTR [esp+0x2c],eax
 804b8a6:	83 c4 10             	add    esp,0x10
 804b8a9:	83 fd 01             	cmp    ebp,0x1
 804b8ac:	0f 85 76 ff ff ff    	jne    804b828
 804b8b2:	8b 44 24 28          	mov    eax,DWORD PTR [esp+0x28]
 804b8b6:	8b 6c 24 34          	mov    ebp,DWORD PTR [esp+0x34]
 804b8ba:	89 44 24 1c          	mov    DWORD PTR [esp+0x1c],eax
 804b8be:	66 90                	xchg   ax,ax
 804b8c0:	8b 4c 24 1c          	mov    ecx,DWORD PTR [esp+0x1c]
 804b8c4:	d1 fd                	sar    ebp,1
 804b8c6:	89 c8                	mov    eax,ecx
 804b8c8:	01 e8                	add    eax,ebp
 804b8ca:	39 c1                	cmp    ecx,eax
 804b8cc:	89 44 24 20          	mov    DWORD PTR [esp+0x20],eax
 804b8d0:	7d 54                	jge    804b926
 804b8d2:	8b 44 24 60          	mov    eax,DWORD PTR [esp+0x60]
 804b8d6:	8d 14 88             	lea    edx,[eax+ecx*4]
 804b8d9:	8b 4c 24 20          	mov    ecx,DWORD PTR [esp+0x20]
 804b8dd:	8d 04 88             	lea    eax,[eax+ecx*4]
 804b8e0:	89 44 24 0c          	mov    DWORD PTR [esp+0xc],eax
 804b8e4:	8d 04 ad 00 00 00 00 	lea    eax,[ebp*4]
 804b8eb:	89 44 24 10          	mov    DWORD PTR [esp+0x10],eax
 804b8ef:	b8 01 00 00 00       	mov    eax,0x1
 804b8f4:	8d 74 26 00          	lea    esi,[esi]
 804b8f8:	8b 0c aa             	mov    ecx,DWORD PTR [edx+ebp*4]
 804b8fb:	31 db                	xor    ebx,ebx
 804b8fd:	39 0a                	cmp    DWORD PTR [edx],ecx
 804b8ff:	8b 7c 24 10          	mov    edi,DWORD PTR [esp+0x10]
 804b903:	0f 9f c3             	setg   bl
 804b906:	8d 34 3a             	lea    esi,[edx+edi]
 804b909:	89 d7                	mov    edi,edx
 804b90b:	39 c3                	cmp    ebx,eax
 804b90d:	8b 07                	mov    eax,DWORD PTR [edi]
 804b90f:	8b 1e                	mov    ebx,DWORD PTR [esi]
 804b911:	89 c1                	mov    ecx,eax
 804b913:	0f 44 c3             	cmove  eax,ebx
 804b916:	0f 44 d9             	cmove  ebx,ecx
 804b919:	89 07                	mov    DWORD PTR [edi],eax
 804b91b:	89 1e                	mov    DWORD PTR [esi],ebx
 804b91d:	83 c2 04             	add    edx,0x4
 804b920:	3b 54 24 0c          	cmp    edx,DWORD PTR [esp+0xc]
 804b924:	75 d2                	jne    804b8f8
 804b926:	6a 01                	push   0x1
 804b928:	55                   	push   ebp
 804b929:	ff 74 24 24          	push   DWORD PTR [esp+0x24]
 804b92d:	ff 74 24 6c          	push   DWORD PTR [esp+0x6c]
 804b931:	e8 ba cb ff ff       	call   80484f0
 804b936:	8b 44 24 30          	mov    eax,DWORD PTR [esp+0x30]
 804b93a:	89 44 24 2c          	mov    DWORD PTR [esp+0x2c],eax
 804b93e:	83 c4 10             	add    esp,0x10
 804b941:	83 fd 01             	cmp    ebp,0x1
 804b944:	0f 85 76 ff ff ff    	jne    804b8c0
 804b94a:	8b 44 24 28          	mov    eax,DWORD PTR [esp+0x28]
 804b94e:	03 44 24 34          	add    eax,DWORD PTR [esp+0x34]
 804b952:	83 7c 24 18 01       	cmp    DWORD PTR [esp+0x18],0x1
 804b957:	89 44 24 1c          	mov    DWORD PTR [esp+0x1c],eax
 804b95b:	0f 84 ad 01 00 00    	je     804bb0e
 804b961:	8b 44 24 64          	mov    eax,DWORD PTR [esp+0x64]
 804b965:	c1 f8 06             	sar    eax,0x6
 804b968:	83 f8 01             	cmp    eax,0x1
 804b96b:	89 c7                	mov    edi,eax
 804b96d:	89 44 24 2c          	mov    DWORD PTR [esp+0x2c],eax
 804b971:	74 2f                	je     804b9a2
 804b973:	83 ec 0c             	sub    esp,0xc
 804b976:	89 c1                	mov    ecx,eax
 804b978:	6a 01                	push   0x1
 804b97a:	8b 5c 24 2c          	mov    ebx,DWORD PTR [esp+0x2c]
 804b97e:	8b 44 24 70          	mov    eax,DWORD PTR [esp+0x70]
 804b982:	89 da                	mov    edx,ebx
 804b984:	e8 27 d0 ff ff       	call   80489b0
 804b989:	8b 44 24 70          	mov    eax,DWORD PTR [esp+0x70]
 804b98d:	89 fa                	mov    edx,edi
 804b98f:	89 f9                	mov    ecx,edi
 804b991:	01 da                	add    edx,ebx
 804b993:	c7 04 24 00 00 00 00 	mov    DWORD PTR [esp],0x0
 804b99a:	e8 11 d0 ff ff       	call   80489b0
 804b99f:	83 c4 10             	add    esp,0x10
 804b9a2:	8b 44 24 1c          	mov    eax,DWORD PTR [esp+0x1c]
 804b9a6:	8b 6c 24 18          	mov    ebp,DWORD PTR [esp+0x18]
 804b9aa:	89 44 24 20          	mov    DWORD PTR [esp+0x20],eax
 804b9ae:	66 90                	xchg   ax,ax
 804b9b0:	8b 4c 24 20          	mov    ecx,DWORD PTR [esp+0x20]
 804b9b4:	d1 fd                	sar    ebp,1
 804b9b6:	89 c8                	mov    eax,ecx
 804b9b8:	01 e8                	add    eax,ebp
 804b9ba:	39 c1                	cmp    ecx,eax
 804b9bc:	89 44 24 24          	mov    DWORD PTR [esp+0x24],eax
 804b9c0:	7d 54                	jge    804ba16
 804b9c2:	89 c3                	mov    ebx,eax
 804b9c4:	8b 44 24 60          	mov    eax,DWORD PTR [esp+0x60]
 804b9c8:	8d 14 88             	lea    edx,[eax+ecx*4]
 804b9cb:	8d 04 98             	lea    eax,[eax+ebx*4]
 804b9ce:	89 44 24 0c          	mov    DWORD PTR [esp+0xc],eax
 804b9d2:	8d 04 ad 00 00 00 00 	lea    eax,[ebp*4]
 804b9d9:	89 44 24 10          	mov    DWORD PTR [esp+0x10],eax
 804b9dd:	b8 01 00 00 00       	mov    eax,0x1
 804b9e2:	8d b6 00 00 00 00    	lea    esi,[esi]
 804b9e8:	8b 0c aa             	mov    ecx,DWORD PTR [edx+ebp*4]
 804b9eb:	31 db                	xor    ebx,ebx
 804b9ed:	39 0a                	cmp    DWORD PTR [edx],ecx
 804b9ef:	8b 7c 24 10          	mov    edi,DWORD PTR [esp+0x10]
 804b9f3:	0f 9f c3             	setg   bl
 804b9f6:	8d 34 3a             	lea    esi,[edx+edi]
 804b9f9:	89 d7                	mov    edi,edx
 804b9fb:	39 c3                	cmp    ebx,eax
 804b9fd:	8b 07                	mov    eax,DWORD PTR [edi]
 804b9ff:	8b 1e                	mov    ebx,DWORD PTR [esi]
 804ba01:	89 c1                	mov    ecx,eax
 804ba03:	0f 44 c3             	cmove  eax,ebx
 804ba06:	0f 44 d9             	cmove  ebx,ecx
 804ba09:	89 07                	mov    DWORD PTR [edi],eax
 804ba0b:	89 1e                	mov    DWORD PTR [esi],ebx
 804ba0d:	83 c2 04             	add    edx,0x4
 804ba10:	3b 54 24 0c          	cmp    edx,DWORD PTR [esp+0xc]
 804ba14:	75 d2                	jne    804b9e8
 804ba16:	6a 01                	push   0x1
 804ba18:	55                   	push   ebp
 804ba19:	ff 74 24 28          	push   DWORD PTR [esp+0x28]
 804ba1d:	ff 74 24 6c          	push   DWORD PTR [esp+0x6c]
 804ba21:	e8 ca ca ff ff       	call   80484f0
 804ba26:	8b 44 24 34          	mov    eax,DWORD PTR [esp+0x34]
 804ba2a:	89 44 24 30          	mov    DWORD PTR [esp+0x30],eax
 804ba2e:	83 c4 10             	add    esp,0x10
 804ba31:	83 fd 01             	cmp    ebp,0x1
 804ba34:	0f 85 76 ff ff ff    	jne    804b9b0
 804ba3a:	8b 44 24 18          	mov    eax,DWORD PTR [esp+0x18]
 804ba3e:	03 44 24 1c          	add    eax,DWORD PTR [esp+0x1c]
 804ba42:	83 7c 24 2c 01       	cmp    DWORD PTR [esp+0x2c],0x1
 804ba47:	89 44 24 10          	mov    DWORD PTR [esp+0x10],eax
 804ba4b:	74 33                	je     804ba80
 804ba4d:	83 ec 0c             	sub    esp,0xc
 804ba50:	6a 01                	push   0x1
 804ba52:	8b 5c 24 3c          	mov    ebx,DWORD PTR [esp+0x3c]
 804ba56:	8b 7c 24 20          	mov    edi,DWORD PTR [esp+0x20]
 804ba5a:	8b 44 24 70          	mov    eax,DWORD PTR [esp+0x70]
 804ba5e:	89 d9                	mov    ecx,ebx
 804ba60:	89 fa                	mov    edx,edi
 804ba62:	e8 49 cf ff ff       	call   80489b0
 804ba67:	8b 44 24 70          	mov    eax,DWORD PTR [esp+0x70]
 804ba6b:	89 da                	mov    edx,ebx
 804ba6d:	89 d9                	mov    ecx,ebx
 804ba6f:	01 fa                	add    edx,edi
 804ba71:	c7 04 24 00 00 00 00 	mov    DWORD PTR [esp],0x0
 804ba78:	e8 33 cf ff ff       	call   80489b0
 804ba7d:	83 c4 10             	add    esp,0x10
 804ba80:	d1 7c 24 18          	sar    DWORD PTR [esp+0x18],1
 804ba84:	8b 7c 24 10          	mov    edi,DWORD PTR [esp+0x10]
 804ba88:	8b 44 24 18          	mov    eax,DWORD PTR [esp+0x18]
 804ba8c:	01 f8                	add    eax,edi
 804ba8e:	39 c7                	cmp    edi,eax
 804ba90:	89 44 24 20          	mov    DWORD PTR [esp+0x20],eax
 804ba94:	7d 50                	jge    804bae6
 804ba96:	8b 44 24 60          	mov    eax,DWORD PTR [esp+0x60]
 804ba9a:	8d 14 b8             	lea    edx,[eax+edi*4]
 804ba9d:	8b 7c 24 20          	mov    edi,DWORD PTR [esp+0x20]
 804baa1:	8d 04 b8             	lea    eax,[eax+edi*4]
 804baa4:	89 44 24 0c          	mov    DWORD PTR [esp+0xc],eax
 804baa8:	8b 44 24 18          	mov    eax,DWORD PTR [esp+0x18]
 804baac:	8d 2c 85 00 00 00 00 	lea    ebp,[eax*4]
 804bab3:	31 c0                	xor    eax,eax
 804bab5:	8d 76 00             	lea    esi,[esi]
 804bab8:	8b 4c 24 18          	mov    ecx,DWORD PTR [esp+0x18]
 804babc:	31 db                	xor    ebx,ebx
 804babe:	8d 34 2a             	lea    esi,[edx+ebp]
 804bac1:	8b 3c 8a             	mov    edi,DWORD PTR [edx+ecx*4]
 804bac4:	39 3a                	cmp    DWORD PTR [edx],edi
 804bac6:	89 d7                	mov    edi,edx
 804bac8:	0f 9f c3             	setg   bl
 804bacb:	39 c3                	cmp    ebx,eax
 804bacd:	8b 07                	mov    eax,DWORD PTR [edi]
 804bacf:	8b 1e                	mov    ebx,DWORD PTR [esi]
 804bad1:	89 c1                	mov    ecx,eax
 804bad3:	0f 44 c3             	cmove  eax,ebx
 804bad6:	0f 44 d9             	cmove  ebx,ecx
 804bad9:	89 07                	mov    DWORD PTR [edi],eax
 804badb:	89 1e                	mov    DWORD PTR [esi],ebx
 804badd:	83 c2 04             	add    edx,0x4
 804bae0:	3b 54 24 0c          	cmp    edx,DWORD PTR [esp+0xc]
 804bae4:	75 d2                	jne    804bab8
 804bae6:	6a 00                	push   0x0
 804bae8:	8b 5c 24 1c          	mov    ebx,DWORD PTR [esp+0x1c]
 804baec:	53                   	push   ebx
 804baed:	ff 74 24 18          	push   DWORD PTR [esp+0x18]
 804baf1:	ff 74 24 6c          	push   DWORD PTR [esp+0x6c]
 804baf5:	e8 f6 c9 ff ff       	call   80484f0
 804bafa:	8b 44 24 30          	mov    eax,DWORD PTR [esp+0x30]
 804bafe:	89 44 24 20          	mov    DWORD PTR [esp+0x20],eax
 804bb02:	83 c4 10             	add    esp,0x10
 804bb05:	83 fb 01             	cmp    ebx,0x1
 804bb08:	0f 85 72 ff ff ff    	jne    804ba80
 804bb0e:	8b 6c 24 34          	mov    ebp,DWORD PTR [esp+0x34]
 804bb12:	8d b6 00 00 00 00    	lea    esi,[esi]
 804bb18:	8b 5c 24 1c          	mov    ebx,DWORD PTR [esp+0x1c]
 804bb1c:	d1 fd                	sar    ebp,1
 804bb1e:	89 d8                	mov    eax,ebx
 804bb20:	01 e8                	add    eax,ebp
 804bb22:	39 c3                	cmp    ebx,eax
 804bb24:	89 44 24 18          	mov    DWORD PTR [esp+0x18],eax
 804bb28:	7d 54                	jge    804bb7e
 804bb2a:	89 c7                	mov    edi,eax
 804bb2c:	8b 44 24 60          	mov    eax,DWORD PTR [esp+0x60]
 804bb30:	8d 14 98             	lea    edx,[eax+ebx*4]
 804bb33:	8d 04 b8             	lea    eax,[eax+edi*4]
 804bb36:	89 44 24 0c          	mov    DWORD PTR [esp+0xc],eax
 804bb3a:	8d 04 ad 00 00 00 00 	lea    eax,[ebp*4]
 804bb41:	89 44 24 10          	mov    DWORD PTR [esp+0x10],eax
 804bb45:	31 c0                	xor    eax,eax
 804bb47:	89 f6                	mov    esi,esi
 804bb49:	8d bc 27 00 00 00 00 	lea    edi,[edi]
 804bb50:	8b 0c aa             	mov    ecx,DWORD PTR [edx+ebp*4]
 804bb53:	31 db                	xor    ebx,ebx
 804bb55:	39 0a                	cmp    DWORD PTR [edx],ecx
 804bb57:	8b 7c 24 10          	mov    edi,DWORD PTR [esp+0x10]
 804bb5b:	0f 9f c3             	setg   bl
 804bb5e:	8d 34 3a             	lea    esi,[edx+edi]
 804bb61:	89 d7                	mov    edi,edx
 804bb63:	39 c3                	cmp    ebx,eax
 804bb65:	8b 07                	mov    eax,DWORD PTR [edi]
 804bb67:	8b 1e                	mov    ebx,DWORD PTR [esi]
 804bb69:	89 c1                	mov    ecx,eax
 804bb6b:	0f 44 c3             	cmove  eax,ebx
 804bb6e:	0f 44 d9             	cmove  ebx,ecx
 804bb71:	89 07                	mov    DWORD PTR [edi],eax
 804bb73:	89 1e                	mov    DWORD PTR [esi],ebx
 804bb75:	83 c2 04             	add    edx,0x4
 804bb78:	3b 54 24 0c          	cmp    edx,DWORD PTR [esp+0xc]
 804bb7c:	75 d2                	jne    804bb50
 804bb7e:	6a 00                	push   0x0
 804bb80:	55                   	push   ebp
 804bb81:	ff 74 24 24          	push   DWORD PTR [esp+0x24]
 804bb85:	ff 74 24 6c          	push   DWORD PTR [esp+0x6c]
 804bb89:	e8 62 c9 ff ff       	call   80484f0
 804bb8e:	8b 44 24 28          	mov    eax,DWORD PTR [esp+0x28]
 804bb92:	89 44 24 2c          	mov    DWORD PTR [esp+0x2c],eax
 804bb96:	83 c4 10             	add    esp,0x10
 804bb99:	83 fd 01             	cmp    ebp,0x1
 804bb9c:	0f 85 76 ff ff ff    	jne    804bb18
 804bba2:	8b 44 24 28          	mov    eax,DWORD PTR [esp+0x28]
 804bba6:	8b 6c 24 30          	mov    ebp,DWORD PTR [esp+0x30]
 804bbaa:	89 44 24 18          	mov    DWORD PTR [esp+0x18],eax
 804bbae:	66 90                	xchg   ax,ax
 804bbb0:	8b 5c 24 18          	mov    ebx,DWORD PTR [esp+0x18]
 804bbb4:	d1 fd                	sar    ebp,1
 804bbb6:	89 d8                	mov    eax,ebx
 804bbb8:	01 e8                	add    eax,ebp
 804bbba:	39 c3                	cmp    ebx,eax
 804bbbc:	89 44 24 1c          	mov    DWORD PTR [esp+0x1c],eax
 804bbc0:	7d 54                	jge    804bc16
 804bbc2:	89 c1                	mov    ecx,eax
 804bbc4:	8b 44 24 60          	mov    eax,DWORD PTR [esp+0x60]
 804bbc8:	8d 14 98             	lea    edx,[eax+ebx*4]
 804bbcb:	8d 04 88             	lea    eax,[eax+ecx*4]
 804bbce:	89 44 24 0c          	mov    DWORD PTR [esp+0xc],eax
 804bbd2:	8d 04 ad 00 00 00 00 	lea    eax,[ebp*4]
 804bbd9:	89 44 24 10          	mov    DWORD PTR [esp+0x10],eax
 804bbdd:	b8 01 00 00 00       	mov    eax,0x1
 804bbe2:	8d b6 00 00 00 00    	lea    esi,[esi]
 804bbe8:	8b 0c aa             	mov    ecx,DWORD PTR [edx+ebp*4]
 804bbeb:	31 db                	xor    ebx,ebx
 804bbed:	39 0a                	cmp    DWORD PTR [edx],ecx
 804bbef:	8b 7c 24 10          	mov    edi,DWORD PTR [esp+0x10]
 804bbf3:	0f 9f c3             	setg   bl
 804bbf6:	8d 34 3a             	lea    esi,[edx+edi]
 804bbf9:	89 d7                	mov    edi,edx
 804bbfb:	39 c3                	cmp    ebx,eax
 804bbfd:	8b 07                	mov    eax,DWORD PTR [edi]
 804bbff:	8b 1e                	mov    ebx,DWORD PTR [esi]
 804bc01:	89 c1                	mov    ecx,eax
 804bc03:	0f 44 c3             	cmove  eax,ebx
 804bc06:	0f 44 d9             	cmove  ebx,ecx
 804bc09:	89 07                	mov    DWORD PTR [edi],eax
 804bc0b:	89 1e                	mov    DWORD PTR [esi],ebx
 804bc0d:	83 c2 04             	add    edx,0x4
 804bc10:	3b 54 24 0c          	cmp    edx,DWORD PTR [esp+0xc]
 804bc14:	75 d2                	jne    804bbe8
 804bc16:	6a 01                	push   0x1
 804bc18:	55                   	push   ebp
 804bc19:	ff 74 24 20          	push   DWORD PTR [esp+0x20]
 804bc1d:	ff 74 24 6c          	push   DWORD PTR [esp+0x6c]
 804bc21:	e8 ca c8 ff ff       	call   80484f0
 804bc26:	8b 44 24 2c          	mov    eax,DWORD PTR [esp+0x2c]
 804bc2a:	89 44 24 28          	mov    DWORD PTR [esp+0x28],eax
 804bc2e:	83 c4 10             	add    esp,0x10
 804bc31:	83 fd 01             	cmp    ebp,0x1
 804bc34:	0f 85 76 ff ff ff    	jne    804bbb0
 804bc3a:	8b 44 24 28          	mov    eax,DWORD PTR [esp+0x28]
 804bc3e:	03 44 24 30          	add    eax,DWORD PTR [esp+0x30]
 804bc42:	83 7c 24 34 01       	cmp    DWORD PTR [esp+0x34],0x1
 804bc47:	89 44 24 1c          	mov    DWORD PTR [esp+0x1c],eax
 804bc4b:	0f 84 c1 04 00 00    	je     804c112
 804bc51:	8b 44 24 64          	mov    eax,DWORD PTR [esp+0x64]
 804bc55:	c1 f8 05             	sar    eax,0x5
 804bc58:	83 f8 01             	cmp    eax,0x1
 804bc5b:	89 44 24 18          	mov    DWORD PTR [esp+0x18],eax
 804bc5f:	0f 84 b5 01 00 00    	je     804be1a
 804bc65:	8b 44 24 64          	mov    eax,DWORD PTR [esp+0x64]
 804bc69:	c1 f8 06             	sar    eax,0x6
 804bc6c:	83 f8 01             	cmp    eax,0x1
 804bc6f:	89 c3                	mov    ebx,eax
 804bc71:	89 44 24 2c          	mov    DWORD PTR [esp+0x2c],eax
 804bc75:	74 2f                	je     804bca6
 804bc77:	83 ec 0c             	sub    esp,0xc
 804bc7a:	89 c1                	mov    ecx,eax
 804bc7c:	6a 01                	push   0x1
 804bc7e:	8b 7c 24 2c          	mov    edi,DWORD PTR [esp+0x2c]
 804bc82:	8b 44 24 70          	mov    eax,DWORD PTR [esp+0x70]
 804bc86:	89 fa                	mov    edx,edi
 804bc88:	e8 23 cd ff ff       	call   80489b0
 804bc8d:	8b 44 24 70          	mov    eax,DWORD PTR [esp+0x70]
 804bc91:	89 da                	mov    edx,ebx
 804bc93:	89 d9                	mov    ecx,ebx
 804bc95:	01 fa                	add    edx,edi
 804bc97:	c7 04 24 00 00 00 00 	mov    DWORD PTR [esp],0x0
 804bc9e:	e8 0d cd ff ff       	call   80489b0
 804bca3:	83 c4 10             	add    esp,0x10
 804bca6:	8b 44 24 1c          	mov    eax,DWORD PTR [esp+0x1c]
 804bcaa:	8b 6c 24 18          	mov    ebp,DWORD PTR [esp+0x18]
 804bcae:	89 44 24 20          	mov    DWORD PTR [esp+0x20],eax
 804bcb2:	8d b6 00 00 00 00    	lea    esi,[esi]
 804bcb8:	8b 4c 24 20          	mov    ecx,DWORD PTR [esp+0x20]
 804bcbc:	d1 fd                	sar    ebp,1
 804bcbe:	89 c8                	mov    eax,ecx
 804bcc0:	01 e8                	add    eax,ebp
 804bcc2:	39 c1                	cmp    ecx,eax
 804bcc4:	89 44 24 24          	mov    DWORD PTR [esp+0x24],eax
 804bcc8:	7d 54                	jge    804bd1e
 804bcca:	8b 44 24 60          	mov    eax,DWORD PTR [esp+0x60]
 804bcce:	8d 14 88             	lea    edx,[eax+ecx*4]
 804bcd1:	8b 4c 24 24          	mov    ecx,DWORD PTR [esp+0x24]
 804bcd5:	8d 04 88             	lea    eax,[eax+ecx*4]
 804bcd8:	89 44 24 0c          	mov    DWORD PTR [esp+0xc],eax
 804bcdc:	8d 04 ad 00 00 00 00 	lea    eax,[ebp*4]
 804bce3:	89 44 24 10          	mov    DWORD PTR [esp+0x10],eax
 804bce7:	b8 01 00 00 00       	mov    eax,0x1
 804bcec:	8d 74 26 00          	lea    esi,[esi]
 804bcf0:	8b 0c aa             	mov    ecx,DWORD PTR [edx+ebp*4]
 804bcf3:	31 db                	xor    ebx,ebx
 804bcf5:	39 0a                	cmp    DWORD PTR [edx],ecx
 804bcf7:	8b 7c 24 10          	mov    edi,DWORD PTR [esp+0x10]
 804bcfb:	0f 9f c3             	setg   bl
 804bcfe:	8d 34 3a             	lea    esi,[edx+edi]
 804bd01:	89 d7                	mov    edi,edx
 804bd03:	39 c3                	cmp    ebx,eax
 804bd05:	8b 07                	mov    eax,DWORD PTR [edi]
 804bd07:	8b 1e                	mov    ebx,DWORD PTR [esi]
 804bd09:	89 c1                	mov    ecx,eax
 804bd0b:	0f 44 c3             	cmove  eax,ebx
 804bd0e:	0f 44 d9             	cmove  ebx,ecx
 804bd11:	89 07                	mov    DWORD PTR [edi],eax
 804bd13:	89 1e                	mov    DWORD PTR [esi],ebx
 804bd15:	83 c2 04             	add    edx,0x4
 804bd18:	3b 54 24 0c          	cmp    edx,DWORD PTR [esp+0xc]
 804bd1c:	75 d2                	jne    804bcf0
 804bd1e:	6a 01                	push   0x1
 804bd20:	55                   	push   ebp
 804bd21:	ff 74 24 28          	push   DWORD PTR [esp+0x28]
 804bd25:	ff 74 24 6c          	push   DWORD PTR [esp+0x6c]
 804bd29:	e8 c2 c7 ff ff       	call   80484f0
 804bd2e:	8b 44 24 34          	mov    eax,DWORD PTR [esp+0x34]
 804bd32:	89 44 24 30          	mov    DWORD PTR [esp+0x30],eax
 804bd36:	83 c4 10             	add    esp,0x10
 804bd39:	83 fd 01             	cmp    ebp,0x1
 804bd3c:	0f 85 76 ff ff ff    	jne    804bcb8
 804bd42:	8b 44 24 18          	mov    eax,DWORD PTR [esp+0x18]
 804bd46:	03 44 24 1c          	add    eax,DWORD PTR [esp+0x1c]
 804bd4a:	83 7c 24 2c 01       	cmp    DWORD PTR [esp+0x2c],0x1
 804bd4f:	89 44 24 20          	mov    DWORD PTR [esp+0x20],eax
 804bd53:	74 33                	je     804bd88
 804bd55:	83 ec 0c             	sub    esp,0xc
 804bd58:	6a 01                	push   0x1
 804bd5a:	8b 7c 24 3c          	mov    edi,DWORD PTR [esp+0x3c]
 804bd5e:	8b 5c 24 30          	mov    ebx,DWORD PTR [esp+0x30]
 804bd62:	8b 44 24 70          	mov    eax,DWORD PTR [esp+0x70]
 804bd66:	89 f9                	mov    ecx,edi
 804bd68:	89 da                	mov    edx,ebx
 804bd6a:	e8 41 cc ff ff       	call   80489b0
 804bd6f:	8b 44 24 70          	mov    eax,DWORD PTR [esp+0x70]
 804bd73:	89 fa                	mov    edx,edi
 804bd75:	89 f9                	mov    ecx,edi
 804bd77:	01 da                	add    edx,ebx
 804bd79:	c7 04 24 00 00 00 00 	mov    DWORD PTR [esp],0x0
 804bd80:	e8 2b cc ff ff       	call   80489b0
