Disassembly of section .init:

080483f8 <_init>:
 80483f8:	53                   	push   ebx
 80483f9:	83 ec 08             	sub    esp,0x8
 80483fc:	e8 1f 01 00 00       	call   8048520
 8048401:	81 c3 ff 6b 00 00    	add    ebx,0x6bff
 8048407:	8b 83 fc ff ff ff    	mov    eax,DWORD PTR [ebx-0x4]
 804840d:	85 c0                	test   eax,eax
 804840f:	74 05                	je     8048416
 8048411:	e8 6a 00 00 00       	call   8048480
 8048416:	83 c4 08             	add    esp,0x8
 8048419:	5b                   	pop    ebx
 804841a:	c3                   	ret

Disassembly of section .plt:
 8048420:	ff 35 04 f0 04 08    	push   DWORD PTR ds:0x804f004
 8048426:	ff 25 08 f0 04 08    	jmp    DWORD PTR ds:0x804f008
 804842c:	00 00                	add    BYTE PTR [eax],al
 804842e:	00 00                	add    BYTE PTR [eax],al
 8048430:	ff 25 0c f0 04 08    	jmp    DWORD PTR ds:0x804f00c
 8048436:	68 00 00 00 00       	push   0x0
 804843b:	e9 e0 ff ff ff       	jmp    8048420
 8048440:	ff 25 10 f0 04 08    	jmp    DWORD PTR ds:0x804f010
 8048446:	68 08 00 00 00       	push   0x8
 804844b:	e9 d0 ff ff ff       	jmp    8048420
 8048450:	ff 25 14 f0 04 08    	jmp    DWORD PTR ds:0x804f014
 8048456:	68 10 00 00 00       	push   0x10
 804845b:	e9 c0 ff ff ff       	jmp    8048420
 8048460:	ff 25 18 f0 04 08    	jmp    DWORD PTR ds:0x804f018
 8048466:	68 18 00 00 00       	push   0x18
 804846b:	e9 b0 ff ff ff       	jmp    8048420
 8048470:	ff 25 1c f0 04 08    	jmp    DWORD PTR ds:0x804f01c
 8048476:	68 20 00 00 00       	push   0x20
 804847b:	e9 a0 ff ff ff       	jmp    8048420
 8048480:	ff 25 20 f0 04 08    	jmp    DWORD PTR ds:0x804f020
 8048486:	68 28 00 00 00       	push   0x28
 804848b:	e9 90 ff ff ff       	jmp    8048420
 8048490:	ff 25 24 f0 04 08    	jmp    DWORD PTR ds:0x804f024
 8048496:	68 30 00 00 00       	push   0x30
 804849b:	e9 80 ff ff ff       	jmp    8048420
 80484a0:	ff 25 28 f0 04 08    	jmp    DWORD PTR ds:0x804f028
 80484a6:	68 38 00 00 00       	push   0x38
 80484ab:	e9 70 ff ff ff       	jmp    8048420
 80484b0:	ff 25 2c f0 04 08    	jmp    DWORD PTR ds:0x804f02c
 80484b6:	68 40 00 00 00       	push   0x40
 80484bb:	e9 60 ff ff ff       	jmp    8048420
 80484c0:	ff 25 30 f0 04 08    	jmp    DWORD PTR ds:0x804f030
 80484c6:	68 48 00 00 00       	push   0x48
 80484cb:	e9 50 ff ff ff       	jmp    8048420
 80484d0:	ff 25 34 f0 04 08    	jmp    DWORD PTR ds:0x804f034
 80484d6:	68 50 00 00 00       	push   0x50
 80484db:	e9 40 ff ff ff       	jmp    8048420
 80484e0:	ff 25 38 f0 04 08    	jmp    DWORD PTR ds:0x804f038
 80484e6:	68 58 00 00 00       	push   0x58
 80484eb:	e9 30 ff ff ff       	jmp    8048420

Disassembly of section .text:

080484f0 <_start>:
 80484f0:	31 ed                	xor    ebp,ebp
 80484f2:	5e                   	pop    esi
 80484f3:	89 e1                	mov    ecx,esp
 80484f5:	83 e4 f0             	and    esp,0xf0
 80484f8:	50                   	push   eax
 80484f9:	54                   	push   esp
 80484fa:	52                   	push   edx
 80484fb:	68 d0 cb 04 08       	push   0x804cbd0
 8048500:	68 60 cb 04 08       	push   0x804cb60
 8048505:	51                   	push   ecx
 8048506:	56                   	push   esi
 8048507:	68 e6 c9 04 08       	push   0x804c9e6
 804850c:	e8 8f ff ff ff       	call   80484a0
 8048511:	f4                   	hlt
 8048512:	66 90                	xchg   ax,ax
 8048514:	66 90                	xchg   ax,ax
 8048516:	66 90                	xchg   ax,ax
 8048518:	66 90                	xchg   ax,ax
 804851a:	66 90                	xchg   ax,ax
 804851c:	66 90                	xchg   ax,ax
 804851e:	66 90                	xchg   ax,ax

08048520 <__x86.get_pc_thunk.bx>:
 8048520:	8b 1c 24             	mov    ebx,DWORD PTR [esp]
 8048523:	c3                   	ret
 8048524:	66 90                	xchg   ax,ax
 8048526:	66 90                	xchg   ax,ax
 8048528:	66 90                	xchg   ax,ax
 804852a:	66 90                	xchg   ax,ax
 804852c:	66 90                	xchg   ax,ax
 804852e:	66 90                	xchg   ax,ax

08048530 <deregister_tm_clones>:
 8048530:	b8 73 f0 04 08       	mov    eax,0x804f073
 8048535:	2d 70 f0 04 08       	sub    eax,0x804f070
 804853a:	83 f8 06             	cmp    eax,0x6
 804853d:	77 01                	ja     8048540
 804853f:	c3                   	ret
 8048540:	b8 00 00 00 00       	mov    eax,0x0
 8048545:	85 c0                	test   eax,eax
 8048547:	74 f6                	je     804853f
 8048549:	55                   	push   ebp
 804854a:	89 e5                	mov    ebp,esp
 804854c:	83 ec 18             	sub    esp,0x18
 804854f:	c7 04 24 70 f0 04 08 	mov    DWORD PTR [esp],0x804f070
 8048556:	ff d0                	call   eax
 8048558:	c9                   	leave
 8048559:	c3                   	ret
 804855a:	8d b6 00 00 00 00    	lea    esi,[esi]

08048560 <register_tm_clones>:
 8048560:	b8 70 f0 04 08       	mov    eax,0x804f070
 8048565:	2d 70 f0 04 08       	sub    eax,0x804f070
 804856a:	c1 f8 02             	sar    eax,0x2
 804856d:	89 c2                	mov    edx,eax
 804856f:	c1 ea 1f             	shr    edx,0x1f
 8048572:	01 d0                	add    eax,edx
 8048574:	d1 f8                	sar    eax,1
 8048576:	75 01                	jne    8048579
 8048578:	c3                   	ret
 8048579:	ba 00 00 00 00       	mov    edx,0x0
 804857e:	85 d2                	test   edx,edx
 8048580:	74 f6                	je     8048578
 8048582:	55                   	push   ebp
 8048583:	89 e5                	mov    ebp,esp
 8048585:	83 ec 18             	sub    esp,0x18
 8048588:	89 44 24 04          	mov    DWORD PTR [esp+0x4],eax
 804858c:	c7 04 24 70 f0 04 08 	mov    DWORD PTR [esp],0x804f070
 8048593:	ff d2                	call   edx
 8048595:	c9                   	leave
 8048596:	c3                   	ret
 8048597:	89 f6                	mov    esi,esi
 8048599:	8d bc 27 00 00 00 00 	lea    edi,[edi]

080485a0 <__do_global_dtors_aux>:
 80485a0:	80 3d 84 f0 04 08 00 	cmp    BYTE PTR ds:0x804f084,0x0
 80485a7:	75 13                	jne    80485bc
 80485a9:	55                   	push   ebp
 80485aa:	89 e5                	mov    ebp,esp
 80485ac:	83 ec 08             	sub    esp,0x8
 80485af:	e8 7c ff ff ff       	call   8048530
 80485b4:	c6 05 84 f0 04 08 01 	mov    BYTE PTR ds:0x804f084,0x1
 80485bb:	c9                   	leave
 80485bc:	f3 c3                	repz   ret
 80485be:	66 90                	xchg   ax,ax

080485c0 <frame_dummy>:
 80485c0:	a1 10 ef 04 08       	mov    eax,ds:0x804ef10
 80485c5:	85 c0                	test   eax,eax
 80485c7:	74 1f                	je     80485e8
 80485c9:	b8 00 00 00 00       	mov    eax,0x0
 80485ce:	85 c0                	test   eax,eax
 80485d0:	74 16                	je     80485e8
 80485d2:	55                   	push   ebp
 80485d3:	89 e5                	mov    ebp,esp
 80485d5:	83 ec 18             	sub    esp,0x18
 80485d8:	c7 04 24 10 ef 04 08 	mov    DWORD PTR [esp],0x804ef10
 80485df:	ff d0                	call   eax
 80485e1:	c9                   	leave
 80485e2:	e9 79 ff ff ff       	jmp    8048560
 80485e7:	90                   	nop
 80485e8:	e9 73 ff ff ff       	jmp    8048560

080485ed <GenRandLeaf>:
 80485ed:	55                   	push   ebp
 80485ee:	89 e5                	mov    ebp,esp
 80485f0:	83 ec 18             	sub    esp,0x18
 80485f3:	e8 c8 fe ff ff       	call   80484c0
 80485f8:	8b 0d 4c f1 04 08    	mov    ecx,DWORD PTR ds:0x804f14c
 80485fe:	99                   	cdq
 80485ff:	f7 f9                	idiv   ecx
 8048601:	89 55 f4             	mov    DWORD PTR [ebp-0xc],edx
 8048604:	8b 45 f4             	mov    eax,DWORD PTR [ebp-0xc]
 8048607:	c9                   	leave
 8048608:	c3                   	ret

08048609 <PushBack>:
 8048609:	55                   	push   ebp
 804860a:	89 e5                	mov    ebp,esp
 804860c:	53                   	push   ebx
 804860d:	83 ec 44             	sub    esp,0x44
 8048610:	8b 45 08             	mov    eax,DWORD PTR [ebp+0x8]
 8048613:	8b 55 14             	mov    edx,DWORD PTR [ebp+0x14]
 8048616:	89 54 24 04          	mov    DWORD PTR [esp+0x4],edx
 804861a:	89 04 24             	mov    DWORD PTR [esp],eax
 804861d:	e8 42 19 00 00       	call   8049f64
 8048622:	89 c3                	mov    ebx,eax
 8048624:	8b 45 0c             	mov    eax,DWORD PTR [ebp+0xc]
 8048627:	8b 55 14             	mov    edx,DWORD PTR [ebp+0x14]
 804862a:	89 54 24 04          	mov    DWORD PTR [esp+0x4],edx
 804862e:	89 04 24             	mov    DWORD PTR [esp],eax
 8048631:	e8 2e 19 00 00       	call   8049f64
 8048636:	31 d8                	xor    eax,ebx
 8048638:	89 45 dc             	mov    DWORD PTR [ebp-0x24],eax
 804863b:	8b 45 dc             	mov    eax,DWORD PTR [ebp-0x24]
 804863e:	f7 d8                	neg    eax
 8048640:	23 45 dc             	and    eax,DWORD PTR [ebp-0x24]
 8048643:	89 45 e0             	mov    DWORD PTR [ebp-0x20],eax
 8048646:	8b 45 e0             	mov    eax,DWORD PTR [ebp-0x20]
 8048649:	83 e8 01             	sub    eax,0x1
 804864c:	89 45 e4             	mov    DWORD PTR [ebp-0x1c],eax
 804864f:	c7 45 d4 00 00 00 00 	mov    DWORD PTR [ebp-0x2c],0x0
 8048656:	c7 45 d8 00 00 00 00 	mov    DWORD PTR [ebp-0x28],0x0
 804865d:	eb 2f                	jmp    804868e
 804865f:	8b 45 d8             	mov    eax,DWORD PTR [ebp-0x28]
 8048662:	8d 14 85 00 00 00 00 	lea    edx,[eax*4]
 8048669:	8b 45 10             	mov    eax,DWORD PTR [ebp+0x10]
 804866c:	01 d0                	add    eax,edx
 804866e:	8b 10                	mov    edx,DWORD PTR [eax]
 8048670:	a1 44 f1 04 08       	mov    eax,ds:0x804f144
 8048675:	39 c2                	cmp    edx,eax
 8048677:	75 11                	jne    804868a
 8048679:	8b 45 d8             	mov    eax,DWORD PTR [ebp-0x28]
 804867c:	ba 01 00 00 00       	mov    edx,0x1
 8048681:	89 c1                	mov    ecx,eax
 8048683:	d3 e2                	shl    edx,cl
 8048685:	89 d0                	mov    eax,edx
 8048687:	01 45 d4             	add    DWORD PTR [ebp-0x2c],eax
 804868a:	83 45 d8 01          	add    DWORD PTR [ebp-0x28],0x1
 804868e:	8b 45 d8             	mov    eax,DWORD PTR [ebp-0x28]
 8048691:	3b 45 14             	cmp    eax,DWORD PTR [ebp+0x14]
 8048694:	7c c9                	jl     804865f
 8048696:	8b 45 d4             	mov    eax,DWORD PTR [ebp-0x2c]
 8048699:	f7 d0                	not    eax
 804869b:	23 45 e4             	and    eax,DWORD PTR [ebp-0x1c]
 804869e:	89 45 e8             	mov    DWORD PTR [ebp-0x18],eax
 80486a1:	8b 45 e8             	mov    eax,DWORD PTR [ebp-0x18]
 80486a4:	8b 55 14             	mov    edx,DWORD PTR [ebp+0x14]
 80486a7:	89 54 24 04          	mov    DWORD PTR [esp+0x4],edx
 80486ab:	89 04 24             	mov    DWORD PTR [esp],eax
 80486ae:	e8 b1 18 00 00       	call   8049f64
 80486b3:	89 45 ec             	mov    DWORD PTR [ebp-0x14],eax
 80486b6:	8b 45 ec             	mov    eax,DWORD PTR [ebp-0x14]
 80486b9:	f7 d8                	neg    eax
 80486bb:	23 45 ec             	and    eax,DWORD PTR [ebp-0x14]
 80486be:	89 45 f0             	mov    DWORD PTR [ebp-0x10],eax
 80486c1:	8b 45 f0             	mov    eax,DWORD PTR [ebp-0x10]
 80486c4:	8b 55 14             	mov    edx,DWORD PTR [ebp+0x14]
 80486c7:	89 54 24 04          	mov    DWORD PTR [esp+0x4],edx
 80486cb:	89 04 24             	mov    DWORD PTR [esp],eax
 80486ce:	e8 91 18 00 00       	call   8049f64
 80486d3:	89 45 f4             	mov    DWORD PTR [ebp-0xc],eax
 80486d6:	83 7d e4 00          	cmp    DWORD PTR [ebp-0x1c],0x0
 80486da:	75 15                	jne    80486f1
 80486dc:	8b 45 10             	mov    eax,DWORD PTR [ebp+0x10]
 80486df:	8b 10                	mov    edx,DWORD PTR [eax]
 80486e1:	a1 44 f1 04 08       	mov    eax,ds:0x804f144
 80486e6:	39 c2                	cmp    edx,eax
 80486e8:	7d 07                	jge    80486f1
 80486ea:	b8 00 00 00 00       	mov    eax,0x0
 80486ef:	eb 18                	jmp    8048709
 80486f1:	83 7d f4 00          	cmp    DWORD PTR [ebp-0xc],0x0
 80486f5:	75 07                	jne    80486fe
 80486f7:	b8 ff ff ff ff       	mov    eax,0xffffffff
 80486fc:	eb 0b                	jmp    8048709
 80486fe:	8b 45 f4             	mov    eax,DWORD PTR [ebp-0xc]
 8048701:	89 04 24             	mov    DWORD PTR [esp],eax
 8048704:	e8 2f 18 00 00       	call   8049f38
 8048709:	83 c4 44             	add    esp,0x44
 804870c:	5b                   	pop    ebx
 804870d:	5d                   	pop    ebp
 804870e:	c3                   	ret

0804870f <Init_Stash>:
 804870f:	55                   	push   ebp
 8048710:	89 e5                	mov    ebp,esp
 8048712:	53                   	push   ebx
 8048713:	83 ec 24             	sub    esp,0x24
 8048716:	e8 b5 18 00 00       	call   8049fd0
 804871b:	89 45 f0             	mov    DWORD PTR [ebp-0x10],eax
 804871e:	89 55 f4             	mov    DWORD PTR [ebp-0xc],edx
 8048721:	8b 45 08             	mov    eax,DWORD PTR [ebp+0x8]
 8048724:	a3 5c f1 04 08       	mov    ds:0x804f15c,eax
 8048729:	8b 45 08             	mov    eax,DWORD PTR [ebp+0x8]
 804872c:	89 44 24 04          	mov    DWORD PTR [esp+0x4],eax
 8048730:	c7 04 24 10 00 00 00 	mov    DWORD PTR [esp],0x10
 8048737:	e8 a4 fd ff ff       	call   80484e0
 804873c:	a3 60 f1 04 08       	mov    ds:0x804f160,eax
 8048741:	a1 40 f1 04 08       	mov    eax,ds:0x804f140
 8048746:	89 c2                	mov    edx,eax
 8048748:	8b 45 08             	mov    eax,DWORD PTR [ebp+0x8]
 804874b:	0f af c2             	imul   eax,edx
 804874e:	c1 e0 02             	shl    eax,0x2
 8048751:	89 04 24             	mov    DWORD PTR [esp],eax
 8048754:	e8 07 fd ff ff       	call   8048460
 8048759:	a3 64 f1 04 08       	mov    ds:0x804f164,eax
 804875e:	e8 6d 18 00 00       	call   8049fd0
 8048763:	8b 0d 08 f1 04 08    	mov    ecx,DWORD PTR ds:0x804f108
 8048769:	8b 1d 0c f1 04 08    	mov    ebx,DWORD PTR ds:0x804f10c
 804876f:	01 c8                	add    eax,ecx
 8048771:	11 da                	adc    edx,ebx
 8048773:	2b 45 f0             	sub    eax,DWORD PTR [ebp-0x10]
 8048776:	1b 55 f4             	sbb    edx,DWORD PTR [ebp-0xc]
 8048779:	a3 08 f1 04 08       	mov    ds:0x804f108,eax
 804877e:	89 15 0c f1 04 08    	mov    DWORD PTR ds:0x804f10c,edx
 8048784:	83 c4 24             	add    esp,0x24
 8048787:	5b                   	pop    ebx
 8048788:	5d                   	pop    ebp
 8048789:	c3                   	ret

0804878a <Init_PosMap>:
 804878a:	55                   	push   ebp
 804878b:	89 e5                	mov    ebp,esp
 804878d:	83 ec 28             	sub    esp,0x28
 8048790:	e8 3b 18 00 00       	call   8049fd0
 8048795:	89 45 f0             	mov    DWORD PTR [ebp-0x10],eax
 8048798:	89 55 f4             	mov    DWORD PTR [ebp-0xc],edx
 804879b:	8b 45 08             	mov    eax,DWORD PTR [ebp+0x8]
 804879e:	a3 54 f1 04 08       	mov    ds:0x804f154,eax
 80487a3:	8b 45 08             	mov    eax,DWORD PTR [ebp+0x8]
 80487a6:	89 44 24 04          	mov    DWORD PTR [esp+0x4],eax
 80487aa:	c7 04 24 02 00 00 00 	mov    DWORD PTR [esp],0x2
 80487b1:	e8 2a fd ff ff       	call   80484e0
 80487b6:	a3 58 f1 04 08       	mov    ds:0x804f158,eax
 80487bb:	e8 10 18 00 00       	call   8049fd0
 80487c0:	2b 45 f0             	sub    eax,DWORD PTR [ebp-0x10]
 80487c3:	1b 55 f4             	sbb    edx,DWORD PTR [ebp-0xc]
 80487c6:	a3 18 f1 04 08       	mov    ds:0x804f118,eax
 80487cb:	89 15 1c f1 04 08    	mov    DWORD PTR ds:0x804f11c,edx
 80487d1:	c9                   	leave
 80487d2:	c3                   	ret

080487d3 <Init_ORAM_Controller>:
 80487d3:	55                   	push   ebp
 80487d4:	89 e5                	mov    ebp,esp
 80487d6:	53                   	push   ebx
 80487d7:	83 ec 24             	sub    esp,0x24
 80487da:	e8 f1 17 00 00       	call   8049fd0
 80487df:	89 45 f0             	mov    DWORD PTR [ebp-0x10],eax
 80487e2:	89 55 f4             	mov    DWORD PTR [ebp-0xc],edx
 80487e5:	8b 45 10             	mov    eax,DWORD PTR [ebp+0x10]
 80487e8:	a3 40 f1 04 08       	mov    ds:0x804f140,eax
 80487ed:	8b 45 08             	mov    eax,DWORD PTR [ebp+0x8]
 80487f0:	a3 44 f1 04 08       	mov    ds:0x804f144,eax
 80487f5:	8b 45 0c             	mov    eax,DWORD PTR [ebp+0xc]
 80487f8:	ba 01 00 00 00       	mov    edx,0x1
 80487fd:	89 c1                	mov    ecx,eax
 80487ff:	d3 e2                	shl    edx,cl
 8048801:	89 d0                	mov    eax,edx
 8048803:	83 e8 01             	sub    eax,0x1
 8048806:	a3 48 f1 04 08       	mov    ds:0x804f148,eax
 804880b:	8b 45 0c             	mov    eax,DWORD PTR [ebp+0xc]
 804880e:	83 e8 01             	sub    eax,0x1
 8048811:	ba 01 00 00 00       	mov    edx,0x1
 8048816:	89 c1                	mov    ecx,eax
 8048818:	d3 e2                	shl    edx,cl
 804881a:	89 d0                	mov    eax,edx
 804881c:	a3 4c f1 04 08       	mov    ds:0x804f14c,eax
 8048821:	8b 45 18             	mov    eax,DWORD PTR [ebp+0x18]
 8048824:	89 45 e8             	mov    DWORD PTR [ebp-0x18],eax
 8048827:	a1 44 f1 04 08       	mov    eax,ds:0x804f144
 804882c:	0f af 45 0c          	imul   eax,DWORD PTR [ebp+0xc]
 8048830:	89 c2                	mov    edx,eax
 8048832:	8b 45 14             	mov    eax,DWORD PTR [ebp+0x14]
 8048835:	01 d0                	add    eax,edx
 8048837:	89 04 24             	mov    DWORD PTR [esp],eax
 804883a:	e8 65 17 00 00       	call   8049fa4
 804883f:	89 45 ec             	mov    DWORD PTR [ebp-0x14],eax
 8048842:	8b 45 e8             	mov    eax,DWORD PTR [ebp-0x18]
 8048845:	89 04 24             	mov    DWORD PTR [esp],eax
 8048848:	e8 3d ff ff ff       	call   804878a
 804884d:	8b 45 ec             	mov    eax,DWORD PTR [ebp-0x14]
 8048850:	89 04 24             	mov    DWORD PTR [esp],eax
 8048853:	e8 b7 fe ff ff       	call   804870f
 8048858:	e8 73 17 00 00       	call   8049fd0
 804885d:	8b 0d 80 f1 04 08    	mov    ecx,DWORD PTR ds:0x804f180
 8048863:	8b 1d 84 f1 04 08    	mov    ebx,DWORD PTR ds:0x804f184
 8048869:	01 c8                	add    eax,ecx
 804886b:	11 da                	adc    edx,ebx
 804886d:	2b 45 f0             	sub    eax,DWORD PTR [ebp-0x10]
 8048870:	1b 55 f4             	sbb    edx,DWORD PTR [ebp-0xc]
 8048873:	a3 80 f1 04 08       	mov    ds:0x804f180,eax
 8048878:	89 15 84 f1 04 08    	mov    DWORD PTR ds:0x804f184,edx
 804887e:	83 c4 24             	add    esp,0x24
 8048881:	5b                   	pop    ebx
 8048882:	5d                   	pop    ebp
 8048883:	c3                   	ret

08048884 <Init_ORAM_Tree>:
 8048884:	55                   	push   ebp
 8048885:	89 e5                	mov    ebp,esp
 8048887:	53                   	push   ebx
 8048888:	83 ec 24             	sub    esp,0x24
 804888b:	e8 40 17 00 00       	call   8049fd0
 8048890:	89 45 f0             	mov    DWORD PTR [ebp-0x10],eax
 8048893:	89 55 f4             	mov    DWORD PTR [ebp-0xc],edx
 8048896:	8b 45 0c             	mov    eax,DWORD PTR [ebp+0xc]
 8048899:	a3 00 f1 04 08       	mov    ds:0x804f100,eax
 804889e:	8b 45 10             	mov    eax,DWORD PTR [ebp+0x10]
 80488a1:	8d 50 03             	lea    edx,[eax+0x3]
 80488a4:	8b 45 08             	mov    eax,DWORD PTR [ebp+0x8]
 80488a7:	0f af c2             	imul   eax,edx
 80488aa:	8d 14 85 00 00 00 00 	lea    edx,[eax*4]
 80488b1:	8b 45 0c             	mov    eax,DWORD PTR [ebp+0xc]
 80488b4:	89 c1                	mov    ecx,eax
 80488b6:	d3 e2                	shl    edx,cl
 80488b8:	89 d0                	mov    eax,edx
 80488ba:	89 04 24             	mov    DWORD PTR [esp],eax
 80488bd:	e8 9e fb ff ff       	call   8048460
 80488c2:	a3 04 f1 04 08       	mov    ds:0x804f104,eax
 80488c7:	c7 45 e8 00 00 00 00 	mov    DWORD PTR [ebp-0x18],0x0
 80488ce:	eb 20                	jmp    80488f0
 80488d0:	a1 04 f1 04 08       	mov    eax,ds:0x804f104
 80488d5:	8b 55 10             	mov    edx,DWORD PTR [ebp+0x10]
 80488d8:	83 c2 03             	add    edx,0x3
 80488db:	c1 e2 02             	shl    edx,0x2
 80488de:	01 d0                	add    eax,edx
 80488e0:	89 45 ec             	mov    DWORD PTR [ebp-0x14],eax
 80488e3:	8b 45 ec             	mov    eax,DWORD PTR [ebp-0x14]
 80488e6:	c7 00 00 00 00 00    	mov    DWORD PTR [eax],0x0
 80488ec:	83 45 e8 01          	add    DWORD PTR [ebp-0x18],0x1
 80488f0:	8b 45 0c             	mov    eax,DWORD PTR [ebp+0xc]
 80488f3:	8b 55 08             	mov    edx,DWORD PTR [ebp+0x8]
 80488f6:	89 c1                	mov    ecx,eax
 80488f8:	d3 e2                	shl    edx,cl
 80488fa:	89 d0                	mov    eax,edx
 80488fc:	3b 45 e8             	cmp    eax,DWORD PTR [ebp-0x18]
 80488ff:	7f cf                	jg     80488d0
 8048901:	e8 ca 16 00 00       	call   8049fd0
 8048906:	8b 0d e0 f0 04 08    	mov    ecx,DWORD PTR ds:0x804f0e0
 804890c:	8b 1d e4 f0 04 08    	mov    ebx,DWORD PTR ds:0x804f0e4
 8048912:	01 c8                	add    eax,ecx
 8048914:	11 da                	adc    edx,ebx
 8048916:	2b 45 f0             	sub    eax,DWORD PTR [ebp-0x10]
 8048919:	1b 55 f4             	sbb    edx,DWORD PTR [ebp-0xc]
 804891c:	a3 e0 f0 04 08       	mov    ds:0x804f0e0,eax
 8048921:	89 15 e4 f0 04 08    	mov    DWORD PTR ds:0x804f0e4,edx
 8048927:	83 c4 24             	add    esp,0x24
 804892a:	5b                   	pop    ebx
 804892b:	5d                   	pop    ebp
 804892c:	c3                   	ret

0804892d <Init_ORAM>:
 804892d:	55                   	push   ebp
 804892e:	89 e5                	mov    ebp,esp
 8048930:	53                   	push   ebx
 8048931:	83 ec 34             	sub    esp,0x34
 8048934:	e8 97 16 00 00       	call   8049fd0
 8048939:	89 45 f0             	mov    DWORD PTR [ebp-0x10],eax
 804893c:	89 55 f4             	mov    DWORD PTR [ebp-0xc],edx
 804893f:	a1 44 f0 04 08       	mov    eax,ds:0x804f044
 8048944:	89 04 24             	mov    DWORD PTR [esp],eax
 8048947:	e8 44 fb ff ff       	call   8048490
 804894c:	8b 45 0c             	mov    eax,DWORD PTR [ebp+0xc]
 804894f:	89 04 24             	mov    DWORD PTR [esp],eax
 8048952:	e8 e1 15 00 00       	call   8049f38
 8048957:	89 45 ec             	mov    DWORD PTR [ebp-0x14],eax
 804895a:	83 7d ec 0f          	cmp    DWORD PTR [ebp-0x14],0xf
 804895e:	7e 24                	jle    8048984
 8048960:	c7 44 24 0c c1 ce 04 	mov    DWORD PTR [esp+0xc],0x804cec1
 8048967:	08 
 8048968:	c7 44 24 08 9f 00 00 	mov    DWORD PTR [esp+0x8],0x9f
 804896f:	00 
 8048970:	c7 44 24 04 00 cc 04 	mov    DWORD PTR [esp+0x4],0x804cc00
 8048977:	08 
 8048978:	c7 04 24 3d cc 04 08 	mov    DWORD PTR [esp],0x804cc3d
 804897f:	e8 4c fb ff ff       	call   80484d0
 8048984:	8b 45 0c             	mov    eax,DWORD PTR [ebp+0xc]
 8048987:	89 44 24 10          	mov    DWORD PTR [esp+0x10],eax
 804898b:	8b 45 14             	mov    eax,DWORD PTR [ebp+0x14]
 804898e:	89 44 24 0c          	mov    DWORD PTR [esp+0xc],eax
 8048992:	8b 45 10             	mov    eax,DWORD PTR [ebp+0x10]
 8048995:	89 44 24 08          	mov    DWORD PTR [esp+0x8],eax
 8048999:	8b 45 ec             	mov    eax,DWORD PTR [ebp-0x14]
 804899c:	89 44 24 04          	mov    DWORD PTR [esp+0x4],eax
 80489a0:	8b 45 08             	mov    eax,DWORD PTR [ebp+0x8]
 80489a3:	89 04 24             	mov    DWORD PTR [esp],eax
 80489a6:	e8 28 fe ff ff       	call   80487d3
 80489ab:	8b 45 10             	mov    eax,DWORD PTR [ebp+0x10]
 80489ae:	89 44 24 08          	mov    DWORD PTR [esp+0x8],eax
 80489b2:	8b 45 ec             	mov    eax,DWORD PTR [ebp-0x14]
 80489b5:	89 44 24 04          	mov    DWORD PTR [esp+0x4],eax
 80489b9:	8b 45 08             	mov    eax,DWORD PTR [ebp+0x8]
 80489bc:	89 04 24             	mov    DWORD PTR [esp],eax
 80489bf:	e8 c0 fe ff ff       	call   8048884
 80489c4:	a1 00 f1 04 08       	mov    eax,ds:0x804f100
 80489c9:	89 c2                	mov    edx,eax
 80489cb:	a1 44 f1 04 08       	mov    eax,ds:0x804f144
 80489d0:	0f af c2             	imul   eax,edx
 80489d3:	c1 e0 02             	shl    eax,0x2
 80489d6:	89 04 24             	mov    DWORD PTR [esp],eax
 80489d9:	e8 82 fa ff ff       	call   8048460
 80489de:	a3 8c f0 04 08       	mov    ds:0x804f08c,eax
 80489e3:	a1 00 f1 04 08       	mov    eax,ds:0x804f100
 80489e8:	c1 e0 02             	shl    eax,0x2
 80489eb:	89 04 24             	mov    DWORD PTR [esp],eax
 80489ee:	e8 6d fa ff ff       	call   8048460
 80489f3:	a3 90 f0 04 08       	mov    ds:0x804f090,eax
 80489f8:	83 7d 18 00          	cmp    DWORD PTR [ebp+0x18],0x0
 80489fc:	75 0c                	jne    8048a0a
 80489fe:	c7 05 28 f1 04 08 96 	mov    DWORD PTR ds:0x804f128,0x804ba96
 8048a05:	ba 04 08 
 8048a08:	eb 36                	jmp    8048a40
 8048a0a:	83 7d 18 01          	cmp    DWORD PTR [ebp+0x18],0x1
 8048a0e:	75 0c                	jne    8048a1c
 8048a10:	c7 05 28 f1 04 08 6b 	mov    DWORD PTR ds:0x804f128,0x804c96b
 8048a17:	c9 04 08 
 8048a1a:	eb 24                	jmp    8048a40
 8048a1c:	c7 44 24 0c c1 ce 04 	mov    DWORD PTR [esp+0xc],0x804cec1
 8048a23:	08 
 8048a24:	c7 44 24 08 ae 00 00 	mov    DWORD PTR [esp+0x8],0xae
 8048a2b:	00 
 8048a2c:	c7 44 24 04 00 cc 04 	mov    DWORD PTR [esp+0x4],0x804cc00
 8048a33:	08 
 8048a34:	c7 04 24 4e cc 04 08 	mov    DWORD PTR [esp],0x804cc4e
 8048a3b:	e8 90 fa ff ff       	call   80484d0
 8048a40:	e8 8b 15 00 00       	call   8049fd0
 8048a45:	8b 0d 70 f1 04 08    	mov    ecx,DWORD PTR ds:0x804f170
 8048a4b:	8b 1d 74 f1 04 08    	mov    ebx,DWORD PTR ds:0x804f174
 8048a51:	01 c8                	add    eax,ecx
 8048a53:	11 da                	adc    edx,ebx
 8048a55:	2b 45 f0             	sub    eax,DWORD PTR [ebp-0x10]
 8048a58:	1b 55 f4             	sbb    edx,DWORD PTR [ebp-0xc]
 8048a5b:	a3 70 f1 04 08       	mov    ds:0x804f170,eax
 8048a60:	89 15 74 f1 04 08    	mov    DWORD PTR ds:0x804f174,edx
 8048a66:	83 c4 34             	add    esp,0x34
 8048a69:	5b                   	pop    ebx
 8048a6a:	5d                   	pop    ebp
 8048a6b:	c3                   	ret

08048a6c <Free_ORAM>:
 8048a6c:	55                   	push   ebp
 8048a6d:	89 e5                	mov    ebp,esp
 8048a6f:	53                   	push   ebx
 8048a70:	83 ec 24             	sub    esp,0x24
 8048a73:	e8 58 15 00 00       	call   8049fd0
 8048a78:	89 45 f0             	mov    DWORD PTR [ebp-0x10],eax
 8048a7b:	89 55 f4             	mov    DWORD PTR [ebp-0xc],edx
 8048a7e:	a1 58 f1 04 08       	mov    eax,ds:0x804f158
 8048a83:	89 04 24             	mov    DWORD PTR [esp],eax
 8048a86:	e8 b5 f9 ff ff       	call   8048440
 8048a8b:	a1 60 f1 04 08       	mov    eax,ds:0x804f160
 8048a90:	89 04 24             	mov    DWORD PTR [esp],eax
 8048a93:	e8 a8 f9 ff ff       	call   8048440
 8048a98:	a1 64 f1 04 08       	mov    eax,ds:0x804f164
 8048a9d:	89 04 24             	mov    DWORD PTR [esp],eax
 8048aa0:	e8 9b f9 ff ff       	call   8048440
 8048aa5:	a1 04 f1 04 08       	mov    eax,ds:0x804f104
 8048aaa:	89 04 24             	mov    DWORD PTR [esp],eax
 8048aad:	e8 8e f9 ff ff       	call   8048440
 8048ab2:	a1 8c f0 04 08       	mov    eax,ds:0x804f08c
 8048ab7:	89 04 24             	mov    DWORD PTR [esp],eax
 8048aba:	e8 81 f9 ff ff       	call   8048440
 8048abf:	a1 90 f0 04 08       	mov    eax,ds:0x804f090
 8048ac4:	89 04 24             	mov    DWORD PTR [esp],eax
 8048ac7:	e8 74 f9 ff ff       	call   8048440
 8048acc:	e8 ff 14 00 00       	call   8049fd0
 8048ad1:	8b 0d e8 f0 04 08    	mov    ecx,DWORD PTR ds:0x804f0e8
 8048ad7:	8b 1d ec f0 04 08    	mov    ebx,DWORD PTR ds:0x804f0ec
 8048add:	01 c8                	add    eax,ecx
 8048adf:	11 da                	adc    edx,ebx
 8048ae1:	2b 45 f0             	sub    eax,DWORD PTR [ebp-0x10]
 8048ae4:	1b 55 f4             	sbb    edx,DWORD PTR [ebp-0xc]
 8048ae7:	a3 e8 f0 04 08       	mov    ds:0x804f0e8,eax
 8048aec:	89 15 ec f0 04 08    	mov    DWORD PTR ds:0x804f0ec,edx
 8048af2:	83 c4 24             	add    esp,0x24
 8048af5:	5b                   	pop    ebx
 8048af6:	5d                   	pop    ebp
 8048af7:	c3                   	ret

08048af8 <Retrieve_LeafLabel>:
 8048af8:	55                   	push   ebp
 8048af9:	89 e5                	mov    ebp,esp
 8048afb:	53                   	push   ebx
 8048afc:	83 ec 44             	sub    esp,0x44
 8048aff:	e8 cc 14 00 00       	call   8049fd0
 8048b04:	89 45 f0             	mov    DWORD PTR [ebp-0x10],eax
 8048b07:	89 55 f4             	mov    DWORD PTR [ebp-0xc],edx
 8048b0a:	c7 45 e0 00 00 00 00 	mov    DWORD PTR [ebp-0x20],0x0
 8048b11:	c7 45 e4 00 00 00 00 	mov    DWORD PTR [ebp-0x1c],0x0
 8048b18:	c7 45 e8 00 00 00 00 	mov    DWORD PTR [ebp-0x18],0x0
 8048b1f:	c7 45 d8 00 00 00 00 	mov    DWORD PTR [ebp-0x28],0x0
 8048b26:	c7 45 dc 00 00 00 00 	mov    DWORD PTR [ebp-0x24],0x0
 8048b2d:	e9 f9 00 00 00       	jmp    8048c2b
 8048b32:	a1 58 f1 04 08       	mov    eax,ds:0x804f158
 8048b37:	8b 55 dc             	mov    edx,DWORD PTR [ebp-0x24]
 8048b3a:	01 d2                	add    edx,edx
 8048b3c:	01 d0                	add    eax,edx
 8048b3e:	89 45 ec             	mov    DWORD PTR [ebp-0x14],eax
 8048b41:	8b 45 ec             	mov    eax,DWORD PTR [ebp-0x14]
 8048b44:	0f b7 00             	movzx  eax,WORD PTR [eax]
 8048b47:	0f b7 d0             	movzx  edx,ax
 8048b4a:	a1 50 f0 04 08       	mov    eax,ds:0x804f050
 8048b4f:	21 d0                	and    eax,edx
 8048b51:	89 45 d0             	mov    DWORD PTR [ebp-0x30],eax
 8048b54:	8b 45 ec             	mov    eax,DWORD PTR [ebp-0x14]
 8048b57:	0f b7 00             	movzx  eax,WORD PTR [eax]
 8048b5a:	0f b7 d0             	movzx  edx,ax
 8048b5d:	a1 54 f0 04 08       	mov    eax,ds:0x804f054
 8048b62:	21 d0                	and    eax,edx
 8048b64:	89 45 d4             	mov    DWORD PTR [ebp-0x2c],eax
 8048b67:	8b 45 0c             	mov    eax,DWORD PTR [ebp+0xc]
 8048b6a:	3b 45 dc             	cmp    eax,DWORD PTR [ebp-0x24]
 8048b6d:	0f 94 c0             	sete   al
 8048b70:	0f b6 c0             	movzx  eax,al
 8048b73:	89 45 e0             	mov    DWORD PTR [ebp-0x20],eax
 8048b76:	83 7d e0 00          	cmp    DWORD PTR [ebp-0x20],0x0
 8048b7a:	74 0e                	je     8048b8a
 8048b7c:	8b 45 d4             	mov    eax,DWORD PTR [ebp-0x2c]
 8048b7f:	85 c0                	test   eax,eax
 8048b81:	74 07                	je     8048b8a
 8048b83:	b8 01 00 00 00       	mov    eax,0x1
 8048b88:	eb 05                	jmp    8048b8f
 8048b8a:	b8 00 00 00 00       	mov    eax,0x0
 8048b8f:	89 45 e4             	mov    DWORD PTR [ebp-0x1c],eax
 8048b92:	83 7d e0 00          	cmp    DWORD PTR [ebp-0x20],0x0
 8048b96:	74 0e                	je     8048ba6
 8048b98:	8b 45 d4             	mov    eax,DWORD PTR [ebp-0x2c]
 8048b9b:	85 c0                	test   eax,eax
 8048b9d:	75 07                	jne    8048ba6
 8048b9f:	b8 01 00 00 00       	mov    eax,0x1
 8048ba4:	eb 05                	jmp    8048bab
 8048ba6:	b8 00 00 00 00       	mov    eax,0x0
 8048bab:	89 45 e8             	mov    DWORD PTR [ebp-0x18],eax
 8048bae:	83 7d d8 00          	cmp    DWORD PTR [ebp-0x28],0x0
 8048bb2:	75 06                	jne    8048bba
 8048bb4:	83 7d e8 00          	cmp    DWORD PTR [ebp-0x18],0x0
 8048bb8:	74 07                	je     8048bc1
 8048bba:	b8 01 00 00 00       	mov    eax,0x1
 8048bbf:	eb 05                	jmp    8048bc6
 8048bc1:	b8 00 00 00 00       	mov    eax,0x0
 8048bc6:	89 45 d8             	mov    DWORD PTR [ebp-0x28],eax
 8048bc9:	8d 45 d4             	lea    eax,[ebp-0x2c]
 8048bcc:	89 44 24 08          	mov    DWORD PTR [esp+0x8],eax
 8048bd0:	c7 44 24 04 54 f0 04 	mov    DWORD PTR [esp+0x4],0x804f054
 8048bd7:	08 
 8048bd8:	8b 45 e8             	mov    eax,DWORD PTR [ebp-0x18]
 8048bdb:	89 04 24             	mov    DWORD PTR [esp],eax
 8048bde:	e8 35 14 00 00       	call   804a018
 8048be3:	8b 45 10             	mov    eax,DWORD PTR [ebp+0x10]
 8048be6:	89 44 24 08          	mov    DWORD PTR [esp+0x8],eax
 8048bea:	8d 45 d0             	lea    eax,[ebp-0x30]
 8048bed:	89 44 24 04          	mov    DWORD PTR [esp+0x4],eax
 8048bf1:	8b 45 e4             	mov    eax,DWORD PTR [ebp-0x1c]
 8048bf4:	89 04 24             	mov    DWORD PTR [esp],eax
 8048bf7:	e8 1c 14 00 00       	call   804a018
 8048bfc:	8d 45 d0             	lea    eax,[ebp-0x30]
 8048bff:	89 44 24 08          	mov    DWORD PTR [esp+0x8],eax
 8048c03:	8b 45 14             	mov    eax,DWORD PTR [ebp+0x14]
 8048c06:	89 44 24 04          	mov    DWORD PTR [esp+0x4],eax
 8048c0a:	8b 45 e0             	mov    eax,DWORD PTR [ebp-0x20]
 8048c0d:	89 04 24             	mov    DWORD PTR [esp],eax
 8048c10:	e8 03 14 00 00       	call   804a018
 8048c15:	8b 45 d0             	mov    eax,DWORD PTR [ebp-0x30]
 8048c18:	89 c2                	mov    edx,eax
 8048c1a:	8b 45 d4             	mov    eax,DWORD PTR [ebp-0x2c]
 8048c1d:	09 d0                	or     eax,edx
 8048c1f:	89 c2                	mov    edx,eax
 8048c21:	8b 45 ec             	mov    eax,DWORD PTR [ebp-0x14]
 8048c24:	66 89 10             	mov    WORD PTR [eax],dx
 8048c27:	83 45 dc 01          	add    DWORD PTR [ebp-0x24],0x1
 8048c2b:	a1 54 f1 04 08       	mov    eax,ds:0x804f154
 8048c30:	3b 45 dc             	cmp    eax,DWORD PTR [ebp-0x24]
 8048c33:	0f 8f f9 fe ff ff    	jg     8048b32
 8048c39:	83 7d 08 01          	cmp    DWORD PTR [ebp+0x8],0x1
 8048c3d:	75 4f                	jne    8048c8e
 8048c3f:	83 7d d8 00          	cmp    DWORD PTR [ebp-0x28],0x0
 8048c43:	74 49                	je     8048c8e
 8048c45:	a1 80 f0 04 08       	mov    eax,ds:0x804f080
 8048c4a:	89 44 24 0c          	mov    DWORD PTR [esp+0xc],eax
 8048c4e:	c7 44 24 08 1f 00 00 	mov    DWORD PTR [esp+0x8],0x1f
 8048c55:	00 
 8048c56:	c7 44 24 04 01 00 00 	mov    DWORD PTR [esp+0x4],0x1
 8048c5d:	00 
 8048c5e:	c7 04 24 50 cc 04 08 	mov    DWORD PTR [esp],0x804cc50
 8048c65:	e8 e6 f7 ff ff       	call   8048450
 8048c6a:	c7 44 24 0c cb ce 04 	mov    DWORD PTR [esp+0xc],0x804cecb
 8048c71:	08 
 8048c72:	c7 44 24 08 eb 00 00 	mov    DWORD PTR [esp+0x8],0xeb
 8048c79:	00 
 8048c7a:	c7 44 24 04 00 cc 04 	mov    DWORD PTR [esp+0x4],0x804cc00
 8048c81:	08 
 8048c82:	c7 04 24 4e cc 04 08 	mov    DWORD PTR [esp],0x804cc4e
 8048c89:	e8 42 f8 ff ff       	call   80484d0
 8048c8e:	e8 3d 13 00 00       	call   8049fd0
 8048c93:	8b 0d f0 f0 04 08    	mov    ecx,DWORD PTR ds:0x804f0f0
 8048c99:	8b 1d f4 f0 04 08    	mov    ebx,DWORD PTR ds:0x804f0f4
 8048c9f:	01 c8                	add    eax,ecx
 8048ca1:	11 da                	adc    edx,ebx
 8048ca3:	2b 45 f0             	sub    eax,DWORD PTR [ebp-0x10]
 8048ca6:	1b 55 f4             	sbb    edx,DWORD PTR [ebp-0xc]
 8048ca9:	a3 f0 f0 04 08       	mov    ds:0x804f0f0,eax
 8048cae:	89 15 f4 f0 04 08    	mov    DWORD PTR ds:0x804f0f4,edx
 8048cb4:	8b 45 d8             	mov    eax,DWORD PTR [ebp-0x28]
 8048cb7:	83 c4 44             	add    esp,0x44
 8048cba:	5b                   	pop    ebx
 8048cbb:	5d                   	pop    ebp
 8048cbc:	c3                   	ret

08048cbd <Fetch_Blocks>:
 8048cbd:	55                   	push   ebp
 8048cbe:	89 e5                	mov    ebp,esp
 8048cc0:	53                   	push   ebx
 8048cc1:	83 ec 64             	sub    esp,0x64
 8048cc4:	e8 07 13 00 00       	call   8049fd0
 8048cc9:	89 45 f0             	mov    DWORD PTR [ebp-0x10],eax
 8048ccc:	89 55 f4             	mov    DWORD PTR [ebp-0xc],edx
 8048ccf:	c7 45 a8 00 00 00 00 	mov    DWORD PTR [ebp-0x58],0x0
 8048cd6:	c7 45 ac 01 00 00 00 	mov    DWORD PTR [ebp-0x54],0x1
 8048cdd:	a1 00 f1 04 08       	mov    eax,ds:0x804f100
 8048ce2:	8d 50 ff             	lea    edx,[eax-0x1]
 8048ce5:	8b 45 14             	mov    eax,DWORD PTR [ebp+0x14]
 8048ce8:	89 54 24 04          	mov    DWORD PTR [esp+0x4],edx
 8048cec:	89 04 24             	mov    DWORD PTR [esp],eax
 8048cef:	e8 70 12 00 00       	call   8049f64
 8048cf4:	89 45 b0             	mov    DWORD PTR [ebp-0x50],eax
 8048cf7:	c7 45 b4 00 00 00 00 	mov    DWORD PTR [ebp-0x4c],0x0
 8048cfe:	e9 31 01 00 00       	jmp    8048e34
 8048d03:	c7 45 b8 00 00 00 00 	mov    DWORD PTR [ebp-0x48],0x0
 8048d0a:	e9 eb 00 00 00       	jmp    8048dfa
 8048d0f:	8b 15 04 f1 04 08    	mov    edx,DWORD PTR ds:0x804f104
 8048d15:	a1 44 f1 04 08       	mov    eax,ds:0x804f144
 8048d1a:	0f af 45 ac          	imul   eax,DWORD PTR [ebp-0x54]
 8048d1e:	89 c1                	mov    ecx,eax
 8048d20:	8b 45 b8             	mov    eax,DWORD PTR [ebp-0x48]
 8048d23:	01 c8                	add    eax,ecx
 8048d25:	8b 0d 40 f1 04 08    	mov    ecx,DWORD PTR ds:0x804f140
 8048d2b:	83 c1 03             	add    ecx,0x3
 8048d2e:	0f af c1             	imul   eax,ecx
 8048d31:	c1 e0 02             	shl    eax,0x2
 8048d34:	01 d0                	add    eax,edx
 8048d36:	89 45 c8             	mov    DWORD PTR [ebp-0x38],eax
 8048d39:	8b 15 04 f1 04 08    	mov    edx,DWORD PTR ds:0x804f104
 8048d3f:	a1 44 f1 04 08       	mov    eax,ds:0x804f144
 8048d44:	0f af 45 ac          	imul   eax,DWORD PTR [ebp-0x54]
 8048d48:	89 c1                	mov    ecx,eax
 8048d4a:	8b 45 b8             	mov    eax,DWORD PTR [ebp-0x48]
 8048d4d:	01 c8                	add    eax,ecx
 8048d4f:	8b 0d 40 f1 04 08    	mov    ecx,DWORD PTR ds:0x804f140
 8048d55:	83 c1 03             	add    ecx,0x3
 8048d58:	0f af c1             	imul   eax,ecx
 8048d5b:	83 c0 03             	add    eax,0x3
 8048d5e:	c1 e0 02             	shl    eax,0x2
 8048d61:	01 d0                	add    eax,edx
 8048d63:	89 45 cc             	mov    DWORD PTR [ebp-0x34],eax
 8048d66:	a1 60 f1 04 08       	mov    eax,ds:0x804f160
 8048d6b:	8b 55 a8             	mov    edx,DWORD PTR [ebp-0x58]
 8048d6e:	c1 e2 04             	shl    edx,0x4
 8048d71:	01 d0                	add    eax,edx
 8048d73:	89 45 d0             	mov    DWORD PTR [ebp-0x30],eax
 8048d76:	8b 15 64 f1 04 08    	mov    edx,DWORD PTR ds:0x804f164
 8048d7c:	a1 40 f1 04 08       	mov    eax,ds:0x804f140
 8048d81:	0f af 45 a8          	imul   eax,DWORD PTR [ebp-0x58]
 8048d85:	c1 e0 02             	shl    eax,0x2
 8048d88:	01 d0                	add    eax,edx
 8048d8a:	89 45 d4             	mov    DWORD PTR [ebp-0x2c],eax
 8048d8d:	8b 45 c8             	mov    eax,DWORD PTR [ebp-0x38]
 8048d90:	8b 10                	mov    edx,DWORD PTR [eax]
 8048d92:	8b 45 d0             	mov    eax,DWORD PTR [ebp-0x30]
 8048d95:	89 50 04             	mov    DWORD PTR [eax+0x4],edx
 8048d98:	8b 45 c8             	mov    eax,DWORD PTR [ebp-0x38]
 8048d9b:	8b 50 04             	mov    edx,DWORD PTR [eax+0x4]
 8048d9e:	8b 45 d0             	mov    eax,DWORD PTR [ebp-0x30]
 8048da1:	89 50 08             	mov    DWORD PTR [eax+0x8],edx
 8048da4:	8b 45 c8             	mov    eax,DWORD PTR [ebp-0x38]
 8048da7:	8b 50 08             	mov    edx,DWORD PTR [eax+0x8]
 8048daa:	8b 45 d0             	mov    eax,DWORD PTR [ebp-0x30]
 8048dad:	89 50 0c             	mov    DWORD PTR [eax+0xc],edx
 8048db0:	8b 45 c8             	mov    eax,DWORD PTR [ebp-0x38]
 8048db3:	c7 00 00 00 00 00    	mov    DWORD PTR [eax],0x0
 8048db9:	c7 45 bc 00 00 00 00 	mov    DWORD PTR [ebp-0x44],0x0
 8048dc0:	eb 26                	jmp    8048de8
 8048dc2:	8b 45 bc             	mov    eax,DWORD PTR [ebp-0x44]
 8048dc5:	8d 14 85 00 00 00 00 	lea    edx,[eax*4]
 8048dcc:	8b 45 d4             	mov    eax,DWORD PTR [ebp-0x2c]
 8048dcf:	01 c2                	add    edx,eax
 8048dd1:	8b 45 bc             	mov    eax,DWORD PTR [ebp-0x44]
 8048dd4:	8d 0c 85 00 00 00 00 	lea    ecx,[eax*4]
 8048ddb:	8b 45 cc             	mov    eax,DWORD PTR [ebp-0x34]
 8048dde:	01 c8                	add    eax,ecx
 8048de0:	8b 00                	mov    eax,DWORD PTR [eax]
 8048de2:	89 02                	mov    DWORD PTR [edx],eax
 8048de4:	83 45 bc 01          	add    DWORD PTR [ebp-0x44],0x1
 8048de8:	a1 40 f1 04 08       	mov    eax,ds:0x804f140
 8048ded:	3b 45 bc             	cmp    eax,DWORD PTR [ebp-0x44]
 8048df0:	7f d0                	jg     8048dc2
 8048df2:	83 45 a8 01          	add    DWORD PTR [ebp-0x58],0x1
 8048df6:	83 45 b8 01          	add    DWORD PTR [ebp-0x48],0x1
 8048dfa:	a1 44 f1 04 08       	mov    eax,ds:0x804f144
 8048dff:	3b 45 b8             	cmp    eax,DWORD PTR [ebp-0x48]
 8048e02:	0f 8f 07 ff ff ff    	jg     8048d0f
 8048e08:	8b 45 ac             	mov    eax,DWORD PTR [ebp-0x54]
 8048e0b:	8d 0c 00             	lea    ecx,[eax+eax]
 8048e0e:	8b 45 b0             	mov    eax,DWORD PTR [ebp-0x50]
 8048e11:	99                   	cdq
 8048e12:	c1 ea 1f             	shr    edx,0x1f
 8048e15:	01 d0                	add    eax,edx
 8048e17:	83 e0 01             	and    eax,0x1
 8048e1a:	29 d0                	sub    eax,edx
 8048e1c:	01 c8                	add    eax,ecx
 8048e1e:	89 45 ac             	mov    DWORD PTR [ebp-0x54],eax
 8048e21:	8b 45 b0             	mov    eax,DWORD PTR [ebp-0x50]
 8048e24:	89 c2                	mov    edx,eax
 8048e26:	c1 ea 1f             	shr    edx,0x1f
 8048e29:	01 d0                	add    eax,edx
 8048e2b:	d1 f8                	sar    eax,1
 8048e2d:	89 45 b0             	mov    DWORD PTR [ebp-0x50],eax
 8048e30:	83 45 b4 01          	add    DWORD PTR [ebp-0x4c],0x1
 8048e34:	a1 00 f1 04 08       	mov    eax,ds:0x804f100
 8048e39:	3b 45 b4             	cmp    eax,DWORD PTR [ebp-0x4c]
 8048e3c:	0f 8f c1 fe ff ff    	jg     8048d03
 8048e42:	e8 89 11 00 00       	call   8049fd0
 8048e47:	8b 0d 68 f1 04 08    	mov    ecx,DWORD PTR ds:0x804f168
 8048e4d:	8b 1d 6c f1 04 08    	mov    ebx,DWORD PTR ds:0x804f16c
 8048e53:	01 c8                	add    eax,ecx
 8048e55:	11 da                	adc    edx,ebx
 8048e57:	2b 45 f0             	sub    eax,DWORD PTR [ebp-0x10]
 8048e5a:	1b 55 f4             	sbb    edx,DWORD PTR [ebp-0xc]
 8048e5d:	a3 68 f1 04 08       	mov    ds:0x804f168,eax
 8048e62:	89 15 6c f1 04 08    	mov    DWORD PTR ds:0x804f16c,edx
 8048e68:	e8 63 11 00 00       	call   8049fd0
 8048e6d:	89 45 f0             	mov    DWORD PTR [ebp-0x10],eax
 8048e70:	89 55 f4             	mov    DWORD PTR [ebp-0xc],edx
 8048e73:	c7 45 c0 00 00 00 00 	mov    DWORD PTR [ebp-0x40],0x0
 8048e7a:	c7 45 c4 00 00 00 00 	mov    DWORD PTR [ebp-0x3c],0x0
 8048e81:	e9 9e 01 00 00       	jmp    8049024
 8048e86:	a1 60 f1 04 08       	mov    eax,ds:0x804f160
 8048e8b:	8b 55 c4             	mov    edx,DWORD PTR [ebp-0x3c]
 8048e8e:	c1 e2 04             	shl    edx,0x4
 8048e91:	01 d0                	add    eax,edx
 8048e93:	89 45 d8             	mov    DWORD PTR [ebp-0x28],eax
 8048e96:	8b 15 64 f1 04 08    	mov    edx,DWORD PTR ds:0x804f164
 8048e9c:	a1 40 f1 04 08       	mov    eax,ds:0x804f140
 8048ea1:	0f af 45 c4          	imul   eax,DWORD PTR [ebp-0x3c]
 8048ea5:	c1 e0 02             	shl    eax,0x2
 8048ea8:	01 d0                	add    eax,edx
 8048eaa:	89 45 dc             	mov    DWORD PTR [ebp-0x24],eax
 8048ead:	8b 45 d8             	mov    eax,DWORD PTR [ebp-0x28]
 8048eb0:	8b 50 08             	mov    edx,DWORD PTR [eax+0x8]
 8048eb3:	8b 45 0c             	mov    eax,DWORD PTR [ebp+0xc]
 8048eb6:	39 c2                	cmp    edx,eax
 8048eb8:	75 11                	jne    8048ecb
 8048eba:	8b 45 d8             	mov    eax,DWORD PTR [ebp-0x28]
 8048ebd:	8b 40 04             	mov    eax,DWORD PTR [eax+0x4]
 8048ec0:	85 c0                	test   eax,eax
 8048ec2:	74 07                	je     8048ecb
 8048ec4:	b8 01 00 00 00       	mov    eax,0x1
 8048ec9:	eb 05                	jmp    8048ed0
 8048ecb:	b8 00 00 00 00       	mov    eax,0x0
 8048ed0:	89 45 e0             	mov    DWORD PTR [ebp-0x20],eax
 8048ed3:	83 7d e0 00          	cmp    DWORD PTR [ebp-0x20],0x0
 8048ed7:	74 0d                	je     8048ee6
 8048ed9:	83 7d 08 01          	cmp    DWORD PTR [ebp+0x8],0x1
 8048edd:	75 07                	jne    8048ee6
 8048edf:	b8 01 00 00 00       	mov    eax,0x1
 8048ee4:	eb 05                	jmp    8048eeb
 8048ee6:	b8 00 00 00 00       	mov    eax,0x0
 8048eeb:	89 45 e4             	mov    DWORD PTR [ebp-0x1c],eax
 8048eee:	83 7d e0 00          	cmp    DWORD PTR [ebp-0x20],0x0
 8048ef2:	74 0d                	je     8048f01
 8048ef4:	83 7d 08 02          	cmp    DWORD PTR [ebp+0x8],0x2
 8048ef8:	75 07                	jne    8048f01
 8048efa:	b8 01 00 00 00       	mov    eax,0x1
 8048eff:	eb 05                	jmp    8048f06
 8048f01:	b8 00 00 00 00       	mov    eax,0x0
 8048f06:	89 45 e8             	mov    DWORD PTR [ebp-0x18],eax
 8048f09:	8b 45 d8             	mov    eax,DWORD PTR [ebp-0x28]
 8048f0c:	83 c0 0c             	add    eax,0xc
 8048f0f:	89 44 24 08          	mov    DWORD PTR [esp+0x8],eax
 8048f13:	8d 45 18             	lea    eax,[ebp+0x18]
 8048f16:	89 44 24 04          	mov    DWORD PTR [esp+0x4],eax
 8048f1a:	8b 45 e0             	mov    eax,DWORD PTR [ebp-0x20]
 8048f1d:	89 04 24             	mov    DWORD PTR [esp],eax
 8048f20:	e8 f3 10 00 00       	call   804a018
 8048f25:	a1 40 f1 04 08       	mov    eax,ds:0x804f140
 8048f2a:	89 44 24 0c          	mov    DWORD PTR [esp+0xc],eax
 8048f2e:	8b 45 10             	mov    eax,DWORD PTR [ebp+0x10]
 8048f31:	89 44 24 08          	mov    DWORD PTR [esp+0x8],eax
 8048f35:	8b 45 dc             	mov    eax,DWORD PTR [ebp-0x24]
 8048f38:	89 44 24 04          	mov    DWORD PTR [esp+0x4],eax
 8048f3c:	8b 45 e4             	mov    eax,DWORD PTR [ebp-0x1c]
 8048f3f:	89 04 24             	mov    DWORD PTR [esp],eax
 8048f42:	e8 ea 10 00 00       	call   804a031
 8048f47:	a1 40 f1 04 08       	mov    eax,ds:0x804f140
 8048f4c:	89 44 24 0c          	mov    DWORD PTR [esp+0xc],eax
 8048f50:	8b 45 dc             	mov    eax,DWORD PTR [ebp-0x24]
 8048f53:	89 44 24 08          	mov    DWORD PTR [esp+0x8],eax
 8048f57:	8b 45 10             	mov    eax,DWORD PTR [ebp+0x10]
 8048f5a:	89 44 24 04          	mov    DWORD PTR [esp+0x4],eax
 8048f5e:	8b 45 e8             	mov    eax,DWORD PTR [ebp-0x18]
 8048f61:	89 04 24             	mov    DWORD PTR [esp],eax
 8048f64:	e8 c8 10 00 00       	call   804a031
 8048f69:	83 7d 1c 00          	cmp    DWORD PTR [ebp+0x1c],0x0
 8048f6d:	74 17                	je     8048f86
 8048f6f:	8b 45 d8             	mov    eax,DWORD PTR [ebp-0x28]
 8048f72:	8b 40 04             	mov    eax,DWORD PTR [eax+0x4]
 8048f75:	85 c0                	test   eax,eax
 8048f77:	75 0d                	jne    8048f86
 8048f79:	83 7d c0 00          	cmp    DWORD PTR [ebp-0x40],0x0
 8048f7d:	75 07                	jne    8048f86
 8048f7f:	b8 01 00 00 00       	mov    eax,0x1
 8048f84:	eb 05                	jmp    8048f8b
 8048f86:	b8 00 00 00 00       	mov    eax,0x0
 8048f8b:	89 45 ec             	mov    DWORD PTR [ebp-0x14],eax
 8048f8e:	83 7d c0 00          	cmp    DWORD PTR [ebp-0x40],0x0
 8048f92:	75 06                	jne    8048f9a
 8048f94:	83 7d ec 00          	cmp    DWORD PTR [ebp-0x14],0x0
 8048f98:	74 07                	je     8048fa1
 8048f9a:	b8 01 00 00 00       	mov    eax,0x1
 8048f9f:	eb 05                	jmp    8048fa6
 8048fa1:	b8 00 00 00 00       	mov    eax,0x0
 8048fa6:	89 45 c0             	mov    DWORD PTR [ebp-0x40],eax
 8048fa9:	8b 45 d8             	mov    eax,DWORD PTR [ebp-0x28]
 8048fac:	83 c0 04             	add    eax,0x4
 8048faf:	89 44 24 08          	mov    DWORD PTR [esp+0x8],eax
 8048fb3:	c7 44 24 04 48 f0 04 	mov    DWORD PTR [esp+0x4],0x804f048
 8048fba:	08 
 8048fbb:	8b 45 ec             	mov    eax,DWORD PTR [ebp-0x14]
 8048fbe:	89 04 24             	mov    DWORD PTR [esp],eax
 8048fc1:	e8 52 10 00 00       	call   804a018
 8048fc6:	8b 45 d8             	mov    eax,DWORD PTR [ebp-0x28]
 8048fc9:	83 c0 08             	add    eax,0x8
 8048fcc:	89 44 24 08          	mov    DWORD PTR [esp+0x8],eax
 8048fd0:	8d 45 0c             	lea    eax,[ebp+0xc]
 8048fd3:	89 44 24 04          	mov    DWORD PTR [esp+0x4],eax
 8048fd7:	8b 45 ec             	mov    eax,DWORD PTR [ebp-0x14]
 8048fda:	89 04 24             	mov    DWORD PTR [esp],eax
 8048fdd:	e8 36 10 00 00       	call   804a018
 8048fe2:	8b 45 d8             	mov    eax,DWORD PTR [ebp-0x28]
 8048fe5:	83 c0 0c             	add    eax,0xc
 8048fe8:	89 44 24 08          	mov    DWORD PTR [esp+0x8],eax
 8048fec:	8d 45 18             	lea    eax,[ebp+0x18]
 8048fef:	89 44 24 04          	mov    DWORD PTR [esp+0x4],eax
 8048ff3:	8b 45 ec             	mov    eax,DWORD PTR [ebp-0x14]
 8048ff6:	89 04 24             	mov    DWORD PTR [esp],eax
 8048ff9:	e8 1a 10 00 00       	call   804a018
 8048ffe:	a1 40 f1 04 08       	mov    eax,ds:0x804f140
 8049003:	89 44 24 0c          	mov    DWORD PTR [esp+0xc],eax
 8049007:	8b 45 dc             	mov    eax,DWORD PTR [ebp-0x24]
 804900a:	89 44 24 08          	mov    DWORD PTR [esp+0x8],eax
 804900e:	8b 45 10             	mov    eax,DWORD PTR [ebp+0x10]
 8049011:	89 44 24 04          	mov    DWORD PTR [esp+0x4],eax
 8049015:	8b 45 ec             	mov    eax,DWORD PTR [ebp-0x14]
 8049018:	89 04 24             	mov    DWORD PTR [esp],eax
 804901b:	e8 11 10 00 00       	call   804a031
 8049020:	83 45 c4 01          	add    DWORD PTR [ebp-0x3c],0x1
 8049024:	a1 5c f1 04 08       	mov    eax,ds:0x804f15c
 8049029:	3b 45 c4             	cmp    eax,DWORD PTR [ebp-0x3c]
 804902c:	0f 8f 54 fe ff ff    	jg     8048e86
 8049032:	e8 99 0f 00 00       	call   8049fd0
 8049037:	8b 0d f8 f0 04 08    	mov    ecx,DWORD PTR ds:0x804f0f8
 804903d:	8b 1d fc f0 04 08    	mov    ebx,DWORD PTR ds:0x804f0fc
 8049043:	01 c8                	add    eax,ecx
 8049045:	11 da                	adc    edx,ebx
 8049047:	2b 45 f0             	sub    eax,DWORD PTR [ebp-0x10]
 804904a:	1b 55 f4             	sbb    edx,DWORD PTR [ebp-0xc]
 804904d:	a3 f8 f0 04 08       	mov    ds:0x804f0f8,eax
 8049052:	89 15 fc f0 04 08    	mov    DWORD PTR ds:0x804f0fc,edx
 8049058:	83 c4 64             	add    esp,0x64
 804905b:	5b                   	pop    ebx
 804905c:	5d                   	pop    ebp
 804905d:	c3                   	ret

0804905e <Store_Blocks>:
 804905e:	55                   	push   ebp
 804905f:	89 e5                	mov    ebp,esp
 8049061:	56                   	push   esi
 8049062:	53                   	push   ebx
 8049063:	81 ec b0 00 00 00    	sub    esp,0xb0
 8049069:	e8 62 0f 00 00       	call   8049fd0
 804906e:	89 45 e8             	mov    DWORD PTR [ebp-0x18],eax
 8049071:	89 55 ec             	mov    DWORD PTR [ebp-0x14],edx
 8049074:	c7 45 98 00 00 00 00 	mov    DWORD PTR [ebp-0x68],0x0
 804907b:	eb 17                	jmp    8049094
 804907d:	a1 8c f0 04 08       	mov    eax,ds:0x804f08c
 8049082:	8b 55 98             	mov    edx,DWORD PTR [ebp-0x68]
 8049085:	c1 e2 02             	shl    edx,0x2
 8049088:	01 d0                	add    eax,edx
 804908a:	c7 00 ff ff ff ff    	mov    DWORD PTR [eax],0xffffffff
 8049090:	83 45 98 01          	add    DWORD PTR [ebp-0x68],0x1
 8049094:	8b 15 00 f1 04 08    	mov    edx,DWORD PTR ds:0x804f100
 804909a:	a1 44 f1 04 08       	mov    eax,ds:0x804f144
 804909f:	0f af c2             	imul   eax,edx
 80490a2:	3b 45 98             	cmp    eax,DWORD PTR [ebp-0x68]
 80490a5:	7f d6                	jg     804907d
 80490a7:	c7 45 9c 00 00 00 00 	mov    DWORD PTR [ebp-0x64],0x0
 80490ae:	eb 17                	jmp    80490c7
 80490b0:	a1 90 f0 04 08       	mov    eax,ds:0x804f090
 80490b5:	8b 55 9c             	mov    edx,DWORD PTR [ebp-0x64]
 80490b8:	c1 e2 02             	shl    edx,0x2
 80490bb:	01 d0                	add    eax,edx
 80490bd:	c7 00 00 00 00 00    	mov    DWORD PTR [eax],0x0
 80490c3:	83 45 9c 01          	add    DWORD PTR [ebp-0x64],0x1
 80490c7:	a1 00 f1 04 08       	mov    eax,ds:0x804f100
 80490cc:	3b 45 9c             	cmp    eax,DWORD PTR [ebp-0x64]
 80490cf:	7f df                	jg     80490b0
 80490d1:	c7 45 84 00 00 00 00 	mov    DWORD PTR [ebp-0x7c],0x0
 80490d8:	e9 ad 01 00 00       	jmp    804928a
 80490dd:	a1 60 f1 04 08       	mov    eax,ds:0x804f160
 80490e2:	8b 55 84             	mov    edx,DWORD PTR [ebp-0x7c]
 80490e5:	c1 e2 04             	shl    edx,0x4
 80490e8:	01 d0                	add    eax,edx
 80490ea:	8b 40 04             	mov    eax,DWORD PTR [eax+0x4]
 80490ed:	89 45 c0             	mov    DWORD PTR [ebp-0x40],eax
 80490f0:	a1 60 f1 04 08       	mov    eax,ds:0x804f160
 80490f5:	8b 55 84             	mov    edx,DWORD PTR [ebp-0x7c]
 80490f8:	c1 e2 04             	shl    edx,0x4
 80490fb:	01 d0                	add    eax,edx
 80490fd:	8b 40 0c             	mov    eax,DWORD PTR [eax+0xc]
 8049100:	89 45 c4             	mov    DWORD PTR [ebp-0x3c],eax
 8049103:	8b 15 00 f1 04 08    	mov    edx,DWORD PTR ds:0x804f100
 8049109:	a1 90 f0 04 08       	mov    eax,ds:0x804f090
 804910e:	89 54 24 0c          	mov    DWORD PTR [esp+0xc],edx
 8049112:	89 44 24 08          	mov    DWORD PTR [esp+0x8],eax
 8049116:	8b 45 c4             	mov    eax,DWORD PTR [ebp-0x3c]
 8049119:	89 44 24 04          	mov    DWORD PTR [esp+0x4],eax
 804911d:	8b 45 08             	mov    eax,DWORD PTR [ebp+0x8]
 8049120:	89 04 24             	mov    DWORD PTR [esp],eax
 8049123:	e8 e1 f4 ff ff       	call   8048609
 8049128:	89 45 c8             	mov    DWORD PTR [ebp-0x38],eax
 804912b:	83 7d c0 00          	cmp    DWORD PTR [ebp-0x40],0x0
 804912f:	74 0d                	je     804913e
 8049131:	83 7d c8 00          	cmp    DWORD PTR [ebp-0x38],0x0
 8049135:	78 07                	js     804913e
 8049137:	b8 01 00 00 00       	mov    eax,0x1
 804913c:	eb 05                	jmp    8049143
 804913e:	b8 00 00 00 00       	mov    eax,0x0
 8049143:	89 45 cc             	mov    DWORD PTR [ebp-0x34],eax
 8049146:	c7 45 88 00 00 00 00 	mov    DWORD PTR [ebp-0x78],0x0
 804914d:	8b 15 00 f1 04 08    	mov    edx,DWORD PTR ds:0x804f100
 8049153:	a1 90 f0 04 08       	mov    eax,ds:0x804f090
 8049158:	8b 4d c8             	mov    ecx,DWORD PTR [ebp-0x38]
 804915b:	89 4c 24 10          	mov    DWORD PTR [esp+0x10],ecx
 804915f:	8d 4d 88             	lea    ecx,[ebp-0x78]
 8049162:	89 4c 24 0c          	mov    DWORD PTR [esp+0xc],ecx
 8049166:	c7 44 24 08 01 00 00 	mov    DWORD PTR [esp+0x8],0x1
 804916d:	00 
 804916e:	89 54 24 04          	mov    DWORD PTR [esp+0x4],edx
 8049172:	89 04 24             	mov    DWORD PTR [esp],eax
 8049175:	e8 06 0d 00 00       	call   8049e80
 804917a:	a1 44 f1 04 08       	mov    eax,ds:0x804f144
 804917f:	0f af 45 c8          	imul   eax,DWORD PTR [ebp-0x38]
 8049183:	89 c2                	mov    edx,eax
 8049185:	8b 45 88             	mov    eax,DWORD PTR [ebp-0x78]
 8049188:	01 d0                	add    eax,edx
 804918a:	89 45 8c             	mov    DWORD PTR [ebp-0x74],eax
 804918d:	c7 45 90 00 00 00 00 	mov    DWORD PTR [ebp-0x70],0x0
 8049194:	8d 45 90             	lea    eax,[ebp-0x70]
 8049197:	89 44 24 08          	mov    DWORD PTR [esp+0x8],eax
 804919b:	8d 45 84             	lea    eax,[ebp-0x7c]
 804919e:	89 44 24 04          	mov    DWORD PTR [esp+0x4],eax
 80491a2:	8b 45 cc             	mov    eax,DWORD PTR [ebp-0x34]
 80491a5:	89 04 24             	mov    DWORD PTR [esp],eax
 80491a8:	e8 6b 0e 00 00       	call   804a018
 80491ad:	8b 4d 8c             	mov    ecx,DWORD PTR [ebp-0x74]
 80491b0:	8b 15 00 f1 04 08    	mov    edx,DWORD PTR ds:0x804f100
 80491b6:	a1 44 f1 04 08       	mov    eax,ds:0x804f144
 80491bb:	0f af d0             	imul   edx,eax
 80491be:	a1 8c f0 04 08       	mov    eax,ds:0x804f08c
 80491c3:	89 4c 24 10          	mov    DWORD PTR [esp+0x10],ecx
 80491c7:	8d 4d 90             	lea    ecx,[ebp-0x70]
 80491ca:	89 4c 24 0c          	mov    DWORD PTR [esp+0xc],ecx
 80491ce:	c7 44 24 08 01 00 00 	mov    DWORD PTR [esp+0x8],0x1
 80491d5:	00 
 80491d6:	89 54 24 04          	mov    DWORD PTR [esp+0x4],edx
 80491da:	89 04 24             	mov    DWORD PTR [esp],eax
 80491dd:	e8 fa 0c 00 00       	call   8049edc
 80491e2:	8b 45 88             	mov    eax,DWORD PTR [ebp-0x78]
 80491e5:	83 c0 01             	add    eax,0x1
 80491e8:	89 45 94             	mov    DWORD PTR [ebp-0x6c],eax
 80491eb:	8d 45 88             	lea    eax,[ebp-0x78]
 80491ee:	89 44 24 08          	mov    DWORD PTR [esp+0x8],eax
 80491f2:	8d 45 94             	lea    eax,[ebp-0x6c]
 80491f5:	89 44 24 04          	mov    DWORD PTR [esp+0x4],eax
 80491f9:	8b 45 cc             	mov    eax,DWORD PTR [ebp-0x34]
 80491fc:	89 04 24             	mov    DWORD PTR [esp],eax
 80491ff:	e8 14 0e 00 00       	call   804a018
 8049204:	8b 15 00 f1 04 08    	mov    edx,DWORD PTR ds:0x804f100
 804920a:	a1 90 f0 04 08       	mov    eax,ds:0x804f090
 804920f:	8b 4d c8             	mov    ecx,DWORD PTR [ebp-0x38]
 8049212:	89 4c 24 10          	mov    DWORD PTR [esp+0x10],ecx
 8049216:	8d 4d 88             	lea    ecx,[ebp-0x78]
 8049219:	89 4c 24 0c          	mov    DWORD PTR [esp+0xc],ecx
 804921d:	c7 44 24 08 01 00 00 	mov    DWORD PTR [esp+0x8],0x1
 8049224:	00 
 8049225:	89 54 24 04          	mov    DWORD PTR [esp+0x4],edx
 8049229:	89 04 24             	mov    DWORD PTR [esp],eax
 804922c:	e8 ab 0c 00 00       	call   8049edc
 8049231:	a1 60 f1 04 08       	mov    eax,ds:0x804f160
 8049236:	8b 55 84             	mov    edx,DWORD PTR [ebp-0x7c]
 8049239:	c1 e2 04             	shl    edx,0x4
 804923c:	01 d0                	add    eax,edx
 804923e:	89 44 24 08          	mov    DWORD PTR [esp+0x8],eax
 8049242:	8d 45 8c             	lea    eax,[ebp-0x74]
 8049245:	89 44 24 04          	mov    DWORD PTR [esp+0x4],eax
 8049249:	8b 45 cc             	mov    eax,DWORD PTR [ebp-0x34]
 804924c:	89 04 24             	mov    DWORD PTR [esp],eax
 804924f:	e8 c4 0d 00 00       	call   804a018
 8049254:	a1 60 f1 04 08       	mov    eax,ds:0x804f160
 8049259:	8b 55 84             	mov    edx,DWORD PTR [ebp-0x7c]
 804925c:	c1 e2 04             	shl    edx,0x4
 804925f:	01 d0                	add    eax,edx
 8049261:	89 c2                	mov    edx,eax
 8049263:	83 7d cc 00          	cmp    DWORD PTR [ebp-0x34],0x0
 8049267:	0f 94 c0             	sete   al
 804926a:	0f b6 c0             	movzx  eax,al
 804926d:	89 54 24 08          	mov    DWORD PTR [esp+0x8],edx
 8049271:	c7 44 24 04 4c f0 04 	mov    DWORD PTR [esp+0x4],0x804f04c
 8049278:	08 
 8049279:	89 04 24             	mov    DWORD PTR [esp],eax
 804927c:	e8 97 0d 00 00       	call   804a018
 8049281:	8b 45 84             	mov    eax,DWORD PTR [ebp-0x7c]
 8049284:	83 c0 01             	add    eax,0x1
 8049287:	89 45 84             	mov    DWORD PTR [ebp-0x7c],eax
 804928a:	8b 15 5c f1 04 08    	mov    edx,DWORD PTR ds:0x804f15c
 8049290:	8b 45 84             	mov    eax,DWORD PTR [ebp-0x7c]
 8049293:	39 c2                	cmp    edx,eax
 8049295:	0f 8f 42 fe ff ff    	jg     80490dd
 804929b:	c7 45 94 00 00 00 00 	mov    DWORD PTR [ebp-0x6c],0x0
 80492a2:	e9 af 00 00 00       	jmp    8049356
 80492a7:	a1 8c f0 04 08       	mov    eax,ds:0x804f08c
 80492ac:	8b 55 94             	mov    edx,DWORD PTR [ebp-0x6c]
 80492af:	c1 e2 02             	shl    edx,0x2
 80492b2:	01 d0                	add    eax,edx
 80492b4:	8b 00                	mov    eax,DWORD PTR [eax]
 80492b6:	83 f8 ff             	cmp    eax,0xff
 80492b9:	0f 94 c0             	sete   al
 80492bc:	0f b6 c0             	movzx  eax,al
 80492bf:	89 45 d0             	mov    DWORD PTR [ebp-0x30],eax
 80492c2:	c7 45 a0 00 00 00 00 	mov    DWORD PTR [ebp-0x60],0x0
 80492c9:	c7 45 a4 00 00 00 00 	mov    DWORD PTR [ebp-0x5c],0x0
 80492d0:	eb 71                	jmp    8049343
 80492d2:	83 7d d0 00          	cmp    DWORD PTR [ebp-0x30],0x0
 80492d6:	74 21                	je     80492f9
 80492d8:	83 7d a0 00          	cmp    DWORD PTR [ebp-0x60],0x0
 80492dc:	75 1b                	jne    80492f9
 80492de:	a1 60 f1 04 08       	mov    eax,ds:0x804f160
 80492e3:	8b 55 a4             	mov    edx,DWORD PTR [ebp-0x5c]
 80492e6:	c1 e2 04             	shl    edx,0x4
 80492e9:	01 d0                	add    eax,edx
 80492eb:	8b 40 04             	mov    eax,DWORD PTR [eax+0x4]
 80492ee:	85 c0                	test   eax,eax
 80492f0:	75 07                	jne    80492f9
 80492f2:	b8 01 00 00 00       	mov    eax,0x1
 80492f7:	eb 05                	jmp    80492fe
 80492f9:	b8 00 00 00 00       	mov    eax,0x0
 80492fe:	89 45 d4             	mov    DWORD PTR [ebp-0x2c],eax
 8049301:	a1 60 f1 04 08       	mov    eax,ds:0x804f160
 8049306:	8b 55 a4             	mov    edx,DWORD PTR [ebp-0x5c]
 8049309:	c1 e2 04             	shl    edx,0x4
 804930c:	01 d0                	add    eax,edx
 804930e:	89 44 24 08          	mov    DWORD PTR [esp+0x8],eax
 8049312:	8d 45 94             	lea    eax,[ebp-0x6c]
 8049315:	89 44 24 04          	mov    DWORD PTR [esp+0x4],eax
 8049319:	8b 45 d4             	mov    eax,DWORD PTR [ebp-0x2c]
 804931c:	89 04 24             	mov    DWORD PTR [esp],eax
 804931f:	e8 f4 0c 00 00       	call   804a018
 8049324:	83 7d a0 00          	cmp    DWORD PTR [ebp-0x60],0x0
 8049328:	75 06                	jne    8049330
 804932a:	83 7d d4 00          	cmp    DWORD PTR [ebp-0x2c],0x0
 804932e:	74 07                	je     8049337
 8049330:	b8 01 00 00 00       	mov    eax,0x1
 8049335:	eb 05                	jmp    804933c
 8049337:	b8 00 00 00 00       	mov    eax,0x0
 804933c:	89 45 a0             	mov    DWORD PTR [ebp-0x60],eax
 804933f:	83 45 a4 01          	add    DWORD PTR [ebp-0x5c],0x1
 8049343:	a1 5c f1 04 08       	mov    eax,ds:0x804f15c
 8049348:	3b 45 a4             	cmp    eax,DWORD PTR [ebp-0x5c]
 804934b:	7f 85                	jg     80492d2
 804934d:	8b 45 94             	mov    eax,DWORD PTR [ebp-0x6c]
 8049350:	83 c0 01             	add    eax,0x1
 8049353:	89 45 94             	mov    DWORD PTR [ebp-0x6c],eax
 8049356:	8b 15 00 f1 04 08    	mov    edx,DWORD PTR ds:0x804f100
 804935c:	a1 44 f1 04 08       	mov    eax,ds:0x804f144
 8049361:	0f af d0             	imul   edx,eax
 8049364:	8b 45 94             	mov    eax,DWORD PTR [ebp-0x6c]
 8049367:	39 c2                	cmp    edx,eax
 8049369:	0f 8f 38 ff ff ff    	jg     80492a7
 804936f:	e8 5c 0c 00 00       	call   8049fd0
 8049374:	89 45 f0             	mov    DWORD PTR [ebp-0x10],eax
 8049377:	89 55 f4             	mov    DWORD PTR [ebp-0xc],edx
 804937a:	a1 28 f1 04 08       	mov    eax,ds:0x804f128
 804937f:	8b 35 40 f1 04 08    	mov    esi,DWORD PTR ds:0x804f140
 8049385:	8b 1d 5c f1 04 08    	mov    ebx,DWORD PTR ds:0x804f15c
 804938b:	8b 0d 64 f1 04 08    	mov    ecx,DWORD PTR ds:0x804f164
 8049391:	8b 15 60 f1 04 08    	mov    edx,DWORD PTR ds:0x804f160
 8049397:	89 74 24 20          	mov    DWORD PTR [esp+0x20],esi
 804939b:	c7 44 24 1c 04 00 00 	mov    DWORD PTR [esp+0x1c],0x4
 80493a2:	00 
 80493a3:	c7 44 24 18 01 00 00 	mov    DWORD PTR [esp+0x18],0x1
 80493aa:	00 
 80493ab:	c7 44 24 14 01 00 00 	mov    DWORD PTR [esp+0x14],0x1
 80493b2:	00 
 80493b3:	c7 44 24 10 01 00 00 	mov    DWORD PTR [esp+0x10],0x1
 80493ba:	00 
 80493bb:	c7 44 24 0c 00 00 00 	mov    DWORD PTR [esp+0xc],0x0
 80493c2:	00 
 80493c3:	89 5c 24 08          	mov    DWORD PTR [esp+0x8],ebx
 80493c7:	89 4c 24 04          	mov    DWORD PTR [esp+0x4],ecx
 80493cb:	89 14 24             	mov    DWORD PTR [esp],edx
 80493ce:	ff d0                	call   eax
 80493d0:	e8 fb 0b 00 00       	call   8049fd0
 80493d5:	8b 0d 88 f1 04 08    	mov    ecx,DWORD PTR ds:0x804f188
 80493db:	8b 1d 8c f1 04 08    	mov    ebx,DWORD PTR ds:0x804f18c
 80493e1:	01 c8                	add    eax,ecx
 80493e3:	11 da                	adc    edx,ebx
 80493e5:	2b 45 f0             	sub    eax,DWORD PTR [ebp-0x10]
 80493e8:	1b 55 f4             	sbb    edx,DWORD PTR [ebp-0xc]
 80493eb:	a3 88 f1 04 08       	mov    ds:0x804f188,eax
 80493f0:	89 15 8c f1 04 08    	mov    DWORD PTR ds:0x804f18c,edx
 80493f6:	c7 45 a8 01 00 00 00 	mov    DWORD PTR [ebp-0x58],0x1
 80493fd:	c7 45 ac 00 00 00 00 	mov    DWORD PTR [ebp-0x54],0x0
 8049404:	a1 00 f1 04 08       	mov    eax,ds:0x804f100
 8049409:	8d 50 ff             	lea    edx,[eax-0x1]
 804940c:	8b 45 08             	mov    eax,DWORD PTR [ebp+0x8]
 804940f:	89 54 24 04          	mov    DWORD PTR [esp+0x4],edx
 8049413:	89 04 24             	mov    DWORD PTR [esp],eax
 8049416:	e8 49 0b 00 00       	call   8049f64
 804941b:	89 45 b0             	mov    DWORD PTR [ebp-0x50],eax
 804941e:	c7 45 b4 00 00 00 00 	mov    DWORD PTR [ebp-0x4c],0x0
 8049425:	e9 32 01 00 00       	jmp    804955c
 804942a:	c7 45 b8 00 00 00 00 	mov    DWORD PTR [ebp-0x48],0x0
 8049431:	e9 ec 00 00 00       	jmp    8049522
 8049436:	8b 15 04 f1 04 08    	mov    edx,DWORD PTR ds:0x804f104
 804943c:	a1 44 f1 04 08       	mov    eax,ds:0x804f144
 8049441:	0f af 45 a8          	imul   eax,DWORD PTR [ebp-0x58]
 8049445:	89 c1                	mov    ecx,eax
 8049447:	8b 45 b8             	mov    eax,DWORD PTR [ebp-0x48]
 804944a:	01 c8                	add    eax,ecx
 804944c:	8b 0d 40 f1 04 08    	mov    ecx,DWORD PTR ds:0x804f140
 8049452:	83 c1 03             	add    ecx,0x3
 8049455:	0f af c1             	imul   eax,ecx
 8049458:	c1 e0 02             	shl    eax,0x2
 804945b:	01 d0                	add    eax,edx
 804945d:	89 45 d8             	mov    DWORD PTR [ebp-0x28],eax
 8049460:	8b 15 04 f1 04 08    	mov    edx,DWORD PTR ds:0x804f104
 8049466:	a1 44 f1 04 08       	mov    eax,ds:0x804f144
 804946b:	0f af 45 a8          	imul   eax,DWORD PTR [ebp-0x58]
 804946f:	89 c1                	mov    ecx,eax
 8049471:	8b 45 b8             	mov    eax,DWORD PTR [ebp-0x48]
 8049474:	01 c8                	add    eax,ecx
 8049476:	8b 0d 40 f1 04 08    	mov    ecx,DWORD PTR ds:0x804f140
 804947c:	83 c1 03             	add    ecx,0x3
 804947f:	0f af c1             	imul   eax,ecx
 8049482:	83 c0 03             	add    eax,0x3
 8049485:	c1 e0 02             	shl    eax,0x2
 8049488:	01 d0                	add    eax,edx
 804948a:	89 45 dc             	mov    DWORD PTR [ebp-0x24],eax
 804948d:	a1 60 f1 04 08       	mov    eax,ds:0x804f160
 8049492:	8b 55 ac             	mov    edx,DWORD PTR [ebp-0x54]
 8049495:	c1 e2 04             	shl    edx,0x4
 8049498:	01 d0                	add    eax,edx
 804949a:	89 45 e0             	mov    DWORD PTR [ebp-0x20],eax
 804949d:	8b 15 64 f1 04 08    	mov    edx,DWORD PTR ds:0x804f164
 80494a3:	a1 40 f1 04 08       	mov    eax,ds:0x804f140
 80494a8:	0f af 45 ac          	imul   eax,DWORD PTR [ebp-0x54]
 80494ac:	c1 e0 02             	shl    eax,0x2
 80494af:	01 d0                	add    eax,edx
 80494b1:	89 45 e4             	mov    DWORD PTR [ebp-0x1c],eax
 80494b4:	8b 45 e0             	mov    eax,DWORD PTR [ebp-0x20]
 80494b7:	8b 50 04             	mov    edx,DWORD PTR [eax+0x4]
 80494ba:	8b 45 d8             	mov    eax,DWORD PTR [ebp-0x28]
 80494bd:	89 10                	mov    DWORD PTR [eax],edx
 80494bf:	8b 45 e0             	mov    eax,DWORD PTR [ebp-0x20]
 80494c2:	8b 50 08             	mov    edx,DWORD PTR [eax+0x8]
 80494c5:	8b 45 d8             	mov    eax,DWORD PTR [ebp-0x28]
 80494c8:	89 50 04             	mov    DWORD PTR [eax+0x4],edx
 80494cb:	8b 45 e0             	mov    eax,DWORD PTR [ebp-0x20]
 80494ce:	8b 50 0c             	mov    edx,DWORD PTR [eax+0xc]
 80494d1:	8b 45 d8             	mov    eax,DWORD PTR [ebp-0x28]
 80494d4:	89 50 08             	mov    DWORD PTR [eax+0x8],edx
 80494d7:	8b 45 e0             	mov    eax,DWORD PTR [ebp-0x20]
 80494da:	c7 40 04 00 00 00 00 	mov    DWORD PTR [eax+0x4],0x0
 80494e1:	c7 45 bc 00 00 00 00 	mov    DWORD PTR [ebp-0x44],0x0
 80494e8:	eb 26                	jmp    8049510
 80494ea:	8b 45 bc             	mov    eax,DWORD PTR [ebp-0x44]
 80494ed:	8d 14 85 00 00 00 00 	lea    edx,[eax*4]
 80494f4:	8b 45 dc             	mov    eax,DWORD PTR [ebp-0x24]
 80494f7:	01 c2                	add    edx,eax
 80494f9:	8b 45 bc             	mov    eax,DWORD PTR [ebp-0x44]
 80494fc:	8d 0c 85 00 00 00 00 	lea    ecx,[eax*4]
 8049503:	8b 45 e4             	mov    eax,DWORD PTR [ebp-0x1c]
 8049506:	01 c8                	add    eax,ecx
 8049508:	8b 00                	mov    eax,DWORD PTR [eax]
 804950a:	89 02                	mov    DWORD PTR [edx],eax
 804950c:	83 45 bc 01          	add    DWORD PTR [ebp-0x44],0x1
 8049510:	a1 40 f1 04 08       	mov    eax,ds:0x804f140
 8049515:	3b 45 bc             	cmp    eax,DWORD PTR [ebp-0x44]
 8049518:	7f d0                	jg     80494ea
 804951a:	83 45 ac 01          	add    DWORD PTR [ebp-0x54],0x1
 804951e:	83 45 b8 01          	add    DWORD PTR [ebp-0x48],0x1
 8049522:	a1 44 f1 04 08       	mov    eax,ds:0x804f144
 8049527:	3b 45 b8             	cmp    eax,DWORD PTR [ebp-0x48]
 804952a:	0f 8f 06 ff ff ff    	jg     8049436
 8049530:	8b 45 a8             	mov    eax,DWORD PTR [ebp-0x58]
 8049533:	8d 0c 00             	lea    ecx,[eax+eax]
 8049536:	8b 45 b0             	mov    eax,DWORD PTR [ebp-0x50]
 8049539:	99                   	cdq
 804953a:	c1 ea 1f             	shr    edx,0x1f
 804953d:	01 d0                	add    eax,edx
 804953f:	83 e0 01             	and    eax,0x1
 8049542:	29 d0                	sub    eax,edx
 8049544:	01 c8                	add    eax,ecx
 8049546:	89 45 a8             	mov    DWORD PTR [ebp-0x58],eax
 8049549:	8b 45 b0             	mov    eax,DWORD PTR [ebp-0x50]
 804954c:	89 c2                	mov    edx,eax
 804954e:	c1 ea 1f             	shr    edx,0x1f
 8049551:	01 d0                	add    eax,edx
 8049553:	d1 f8                	sar    eax,1
 8049555:	89 45 b0             	mov    DWORD PTR [ebp-0x50],eax
 8049558:	83 45 b4 01          	add    DWORD PTR [ebp-0x4c],0x1
 804955c:	a1 00 f1 04 08       	mov    eax,ds:0x804f100
 8049561:	3b 45 b4             	cmp    eax,DWORD PTR [ebp-0x4c]
 8049564:	0f 8f c0 fe ff ff    	jg     804942a
 804956a:	e8 61 0a 00 00       	call   8049fd0
 804956f:	8b 0d 78 f1 04 08    	mov    ecx,DWORD PTR ds:0x804f178
 8049575:	8b 1d 7c f1 04 08    	mov    ebx,DWORD PTR ds:0x804f17c
 804957b:	01 c8                	add    eax,ecx
 804957d:	11 da                	adc    edx,ebx
 804957f:	2b 45 e8             	sub    eax,DWORD PTR [ebp-0x18]
 8049582:	1b 55 ec             	sbb    edx,DWORD PTR [ebp-0x14]
 8049585:	a3 78 f1 04 08       	mov    ds:0x804f178,eax
 804958a:	89 15 7c f1 04 08    	mov    DWORD PTR ds:0x804f17c,edx
 8049590:	81 c4 b0 00 00 00    	add    esp,0xb0
 8049596:	5b                   	pop    ebx
 8049597:	5e                   	pop    esi
 8049598:	5d                   	pop    ebp
 8049599:	c3                   	ret

0804959a <Access_ORAM>:
 804959a:	55                   	push   ebp
 804959b:	89 e5                	mov    ebp,esp
 804959d:	53                   	push   ebx
 804959e:	83 ec 44             	sub    esp,0x44
 80495a1:	e8 2a 0a 00 00       	call   8049fd0
 80495a6:	89 45 f0             	mov    DWORD PTR [ebp-0x10],eax
 80495a9:	89 55 f4             	mov    DWORD PTR [ebp-0xc],edx
 80495ac:	83 7d 08 01          	cmp    DWORD PTR [ebp+0x8],0x1
 80495b0:	74 2a                	je     80495dc
 80495b2:	83 7d 08 02          	cmp    DWORD PTR [ebp+0x8],0x2
 80495b6:	74 24                	je     80495dc
 80495b8:	c7 44 24 0c de ce 04 	mov    DWORD PTR [esp+0xc],0x804cede
 80495bf:	08 
 80495c0:	c7 44 24 08 a3 01 00 	mov    DWORD PTR [esp+0x8],0x1a3
 80495c7:	00 
 80495c8:	c7 44 24 04 00 cc 04 	mov    DWORD PTR [esp+0x4],0x804cc00
 80495cf:	08 
 80495d0:	c7 04 24 70 cc 04 08 	mov    DWORD PTR [esp],0x804cc70
 80495d7:	e8 f4 ee ff ff       	call   80484d0
 80495dc:	83 7d 0c 00          	cmp    DWORD PTR [ebp+0xc],0x0
 80495e0:	78 0a                	js     80495ec
 80495e2:	a1 54 f1 04 08       	mov    eax,ds:0x804f154
 80495e7:	3b 45 0c             	cmp    eax,DWORD PTR [ebp+0xc]
 80495ea:	7f 4a                	jg     8049636
 80495ec:	8b 15 54 f1 04 08    	mov    edx,DWORD PTR ds:0x804f154
 80495f2:	a1 80 f0 04 08       	mov    eax,ds:0x804f080
 80495f7:	89 54 24 0c          	mov    DWORD PTR [esp+0xc],edx
 80495fb:	8b 55 0c             	mov    edx,DWORD PTR [ebp+0xc]
 80495fe:	89 54 24 08          	mov    DWORD PTR [esp+0x8],edx
 8049602:	c7 44 24 04 84 cc 04 	mov    DWORD PTR [esp+0x4],0x804cc84
 8049609:	08 
 804960a:	89 04 24             	mov    DWORD PTR [esp],eax
 804960d:	e8 9e ee ff ff       	call   80484b0
 8049612:	c7 44 24 0c de ce 04 	mov    DWORD PTR [esp+0xc],0x804cede
 8049619:	08 
 804961a:	c7 44 24 08 a6 01 00 	mov    DWORD PTR [esp+0x8],0x1a6
 8049621:	00 
 8049622:	c7 44 24 04 00 cc 04 	mov    DWORD PTR [esp+0x4],0x804cc00
 8049629:	08 
 804962a:	c7 04 24 4e cc 04 08 	mov    DWORD PTR [esp],0x804cc4e
 8049631:	e8 9a ee ff ff       	call   80484d0
 8049636:	e8 b2 ef ff ff       	call   80485ed
 804963b:	89 45 e4             	mov    DWORD PTR [ebp-0x1c],eax
 804963e:	e8 aa ef ff ff       	call   80485ed
 8049643:	89 45 e8             	mov    DWORD PTR [ebp-0x18],eax
 8049646:	8d 45 e8             	lea    eax,[ebp-0x18]
 8049649:	89 44 24 0c          	mov    DWORD PTR [esp+0xc],eax
 804964d:	8d 45 e4             	lea    eax,[ebp-0x1c]
 8049650:	89 44 24 08          	mov    DWORD PTR [esp+0x8],eax
 8049654:	8b 45 0c             	mov    eax,DWORD PTR [ebp+0xc]
 8049657:	89 44 24 04          	mov    DWORD PTR [esp+0x4],eax
 804965b:	8b 45 08             	mov    eax,DWORD PTR [ebp+0x8]
 804965e:	89 04 24             	mov    DWORD PTR [esp],eax
 8049661:	e8 92 f4 ff ff       	call   8048af8
 8049666:	89 45 ec             	mov    DWORD PTR [ebp-0x14],eax
 8049669:	8b 55 e8             	mov    edx,DWORD PTR [ebp-0x18]
 804966c:	8b 45 e4             	mov    eax,DWORD PTR [ebp-0x1c]
 804966f:	8b 4d ec             	mov    ecx,DWORD PTR [ebp-0x14]
 8049672:	89 4c 24 14          	mov    DWORD PTR [esp+0x14],ecx
 8049676:	89 54 24 10          	mov    DWORD PTR [esp+0x10],edx
 804967a:	89 44 24 0c          	mov    DWORD PTR [esp+0xc],eax
 804967e:	8b 45 10             	mov    eax,DWORD PTR [ebp+0x10]
 8049681:	89 44 24 08          	mov    DWORD PTR [esp+0x8],eax
 8049685:	8b 45 0c             	mov    eax,DWORD PTR [ebp+0xc]
 8049688:	89 44 24 04          	mov    DWORD PTR [esp+0x4],eax
 804968c:	8b 45 08             	mov    eax,DWORD PTR [ebp+0x8]
 804968f:	89 04 24             	mov    DWORD PTR [esp],eax
 8049692:	e8 26 f6 ff ff       	call   8048cbd
 8049697:	8b 45 e4             	mov    eax,DWORD PTR [ebp-0x1c]
 804969a:	89 04 24             	mov    DWORD PTR [esp],eax
 804969d:	e8 bc f9 ff ff       	call   804905e
 80496a2:	e8 29 09 00 00       	call   8049fd0
 80496a7:	8b 0d 20 f1 04 08    	mov    ecx,DWORD PTR ds:0x804f120
 80496ad:	8b 1d 24 f1 04 08    	mov    ebx,DWORD PTR ds:0x804f124
 80496b3:	01 c8                	add    eax,ecx
 80496b5:	11 da                	adc    edx,ebx
 80496b7:	2b 45 f0             	sub    eax,DWORD PTR [ebp-0x10]
 80496ba:	1b 55 f4             	sbb    edx,DWORD PTR [ebp-0xc]
 80496bd:	a3 20 f1 04 08       	mov    ds:0x804f120,eax
 80496c2:	89 15 24 f1 04 08    	mov    DWORD PTR ds:0x804f124,edx
 80496c8:	83 c4 44             	add    esp,0x44
 80496cb:	5b                   	pop    ebx
 80496cc:	5d                   	pop    ebp
 80496cd:	c3                   	ret

080496ce <Func_Time_Measure_Begin>:
 80496ce:	55                   	push   ebp
 80496cf:	89 e5                	mov    ebp,esp
 80496d1:	83 ec 08             	sub    esp,0x8
 80496d4:	c7 05 e8 f0 04 08 00 	mov    DWORD PTR ds:0x804f0e8,0x0
 80496db:	00 00 00 
 80496de:	c7 05 ec f0 04 08 00 	mov    DWORD PTR ds:0x804f0ec,0x0
 80496e5:	00 00 00 
 80496e8:	c7 05 70 f1 04 08 00 	mov    DWORD PTR ds:0x804f170,0x0
 80496ef:	00 00 00 
 80496f2:	c7 05 74 f1 04 08 00 	mov    DWORD PTR ds:0x804f174,0x0
 80496f9:	00 00 00 
 80496fc:	c7 05 e0 f0 04 08 00 	mov    DWORD PTR ds:0x804f0e0,0x0
 8049703:	00 00 00 
 8049706:	c7 05 e4 f0 04 08 00 	mov    DWORD PTR ds:0x804f0e4,0x0
 804970d:	00 00 00 
 8049710:	c7 05 80 f1 04 08 00 	mov    DWORD PTR ds:0x804f180,0x0
 8049717:	00 00 00 
 804971a:	c7 05 84 f1 04 08 00 	mov    DWORD PTR ds:0x804f184,0x0
 8049721:	00 00 00 
 8049724:	c7 05 18 f1 04 08 00 	mov    DWORD PTR ds:0x804f118,0x0
 804972b:	00 00 00 
 804972e:	c7 05 1c f1 04 08 00 	mov    DWORD PTR ds:0x804f11c,0x0
 8049735:	00 00 00 
 8049738:	c7 05 08 f1 04 08 00 	mov    DWORD PTR ds:0x804f108,0x0
 804973f:	00 00 00 
 8049742:	c7 05 0c f1 04 08 00 	mov    DWORD PTR ds:0x804f10c,0x0
 8049749:	00 00 00 
 804974c:	c7 05 20 f1 04 08 00 	mov    DWORD PTR ds:0x804f120,0x0
 8049753:	00 00 00 
 8049756:	c7 05 24 f1 04 08 00 	mov    DWORD PTR ds:0x804f124,0x0
 804975d:	00 00 00 
 8049760:	c7 05 f0 f0 04 08 00 	mov    DWORD PTR ds:0x804f0f0,0x0
 8049767:	00 00 00 
 804976a:	c7 05 f4 f0 04 08 00 	mov    DWORD PTR ds:0x804f0f4,0x0
 8049771:	00 00 00 
 8049774:	c7 05 78 f1 04 08 00 	mov    DWORD PTR ds:0x804f178,0x0
 804977b:	00 00 00 
 804977e:	c7 05 7c f1 04 08 00 	mov    DWORD PTR ds:0x804f17c,0x0
 8049785:	00 00 00 
 8049788:	c7 05 68 f1 04 08 00 	mov    DWORD PTR ds:0x804f168,0x0
 804978f:	00 00 00 
 8049792:	c7 05 6c f1 04 08 00 	mov    DWORD PTR ds:0x804f16c,0x0
 8049799:	00 00 00 
 804979c:	c7 05 f8 f0 04 08 00 	mov    DWORD PTR ds:0x804f0f8,0x0
 80497a3:	00 00 00 
 80497a6:	c7 05 fc f0 04 08 00 	mov    DWORD PTR ds:0x804f0fc,0x0
 80497ad:	00 00 00 
 80497b0:	c7 05 88 f1 04 08 00 	mov    DWORD PTR ds:0x804f188,0x0
 80497b7:	00 00 00 
 80497ba:	c7 05 8c f1 04 08 00 	mov    DWORD PTR ds:0x804f18c,0x0
 80497c1:	00 00 00 
 80497c4:	e8 07 08 00 00       	call   8049fd0
 80497c9:	a3 10 f1 04 08       	mov    ds:0x804f110,eax
 80497ce:	89 15 14 f1 04 08    	mov    DWORD PTR ds:0x804f114,edx
 80497d4:	c9                   	leave
 80497d5:	c3                   	ret

080497d6 <Print_Func_Time_Stats>:
 80497d6:	55                   	push   ebp
 80497d7:	89 e5                	mov    ebp,esp
 80497d9:	53                   	push   ebx
 80497da:	83 ec 34             	sub    esp,0x34
 80497dd:	e8 ee 07 00 00       	call   8049fd0
 80497e2:	8b 0d 10 f1 04 08    	mov    ecx,DWORD PTR ds:0x804f110
 80497e8:	8b 1d 14 f1 04 08    	mov    ebx,DWORD PTR ds:0x804f114
 80497ee:	29 c8                	sub    eax,ecx
 80497f0:	19 da                	sbb    edx,ebx
 80497f2:	a3 10 f1 04 08       	mov    ds:0x804f110,eax
 80497f7:	89 15 14 f1 04 08    	mov    DWORD PTR ds:0x804f114,edx
 80497fd:	a1 70 f1 04 08       	mov    eax,ds:0x804f170
 8049802:	8b 15 74 f1 04 08    	mov    edx,DWORD PTR ds:0x804f174
 8049808:	6b da 64             	imul   ebx,edx,0x64
 804980b:	6b c8 00             	imul   ecx,eax,0x0
 804980e:	01 cb                	add    ebx,ecx
 8049810:	b9 64 00 00 00       	mov    ecx,0x64
 8049815:	f7 e1                	mul    ecx
 8049817:	8d 0c 13             	lea    ecx,[ebx+edx]
 804981a:	89 ca                	mov    edx,ecx
 804981c:	89 45 e8             	mov    DWORD PTR [ebp-0x18],eax
 804981f:	89 55 ec             	mov    DWORD PTR [ebp-0x14],edx
 8049822:	df 6d e8             	fild   QWORD PTR [ebp-0x18]
 8049825:	85 d2                	test   edx,edx
 8049827:	79 08                	jns    8049831
 8049829:	db 2d f0 ce 04 08    	fld    TBYTE PTR ds:0x804cef0
 804982f:	de c1                	faddp  st(1),st
 8049831:	dd 5d f0             	fstp   QWORD PTR [ebp-0x10]
 8049834:	dd 45 f0             	fld    QWORD PTR [ebp-0x10]
 8049837:	a1 10 f1 04 08       	mov    eax,ds:0x804f110
 804983c:	8b 15 14 f1 04 08    	mov    edx,DWORD PTR ds:0x804f114
 8049842:	89 45 e8             	mov    DWORD PTR [ebp-0x18],eax
 8049845:	89 55 ec             	mov    DWORD PTR [ebp-0x14],edx
 8049848:	df 6d e8             	fild   QWORD PTR [ebp-0x18]
 804984b:	85 d2                	test   edx,edx
 804984d:	79 08                	jns    8049857
 804984f:	db 2d f0 ce 04 08    	fld    TBYTE PTR ds:0x804cef0
 8049855:	de c1                	faddp  st(1),st
 8049857:	dd 5d f0             	fstp   QWORD PTR [ebp-0x10]
 804985a:	dd 45 f0             	fld    QWORD PTR [ebp-0x10]
 804985d:	de f9                	fdivp  st(1),st
 804985f:	dd 5d f0             	fstp   QWORD PTR [ebp-0x10]
 8049862:	dd 45 f0             	fld    QWORD PTR [ebp-0x10]
 8049865:	a1 70 f1 04 08       	mov    eax,ds:0x804f170
 804986a:	8b 15 74 f1 04 08    	mov    edx,DWORD PTR ds:0x804f174
 8049870:	dd 5c 24 0c          	fstp   QWORD PTR [esp+0xc]
 8049874:	89 44 24 04          	mov    DWORD PTR [esp+0x4],eax
 8049878:	89 54 24 08          	mov    DWORD PTR [esp+0x8],edx
 804987c:	c7 04 24 b0 cc 04 08 	mov    DWORD PTR [esp],0x804ccb0
 8049883:	e8 a8 eb ff ff       	call   8048430
 8049888:	a1 e0 f0 04 08       	mov    eax,ds:0x804f0e0
 804988d:	8b 15 e4 f0 04 08    	mov    edx,DWORD PTR ds:0x804f0e4
 8049893:	6b da 64             	imul   ebx,edx,0x64
 8049896:	6b c8 00             	imul   ecx,eax,0x0
 8049899:	01 cb                	add    ebx,ecx
 804989b:	b9 64 00 00 00       	mov    ecx,0x64
 80498a0:	f7 e1                	mul    ecx
 80498a2:	8d 0c 13             	lea    ecx,[ebx+edx]
 80498a5:	89 ca                	mov    edx,ecx
 80498a7:	89 45 e8             	mov    DWORD PTR [ebp-0x18],eax
 80498aa:	89 55 ec             	mov    DWORD PTR [ebp-0x14],edx
 80498ad:	df 6d e8             	fild   QWORD PTR [ebp-0x18]
 80498b0:	85 d2                	test   edx,edx
 80498b2:	79 08                	jns    80498bc
 80498b4:	db 2d f0 ce 04 08    	fld    TBYTE PTR ds:0x804cef0
 80498ba:	de c1                	faddp  st(1),st
 80498bc:	dd 5d f0             	fstp   QWORD PTR [ebp-0x10]
 80498bf:	dd 45 f0             	fld    QWORD PTR [ebp-0x10]
 80498c2:	a1 10 f1 04 08       	mov    eax,ds:0x804f110
 80498c7:	8b 15 14 f1 04 08    	mov    edx,DWORD PTR ds:0x804f114
 80498cd:	89 45 e8             	mov    DWORD PTR [ebp-0x18],eax
 80498d0:	89 55 ec             	mov    DWORD PTR [ebp-0x14],edx
 80498d3:	df 6d e8             	fild   QWORD PTR [ebp-0x18]
 80498d6:	85 d2                	test   edx,edx
 80498d8:	79 08                	jns    80498e2
 80498da:	db 2d f0 ce 04 08    	fld    TBYTE PTR ds:0x804cef0
 80498e0:	de c1                	faddp  st(1),st
 80498e2:	dd 5d f0             	fstp   QWORD PTR [ebp-0x10]
 80498e5:	dd 45 f0             	fld    QWORD PTR [ebp-0x10]
 80498e8:	de f9                	fdivp  st(1),st
 80498ea:	dd 5d f0             	fstp   QWORD PTR [ebp-0x10]
 80498ed:	dd 45 f0             	fld    QWORD PTR [ebp-0x10]
 80498f0:	a1 e0 f0 04 08       	mov    eax,ds:0x804f0e0
 80498f5:	8b 15 e4 f0 04 08    	mov    edx,DWORD PTR ds:0x804f0e4
 80498fb:	dd 5c 24 0c          	fstp   QWORD PTR [esp+0xc]
 80498ff:	89 44 24 04          	mov    DWORD PTR [esp+0x4],eax
 8049903:	89 54 24 08          	mov    DWORD PTR [esp+0x8],edx
 8049907:	c7 04 24 dc cc 04 08 	mov    DWORD PTR [esp],0x804ccdc
 804990e:	e8 1d eb ff ff       	call   8048430
 8049913:	a1 80 f1 04 08       	mov    eax,ds:0x804f180
 8049918:	8b 15 84 f1 04 08    	mov    edx,DWORD PTR ds:0x804f184
 804991e:	6b da 64             	imul   ebx,edx,0x64
 8049921:	6b c8 00             	imul   ecx,eax,0x0
 8049924:	01 cb                	add    ebx,ecx
 8049926:	b9 64 00 00 00       	mov    ecx,0x64
 804992b:	f7 e1                	mul    ecx
 804992d:	8d 0c 13             	lea    ecx,[ebx+edx]
 8049930:	89 ca                	mov    edx,ecx
 8049932:	89 45 e8             	mov    DWORD PTR [ebp-0x18],eax
 8049935:	89 55 ec             	mov    DWORD PTR [ebp-0x14],edx
 8049938:	df 6d e8             	fild   QWORD PTR [ebp-0x18]
 804993b:	85 d2                	test   edx,edx
 804993d:	79 08                	jns    8049947
 804993f:	db 2d f0 ce 04 08    	fld    TBYTE PTR ds:0x804cef0
 8049945:	de c1                	faddp  st(1),st
 8049947:	dd 5d f0             	fstp   QWORD PTR [ebp-0x10]
 804994a:	dd 45 f0             	fld    QWORD PTR [ebp-0x10]
 804994d:	a1 10 f1 04 08       	mov    eax,ds:0x804f110
 8049952:	8b 15 14 f1 04 08    	mov    edx,DWORD PTR ds:0x804f114
 8049958:	89 45 e8             	mov    DWORD PTR [ebp-0x18],eax
 804995b:	89 55 ec             	mov    DWORD PTR [ebp-0x14],edx
 804995e:	df 6d e8             	fild   QWORD PTR [ebp-0x18]
 8049961:	85 d2                	test   edx,edx
 8049963:	79 08                	jns    804996d
 8049965:	db 2d f0 ce 04 08    	fld    TBYTE PTR ds:0x804cef0
 804996b:	de c1                	faddp  st(1),st
 804996d:	dd 5d f0             	fstp   QWORD PTR [ebp-0x10]
 8049970:	dd 45 f0             	fld    QWORD PTR [ebp-0x10]
 8049973:	de f9                	fdivp  st(1),st
 8049975:	dd 5d f0             	fstp   QWORD PTR [ebp-0x10]
 8049978:	dd 45 f0             	fld    QWORD PTR [ebp-0x10]
 804997b:	a1 80 f1 04 08       	mov    eax,ds:0x804f180
 8049980:	8b 15 84 f1 04 08    	mov    edx,DWORD PTR ds:0x804f184
 8049986:	dd 5c 24 0c          	fstp   QWORD PTR [esp+0xc]
 804998a:	89 44 24 04          	mov    DWORD PTR [esp+0x4],eax
 804998e:	89 54 24 08          	mov    DWORD PTR [esp+0x8],edx
 8049992:	c7 04 24 08 cd 04 08 	mov    DWORD PTR [esp],0x804cd08
 8049999:	e8 92 ea ff ff       	call   8048430
 804999e:	a1 18 f1 04 08       	mov    eax,ds:0x804f118
 80499a3:	8b 15 1c f1 04 08    	mov    edx,DWORD PTR ds:0x804f11c
 80499a9:	6b da 64             	imul   ebx,edx,0x64
 80499ac:	6b c8 00             	imul   ecx,eax,0x0
 80499af:	01 cb                	add    ebx,ecx
 80499b1:	b9 64 00 00 00       	mov    ecx,0x64
 80499b6:	f7 e1                	mul    ecx
 80499b8:	8d 0c 13             	lea    ecx,[ebx+edx]
 80499bb:	89 ca                	mov    edx,ecx
 80499bd:	89 45 e8             	mov    DWORD PTR [ebp-0x18],eax
 80499c0:	89 55 ec             	mov    DWORD PTR [ebp-0x14],edx
 80499c3:	df 6d e8             	fild   QWORD PTR [ebp-0x18]
 80499c6:	85 d2                	test   edx,edx
 80499c8:	79 08                	jns    80499d2
 80499ca:	db 2d f0 ce 04 08    	fld    TBYTE PTR ds:0x804cef0
 80499d0:	de c1                	faddp  st(1),st
 80499d2:	dd 5d f0             	fstp   QWORD PTR [ebp-0x10]
 80499d5:	dd 45 f0             	fld    QWORD PTR [ebp-0x10]
 80499d8:	a1 10 f1 04 08       	mov    eax,ds:0x804f110
 80499dd:	8b 15 14 f1 04 08    	mov    edx,DWORD PTR ds:0x804f114
 80499e3:	89 45 e8             	mov    DWORD PTR [ebp-0x18],eax
 80499e6:	89 55 ec             	mov    DWORD PTR [ebp-0x14],edx
 80499e9:	df 6d e8             	fild   QWORD PTR [ebp-0x18]
 80499ec:	85 d2                	test   edx,edx
 80499ee:	79 08                	jns    80499f8
 80499f0:	db 2d f0 ce 04 08    	fld    TBYTE PTR ds:0x804cef0
 80499f6:	de c1                	faddp  st(1),st
 80499f8:	dd 5d f0             	fstp   QWORD PTR [ebp-0x10]
 80499fb:	dd 45 f0             	fld    QWORD PTR [ebp-0x10]
 80499fe:	de f9                	fdivp  st(1),st
 8049a00:	dd 5d f0             	fstp   QWORD PTR [ebp-0x10]
 8049a03:	dd 45 f0             	fld    QWORD PTR [ebp-0x10]
 8049a06:	a1 18 f1 04 08       	mov    eax,ds:0x804f118
 8049a0b:	8b 15 1c f1 04 08    	mov    edx,DWORD PTR ds:0x804f11c
 8049a11:	dd 5c 24 0c          	fstp   QWORD PTR [esp+0xc]
 8049a15:	89 44 24 04          	mov    DWORD PTR [esp+0x4],eax
 8049a19:	89 54 24 08          	mov    DWORD PTR [esp+0x8],edx
 8049a1d:	c7 04 24 34 cd 04 08 	mov    DWORD PTR [esp],0x804cd34
 8049a24:	e8 07 ea ff ff       	call   8048430
 8049a29:	a1 08 f1 04 08       	mov    eax,ds:0x804f108
 8049a2e:	8b 15 0c f1 04 08    	mov    edx,DWORD PTR ds:0x804f10c
 8049a34:	6b da 64             	imul   ebx,edx,0x64
 8049a37:	6b c8 00             	imul   ecx,eax,0x0
 8049a3a:	01 cb                	add    ebx,ecx
 8049a3c:	b9 64 00 00 00       	mov    ecx,0x64
 8049a41:	f7 e1                	mul    ecx
 8049a43:	8d 0c 13             	lea    ecx,[ebx+edx]
 8049a46:	89 ca                	mov    edx,ecx
 8049a48:	89 45 e8             	mov    DWORD PTR [ebp-0x18],eax
 8049a4b:	89 55 ec             	mov    DWORD PTR [ebp-0x14],edx
 8049a4e:	df 6d e8             	fild   QWORD PTR [ebp-0x18]
 8049a51:	85 d2                	test   edx,edx
 8049a53:	79 08                	jns    8049a5d
 8049a55:	db 2d f0 ce 04 08    	fld    TBYTE PTR ds:0x804cef0
 8049a5b:	de c1                	faddp  st(1),st
 8049a5d:	dd 5d f0             	fstp   QWORD PTR [ebp-0x10]
 8049a60:	dd 45 f0             	fld    QWORD PTR [ebp-0x10]
 8049a63:	a1 10 f1 04 08       	mov    eax,ds:0x804f110
 8049a68:	8b 15 14 f1 04 08    	mov    edx,DWORD PTR ds:0x804f114
 8049a6e:	89 45 e8             	mov    DWORD PTR [ebp-0x18],eax
 8049a71:	89 55 ec             	mov    DWORD PTR [ebp-0x14],edx
 8049a74:	df 6d e8             	fild   QWORD PTR [ebp-0x18]
 8049a77:	85 d2                	test   edx,edx
 8049a79:	79 08                	jns    8049a83
 8049a7b:	db 2d f0 ce 04 08    	fld    TBYTE PTR ds:0x804cef0
 8049a81:	de c1                	faddp  st(1),st
 8049a83:	dd 5d f0             	fstp   QWORD PTR [ebp-0x10]
 8049a86:	dd 45 f0             	fld    QWORD PTR [ebp-0x10]
 8049a89:	de f9                	fdivp  st(1),st
 8049a8b:	dd 5d f0             	fstp   QWORD PTR [ebp-0x10]
 8049a8e:	dd 45 f0             	fld    QWORD PTR [ebp-0x10]
 8049a91:	a1 08 f1 04 08       	mov    eax,ds:0x804f108
 8049a96:	8b 15 0c f1 04 08    	mov    edx,DWORD PTR ds:0x804f10c
 8049a9c:	dd 5c 24 0c          	fstp   QWORD PTR [esp+0xc]
 8049aa0:	89 44 24 04          	mov    DWORD PTR [esp+0x4],eax
 8049aa4:	89 54 24 08          	mov    DWORD PTR [esp+0x8],edx
 8049aa8:	c7 04 24 60 cd 04 08 	mov    DWORD PTR [esp],0x804cd60
 8049aaf:	e8 7c e9 ff ff       	call   8048430
 8049ab4:	a1 20 f1 04 08       	mov    eax,ds:0x804f120
 8049ab9:	8b 15 24 f1 04 08    	mov    edx,DWORD PTR ds:0x804f124
 8049abf:	6b da 64             	imul   ebx,edx,0x64
 8049ac2:	6b c8 00             	imul   ecx,eax,0x0
 8049ac5:	01 cb                	add    ebx,ecx
 8049ac7:	b9 64 00 00 00       	mov    ecx,0x64
 8049acc:	f7 e1                	mul    ecx
 8049ace:	8d 0c 13             	lea    ecx,[ebx+edx]
 8049ad1:	89 ca                	mov    edx,ecx
 8049ad3:	89 45 e8             	mov    DWORD PTR [ebp-0x18],eax
 8049ad6:	89 55 ec             	mov    DWORD PTR [ebp-0x14],edx
 8049ad9:	df 6d e8             	fild   QWORD PTR [ebp-0x18]
 8049adc:	85 d2                	test   edx,edx
 8049ade:	79 08                	jns    8049ae8
 8049ae0:	db 2d f0 ce 04 08    	fld    TBYTE PTR ds:0x804cef0
 8049ae6:	de c1                	faddp  st(1),st
 8049ae8:	dd 5d f0             	fstp   QWORD PTR [ebp-0x10]
 8049aeb:	dd 45 f0             	fld    QWORD PTR [ebp-0x10]
 8049aee:	a1 10 f1 04 08       	mov    eax,ds:0x804f110
 8049af3:	8b 15 14 f1 04 08    	mov    edx,DWORD PTR ds:0x804f114
 8049af9:	89 45 e8             	mov    DWORD PTR [ebp-0x18],eax
 8049afc:	89 55 ec             	mov    DWORD PTR [ebp-0x14],edx
 8049aff:	df 6d e8             	fild   QWORD PTR [ebp-0x18]
 8049b02:	85 d2                	test   edx,edx
 8049b04:	79 08                	jns    8049b0e
 8049b06:	db 2d f0 ce 04 08    	fld    TBYTE PTR ds:0x804cef0
 8049b0c:	de c1                	faddp  st(1),st
 8049b0e:	dd 5d f0             	fstp   QWORD PTR [ebp-0x10]
 8049b11:	dd 45 f0             	fld    QWORD PTR [ebp-0x10]
 8049b14:	de f9                	fdivp  st(1),st
 8049b16:	dd 5d f0             	fstp   QWORD PTR [ebp-0x10]
 8049b19:	dd 45 f0             	fld    QWORD PTR [ebp-0x10]
 8049b1c:	a1 20 f1 04 08       	mov    eax,ds:0x804f120
 8049b21:	8b 15 24 f1 04 08    	mov    edx,DWORD PTR ds:0x804f124
 8049b27:	dd 5c 24 0c          	fstp   QWORD PTR [esp+0xc]
 8049b2b:	89 44 24 04          	mov    DWORD PTR [esp+0x4],eax
 8049b2f:	89 54 24 08          	mov    DWORD PTR [esp+0x8],edx
 8049b33:	c7 04 24 8c cd 04 08 	mov    DWORD PTR [esp],0x804cd8c
 8049b3a:	e8 f1 e8 ff ff       	call   8048430
 8049b3f:	a1 f0 f0 04 08       	mov    eax,ds:0x804f0f0
 8049b44:	8b 15 f4 f0 04 08    	mov    edx,DWORD PTR ds:0x804f0f4
 8049b4a:	6b da 64             	imul   ebx,edx,0x64
 8049b4d:	6b c8 00             	imul   ecx,eax,0x0
 8049b50:	01 cb                	add    ebx,ecx
 8049b52:	b9 64 00 00 00       	mov    ecx,0x64
 8049b57:	f7 e1                	mul    ecx
 8049b59:	8d 0c 13             	lea    ecx,[ebx+edx]
 8049b5c:	89 ca                	mov    edx,ecx
 8049b5e:	89 45 e8             	mov    DWORD PTR [ebp-0x18],eax
 8049b61:	89 55 ec             	mov    DWORD PTR [ebp-0x14],edx
 8049b64:	df 6d e8             	fild   QWORD PTR [ebp-0x18]
 8049b67:	85 d2                	test   edx,edx
 8049b69:	79 08                	jns    8049b73
 8049b6b:	db 2d f0 ce 04 08    	fld    TBYTE PTR ds:0x804cef0
 8049b71:	de c1                	faddp  st(1),st
 8049b73:	dd 5d f0             	fstp   QWORD PTR [ebp-0x10]
 8049b76:	dd 45 f0             	fld    QWORD PTR [ebp-0x10]
 8049b79:	a1 10 f1 04 08       	mov    eax,ds:0x804f110
 8049b7e:	8b 15 14 f1 04 08    	mov    edx,DWORD PTR ds:0x804f114
 8049b84:	89 45 e8             	mov    DWORD PTR [ebp-0x18],eax
 8049b87:	89 55 ec             	mov    DWORD PTR [ebp-0x14],edx
 8049b8a:	df 6d e8             	fild   QWORD PTR [ebp-0x18]
 8049b8d:	85 d2                	test   edx,edx
 8049b8f:	79 08                	jns    8049b99
 8049b91:	db 2d f0 ce 04 08    	fld    TBYTE PTR ds:0x804cef0
 8049b97:	de c1                	faddp  st(1),st
 8049b99:	dd 5d f0             	fstp   QWORD PTR [ebp-0x10]
 8049b9c:	dd 45 f0             	fld    QWORD PTR [ebp-0x10]
 8049b9f:	de f9                	fdivp  st(1),st
 8049ba1:	dd 5d f0             	fstp   QWORD PTR [ebp-0x10]
 8049ba4:	dd 45 f0             	fld    QWORD PTR [ebp-0x10]
 8049ba7:	a1 f0 f0 04 08       	mov    eax,ds:0x804f0f0
 8049bac:	8b 15 f4 f0 04 08    	mov    edx,DWORD PTR ds:0x804f0f4
 8049bb2:	dd 5c 24 0c          	fstp   QWORD PTR [esp+0xc]
 8049bb6:	89 44 24 04          	mov    DWORD PTR [esp+0x4],eax
 8049bba:	89 54 24 08          	mov    DWORD PTR [esp+0x8],edx
 8049bbe:	c7 04 24 b8 cd 04 08 	mov    DWORD PTR [esp],0x804cdb8
 8049bc5:	e8 66 e8 ff ff       	call   8048430
 8049bca:	a1 68 f1 04 08       	mov    eax,ds:0x804f168
 8049bcf:	8b 15 6c f1 04 08    	mov    edx,DWORD PTR ds:0x804f16c
 8049bd5:	6b da 64             	imul   ebx,edx,0x64
 8049bd8:	6b c8 00             	imul   ecx,eax,0x0
 8049bdb:	01 cb                	add    ebx,ecx
 8049bdd:	b9 64 00 00 00       	mov    ecx,0x64
 8049be2:	f7 e1                	mul    ecx
 8049be4:	8d 0c 13             	lea    ecx,[ebx+edx]
 8049be7:	89 ca                	mov    edx,ecx
 8049be9:	89 45 e8             	mov    DWORD PTR [ebp-0x18],eax
 8049bec:	89 55 ec             	mov    DWORD PTR [ebp-0x14],edx
 8049bef:	df 6d e8             	fild   QWORD PTR [ebp-0x18]
 8049bf2:	85 d2                	test   edx,edx
 8049bf4:	79 08                	jns    8049bfe
 8049bf6:	db 2d f0 ce 04 08    	fld    TBYTE PTR ds:0x804cef0
 8049bfc:	de c1                	faddp  st(1),st
 8049bfe:	dd 5d f0             	fstp   QWORD PTR [ebp-0x10]
 8049c01:	dd 45 f0             	fld    QWORD PTR [ebp-0x10]
 8049c04:	a1 10 f1 04 08       	mov    eax,ds:0x804f110
 8049c09:	8b 15 14 f1 04 08    	mov    edx,DWORD PTR ds:0x804f114
 8049c0f:	89 45 e8             	mov    DWORD PTR [ebp-0x18],eax
 8049c12:	89 55 ec             	mov    DWORD PTR [ebp-0x14],edx
 8049c15:	df 6d e8             	fild   QWORD PTR [ebp-0x18]
 8049c18:	85 d2                	test   edx,edx
 8049c1a:	79 08                	jns    8049c24
 8049c1c:	db 2d f0 ce 04 08    	fld    TBYTE PTR ds:0x804cef0
 8049c22:	de c1                	faddp  st(1),st
 8049c24:	dd 5d f0             	fstp   QWORD PTR [ebp-0x10]
 8049c27:	dd 45 f0             	fld    QWORD PTR [ebp-0x10]
 8049c2a:	de f9                	fdivp  st(1),st
 8049c2c:	dd 5d f0             	fstp   QWORD PTR [ebp-0x10]
 8049c2f:	dd 45 f0             	fld    QWORD PTR [ebp-0x10]
 8049c32:	a1 68 f1 04 08       	mov    eax,ds:0x804f168
 8049c37:	8b 15 6c f1 04 08    	mov    edx,DWORD PTR ds:0x804f16c
 8049c3d:	dd 5c 24 0c          	fstp   QWORD PTR [esp+0xc]
 8049c41:	89 44 24 04          	mov    DWORD PTR [esp+0x4],eax
 8049c45:	89 54 24 08          	mov    DWORD PTR [esp+0x8],edx
 8049c49:	c7 04 24 e4 cd 04 08 	mov    DWORD PTR [esp],0x804cde4
 8049c50:	e8 db e7 ff ff       	call   8048430
 8049c55:	a1 f8 f0 04 08       	mov    eax,ds:0x804f0f8
 8049c5a:	8b 15 fc f0 04 08    	mov    edx,DWORD PTR ds:0x804f0fc
 8049c60:	6b da 64             	imul   ebx,edx,0x64
 8049c63:	6b c8 00             	imul   ecx,eax,0x0
 8049c66:	01 cb                	add    ebx,ecx
 8049c68:	b9 64 00 00 00       	mov    ecx,0x64
 8049c6d:	f7 e1                	mul    ecx
 8049c6f:	8d 0c 13             	lea    ecx,[ebx+edx]
 8049c72:	89 ca                	mov    edx,ecx
 8049c74:	89 45 e8             	mov    DWORD PTR [ebp-0x18],eax
 8049c77:	89 55 ec             	mov    DWORD PTR [ebp-0x14],edx
 8049c7a:	df 6d e8             	fild   QWORD PTR [ebp-0x18]
 8049c7d:	85 d2                	test   edx,edx
 8049c7f:	79 08                	jns    8049c89
 8049c81:	db 2d f0 ce 04 08    	fld    TBYTE PTR ds:0x804cef0
 8049c87:	de c1                	faddp  st(1),st
 8049c89:	dd 5d f0             	fstp   QWORD PTR [ebp-0x10]
 8049c8c:	dd 45 f0             	fld    QWORD PTR [ebp-0x10]
 8049c8f:	a1 10 f1 04 08       	mov    eax,ds:0x804f110
 8049c94:	8b 15 14 f1 04 08    	mov    edx,DWORD PTR ds:0x804f114
 8049c9a:	89 45 e8             	mov    DWORD PTR [ebp-0x18],eax
 8049c9d:	89 55 ec             	mov    DWORD PTR [ebp-0x14],edx
 8049ca0:	df 6d e8             	fild   QWORD PTR [ebp-0x18]
 8049ca3:	85 d2                	test   edx,edx
 8049ca5:	79 08                	jns    8049caf
 8049ca7:	db 2d f0 ce 04 08    	fld    TBYTE PTR ds:0x804cef0
 8049cad:	de c1                	faddp  st(1),st
 8049caf:	dd 5d f0             	fstp   QWORD PTR [ebp-0x10]
 8049cb2:	dd 45 f0             	fld    QWORD PTR [ebp-0x10]
 8049cb5:	de f9                	fdivp  st(1),st
 8049cb7:	dd 5d f0             	fstp   QWORD PTR [ebp-0x10]
 8049cba:	dd 45 f0             	fld    QWORD PTR [ebp-0x10]
 8049cbd:	a1 f8 f0 04 08       	mov    eax,ds:0x804f0f8
 8049cc2:	8b 15 fc f0 04 08    	mov    edx,DWORD PTR ds:0x804f0fc
 8049cc8:	dd 5c 24 0c          	fstp   QWORD PTR [esp+0xc]
 8049ccc:	89 44 24 04          	mov    DWORD PTR [esp+0x4],eax
 8049cd0:	89 54 24 08          	mov    DWORD PTR [esp+0x8],edx
 8049cd4:	c7 04 24 10 ce 04 08 	mov    DWORD PTR [esp],0x804ce10
 8049cdb:	e8 50 e7 ff ff       	call   8048430
 8049ce0:	a1 78 f1 04 08       	mov    eax,ds:0x804f178
 8049ce5:	8b 15 7c f1 04 08    	mov    edx,DWORD PTR ds:0x804f17c
 8049ceb:	6b da 64             	imul   ebx,edx,0x64
 8049cee:	6b c8 00             	imul   ecx,eax,0x0
 8049cf1:	01 cb                	add    ebx,ecx
 8049cf3:	b9 64 00 00 00       	mov    ecx,0x64
 8049cf8:	f7 e1                	mul    ecx
 8049cfa:	8d 0c 13             	lea    ecx,[ebx+edx]
 8049cfd:	89 ca                	mov    edx,ecx
 8049cff:	89 45 e8             	mov    DWORD PTR [ebp-0x18],eax
 8049d02:	89 55 ec             	mov    DWORD PTR [ebp-0x14],edx
 8049d05:	df 6d e8             	fild   QWORD PTR [ebp-0x18]
 8049d08:	85 d2                	test   edx,edx
 8049d0a:	79 08                	jns    8049d14
 8049d0c:	db 2d f0 ce 04 08    	fld    TBYTE PTR ds:0x804cef0
 8049d12:	de c1                	faddp  st(1),st
 8049d14:	dd 5d f0             	fstp   QWORD PTR [ebp-0x10]
 8049d17:	dd 45 f0             	fld    QWORD PTR [ebp-0x10]
 8049d1a:	a1 10 f1 04 08       	mov    eax,ds:0x804f110
 8049d1f:	8b 15 14 f1 04 08    	mov    edx,DWORD PTR ds:0x804f114
 8049d25:	89 45 e8             	mov    DWORD PTR [ebp-0x18],eax
 8049d28:	89 55 ec             	mov    DWORD PTR [ebp-0x14],edx
 8049d2b:	df 6d e8             	fild   QWORD PTR [ebp-0x18]
 8049d2e:	85 d2                	test   edx,edx
 8049d30:	79 08                	jns    8049d3a
 8049d32:	db 2d f0 ce 04 08    	fld    TBYTE PTR ds:0x804cef0
 8049d38:	de c1                	faddp  st(1),st
 8049d3a:	dd 5d f0             	fstp   QWORD PTR [ebp-0x10]
 8049d3d:	dd 45 f0             	fld    QWORD PTR [ebp-0x10]
 8049d40:	de f9                	fdivp  st(1),st
 8049d42:	dd 5d f0             	fstp   QWORD PTR [ebp-0x10]
 8049d45:	dd 45 f0             	fld    QWORD PTR [ebp-0x10]
 8049d48:	a1 78 f1 04 08       	mov    eax,ds:0x804f178
 8049d4d:	8b 15 7c f1 04 08    	mov    edx,DWORD PTR ds:0x804f17c
 8049d53:	dd 5c 24 0c          	fstp   QWORD PTR [esp+0xc]
 8049d57:	89 44 24 04          	mov    DWORD PTR [esp+0x4],eax
 8049d5b:	89 54 24 08          	mov    DWORD PTR [esp+0x8],edx
 8049d5f:	c7 04 24 3c ce 04 08 	mov    DWORD PTR [esp],0x804ce3c
 8049d66:	e8 c5 e6 ff ff       	call   8048430
 8049d6b:	a1 88 f1 04 08       	mov    eax,ds:0x804f188
 8049d70:	8b 15 8c f1 04 08    	mov    edx,DWORD PTR ds:0x804f18c
 8049d76:	6b da 64             	imul   ebx,edx,0x64
 8049d79:	6b c8 00             	imul   ecx,eax,0x0
 8049d7c:	01 cb                	add    ebx,ecx
 8049d7e:	b9 64 00 00 00       	mov    ecx,0x64
 8049d83:	f7 e1                	mul    ecx
 8049d85:	8d 0c 13             	lea    ecx,[ebx+edx]
 8049d88:	89 ca                	mov    edx,ecx
 8049d8a:	89 45 e8             	mov    DWORD PTR [ebp-0x18],eax
 8049d8d:	89 55 ec             	mov    DWORD PTR [ebp-0x14],edx
 8049d90:	df 6d e8             	fild   QWORD PTR [ebp-0x18]
 8049d93:	85 d2                	test   edx,edx
 8049d95:	79 08                	jns    8049d9f
 8049d97:	db 2d f0 ce 04 08    	fld    TBYTE PTR ds:0x804cef0
 8049d9d:	de c1                	faddp  st(1),st
 8049d9f:	dd 5d f0             	fstp   QWORD PTR [ebp-0x10]
 8049da2:	dd 45 f0             	fld    QWORD PTR [ebp-0x10]
 8049da5:	a1 10 f1 04 08       	mov    eax,ds:0x804f110
 8049daa:	8b 15 14 f1 04 08    	mov    edx,DWORD PTR ds:0x804f114
 8049db0:	89 45 e8             	mov    DWORD PTR [ebp-0x18],eax
 8049db3:	89 55 ec             	mov    DWORD PTR [ebp-0x14],edx
 8049db6:	df 6d e8             	fild   QWORD PTR [ebp-0x18]
 8049db9:	85 d2                	test   edx,edx
 8049dbb:	79 08                	jns    8049dc5
 8049dbd:	db 2d f0 ce 04 08    	fld    TBYTE PTR ds:0x804cef0
 8049dc3:	de c1                	faddp  st(1),st
 8049dc5:	dd 5d f0             	fstp   QWORD PTR [ebp-0x10]
 8049dc8:	dd 45 f0             	fld    QWORD PTR [ebp-0x10]
 8049dcb:	de f9                	fdivp  st(1),st
 8049dcd:	dd 5d f0             	fstp   QWORD PTR [ebp-0x10]
 8049dd0:	dd 45 f0             	fld    QWORD PTR [ebp-0x10]
 8049dd3:	a1 88 f1 04 08       	mov    eax,ds:0x804f188
 8049dd8:	8b 15 8c f1 04 08    	mov    edx,DWORD PTR ds:0x804f18c
 8049dde:	dd 5c 24 0c          	fstp   QWORD PTR [esp+0xc]
 8049de2:	89 44 24 04          	mov    DWORD PTR [esp+0x4],eax
 8049de6:	89 54 24 08          	mov    DWORD PTR [esp+0x8],edx
 8049dea:	c7 04 24 68 ce 04 08 	mov    DWORD PTR [esp],0x804ce68
 8049df1:	e8 3a e6 ff ff       	call   8048430
 8049df6:	a1 10 f1 04 08       	mov    eax,ds:0x804f110
 8049dfb:	8b 15 14 f1 04 08    	mov    edx,DWORD PTR ds:0x804f114
 8049e01:	89 44 24 04          	mov    DWORD PTR [esp+0x4],eax
 8049e05:	89 54 24 08          	mov    DWORD PTR [esp+0x8],edx
 8049e09:	c7 04 24 94 ce 04 08 	mov    DWORD PTR [esp],0x804ce94
 8049e10:	e8 1b e6 ff ff       	call   8048430
 8049e15:	83 c4 34             	add    esp,0x34
 8049e18:	5b                   	pop    ebx
 8049e19:	5d                   	pop    ebp
 8049e1a:	c3                   	ret

08049e1b <Print_All>:
 8049e1b:	55                   	push   ebp
 8049e1c:	89 e5                	mov    ebp,esp
 8049e1e:	83 ec 08             	sub    esp,0x8
 8049e21:	e8 0c 00 00 00       	call   8049e32
 8049e26:	e8 0c 00 00 00       	call   8049e37
 8049e2b:	e8 0c 00 00 00       	call   8049e3c
 8049e30:	c9                   	leave
 8049e31:	c3                   	ret

08049e32 <Print_ORAM>:
 8049e32:	55                   	push   ebp
 8049e33:	89 e5                	mov    ebp,esp
 8049e35:	5d                   	pop    ebp
 8049e36:	c3                   	ret

08049e37 <Print_Stash>:
 8049e37:	55                   	push   ebp
 8049e38:	89 e5                	mov    ebp,esp
 8049e3a:	5d                   	pop    ebp
 8049e3b:	c3                   	ret

08049e3c <Print_PosMap>:
 8049e3c:	55                   	push   ebp
 8049e3d:	89 e5                	mov    ebp,esp
 8049e3f:	5d                   	pop    ebp
 8049e40:	c3                   	ret

08049e41 <Stash_Full>:
 8049e41:	55                   	push   ebp
 8049e42:	89 e5                	mov    ebp,esp
 8049e44:	83 ec 10             	sub    esp,0x10
 8049e47:	c7 45 fc 00 00 00 00 	mov    DWORD PTR [ebp-0x4],0x0
 8049e4e:	eb 1f                	jmp    8049e6f
 8049e50:	a1 60 f1 04 08       	mov    eax,ds:0x804f160
 8049e55:	8b 55 fc             	mov    edx,DWORD PTR [ebp-0x4]
 8049e58:	c1 e2 04             	shl    edx,0x4
 8049e5b:	01 d0                	add    eax,edx
 8049e5d:	8b 40 04             	mov    eax,DWORD PTR [eax+0x4]
 8049e60:	85 c0                	test   eax,eax
 8049e62:	75 07                	jne    8049e6b
 8049e64:	b8 00 00 00 00       	mov    eax,0x0
 8049e69:	eb 13                	jmp    8049e7e
 8049e6b:	83 45 fc 01          	add    DWORD PTR [ebp-0x4],0x1
 8049e6f:	a1 5c f1 04 08       	mov    eax,ds:0x804f15c
 8049e74:	3b 45 fc             	cmp    eax,DWORD PTR [ebp-0x4]
 8049e77:	7f d7                	jg     8049e50
 8049e79:	b8 01 00 00 00       	mov    eax,0x1
 8049e7e:	c9                   	leave
 8049e7f:	c3                   	ret

08049e80 <ScanORAM_Read>:
 8049e80:	55                   	push   ebp
 8049e81:	89 e5                	mov    ebp,esp
 8049e83:	83 ec 28             	sub    esp,0x28
 8049e86:	c7 45 f0 00 00 00 00 	mov    DWORD PTR [ebp-0x10],0x0
 8049e8d:	eb 43                	jmp    8049ed2
 8049e8f:	8b 45 f0             	mov    eax,DWORD PTR [ebp-0x10]
 8049e92:	3b 45 18             	cmp    eax,DWORD PTR [ebp+0x18]
 8049e95:	0f 94 c0             	sete   al
 8049e98:	0f b6 c0             	movzx  eax,al
 8049e9b:	89 45 f4             	mov    DWORD PTR [ebp-0xc],eax
 8049e9e:	8b 45 f0             	mov    eax,DWORD PTR [ebp-0x10]
 8049ea1:	0f af 45 10          	imul   eax,DWORD PTR [ebp+0x10]
 8049ea5:	8d 14 85 00 00 00 00 	lea    edx,[eax*4]
 8049eac:	8b 45 08             	mov    eax,DWORD PTR [ebp+0x8]
 8049eaf:	01 c2                	add    edx,eax
 8049eb1:	8b 45 10             	mov    eax,DWORD PTR [ebp+0x10]
 8049eb4:	89 44 24 0c          	mov    DWORD PTR [esp+0xc],eax
 8049eb8:	8b 45 14             	mov    eax,DWORD PTR [ebp+0x14]
 8049ebb:	89 44 24 08          	mov    DWORD PTR [esp+0x8],eax
 8049ebf:	89 54 24 04          	mov    DWORD PTR [esp+0x4],edx
 8049ec3:	8b 45 f4             	mov    eax,DWORD PTR [ebp-0xc]
 8049ec6:	89 04 24             	mov    DWORD PTR [esp],eax
 8049ec9:	e8 63 01 00 00       	call   804a031
 8049ece:	83 45 f0 01          	add    DWORD PTR [ebp-0x10],0x1
 8049ed2:	8b 45 f0             	mov    eax,DWORD PTR [ebp-0x10]
 8049ed5:	3b 45 0c             	cmp    eax,DWORD PTR [ebp+0xc]
 8049ed8:	7c b5                	jl     8049e8f
 8049eda:	c9                   	leave
 8049edb:	c3                   	ret

08049edc <ScanORAM_Write>:
 8049edc:	55                   	push   ebp
 8049edd:	89 e5                	mov    ebp,esp
 8049edf:	83 ec 28             	sub    esp,0x28
 8049ee2:	c7 45 f0 00 00 00 00 	mov    DWORD PTR [ebp-0x10],0x0
 8049ee9:	eb 43                	jmp    8049f2e
 8049eeb:	8b 45 f0             	mov    eax,DWORD PTR [ebp-0x10]
 8049eee:	3b 45 18             	cmp    eax,DWORD PTR [ebp+0x18]
 8049ef1:	0f 94 c0             	sete   al
 8049ef4:	0f b6 c0             	movzx  eax,al
 8049ef7:	89 45 f4             	mov    DWORD PTR [ebp-0xc],eax
 8049efa:	8b 45 f0             	mov    eax,DWORD PTR [ebp-0x10]
 8049efd:	0f af 45 10          	imul   eax,DWORD PTR [ebp+0x10]
 8049f01:	8d 14 85 00 00 00 00 	lea    edx,[eax*4]
 8049f08:	8b 45 08             	mov    eax,DWORD PTR [ebp+0x8]
 8049f0b:	01 c2                	add    edx,eax
 8049f0d:	8b 45 10             	mov    eax,DWORD PTR [ebp+0x10]
 8049f10:	89 44 24 0c          	mov    DWORD PTR [esp+0xc],eax
 8049f14:	89 54 24 08          	mov    DWORD PTR [esp+0x8],edx
 8049f18:	8b 45 14             	mov    eax,DWORD PTR [ebp+0x14]
 8049f1b:	89 44 24 04          	mov    DWORD PTR [esp+0x4],eax
 8049f1f:	8b 45 f4             	mov    eax,DWORD PTR [ebp-0xc]
 8049f22:	89 04 24             	mov    DWORD PTR [esp],eax
 8049f25:	e8 07 01 00 00       	call   804a031
 8049f2a:	83 45 f0 01          	add    DWORD PTR [ebp-0x10],0x1
 8049f2e:	8b 45 f0             	mov    eax,DWORD PTR [ebp-0x10]
 8049f31:	3b 45 0c             	cmp    eax,DWORD PTR [ebp+0xc]
 8049f34:	7c b5                	jl     8049eeb
 8049f36:	c9                   	leave
 8049f37:	c3                   	ret

08049f38 <log_2>:
 8049f38:	55                   	push   ebp
 8049f39:	89 e5                	mov    ebp,esp
 8049f3b:	83 ec 10             	sub    esp,0x10
 8049f3e:	8b 45 08             	mov    eax,DWORD PTR [ebp+0x8]
 8049f41:	01 c0                	add    eax,eax
 8049f43:	83 e8 01             	sub    eax,0x1
 8049f46:	89 45 08             	mov    DWORD PTR [ebp+0x8],eax
 8049f49:	c7 45 fc 00 00 00 00 	mov    DWORD PTR [ebp-0x4],0x0
 8049f50:	eb 04                	jmp    8049f56
 8049f52:	83 45 fc 01          	add    DWORD PTR [ebp-0x4],0x1
 8049f56:	d1 6d 08             	shr    DWORD PTR [ebp+0x8],1
 8049f59:	83 7d 08 00          	cmp    DWORD PTR [ebp+0x8],0x0
 8049f5d:	75 f3                	jne    8049f52
 8049f5f:	8b 45 fc             	mov    eax,DWORD PTR [ebp-0x4]
 8049f62:	c9                   	leave
 8049f63:	c3                   	ret

08049f64 <bitwiseReverse>:
 8049f64:	55                   	push   ebp
 8049f65:	89 e5                	mov    ebp,esp
 8049f67:	83 ec 10             	sub    esp,0x10
 8049f6a:	c7 45 f8 00 00 00 00 	mov    DWORD PTR [ebp-0x8],0x0
 8049f71:	c7 45 fc 00 00 00 00 	mov    DWORD PTR [ebp-0x4],0x0
 8049f78:	eb 1d                	jmp    8049f97
 8049f7a:	8b 45 f8             	mov    eax,DWORD PTR [ebp-0x8]
 8049f7d:	8d 14 00             	lea    edx,[eax+eax]
 8049f80:	8b 45 08             	mov    eax,DWORD PTR [ebp+0x8]
 8049f83:	83 e0 01             	and    eax,0x1
 8049f86:	01 d0                	add    eax,edx
 8049f88:	89 45 f8             	mov    DWORD PTR [ebp-0x8],eax
 8049f8b:	8b 45 08             	mov    eax,DWORD PTR [ebp+0x8]
 8049f8e:	d1 e8                	shr    eax,1
 8049f90:	89 45 08             	mov    DWORD PTR [ebp+0x8],eax
 8049f93:	83 45 fc 01          	add    DWORD PTR [ebp-0x4],0x1
 8049f97:	8b 45 fc             	mov    eax,DWORD PTR [ebp-0x4]
 8049f9a:	3b 45 0c             	cmp    eax,DWORD PTR [ebp+0xc]
 8049f9d:	7c db                	jl     8049f7a
 8049f9f:	8b 45 f8             	mov    eax,DWORD PTR [ebp-0x8]
 8049fa2:	c9                   	leave
 8049fa3:	c3                   	ret

08049fa4 <roundToPowerOf2>:
 8049fa4:	55                   	push   ebp
 8049fa5:	89 e5                	mov    ebp,esp
 8049fa7:	83 ec 10             	sub    esp,0x10
 8049faa:	c7 45 fc 01 00 00 00 	mov    DWORD PTR [ebp-0x4],0x1
 8049fb1:	eb 04                	jmp    8049fb7
 8049fb3:	83 45 fc 01          	add    DWORD PTR [ebp-0x4],0x1
 8049fb7:	d1 7d 08             	sar    DWORD PTR [ebp+0x8],1
 8049fba:	83 7d 08 00          	cmp    DWORD PTR [ebp+0x8],0x0
 8049fbe:	75 f3                	jne    8049fb3
 8049fc0:	8b 45 fc             	mov    eax,DWORD PTR [ebp-0x4]
 8049fc3:	ba 01 00 00 00       	mov    edx,0x1
 8049fc8:	89 c1                	mov    ecx,eax
 8049fca:	d3 e2                	shl    edx,cl
 8049fcc:	89 d0                	mov    eax,edx
 8049fce:	c9                   	leave
 8049fcf:	c3                   	ret

08049fd0 <rdtsc>:
 8049fd0:	55                   	push   ebp
 8049fd1:	89 e5                	mov    ebp,esp
 8049fd3:	57                   	push   edi
 8049fd4:	56                   	push   esi
 8049fd5:	53                   	push   ebx
 8049fd6:	83 ec 1c             	sub    esp,0x1c
 8049fd9:	0f 31                	rdtsc
 8049fdb:	89 45 e8             	mov    DWORD PTR [ebp-0x18],eax
 8049fde:	89 55 ec             	mov    DWORD PTR [ebp-0x14],edx
 8049fe1:	8b 4d e8             	mov    ecx,DWORD PTR [ebp-0x18]
 8049fe4:	bb 00 00 00 00       	mov    ebx,0x0
 8049fe9:	8b 45 ec             	mov    eax,DWORD PTR [ebp-0x14]
 8049fec:	ba 00 00 00 00       	mov    edx,0x0
 8049ff1:	89 c2                	mov    edx,eax
 8049ff3:	b8 00 00 00 00       	mov    eax,0x0
 8049ff8:	89 45 d8             	mov    DWORD PTR [ebp-0x28],eax
 8049ffb:	89 55 dc             	mov    DWORD PTR [ebp-0x24],edx
 8049ffe:	89 c8                	mov    eax,ecx
 804a000:	0b 45 d8             	or     eax,DWORD PTR [ebp-0x28]
 804a003:	89 c6                	mov    esi,eax
 804a005:	89 d8                	mov    eax,ebx
 804a007:	0b 45 dc             	or     eax,DWORD PTR [ebp-0x24]
 804a00a:	89 c7                	mov    edi,eax
 804a00c:	89 f0                	mov    eax,esi
 804a00e:	89 fa                	mov    edx,edi
 804a010:	83 c4 1c             	add    esp,0x1c
 804a013:	5b                   	pop    ebx
 804a014:	5e                   	pop    esi
 804a015:	5f                   	pop    edi
 804a016:	5d                   	pop    ebp
 804a017:	c3                   	ret

0804a018 <cmov>:
 804a018:	55                   	push   ebp
 804a019:	89 e5                	mov    ebp,esp
 804a01b:	53                   	push   ebx
 804a01c:	8b 5d 08             	mov    ebx,DWORD PTR [ebp+0x8]
 804a01f:	8b 4d 0c             	mov    ecx,DWORD PTR [ebp+0xc]
 804a022:	8b 55 10             	mov    edx,DWORD PTR [ebp+0x10]
 804a025:	8b 02                	mov    eax,DWORD PTR [edx]
 804a027:	85 db                	test   ebx,ebx
 804a029:	0f 45 01             	cmovne eax,DWORD PTR [ecx]
 804a02c:	89 02                	mov    DWORD PTR [edx],eax
 804a02e:	5b                   	pop    ebx
 804a02f:	5d                   	pop    ebp
 804a030:	c3                   	ret

0804a031 <cmovn>:
 804a031:	55                   	push   ebp
 804a032:	89 e5                	mov    ebp,esp
 804a034:	83 ec 1c             	sub    esp,0x1c
 804a037:	c7 45 fc 00 00 00 00 	mov    DWORD PTR [ebp-0x4],0x0
 804a03e:	eb 35                	jmp    804a075
 804a040:	8b 45 fc             	mov    eax,DWORD PTR [ebp-0x4]
 804a043:	8d 14 85 00 00 00 00 	lea    edx,[eax*4]
 804a04a:	8b 45 10             	mov    eax,DWORD PTR [ebp+0x10]
 804a04d:	01 c2                	add    edx,eax
 804a04f:	8b 45 fc             	mov    eax,DWORD PTR [ebp-0x4]
 804a052:	8d 0c 85 00 00 00 00 	lea    ecx,[eax*4]
 804a059:	8b 45 0c             	mov    eax,DWORD PTR [ebp+0xc]
 804a05c:	01 c8                	add    eax,ecx
 804a05e:	89 54 24 08          	mov    DWORD PTR [esp+0x8],edx
 804a062:	89 44 24 04          	mov    DWORD PTR [esp+0x4],eax
 804a066:	8b 45 08             	mov    eax,DWORD PTR [ebp+0x8]
 804a069:	89 04 24             	mov    DWORD PTR [esp],eax
 804a06c:	e8 a7 ff ff ff       	call   804a018
 804a071:	83 45 fc 01          	add    DWORD PTR [ebp-0x4],0x1
 804a075:	8b 45 fc             	mov    eax,DWORD PTR [ebp-0x4]
 804a078:	3b 45 14             	cmp    eax,DWORD PTR [ebp+0x14]
 804a07b:	7c c3                	jl     804a040
 804a07d:	c9                   	leave
 804a07e:	c3                   	ret

0804a07f <Merge_Int>:
 804a07f:	55                   	push   ebp
 804a080:	89 e5                	mov    ebp,esp
 804a082:	83 ec 20             	sub    esp,0x20
 804a085:	8b 45 0c             	mov    eax,DWORD PTR [ebp+0xc]
 804a088:	8b 55 10             	mov    edx,DWORD PTR [ebp+0x10]
 804a08b:	29 c2                	sub    edx,eax
 804a08d:	89 d0                	mov    eax,edx
 804a08f:	83 c0 01             	add    eax,0x1
 804a092:	89 45 f8             	mov    DWORD PTR [ebp-0x8],eax
 804a095:	8b 45 10             	mov    eax,DWORD PTR [ebp+0x10]
 804a098:	8b 55 14             	mov    edx,DWORD PTR [ebp+0x14]
 804a09b:	29 c2                	sub    edx,eax
 804a09d:	89 d0                	mov    eax,edx
 804a09f:	89 45 fc             	mov    DWORD PTR [ebp-0x4],eax
 804a0a2:	c7 45 ec 00 00 00 00 	mov    DWORD PTR [ebp-0x14],0x0
 804a0a9:	eb 29                	jmp    804a0d4
 804a0ab:	a1 94 f0 04 08       	mov    eax,ds:0x804f094
 804a0b0:	8b 55 ec             	mov    edx,DWORD PTR [ebp-0x14]
 804a0b3:	c1 e2 02             	shl    edx,0x2
 804a0b6:	01 c2                	add    edx,eax
 804a0b8:	8b 45 ec             	mov    eax,DWORD PTR [ebp-0x14]
 804a0bb:	8b 4d 0c             	mov    ecx,DWORD PTR [ebp+0xc]
 804a0be:	01 c8                	add    eax,ecx
 804a0c0:	8d 0c 85 00 00 00 00 	lea    ecx,[eax*4]
 804a0c7:	8b 45 08             	mov    eax,DWORD PTR [ebp+0x8]
 804a0ca:	01 c8                	add    eax,ecx
 804a0cc:	8b 00                	mov    eax,DWORD PTR [eax]
 804a0ce:	89 02                	mov    DWORD PTR [edx],eax
 804a0d0:	83 45 ec 01          	add    DWORD PTR [ebp-0x14],0x1
 804a0d4:	8b 45 ec             	mov    eax,DWORD PTR [ebp-0x14]
 804a0d7:	3b 45 f8             	cmp    eax,DWORD PTR [ebp-0x8]
 804a0da:	7c cf                	jl     804a0ab
 804a0dc:	c7 45 f0 00 00 00 00 	mov    DWORD PTR [ebp-0x10],0x0
 804a0e3:	eb 2c                	jmp    804a111
 804a0e5:	a1 98 f0 04 08       	mov    eax,ds:0x804f098
 804a0ea:	8b 55 f0             	mov    edx,DWORD PTR [ebp-0x10]
 804a0ed:	c1 e2 02             	shl    edx,0x2
 804a0f0:	01 c2                	add    edx,eax
 804a0f2:	8b 45 10             	mov    eax,DWORD PTR [ebp+0x10]
 804a0f5:	8d 48 01             	lea    ecx,[eax+0x1]
 804a0f8:	8b 45 f0             	mov    eax,DWORD PTR [ebp-0x10]
 804a0fb:	01 c8                	add    eax,ecx
 804a0fd:	8d 0c 85 00 00 00 00 	lea    ecx,[eax*4]
 804a104:	8b 45 08             	mov    eax,DWORD PTR [ebp+0x8]
 804a107:	01 c8                	add    eax,ecx
 804a109:	8b 00                	mov    eax,DWORD PTR [eax]
 804a10b:	89 02                	mov    DWORD PTR [edx],eax
 804a10d:	83 45 f0 01          	add    DWORD PTR [ebp-0x10],0x1
 804a111:	8b 45 f0             	mov    eax,DWORD PTR [ebp-0x10]
 804a114:	3b 45 fc             	cmp    eax,DWORD PTR [ebp-0x4]
 804a117:	7c cc                	jl     804a0e5
 804a119:	c7 45 ec 00 00 00 00 	mov    DWORD PTR [ebp-0x14],0x0
 804a120:	c7 45 f0 00 00 00 00 	mov    DWORD PTR [ebp-0x10],0x0
 804a127:	8b 45 0c             	mov    eax,DWORD PTR [ebp+0xc]
 804a12a:	89 45 f4             	mov    DWORD PTR [ebp-0xc],eax
 804a12d:	e9 a5 00 00 00       	jmp    804a1d7
 804a132:	a1 94 f0 04 08       	mov    eax,ds:0x804f094
 804a137:	8b 55 ec             	mov    edx,DWORD PTR [ebp-0x14]
 804a13a:	c1 e2 02             	shl    edx,0x2
 804a13d:	01 d0                	add    eax,edx
 804a13f:	8b 10                	mov    edx,DWORD PTR [eax]
 804a141:	a1 98 f0 04 08       	mov    eax,ds:0x804f098
 804a146:	8b 4d f0             	mov    ecx,DWORD PTR [ebp-0x10]
 804a149:	c1 e1 02             	shl    ecx,0x2
 804a14c:	01 c8                	add    eax,ecx
 804a14e:	8b 00                	mov    eax,DWORD PTR [eax]
 804a150:	39 c2                	cmp    edx,eax
 804a152:	7f 0a                	jg     804a15e
 804a154:	a1 a4 f0 04 08       	mov    eax,ds:0x804f0a4
 804a159:	83 f8 01             	cmp    eax,0x1
 804a15c:	74 2b                	je     804a189
 804a15e:	a1 94 f0 04 08       	mov    eax,ds:0x804f094
 804a163:	8b 55 ec             	mov    edx,DWORD PTR [ebp-0x14]
 804a166:	c1 e2 02             	shl    edx,0x2
 804a169:	01 d0                	add    eax,edx
 804a16b:	8b 10                	mov    edx,DWORD PTR [eax]
 804a16d:	a1 98 f0 04 08       	mov    eax,ds:0x804f098
 804a172:	8b 4d f0             	mov    ecx,DWORD PTR [ebp-0x10]
 804a175:	c1 e1 02             	shl    ecx,0x2
 804a178:	01 c8                	add    eax,ecx
 804a17a:	8b 00                	mov    eax,DWORD PTR [eax]
 804a17c:	39 c2                	cmp    edx,eax
 804a17e:	7c 2f                	jl     804a1af
 804a180:	a1 a4 f0 04 08       	mov    eax,ds:0x804f0a4
 804a185:	85 c0                	test   eax,eax
 804a187:	75 26                	jne    804a1af
 804a189:	8b 45 f4             	mov    eax,DWORD PTR [ebp-0xc]
 804a18c:	8d 14 85 00 00 00 00 	lea    edx,[eax*4]
 804a193:	8b 45 08             	mov    eax,DWORD PTR [ebp+0x8]
 804a196:	01 c2                	add    edx,eax
 804a198:	a1 94 f0 04 08       	mov    eax,ds:0x804f094
 804a19d:	8b 4d ec             	mov    ecx,DWORD PTR [ebp-0x14]
 804a1a0:	c1 e1 02             	shl    ecx,0x2
 804a1a3:	01 c8                	add    eax,ecx
 804a1a5:	8b 00                	mov    eax,DWORD PTR [eax]
 804a1a7:	89 02                	mov    DWORD PTR [edx],eax
 804a1a9:	83 45 ec 01          	add    DWORD PTR [ebp-0x14],0x1
 804a1ad:	eb 24                	jmp    804a1d3
 804a1af:	8b 45 f4             	mov    eax,DWORD PTR [ebp-0xc]
 804a1b2:	8d 14 85 00 00 00 00 	lea    edx,[eax*4]
 804a1b9:	8b 45 08             	mov    eax,DWORD PTR [ebp+0x8]
 804a1bc:	01 c2                	add    edx,eax
 804a1be:	a1 98 f0 04 08       	mov    eax,ds:0x804f098
 804a1c3:	8b 4d f0             	mov    ecx,DWORD PTR [ebp-0x10]
 804a1c6:	c1 e1 02             	shl    ecx,0x2
 804a1c9:	01 c8                	add    eax,ecx
 804a1cb:	8b 00                	mov    eax,DWORD PTR [eax]
 804a1cd:	89 02                	mov    DWORD PTR [edx],eax
 804a1cf:	83 45 f0 01          	add    DWORD PTR [ebp-0x10],0x1
 804a1d3:	83 45 f4 01          	add    DWORD PTR [ebp-0xc],0x1
 804a1d7:	8b 45 ec             	mov    eax,DWORD PTR [ebp-0x14]
 804a1da:	3b 45 f8             	cmp    eax,DWORD PTR [ebp-0x8]
 804a1dd:	7d 0c                	jge    804a1eb
 804a1df:	8b 45 f0             	mov    eax,DWORD PTR [ebp-0x10]
 804a1e2:	3b 45 fc             	cmp    eax,DWORD PTR [ebp-0x4]
 804a1e5:	0f 8c 47 ff ff ff    	jl     804a132
 804a1eb:	eb 28                	jmp    804a215
 804a1ed:	8b 45 f4             	mov    eax,DWORD PTR [ebp-0xc]
 804a1f0:	8d 14 85 00 00 00 00 	lea    edx,[eax*4]
 804a1f7:	8b 45 08             	mov    eax,DWORD PTR [ebp+0x8]
 804a1fa:	01 c2                	add    edx,eax
 804a1fc:	a1 94 f0 04 08       	mov    eax,ds:0x804f094
 804a201:	8b 4d ec             	mov    ecx,DWORD PTR [ebp-0x14]
 804a204:	c1 e1 02             	shl    ecx,0x2
 804a207:	01 c8                	add    eax,ecx
 804a209:	8b 00                	mov    eax,DWORD PTR [eax]
 804a20b:	89 02                	mov    DWORD PTR [edx],eax
 804a20d:	83 45 ec 01          	add    DWORD PTR [ebp-0x14],0x1
 804a211:	83 45 f4 01          	add    DWORD PTR [ebp-0xc],0x1
 804a215:	8b 45 ec             	mov    eax,DWORD PTR [ebp-0x14]
 804a218:	3b 45 f8             	cmp    eax,DWORD PTR [ebp-0x8]
 804a21b:	7c d0                	jl     804a1ed
 804a21d:	eb 28                	jmp    804a247
 804a21f:	8b 45 f4             	mov    eax,DWORD PTR [ebp-0xc]
 804a222:	8d 14 85 00 00 00 00 	lea    edx,[eax*4]
 804a229:	8b 45 08             	mov    eax,DWORD PTR [ebp+0x8]
 804a22c:	01 c2                	add    edx,eax
 804a22e:	a1 98 f0 04 08       	mov    eax,ds:0x804f098
 804a233:	8b 4d f0             	mov    ecx,DWORD PTR [ebp-0x10]
 804a236:	c1 e1 02             	shl    ecx,0x2
 804a239:	01 c8                	add    eax,ecx
 804a23b:	8b 00                	mov    eax,DWORD PTR [eax]
 804a23d:	89 02                	mov    DWORD PTR [edx],eax
 804a23f:	83 45 f0 01          	add    DWORD PTR [ebp-0x10],0x1
 804a243:	83 45 f4 01          	add    DWORD PTR [ebp-0xc],0x1
 804a247:	8b 45 f0             	mov    eax,DWORD PTR [ebp-0x10]
 804a24a:	3b 45 fc             	cmp    eax,DWORD PTR [ebp-0x4]
 804a24d:	7c d0                	jl     804a21f
 804a24f:	c9                   	leave
 804a250:	c3                   	ret

0804a251 <Merge_Block>:
 804a251:	55                   	push   ebp
 804a252:	89 e5                	mov    ebp,esp
 804a254:	53                   	push   ebx
 804a255:	83 ec 20             	sub    esp,0x20
 804a258:	8b 45 0c             	mov    eax,DWORD PTR [ebp+0xc]
 804a25b:	8b 55 10             	mov    edx,DWORD PTR [ebp+0x10]
 804a25e:	29 c2                	sub    edx,eax
 804a260:	89 d0                	mov    eax,edx
 804a262:	83 c0 01             	add    eax,0x1
 804a265:	89 45 f4             	mov    DWORD PTR [ebp-0xc],eax
 804a268:	8b 45 10             	mov    eax,DWORD PTR [ebp+0x10]
 804a26b:	8b 55 14             	mov    edx,DWORD PTR [ebp+0x14]
 804a26e:	29 c2                	sub    edx,eax
 804a270:	89 d0                	mov    eax,edx
 804a272:	89 45 f8             	mov    DWORD PTR [ebp-0x8],eax
 804a275:	c7 45 e8 00 00 00 00 	mov    DWORD PTR [ebp-0x18],0x0
 804a27c:	eb 5b                	jmp    804a2d9
 804a27e:	c7 45 e4 00 00 00 00 	mov    DWORD PTR [ebp-0x1c],0x0
 804a285:	eb 44                	jmp    804a2cb
 804a287:	8b 15 94 f0 04 08    	mov    edx,DWORD PTR ds:0x804f094
 804a28d:	a1 58 f0 04 08       	mov    eax,ds:0x804f058
 804a292:	0f af 45 e8          	imul   eax,DWORD PTR [ebp-0x18]
 804a296:	89 c1                	mov    ecx,eax
 804a298:	8b 45 e4             	mov    eax,DWORD PTR [ebp-0x1c]
 804a29b:	01 c8                	add    eax,ecx
 804a29d:	c1 e0 02             	shl    eax,0x2
 804a2a0:	01 c2                	add    edx,eax
 804a2a2:	8b 45 e8             	mov    eax,DWORD PTR [ebp-0x18]
 804a2a5:	8b 4d 0c             	mov    ecx,DWORD PTR [ebp+0xc]
 804a2a8:	01 c1                	add    ecx,eax
 804a2aa:	a1 58 f0 04 08       	mov    eax,ds:0x804f058
 804a2af:	0f af c8             	imul   ecx,eax
 804a2b2:	8b 45 e4             	mov    eax,DWORD PTR [ebp-0x1c]
 804a2b5:	01 c8                	add    eax,ecx
 804a2b7:	8d 0c 85 00 00 00 00 	lea    ecx,[eax*4]
 804a2be:	8b 45 08             	mov    eax,DWORD PTR [ebp+0x8]
 804a2c1:	01 c8                	add    eax,ecx
 804a2c3:	8b 00                	mov    eax,DWORD PTR [eax]
 804a2c5:	89 02                	mov    DWORD PTR [edx],eax
 804a2c7:	83 45 e4 01          	add    DWORD PTR [ebp-0x1c],0x1
 804a2cb:	a1 58 f0 04 08       	mov    eax,ds:0x804f058
 804a2d0:	39 45 e4             	cmp    DWORD PTR [ebp-0x1c],eax
 804a2d3:	7c b2                	jl     804a287
 804a2d5:	83 45 e8 01          	add    DWORD PTR [ebp-0x18],0x1
 804a2d9:	8b 45 e8             	mov    eax,DWORD PTR [ebp-0x18]
 804a2dc:	3b 45 f4             	cmp    eax,DWORD PTR [ebp-0xc]
 804a2df:	7c 9d                	jl     804a27e
 804a2e1:	c7 45 ec 00 00 00 00 	mov    DWORD PTR [ebp-0x14],0x0
 804a2e8:	eb 5e                	jmp    804a348
 804a2ea:	c7 45 e4 00 00 00 00 	mov    DWORD PTR [ebp-0x1c],0x0
 804a2f1:	eb 47                	jmp    804a33a
 804a2f3:	8b 15 98 f0 04 08    	mov    edx,DWORD PTR ds:0x804f098
 804a2f9:	a1 58 f0 04 08       	mov    eax,ds:0x804f058
 804a2fe:	0f af 45 ec          	imul   eax,DWORD PTR [ebp-0x14]
 804a302:	89 c1                	mov    ecx,eax
 804a304:	8b 45 e4             	mov    eax,DWORD PTR [ebp-0x1c]
 804a307:	01 c8                	add    eax,ecx
 804a309:	c1 e0 02             	shl    eax,0x2
 804a30c:	01 c2                	add    edx,eax
 804a30e:	8b 45 10             	mov    eax,DWORD PTR [ebp+0x10]
 804a311:	8d 48 01             	lea    ecx,[eax+0x1]
 804a314:	8b 45 ec             	mov    eax,DWORD PTR [ebp-0x14]
 804a317:	01 c1                	add    ecx,eax
 804a319:	a1 58 f0 04 08       	mov    eax,ds:0x804f058
 804a31e:	0f af c8             	imul   ecx,eax
 804a321:	8b 45 e4             	mov    eax,DWORD PTR [ebp-0x1c]
 804a324:	01 c8                	add    eax,ecx
 804a326:	8d 0c 85 00 00 00 00 	lea    ecx,[eax*4]
 804a32d:	8b 45 08             	mov    eax,DWORD PTR [ebp+0x8]
 804a330:	01 c8                	add    eax,ecx
 804a332:	8b 00                	mov    eax,DWORD PTR [eax]
 804a334:	89 02                	mov    DWORD PTR [edx],eax
 804a336:	83 45 e4 01          	add    DWORD PTR [ebp-0x1c],0x1
 804a33a:	a1 58 f0 04 08       	mov    eax,ds:0x804f058
 804a33f:	39 45 e4             	cmp    DWORD PTR [ebp-0x1c],eax
 804a342:	7c af                	jl     804a2f3
 804a344:	83 45 ec 01          	add    DWORD PTR [ebp-0x14],0x1
 804a348:	8b 45 ec             	mov    eax,DWORD PTR [ebp-0x14]
 804a34b:	3b 45 f8             	cmp    eax,DWORD PTR [ebp-0x8]
 804a34e:	7c 9a                	jl     804a2ea
 804a350:	c7 45 e8 00 00 00 00 	mov    DWORD PTR [ebp-0x18],0x0
 804a357:	c7 45 ec 00 00 00 00 	mov    DWORD PTR [ebp-0x14],0x0
 804a35e:	8b 45 0c             	mov    eax,DWORD PTR [ebp+0xc]
 804a361:	89 45 f0             	mov    DWORD PTR [ebp-0x10],eax
 804a364:	e9 49 01 00 00       	jmp    804a4b2
 804a369:	8b 15 94 f0 04 08    	mov    edx,DWORD PTR ds:0x804f094
 804a36f:	a1 58 f0 04 08       	mov    eax,ds:0x804f058
 804a374:	0f af 45 e8          	imul   eax,DWORD PTR [ebp-0x18]
 804a378:	89 c1                	mov    ecx,eax
 804a37a:	a1 b0 f0 04 08       	mov    eax,ds:0x804f0b0
 804a37f:	01 c8                	add    eax,ecx
 804a381:	c1 e0 02             	shl    eax,0x2
 804a384:	01 d0                	add    eax,edx
 804a386:	8b 10                	mov    edx,DWORD PTR [eax]
 804a388:	8b 0d 98 f0 04 08    	mov    ecx,DWORD PTR ds:0x804f098
 804a38e:	a1 58 f0 04 08       	mov    eax,ds:0x804f058
 804a393:	0f af 45 ec          	imul   eax,DWORD PTR [ebp-0x14]
 804a397:	89 c3                	mov    ebx,eax
 804a399:	a1 b0 f0 04 08       	mov    eax,ds:0x804f0b0
 804a39e:	01 d8                	add    eax,ebx
 804a3a0:	c1 e0 02             	shl    eax,0x2
 804a3a3:	01 c8                	add    eax,ecx
 804a3a5:	8b 00                	mov    eax,DWORD PTR [eax]
 804a3a7:	39 c2                	cmp    edx,eax
 804a3a9:	7f 0a                	jg     804a3b5
 804a3ab:	a1 a4 f0 04 08       	mov    eax,ds:0x804f0a4
 804a3b0:	83 f8 01             	cmp    eax,0x1
 804a3b3:	74 4b                	je     804a400
 804a3b5:	8b 15 94 f0 04 08    	mov    edx,DWORD PTR ds:0x804f094
 804a3bb:	a1 58 f0 04 08       	mov    eax,ds:0x804f058
 804a3c0:	0f af 45 e8          	imul   eax,DWORD PTR [ebp-0x18]
 804a3c4:	89 c1                	mov    ecx,eax
 804a3c6:	a1 b0 f0 04 08       	mov    eax,ds:0x804f0b0
 804a3cb:	01 c8                	add    eax,ecx
 804a3cd:	c1 e0 02             	shl    eax,0x2
 804a3d0:	01 d0                	add    eax,edx
 804a3d2:	8b 10                	mov    edx,DWORD PTR [eax]
 804a3d4:	8b 0d 98 f0 04 08    	mov    ecx,DWORD PTR ds:0x804f098
 804a3da:	a1 58 f0 04 08       	mov    eax,ds:0x804f058
 804a3df:	0f af 45 ec          	imul   eax,DWORD PTR [ebp-0x14]
 804a3e3:	89 c3                	mov    ebx,eax
 804a3e5:	a1 b0 f0 04 08       	mov    eax,ds:0x804f0b0
 804a3ea:	01 d8                	add    eax,ebx
 804a3ec:	c1 e0 02             	shl    eax,0x2
 804a3ef:	01 c8                	add    eax,ecx
 804a3f1:	8b 00                	mov    eax,DWORD PTR [eax]
 804a3f3:	39 c2                	cmp    edx,eax
 804a3f5:	7c 61                	jl     804a458
 804a3f7:	a1 a4 f0 04 08       	mov    eax,ds:0x804f0a4
 804a3fc:	85 c0                	test   eax,eax
 804a3fe:	75 58                	jne    804a458
 804a400:	c7 45 e4 00 00 00 00 	mov    DWORD PTR [ebp-0x1c],0x0
 804a407:	eb 3f                	jmp    804a448
 804a409:	a1 58 f0 04 08       	mov    eax,ds:0x804f058
 804a40e:	0f af 45 f0          	imul   eax,DWORD PTR [ebp-0x10]
 804a412:	89 c2                	mov    edx,eax
 804a414:	8b 45 e4             	mov    eax,DWORD PTR [ebp-0x1c]
 804a417:	01 d0                	add    eax,edx
 804a419:	8d 14 85 00 00 00 00 	lea    edx,[eax*4]
 804a420:	8b 45 08             	mov    eax,DWORD PTR [ebp+0x8]
 804a423:	01 c2                	add    edx,eax
 804a425:	8b 0d 94 f0 04 08    	mov    ecx,DWORD PTR ds:0x804f094
 804a42b:	a1 58 f0 04 08       	mov    eax,ds:0x804f058
 804a430:	0f af 45 e8          	imul   eax,DWORD PTR [ebp-0x18]
 804a434:	89 c3                	mov    ebx,eax
 804a436:	8b 45 e4             	mov    eax,DWORD PTR [ebp-0x1c]
 804a439:	01 d8                	add    eax,ebx
 804a43b:	c1 e0 02             	shl    eax,0x2
 804a43e:	01 c8                	add    eax,ecx
 804a440:	8b 00                	mov    eax,DWORD PTR [eax]
 804a442:	89 02                	mov    DWORD PTR [edx],eax
 804a444:	83 45 e4 01          	add    DWORD PTR [ebp-0x1c],0x1
 804a448:	a1 58 f0 04 08       	mov    eax,ds:0x804f058
 804a44d:	39 45 e4             	cmp    DWORD PTR [ebp-0x1c],eax
 804a450:	7c b7                	jl     804a409
 804a452:	83 45 e8 01          	add    DWORD PTR [ebp-0x18],0x1
 804a456:	eb 56                	jmp    804a4ae
 804a458:	c7 45 e4 00 00 00 00 	mov    DWORD PTR [ebp-0x1c],0x0
 804a45f:	eb 3f                	jmp    804a4a0
 804a461:	a1 58 f0 04 08       	mov    eax,ds:0x804f058
 804a466:	0f af 45 f0          	imul   eax,DWORD PTR [ebp-0x10]
 804a46a:	89 c2                	mov    edx,eax
 804a46c:	8b 45 e4             	mov    eax,DWORD PTR [ebp-0x1c]
 804a46f:	01 d0                	add    eax,edx
 804a471:	8d 14 85 00 00 00 00 	lea    edx,[eax*4]
 804a478:	8b 45 08             	mov    eax,DWORD PTR [ebp+0x8]
 804a47b:	01 c2                	add    edx,eax
 804a47d:	8b 0d 98 f0 04 08    	mov    ecx,DWORD PTR ds:0x804f098
 804a483:	a1 58 f0 04 08       	mov    eax,ds:0x804f058
 804a488:	0f af 45 ec          	imul   eax,DWORD PTR [ebp-0x14]
 804a48c:	89 c3                	mov    ebx,eax
 804a48e:	8b 45 e4             	mov    eax,DWORD PTR [ebp-0x1c]
 804a491:	01 d8                	add    eax,ebx
 804a493:	c1 e0 02             	shl    eax,0x2
 804a496:	01 c8                	add    eax,ecx
 804a498:	8b 00                	mov    eax,DWORD PTR [eax]
 804a49a:	89 02                	mov    DWORD PTR [edx],eax
 804a49c:	83 45 e4 01          	add    DWORD PTR [ebp-0x1c],0x1
 804a4a0:	a1 58 f0 04 08       	mov    eax,ds:0x804f058
 804a4a5:	39 45 e4             	cmp    DWORD PTR [ebp-0x1c],eax
 804a4a8:	7c b7                	jl     804a461
 804a4aa:	83 45 ec 01          	add    DWORD PTR [ebp-0x14],0x1
 804a4ae:	83 45 f0 01          	add    DWORD PTR [ebp-0x10],0x1
 804a4b2:	8b 45 e8             	mov    eax,DWORD PTR [ebp-0x18]
 804a4b5:	3b 45 f4             	cmp    eax,DWORD PTR [ebp-0xc]
 804a4b8:	7d 0c                	jge    804a4c6
 804a4ba:	8b 45 ec             	mov    eax,DWORD PTR [ebp-0x14]
 804a4bd:	3b 45 f8             	cmp    eax,DWORD PTR [ebp-0x8]
 804a4c0:	0f 8c a3 fe ff ff    	jl     804a369
 804a4c6:	eb 5a                	jmp    804a522
 804a4c8:	c7 45 e4 00 00 00 00 	mov    DWORD PTR [ebp-0x1c],0x0
 804a4cf:	eb 3f                	jmp    804a510
 804a4d1:	a1 58 f0 04 08       	mov    eax,ds:0x804f058
 804a4d6:	0f af 45 f0          	imul   eax,DWORD PTR [ebp-0x10]
 804a4da:	89 c2                	mov    edx,eax
 804a4dc:	8b 45 e4             	mov    eax,DWORD PTR [ebp-0x1c]
 804a4df:	01 d0                	add    eax,edx
 804a4e1:	8d 14 85 00 00 00 00 	lea    edx,[eax*4]
 804a4e8:	8b 45 08             	mov    eax,DWORD PTR [ebp+0x8]
 804a4eb:	01 c2                	add    edx,eax
 804a4ed:	8b 0d 94 f0 04 08    	mov    ecx,DWORD PTR ds:0x804f094
 804a4f3:	a1 58 f0 04 08       	mov    eax,ds:0x804f058
 804a4f8:	0f af 45 e8          	imul   eax,DWORD PTR [ebp-0x18]
 804a4fc:	89 c3                	mov    ebx,eax
 804a4fe:	8b 45 e4             	mov    eax,DWORD PTR [ebp-0x1c]
 804a501:	01 d8                	add    eax,ebx
 804a503:	c1 e0 02             	shl    eax,0x2
 804a506:	01 c8                	add    eax,ecx
 804a508:	8b 00                	mov    eax,DWORD PTR [eax]
 804a50a:	89 02                	mov    DWORD PTR [edx],eax
 804a50c:	83 45 e4 01          	add    DWORD PTR [ebp-0x1c],0x1
 804a510:	a1 58 f0 04 08       	mov    eax,ds:0x804f058
 804a515:	39 45 e4             	cmp    DWORD PTR [ebp-0x1c],eax
 804a518:	7c b7                	jl     804a4d1
 804a51a:	83 45 e8 01          	add    DWORD PTR [ebp-0x18],0x1
 804a51e:	83 45 f0 01          	add    DWORD PTR [ebp-0x10],0x1
 804a522:	8b 45 e8             	mov    eax,DWORD PTR [ebp-0x18]
 804a525:	3b 45 f4             	cmp    eax,DWORD PTR [ebp-0xc]
 804a528:	7c 9e                	jl     804a4c8
 804a52a:	eb 5a                	jmp    804a586
 804a52c:	c7 45 e4 00 00 00 00 	mov    DWORD PTR [ebp-0x1c],0x0
 804a533:	eb 3f                	jmp    804a574
 804a535:	a1 58 f0 04 08       	mov    eax,ds:0x804f058
 804a53a:	0f af 45 f0          	imul   eax,DWORD PTR [ebp-0x10]
 804a53e:	89 c2                	mov    edx,eax
 804a540:	8b 45 e4             	mov    eax,DWORD PTR [ebp-0x1c]
 804a543:	01 d0                	add    eax,edx
 804a545:	8d 14 85 00 00 00 00 	lea    edx,[eax*4]
 804a54c:	8b 45 08             	mov    eax,DWORD PTR [ebp+0x8]
 804a54f:	01 c2                	add    edx,eax
 804a551:	8b 0d 98 f0 04 08    	mov    ecx,DWORD PTR ds:0x804f098
 804a557:	a1 58 f0 04 08       	mov    eax,ds:0x804f058
 804a55c:	0f af 45 ec          	imul   eax,DWORD PTR [ebp-0x14]
 804a560:	89 c3                	mov    ebx,eax
 804a562:	8b 45 e4             	mov    eax,DWORD PTR [ebp-0x1c]
 804a565:	01 d8                	add    eax,ebx
 804a567:	c1 e0 02             	shl    eax,0x2
 804a56a:	01 c8                	add    eax,ecx
 804a56c:	8b 00                	mov    eax,DWORD PTR [eax]
 804a56e:	89 02                	mov    DWORD PTR [edx],eax
 804a570:	83 45 e4 01          	add    DWORD PTR [ebp-0x1c],0x1
 804a574:	a1 58 f0 04 08       	mov    eax,ds:0x804f058
 804a579:	39 45 e4             	cmp    DWORD PTR [ebp-0x1c],eax
 804a57c:	7c b7                	jl     804a535
 804a57e:	83 45 ec 01          	add    DWORD PTR [ebp-0x14],0x1
 804a582:	83 45 f0 01          	add    DWORD PTR [ebp-0x10],0x1
 804a586:	8b 45 ec             	mov    eax,DWORD PTR [ebp-0x14]
 804a589:	3b 45 f8             	cmp    eax,DWORD PTR [ebp-0x8]
 804a58c:	7c 9e                	jl     804a52c
 804a58e:	83 c4 20             	add    esp,0x20
 804a591:	5b                   	pop    ebx
 804a592:	5d                   	pop    ebp
 804a593:	c3                   	ret

0804a594 <Merge_General>:
 804a594:	55                   	push   ebp
 804a595:	89 e5                	mov    ebp,esp
 804a597:	53                   	push   ebx
 804a598:	83 ec 20             	sub    esp,0x20
 804a59b:	8b 45 0c             	mov    eax,DWORD PTR [ebp+0xc]
 804a59e:	8b 55 10             	mov    edx,DWORD PTR [ebp+0x10]
 804a5a1:	29 c2                	sub    edx,eax
 804a5a3:	89 d0                	mov    eax,edx
 804a5a5:	83 c0 01             	add    eax,0x1
 804a5a8:	89 45 f4             	mov    DWORD PTR [ebp-0xc],eax
 804a5ab:	8b 45 10             	mov    eax,DWORD PTR [ebp+0x10]
 804a5ae:	8b 55 14             	mov    edx,DWORD PTR [ebp+0x14]
 804a5b1:	29 c2                	sub    edx,eax
 804a5b3:	89 d0                	mov    eax,edx
 804a5b5:	89 45 f8             	mov    DWORD PTR [ebp-0x8],eax
 804a5b8:	c7 45 e8 00 00 00 00 	mov    DWORD PTR [ebp-0x18],0x0
 804a5bf:	eb 5b                	jmp    804a61c
 804a5c1:	c7 45 e4 00 00 00 00 	mov    DWORD PTR [ebp-0x1c],0x0
 804a5c8:	eb 44                	jmp    804a60e
 804a5ca:	8b 15 94 f0 04 08    	mov    edx,DWORD PTR ds:0x804f094
 804a5d0:	a1 58 f0 04 08       	mov    eax,ds:0x804f058
 804a5d5:	0f af 45 e8          	imul   eax,DWORD PTR [ebp-0x18]
 804a5d9:	89 c1                	mov    ecx,eax
 804a5db:	8b 45 e4             	mov    eax,DWORD PTR [ebp-0x1c]
 804a5de:	01 c8                	add    eax,ecx
 804a5e0:	c1 e0 02             	shl    eax,0x2
 804a5e3:	01 c2                	add    edx,eax
 804a5e5:	8b 45 e8             	mov    eax,DWORD PTR [ebp-0x18]
 804a5e8:	8b 4d 0c             	mov    ecx,DWORD PTR [ebp+0xc]
 804a5eb:	01 c1                	add    ecx,eax
 804a5ed:	a1 58 f0 04 08       	mov    eax,ds:0x804f058
 804a5f2:	0f af c8             	imul   ecx,eax
 804a5f5:	8b 45 e4             	mov    eax,DWORD PTR [ebp-0x1c]
 804a5f8:	01 c8                	add    eax,ecx
 804a5fa:	8d 0c 85 00 00 00 00 	lea    ecx,[eax*4]
 804a601:	8b 45 08             	mov    eax,DWORD PTR [ebp+0x8]
 804a604:	01 c8                	add    eax,ecx
 804a606:	8b 00                	mov    eax,DWORD PTR [eax]
 804a608:	89 02                	mov    DWORD PTR [edx],eax
 804a60a:	83 45 e4 01          	add    DWORD PTR [ebp-0x1c],0x1
 804a60e:	a1 58 f0 04 08       	mov    eax,ds:0x804f058
 804a613:	39 45 e4             	cmp    DWORD PTR [ebp-0x1c],eax
 804a616:	7c b2                	jl     804a5ca
 804a618:	83 45 e8 01          	add    DWORD PTR [ebp-0x18],0x1
 804a61c:	8b 45 e8             	mov    eax,DWORD PTR [ebp-0x18]
 804a61f:	3b 45 f4             	cmp    eax,DWORD PTR [ebp-0xc]
 804a622:	7c 9d                	jl     804a5c1
 804a624:	c7 45 ec 00 00 00 00 	mov    DWORD PTR [ebp-0x14],0x0
 804a62b:	eb 5e                	jmp    804a68b
 804a62d:	c7 45 e4 00 00 00 00 	mov    DWORD PTR [ebp-0x1c],0x0
 804a634:	eb 47                	jmp    804a67d
 804a636:	8b 15 98 f0 04 08    	mov    edx,DWORD PTR ds:0x804f098
 804a63c:	a1 58 f0 04 08       	mov    eax,ds:0x804f058
 804a641:	0f af 45 ec          	imul   eax,DWORD PTR [ebp-0x14]
 804a645:	89 c1                	mov    ecx,eax
 804a647:	8b 45 e4             	mov    eax,DWORD PTR [ebp-0x1c]
 804a64a:	01 c8                	add    eax,ecx
 804a64c:	c1 e0 02             	shl    eax,0x2
 804a64f:	01 c2                	add    edx,eax
 804a651:	8b 45 10             	mov    eax,DWORD PTR [ebp+0x10]
 804a654:	8d 48 01             	lea    ecx,[eax+0x1]
 804a657:	8b 45 ec             	mov    eax,DWORD PTR [ebp-0x14]
 804a65a:	01 c1                	add    ecx,eax
 804a65c:	a1 58 f0 04 08       	mov    eax,ds:0x804f058
 804a661:	0f af c8             	imul   ecx,eax
 804a664:	8b 45 e4             	mov    eax,DWORD PTR [ebp-0x1c]
 804a667:	01 c8                	add    eax,ecx
 804a669:	8d 0c 85 00 00 00 00 	lea    ecx,[eax*4]
 804a670:	8b 45 08             	mov    eax,DWORD PTR [ebp+0x8]
 804a673:	01 c8                	add    eax,ecx
 804a675:	8b 00                	mov    eax,DWORD PTR [eax]
 804a677:	89 02                	mov    DWORD PTR [edx],eax
 804a679:	83 45 e4 01          	add    DWORD PTR [ebp-0x1c],0x1
 804a67d:	a1 58 f0 04 08       	mov    eax,ds:0x804f058
 804a682:	39 45 e4             	cmp    DWORD PTR [ebp-0x1c],eax
 804a685:	7c af                	jl     804a636
 804a687:	83 45 ec 01          	add    DWORD PTR [ebp-0x14],0x1
 804a68b:	8b 45 ec             	mov    eax,DWORD PTR [ebp-0x14]
 804a68e:	3b 45 f8             	cmp    eax,DWORD PTR [ebp-0x8]
 804a691:	7c 9a                	jl     804a62d
 804a693:	c7 45 e8 00 00 00 00 	mov    DWORD PTR [ebp-0x18],0x0
 804a69a:	c7 45 ec 00 00 00 00 	mov    DWORD PTR [ebp-0x14],0x0
 804a6a1:	8b 45 0c             	mov    eax,DWORD PTR [ebp+0xc]
 804a6a4:	89 45 f0             	mov    DWORD PTR [ebp-0x10],eax
 804a6a7:	e9 2e 02 00 00       	jmp    804a8da
 804a6ac:	8b 15 94 f0 04 08    	mov    edx,DWORD PTR ds:0x804f094
 804a6b2:	a1 58 f0 04 08       	mov    eax,ds:0x804f058
 804a6b7:	0f af 45 e8          	imul   eax,DWORD PTR [ebp-0x18]
 804a6bb:	89 c1                	mov    ecx,eax
 804a6bd:	a1 b4 f0 04 08       	mov    eax,ds:0x804f0b4
 804a6c2:	01 c8                	add    eax,ecx
 804a6c4:	c1 e0 02             	shl    eax,0x2
 804a6c7:	01 d0                	add    eax,edx
 804a6c9:	8b 10                	mov    edx,DWORD PTR [eax]
 804a6cb:	8b 0d 98 f0 04 08    	mov    ecx,DWORD PTR ds:0x804f098
 804a6d1:	a1 58 f0 04 08       	mov    eax,ds:0x804f058
 804a6d6:	0f af 45 ec          	imul   eax,DWORD PTR [ebp-0x14]
 804a6da:	89 c3                	mov    ebx,eax
 804a6dc:	a1 b4 f0 04 08       	mov    eax,ds:0x804f0b4
 804a6e1:	01 d8                	add    eax,ebx
 804a6e3:	c1 e0 02             	shl    eax,0x2
 804a6e6:	01 c8                	add    eax,ecx
 804a6e8:	8b 00                	mov    eax,DWORD PTR [eax]
 804a6ea:	39 c2                	cmp    edx,eax
 804a6ec:	7d 0e                	jge    804a6fc
 804a6ee:	a1 a8 f0 04 08       	mov    eax,ds:0x804f0a8
 804a6f3:	83 f8 01             	cmp    eax,0x1
 804a6f6:	0f 84 2c 01 00 00    	je     804a828
 804a6fc:	8b 15 94 f0 04 08    	mov    edx,DWORD PTR ds:0x804f094
 804a702:	a1 58 f0 04 08       	mov    eax,ds:0x804f058
 804a707:	0f af 45 e8          	imul   eax,DWORD PTR [ebp-0x18]
 804a70b:	89 c1                	mov    ecx,eax
 804a70d:	a1 b4 f0 04 08       	mov    eax,ds:0x804f0b4
 804a712:	01 c8                	add    eax,ecx
 804a714:	c1 e0 02             	shl    eax,0x2
 804a717:	01 d0                	add    eax,edx
 804a719:	8b 10                	mov    edx,DWORD PTR [eax]
 804a71b:	8b 0d 98 f0 04 08    	mov    ecx,DWORD PTR ds:0x804f098
 804a721:	a1 58 f0 04 08       	mov    eax,ds:0x804f058
 804a726:	0f af 45 ec          	imul   eax,DWORD PTR [ebp-0x14]
 804a72a:	89 c3                	mov    ebx,eax
 804a72c:	a1 b4 f0 04 08       	mov    eax,ds:0x804f0b4
 804a731:	01 d8                	add    eax,ebx
 804a733:	c1 e0 02             	shl    eax,0x2
 804a736:	01 c8                	add    eax,ecx
 804a738:	8b 00                	mov    eax,DWORD PTR [eax]
 804a73a:	39 c2                	cmp    edx,eax
 804a73c:	7e 0d                	jle    804a74b
 804a73e:	a1 a8 f0 04 08       	mov    eax,ds:0x804f0a8
 804a743:	85 c0                	test   eax,eax
 804a745:	0f 84 dd 00 00 00    	je     804a828
 804a74b:	8b 15 94 f0 04 08    	mov    edx,DWORD PTR ds:0x804f094
 804a751:	a1 58 f0 04 08       	mov    eax,ds:0x804f058
 804a756:	0f af 45 e8          	imul   eax,DWORD PTR [ebp-0x18]
 804a75a:	89 c1                	mov    ecx,eax
 804a75c:	a1 b4 f0 04 08       	mov    eax,ds:0x804f0b4
 804a761:	01 c8                	add    eax,ecx
 804a763:	c1 e0 02             	shl    eax,0x2
 804a766:	01 d0                	add    eax,edx
 804a768:	8b 10                	mov    edx,DWORD PTR [eax]
 804a76a:	8b 0d 98 f0 04 08    	mov    ecx,DWORD PTR ds:0x804f098
 804a770:	a1 58 f0 04 08       	mov    eax,ds:0x804f058
 804a775:	0f af 45 ec          	imul   eax,DWORD PTR [ebp-0x14]
 804a779:	89 c3                	mov    ebx,eax
 804a77b:	a1 b4 f0 04 08       	mov    eax,ds:0x804f0b4
 804a780:	01 d8                	add    eax,ebx
 804a782:	c1 e0 02             	shl    eax,0x2
 804a785:	01 c8                	add    eax,ecx
 804a787:	8b 00                	mov    eax,DWORD PTR [eax]
 804a789:	39 c2                	cmp    edx,eax
 804a78b:	0f 85 ef 00 00 00    	jne    804a880
 804a791:	8b 15 94 f0 04 08    	mov    edx,DWORD PTR ds:0x804f094
 804a797:	a1 58 f0 04 08       	mov    eax,ds:0x804f058
 804a79c:	0f af 45 e8          	imul   eax,DWORD PTR [ebp-0x18]
 804a7a0:	89 c1                	mov    ecx,eax
 804a7a2:	a1 b8 f0 04 08       	mov    eax,ds:0x804f0b8
 804a7a7:	01 c8                	add    eax,ecx
 804a7a9:	c1 e0 02             	shl    eax,0x2
 804a7ac:	01 d0                	add    eax,edx
 804a7ae:	8b 10                	mov    edx,DWORD PTR [eax]
 804a7b0:	8b 0d 98 f0 04 08    	mov    ecx,DWORD PTR ds:0x804f098
 804a7b6:	a1 58 f0 04 08       	mov    eax,ds:0x804f058
 804a7bb:	0f af 45 ec          	imul   eax,DWORD PTR [ebp-0x14]
 804a7bf:	89 c3                	mov    ebx,eax
 804a7c1:	a1 b8 f0 04 08       	mov    eax,ds:0x804f0b8
 804a7c6:	01 d8                	add    eax,ebx
 804a7c8:	c1 e0 02             	shl    eax,0x2
 804a7cb:	01 c8                	add    eax,ecx
 804a7cd:	8b 00                	mov    eax,DWORD PTR [eax]
 804a7cf:	39 c2                	cmp    edx,eax
 804a7d1:	7f 0a                	jg     804a7dd
 804a7d3:	a1 ac f0 04 08       	mov    eax,ds:0x804f0ac
 804a7d8:	83 f8 01             	cmp    eax,0x1
 804a7db:	74 4b                	je     804a828
 804a7dd:	8b 15 94 f0 04 08    	mov    edx,DWORD PTR ds:0x804f094
 804a7e3:	a1 58 f0 04 08       	mov    eax,ds:0x804f058
 804a7e8:	0f af 45 e8          	imul   eax,DWORD PTR [ebp-0x18]
 804a7ec:	89 c1                	mov    ecx,eax
 804a7ee:	a1 b8 f0 04 08       	mov    eax,ds:0x804f0b8
 804a7f3:	01 c8                	add    eax,ecx
 804a7f5:	c1 e0 02             	shl    eax,0x2
 804a7f8:	01 d0                	add    eax,edx
 804a7fa:	8b 10                	mov    edx,DWORD PTR [eax]
 804a7fc:	8b 0d 98 f0 04 08    	mov    ecx,DWORD PTR ds:0x804f098
 804a802:	a1 58 f0 04 08       	mov    eax,ds:0x804f058
 804a807:	0f af 45 ec          	imul   eax,DWORD PTR [ebp-0x14]
 804a80b:	89 c3                	mov    ebx,eax
 804a80d:	a1 b8 f0 04 08       	mov    eax,ds:0x804f0b8
 804a812:	01 d8                	add    eax,ebx
 804a814:	c1 e0 02             	shl    eax,0x2
 804a817:	01 c8                	add    eax,ecx
 804a819:	8b 00                	mov    eax,DWORD PTR [eax]
 804a81b:	39 c2                	cmp    edx,eax
 804a81d:	7c 61                	jl     804a880
 804a81f:	a1 ac f0 04 08       	mov    eax,ds:0x804f0ac
 804a824:	85 c0                	test   eax,eax
 804a826:	75 58                	jne    804a880
 804a828:	c7 45 e4 00 00 00 00 	mov    DWORD PTR [ebp-0x1c],0x0
 804a82f:	eb 3f                	jmp    804a870
 804a831:	a1 58 f0 04 08       	mov    eax,ds:0x804f058
 804a836:	0f af 45 f0          	imul   eax,DWORD PTR [ebp-0x10]
 804a83a:	89 c2                	mov    edx,eax
 804a83c:	8b 45 e4             	mov    eax,DWORD PTR [ebp-0x1c]
 804a83f:	01 d0                	add    eax,edx
 804a841:	8d 14 85 00 00 00 00 	lea    edx,[eax*4]
 804a848:	8b 45 08             	mov    eax,DWORD PTR [ebp+0x8]
 804a84b:	01 c2                	add    edx,eax
 804a84d:	8b 0d 94 f0 04 08    	mov    ecx,DWORD PTR ds:0x804f094
 804a853:	a1 58 f0 04 08       	mov    eax,ds:0x804f058
 804a858:	0f af 45 e8          	imul   eax,DWORD PTR [ebp-0x18]
 804a85c:	89 c3                	mov    ebx,eax
 804a85e:	8b 45 e4             	mov    eax,DWORD PTR [ebp-0x1c]
 804a861:	01 d8                	add    eax,ebx
 804a863:	c1 e0 02             	shl    eax,0x2
 804a866:	01 c8                	add    eax,ecx
 804a868:	8b 00                	mov    eax,DWORD PTR [eax]
 804a86a:	89 02                	mov    DWORD PTR [edx],eax
 804a86c:	83 45 e4 01          	add    DWORD PTR [ebp-0x1c],0x1
 804a870:	a1 58 f0 04 08       	mov    eax,ds:0x804f058
 804a875:	39 45 e4             	cmp    DWORD PTR [ebp-0x1c],eax
 804a878:	7c b7                	jl     804a831
 804a87a:	83 45 e8 01          	add    DWORD PTR [ebp-0x18],0x1
 804a87e:	eb 56                	jmp    804a8d6
 804a880:	c7 45 e4 00 00 00 00 	mov    DWORD PTR [ebp-0x1c],0x0
 804a887:	eb 3f                	jmp    804a8c8
 804a889:	a1 58 f0 04 08       	mov    eax,ds:0x804f058
 804a88e:	0f af 45 f0          	imul   eax,DWORD PTR [ebp-0x10]
 804a892:	89 c2                	mov    edx,eax
 804a894:	8b 45 e4             	mov    eax,DWORD PTR [ebp-0x1c]
 804a897:	01 d0                	add    eax,edx
 804a899:	8d 14 85 00 00 00 00 	lea    edx,[eax*4]
 804a8a0:	8b 45 08             	mov    eax,DWORD PTR [ebp+0x8]
 804a8a3:	01 c2                	add    edx,eax
 804a8a5:	8b 0d 98 f0 04 08    	mov    ecx,DWORD PTR ds:0x804f098
 804a8ab:	a1 58 f0 04 08       	mov    eax,ds:0x804f058
 804a8b0:	0f af 45 ec          	imul   eax,DWORD PTR [ebp-0x14]
 804a8b4:	89 c3                	mov    ebx,eax
 804a8b6:	8b 45 e4             	mov    eax,DWORD PTR [ebp-0x1c]
 804a8b9:	01 d8                	add    eax,ebx
 804a8bb:	c1 e0 02             	shl    eax,0x2
 804a8be:	01 c8                	add    eax,ecx
 804a8c0:	8b 00                	mov    eax,DWORD PTR [eax]
 804a8c2:	89 02                	mov    DWORD PTR [edx],eax
 804a8c4:	83 45 e4 01          	add    DWORD PTR [ebp-0x1c],0x1
 804a8c8:	a1 58 f0 04 08       	mov    eax,ds:0x804f058
 804a8cd:	39 45 e4             	cmp    DWORD PTR [ebp-0x1c],eax
 804a8d0:	7c b7                	jl     804a889
 804a8d2:	83 45 ec 01          	add    DWORD PTR [ebp-0x14],0x1
 804a8d6:	83 45 f0 01          	add    DWORD PTR [ebp-0x10],0x1
 804a8da:	8b 45 e8             	mov    eax,DWORD PTR [ebp-0x18]
 804a8dd:	3b 45 f4             	cmp    eax,DWORD PTR [ebp-0xc]
 804a8e0:	7d 0c                	jge    804a8ee
 804a8e2:	8b 45 ec             	mov    eax,DWORD PTR [ebp-0x14]
 804a8e5:	3b 45 f8             	cmp    eax,DWORD PTR [ebp-0x8]
 804a8e8:	0f 8c be fd ff ff    	jl     804a6ac
 804a8ee:	eb 5a                	jmp    804a94a
 804a8f0:	c7 45 e4 00 00 00 00 	mov    DWORD PTR [ebp-0x1c],0x0
 804a8f7:	eb 3f                	jmp    804a938
 804a8f9:	a1 58 f0 04 08       	mov    eax,ds:0x804f058
 804a8fe:	0f af 45 f0          	imul   eax,DWORD PTR [ebp-0x10]
 804a902:	89 c2                	mov    edx,eax
 804a904:	8b 45 e4             	mov    eax,DWORD PTR [ebp-0x1c]
 804a907:	01 d0                	add    eax,edx
 804a909:	8d 14 85 00 00 00 00 	lea    edx,[eax*4]
 804a910:	8b 45 08             	mov    eax,DWORD PTR [ebp+0x8]
 804a913:	01 c2                	add    edx,eax
 804a915:	8b 0d 94 f0 04 08    	mov    ecx,DWORD PTR ds:0x804f094
 804a91b:	a1 58 f0 04 08       	mov    eax,ds:0x804f058
 804a920:	0f af 45 e8          	imul   eax,DWORD PTR [ebp-0x18]
 804a924:	89 c3                	mov    ebx,eax
 804a926:	8b 45 e4             	mov    eax,DWORD PTR [ebp-0x1c]
 804a929:	01 d8                	add    eax,ebx
 804a92b:	c1 e0 02             	shl    eax,0x2
 804a92e:	01 c8                	add    eax,ecx
 804a930:	8b 00                	mov    eax,DWORD PTR [eax]
 804a932:	89 02                	mov    DWORD PTR [edx],eax
 804a934:	83 45 e4 01          	add    DWORD PTR [ebp-0x1c],0x1
 804a938:	a1 58 f0 04 08       	mov    eax,ds:0x804f058
 804a93d:	39 45 e4             	cmp    DWORD PTR [ebp-0x1c],eax
 804a940:	7c b7                	jl     804a8f9
 804a942:	83 45 e8 01          	add    DWORD PTR [ebp-0x18],0x1
 804a946:	83 45 f0 01          	add    DWORD PTR [ebp-0x10],0x1
 804a94a:	8b 45 e8             	mov    eax,DWORD PTR [ebp-0x18]
 804a94d:	3b 45 f4             	cmp    eax,DWORD PTR [ebp-0xc]
 804a950:	7c 9e                	jl     804a8f0
 804a952:	eb 5a                	jmp    804a9ae
 804a954:	c7 45 e4 00 00 00 00 	mov    DWORD PTR [ebp-0x1c],0x0
 804a95b:	eb 3f                	jmp    804a99c
 804a95d:	a1 58 f0 04 08       	mov    eax,ds:0x804f058
 804a962:	0f af 45 f0          	imul   eax,DWORD PTR [ebp-0x10]
 804a966:	89 c2                	mov    edx,eax
 804a968:	8b 45 e4             	mov    eax,DWORD PTR [ebp-0x1c]
 804a96b:	01 d0                	add    eax,edx
 804a96d:	8d 14 85 00 00 00 00 	lea    edx,[eax*4]
 804a974:	8b 45 08             	mov    eax,DWORD PTR [ebp+0x8]
 804a977:	01 c2                	add    edx,eax
 804a979:	8b 0d 98 f0 04 08    	mov    ecx,DWORD PTR ds:0x804f098
 804a97f:	a1 58 f0 04 08       	mov    eax,ds:0x804f058
 804a984:	0f af 45 ec          	imul   eax,DWORD PTR [ebp-0x14]
 804a988:	89 c3                	mov    ebx,eax
 804a98a:	8b 45 e4             	mov    eax,DWORD PTR [ebp-0x1c]
 804a98d:	01 d8                	add    eax,ebx
 804a98f:	c1 e0 02             	shl    eax,0x2
 804a992:	01 c8                	add    eax,ecx
 804a994:	8b 00                	mov    eax,DWORD PTR [eax]
 804a996:	89 02                	mov    DWORD PTR [edx],eax
 804a998:	83 45 e4 01          	add    DWORD PTR [ebp-0x1c],0x1
 804a99c:	a1 58 f0 04 08       	mov    eax,ds:0x804f058
 804a9a1:	39 45 e4             	cmp    DWORD PTR [ebp-0x1c],eax
 804a9a4:	7c b7                	jl     804a95d
 804a9a6:	83 45 ec 01          	add    DWORD PTR [ebp-0x14],0x1
 804a9aa:	83 45 f0 01          	add    DWORD PTR [ebp-0x10],0x1
 804a9ae:	8b 45 ec             	mov    eax,DWORD PTR [ebp-0x14]
 804a9b1:	3b 45 f8             	cmp    eax,DWORD PTR [ebp-0x8]
 804a9b4:	7c 9e                	jl     804a954
 804a9b6:	83 c4 20             	add    esp,0x20
 804a9b9:	5b                   	pop    ebx
 804a9ba:	5d                   	pop    ebp
 804a9bb:	c3                   	ret

0804a9bc <Merge_TwoArray>:
 804a9bc:	55                   	push   ebp
 804a9bd:	89 e5                	mov    ebp,esp
 804a9bf:	53                   	push   ebx
 804a9c0:	83 ec 20             	sub    esp,0x20
 804a9c3:	8b 45 10             	mov    eax,DWORD PTR [ebp+0x10]
 804a9c6:	8b 55 14             	mov    edx,DWORD PTR [ebp+0x14]
 804a9c9:	29 c2                	sub    edx,eax
 804a9cb:	89 d0                	mov    eax,edx
 804a9cd:	83 c0 01             	add    eax,0x1
 804a9d0:	89 45 f4             	mov    DWORD PTR [ebp-0xc],eax
 804a9d3:	8b 45 14             	mov    eax,DWORD PTR [ebp+0x14]
 804a9d6:	8b 55 18             	mov    edx,DWORD PTR [ebp+0x18]
 804a9d9:	29 c2                	sub    edx,eax
 804a9db:	89 d0                	mov    eax,edx
 804a9dd:	89 45 f8             	mov    DWORD PTR [ebp-0x8],eax
 804a9e0:	c7 45 e8 00 00 00 00 	mov    DWORD PTR [ebp-0x18],0x0
 804a9e7:	e9 b2 00 00 00       	jmp    804aa9e
 804a9ec:	c7 45 e4 00 00 00 00 	mov    DWORD PTR [ebp-0x1c],0x0
 804a9f3:	eb 44                	jmp    804aa39
 804a9f5:	8b 15 94 f0 04 08    	mov    edx,DWORD PTR ds:0x804f094
 804a9fb:	a1 5c f0 04 08       	mov    eax,ds:0x804f05c
 804aa00:	0f af 45 e8          	imul   eax,DWORD PTR [ebp-0x18]
 804aa04:	89 c1                	mov    ecx,eax
 804aa06:	8b 45 e4             	mov    eax,DWORD PTR [ebp-0x1c]
 804aa09:	01 c8                	add    eax,ecx
 804aa0b:	c1 e0 02             	shl    eax,0x2
 804aa0e:	01 c2                	add    edx,eax
 804aa10:	8b 45 e8             	mov    eax,DWORD PTR [ebp-0x18]
 804aa13:	8b 4d 10             	mov    ecx,DWORD PTR [ebp+0x10]
 804aa16:	01 c1                	add    ecx,eax
 804aa18:	a1 5c f0 04 08       	mov    eax,ds:0x804f05c
 804aa1d:	0f af c8             	imul   ecx,eax
 804aa20:	8b 45 e4             	mov    eax,DWORD PTR [ebp-0x1c]
 804aa23:	01 c8                	add    eax,ecx
 804aa25:	8d 0c 85 00 00 00 00 	lea    ecx,[eax*4]
 804aa2c:	8b 45 08             	mov    eax,DWORD PTR [ebp+0x8]
 804aa2f:	01 c8                	add    eax,ecx
 804aa31:	8b 00                	mov    eax,DWORD PTR [eax]
 804aa33:	89 02                	mov    DWORD PTR [edx],eax
 804aa35:	83 45 e4 01          	add    DWORD PTR [ebp-0x1c],0x1
 804aa39:	a1 5c f0 04 08       	mov    eax,ds:0x804f05c
 804aa3e:	39 45 e4             	cmp    DWORD PTR [ebp-0x1c],eax
 804aa41:	7c b2                	jl     804a9f5
 804aa43:	c7 45 e4 00 00 00 00 	mov    DWORD PTR [ebp-0x1c],0x0
 804aa4a:	eb 44                	jmp    804aa90
 804aa4c:	8b 15 9c f0 04 08    	mov    edx,DWORD PTR ds:0x804f09c
 804aa52:	a1 60 f0 04 08       	mov    eax,ds:0x804f060
 804aa57:	0f af 45 e8          	imul   eax,DWORD PTR [ebp-0x18]
 804aa5b:	89 c1                	mov    ecx,eax
 804aa5d:	8b 45 e4             	mov    eax,DWORD PTR [ebp-0x1c]
 804aa60:	01 c8                	add    eax,ecx
 804aa62:	c1 e0 02             	shl    eax,0x2
 804aa65:	01 c2                	add    edx,eax
 804aa67:	8b 45 e8             	mov    eax,DWORD PTR [ebp-0x18]
 804aa6a:	8b 4d 10             	mov    ecx,DWORD PTR [ebp+0x10]
 804aa6d:	01 c1                	add    ecx,eax
 804aa6f:	a1 60 f0 04 08       	mov    eax,ds:0x804f060
 804aa74:	0f af c8             	imul   ecx,eax
 804aa77:	8b 45 e4             	mov    eax,DWORD PTR [ebp-0x1c]
 804aa7a:	01 c8                	add    eax,ecx
 804aa7c:	8d 0c 85 00 00 00 00 	lea    ecx,[eax*4]
 804aa83:	8b 45 0c             	mov    eax,DWORD PTR [ebp+0xc]
 804aa86:	01 c8                	add    eax,ecx
 804aa88:	8b 00                	mov    eax,DWORD PTR [eax]
 804aa8a:	89 02                	mov    DWORD PTR [edx],eax
 804aa8c:	83 45 e4 01          	add    DWORD PTR [ebp-0x1c],0x1
 804aa90:	a1 60 f0 04 08       	mov    eax,ds:0x804f060
 804aa95:	39 45 e4             	cmp    DWORD PTR [ebp-0x1c],eax
 804aa98:	7c b2                	jl     804aa4c
 804aa9a:	83 45 e8 01          	add    DWORD PTR [ebp-0x18],0x1
 804aa9e:	8b 45 e8             	mov    eax,DWORD PTR [ebp-0x18]
 804aaa1:	3b 45 f4             	cmp    eax,DWORD PTR [ebp-0xc]
 804aaa4:	0f 8c 42 ff ff ff    	jl     804a9ec
 804aaaa:	c7 45 ec 00 00 00 00 	mov    DWORD PTR [ebp-0x14],0x0
 804aab1:	e9 b8 00 00 00       	jmp    804ab6e
 804aab6:	c7 45 e4 00 00 00 00 	mov    DWORD PTR [ebp-0x1c],0x0
 804aabd:	eb 47                	jmp    804ab06
 804aabf:	8b 15 98 f0 04 08    	mov    edx,DWORD PTR ds:0x804f098
 804aac5:	a1 5c f0 04 08       	mov    eax,ds:0x804f05c
 804aaca:	0f af 45 ec          	imul   eax,DWORD PTR [ebp-0x14]
 804aace:	89 c1                	mov    ecx,eax
 804aad0:	8b 45 e4             	mov    eax,DWORD PTR [ebp-0x1c]
 804aad3:	01 c8                	add    eax,ecx
 804aad5:	c1 e0 02             	shl    eax,0x2
 804aad8:	01 c2                	add    edx,eax
 804aada:	8b 45 14             	mov    eax,DWORD PTR [ebp+0x14]
 804aadd:	8d 48 01             	lea    ecx,[eax+0x1]
 804aae0:	8b 45 ec             	mov    eax,DWORD PTR [ebp-0x14]
 804aae3:	01 c1                	add    ecx,eax
 804aae5:	a1 5c f0 04 08       	mov    eax,ds:0x804f05c
 804aaea:	0f af c8             	imul   ecx,eax
 804aaed:	8b 45 e4             	mov    eax,DWORD PTR [ebp-0x1c]
 804aaf0:	01 c8                	add    eax,ecx
 804aaf2:	8d 0c 85 00 00 00 00 	lea    ecx,[eax*4]
 804aaf9:	8b 45 08             	mov    eax,DWORD PTR [ebp+0x8]
 804aafc:	01 c8                	add    eax,ecx
 804aafe:	8b 00                	mov    eax,DWORD PTR [eax]
 804ab00:	89 02                	mov    DWORD PTR [edx],eax
 804ab02:	83 45 e4 01          	add    DWORD PTR [ebp-0x1c],0x1
 804ab06:	a1 5c f0 04 08       	mov    eax,ds:0x804f05c
 804ab0b:	39 45 e4             	cmp    DWORD PTR [ebp-0x1c],eax
 804ab0e:	7c af                	jl     804aabf
 804ab10:	c7 45 e4 00 00 00 00 	mov    DWORD PTR [ebp-0x1c],0x0
 804ab17:	eb 47                	jmp    804ab60
 804ab19:	8b 15 a0 f0 04 08    	mov    edx,DWORD PTR ds:0x804f0a0
 804ab1f:	a1 60 f0 04 08       	mov    eax,ds:0x804f060
 804ab24:	0f af 45 ec          	imul   eax,DWORD PTR [ebp-0x14]
 804ab28:	89 c1                	mov    ecx,eax
 804ab2a:	8b 45 e4             	mov    eax,DWORD PTR [ebp-0x1c]
 804ab2d:	01 c8                	add    eax,ecx
 804ab2f:	c1 e0 02             	shl    eax,0x2
 804ab32:	01 c2                	add    edx,eax
 804ab34:	8b 45 14             	mov    eax,DWORD PTR [ebp+0x14]
 804ab37:	8d 48 01             	lea    ecx,[eax+0x1]
 804ab3a:	8b 45 ec             	mov    eax,DWORD PTR [ebp-0x14]
 804ab3d:	01 c1                	add    ecx,eax
 804ab3f:	a1 60 f0 04 08       	mov    eax,ds:0x804f060
 804ab44:	0f af c8             	imul   ecx,eax
 804ab47:	8b 45 e4             	mov    eax,DWORD PTR [ebp-0x1c]
 804ab4a:	01 c8                	add    eax,ecx
 804ab4c:	8d 0c 85 00 00 00 00 	lea    ecx,[eax*4]
 804ab53:	8b 45 0c             	mov    eax,DWORD PTR [ebp+0xc]
 804ab56:	01 c8                	add    eax,ecx
 804ab58:	8b 00                	mov    eax,DWORD PTR [eax]
 804ab5a:	89 02                	mov    DWORD PTR [edx],eax
 804ab5c:	83 45 e4 01          	add    DWORD PTR [ebp-0x1c],0x1
 804ab60:	a1 60 f0 04 08       	mov    eax,ds:0x804f060
 804ab65:	39 45 e4             	cmp    DWORD PTR [ebp-0x1c],eax
 804ab68:	7c af                	jl     804ab19
 804ab6a:	83 45 ec 01          	add    DWORD PTR [ebp-0x14],0x1
 804ab6e:	8b 45 ec             	mov    eax,DWORD PTR [ebp-0x14]
 804ab71:	3b 45 f8             	cmp    eax,DWORD PTR [ebp-0x8]
 804ab74:	0f 8c 3c ff ff ff    	jl     804aab6
 804ab7a:	c7 45 e8 00 00 00 00 	mov    DWORD PTR [ebp-0x18],0x0
 804ab81:	c7 45 ec 00 00 00 00 	mov    DWORD PTR [ebp-0x14],0x0
 804ab88:	8b 45 10             	mov    eax,DWORD PTR [ebp+0x10]
 804ab8b:	89 45 f0             	mov    DWORD PTR [ebp-0x10],eax
 804ab8e:	e9 f8 01 00 00       	jmp    804ad8b
 804ab93:	8b 15 94 f0 04 08    	mov    edx,DWORD PTR ds:0x804f094
 804ab99:	a1 5c f0 04 08       	mov    eax,ds:0x804f05c
 804ab9e:	0f af 45 e8          	imul   eax,DWORD PTR [ebp-0x18]
 804aba2:	89 c1                	mov    ecx,eax
 804aba4:	a1 b0 f0 04 08       	mov    eax,ds:0x804f0b0
 804aba9:	01 c8                	add    eax,ecx
 804abab:	c1 e0 02             	shl    eax,0x2
 804abae:	01 d0                	add    eax,edx
 804abb0:	8b 10                	mov    edx,DWORD PTR [eax]
 804abb2:	8b 0d 98 f0 04 08    	mov    ecx,DWORD PTR ds:0x804f098
 804abb8:	a1 5c f0 04 08       	mov    eax,ds:0x804f05c
 804abbd:	0f af 45 ec          	imul   eax,DWORD PTR [ebp-0x14]
 804abc1:	89 c3                	mov    ebx,eax
 804abc3:	a1 b0 f0 04 08       	mov    eax,ds:0x804f0b0
 804abc8:	01 d8                	add    eax,ebx
 804abca:	c1 e0 02             	shl    eax,0x2
 804abcd:	01 c8                	add    eax,ecx
 804abcf:	8b 00                	mov    eax,DWORD PTR [eax]
 804abd1:	39 c2                	cmp    edx,eax
 804abd3:	7f 0a                	jg     804abdf
 804abd5:	a1 a4 f0 04 08       	mov    eax,ds:0x804f0a4
 804abda:	83 f8 01             	cmp    eax,0x1
 804abdd:	74 53                	je     804ac32
 804abdf:	8b 15 94 f0 04 08    	mov    edx,DWORD PTR ds:0x804f094
 804abe5:	a1 5c f0 04 08       	mov    eax,ds:0x804f05c
 804abea:	0f af 45 e8          	imul   eax,DWORD PTR [ebp-0x18]
 804abee:	89 c1                	mov    ecx,eax
 804abf0:	a1 b0 f0 04 08       	mov    eax,ds:0x804f0b0
 804abf5:	01 c8                	add    eax,ecx
 804abf7:	c1 e0 02             	shl    eax,0x2
 804abfa:	01 d0                	add    eax,edx
 804abfc:	8b 10                	mov    edx,DWORD PTR [eax]
 804abfe:	8b 0d 98 f0 04 08    	mov    ecx,DWORD PTR ds:0x804f098
 804ac04:	a1 5c f0 04 08       	mov    eax,ds:0x804f05c
 804ac09:	0f af 45 ec          	imul   eax,DWORD PTR [ebp-0x14]
 804ac0d:	89 c3                	mov    ebx,eax
 804ac0f:	a1 b0 f0 04 08       	mov    eax,ds:0x804f0b0
 804ac14:	01 d8                	add    eax,ebx
 804ac16:	c1 e0 02             	shl    eax,0x2
 804ac19:	01 c8                	add    eax,ecx
 804ac1b:	8b 00                	mov    eax,DWORD PTR [eax]
 804ac1d:	39 c2                	cmp    edx,eax
 804ac1f:	0f 8c ba 00 00 00    	jl     804acdf
 804ac25:	a1 a4 f0 04 08       	mov    eax,ds:0x804f0a4
 804ac2a:	85 c0                	test   eax,eax
 804ac2c:	0f 85 ad 00 00 00    	jne    804acdf
 804ac32:	c7 45 e4 00 00 00 00 	mov    DWORD PTR [ebp-0x1c],0x0
 804ac39:	eb 3f                	jmp    804ac7a
 804ac3b:	a1 5c f0 04 08       	mov    eax,ds:0x804f05c
 804ac40:	0f af 45 f0          	imul   eax,DWORD PTR [ebp-0x10]
 804ac44:	89 c2                	mov    edx,eax
 804ac46:	8b 45 e4             	mov    eax,DWORD PTR [ebp-0x1c]
 804ac49:	01 d0                	add    eax,edx
 804ac4b:	8d 14 85 00 00 00 00 	lea    edx,[eax*4]
 804ac52:	8b 45 08             	mov    eax,DWORD PTR [ebp+0x8]
 804ac55:	01 c2                	add    edx,eax
 804ac57:	8b 0d 94 f0 04 08    	mov    ecx,DWORD PTR ds:0x804f094
 804ac5d:	a1 5c f0 04 08       	mov    eax,ds:0x804f05c
 804ac62:	0f af 45 e8          	imul   eax,DWORD PTR [ebp-0x18]
 804ac66:	89 c3                	mov    ebx,eax
 804ac68:	8b 45 e4             	mov    eax,DWORD PTR [ebp-0x1c]
 804ac6b:	01 d8                	add    eax,ebx
 804ac6d:	c1 e0 02             	shl    eax,0x2
 804ac70:	01 c8                	add    eax,ecx
 804ac72:	8b 00                	mov    eax,DWORD PTR [eax]
 804ac74:	89 02                	mov    DWORD PTR [edx],eax
 804ac76:	83 45 e4 01          	add    DWORD PTR [ebp-0x1c],0x1
 804ac7a:	a1 5c f0 04 08       	mov    eax,ds:0x804f05c
 804ac7f:	39 45 e4             	cmp    DWORD PTR [ebp-0x1c],eax
 804ac82:	7c b7                	jl     804ac3b
 804ac84:	c7 45 e4 00 00 00 00 	mov    DWORD PTR [ebp-0x1c],0x0
 804ac8b:	eb 3f                	jmp    804accc
 804ac8d:	a1 60 f0 04 08       	mov    eax,ds:0x804f060
 804ac92:	0f af 45 f0          	imul   eax,DWORD PTR [ebp-0x10]
 804ac96:	89 c2                	mov    edx,eax
 804ac98:	8b 45 e4             	mov    eax,DWORD PTR [ebp-0x1c]
 804ac9b:	01 d0                	add    eax,edx
 804ac9d:	8d 14 85 00 00 00 00 	lea    edx,[eax*4]
 804aca4:	8b 45 0c             	mov    eax,DWORD PTR [ebp+0xc]
 804aca7:	01 c2                	add    edx,eax
 804aca9:	8b 0d 9c f0 04 08    	mov    ecx,DWORD PTR ds:0x804f09c
 804acaf:	a1 60 f0 04 08       	mov    eax,ds:0x804f060
 804acb4:	0f af 45 e8          	imul   eax,DWORD PTR [ebp-0x18]
 804acb8:	89 c3                	mov    ebx,eax
 804acba:	8b 45 e4             	mov    eax,DWORD PTR [ebp-0x1c]
 804acbd:	01 d8                	add    eax,ebx
 804acbf:	c1 e0 02             	shl    eax,0x2
 804acc2:	01 c8                	add    eax,ecx
 804acc4:	8b 00                	mov    eax,DWORD PTR [eax]
 804acc6:	89 02                	mov    DWORD PTR [edx],eax
 804acc8:	83 45 e4 01          	add    DWORD PTR [ebp-0x1c],0x1
 804accc:	a1 60 f0 04 08       	mov    eax,ds:0x804f060
 804acd1:	39 45 e4             	cmp    DWORD PTR [ebp-0x1c],eax
 804acd4:	7c b7                	jl     804ac8d
 804acd6:	83 45 e8 01          	add    DWORD PTR [ebp-0x18],0x1
 804acda:	e9 a8 00 00 00       	jmp    804ad87
 804acdf:	c7 45 e4 00 00 00 00 	mov    DWORD PTR [ebp-0x1c],0x0
 804ace6:	eb 3f                	jmp    804ad27
 804ace8:	a1 5c f0 04 08       	mov    eax,ds:0x804f05c
 804aced:	0f af 45 f0          	imul   eax,DWORD PTR [ebp-0x10]
 804acf1:	89 c2                	mov    edx,eax
 804acf3:	8b 45 e4             	mov    eax,DWORD PTR [ebp-0x1c]
 804acf6:	01 d0                	add    eax,edx
 804acf8:	8d 14 85 00 00 00 00 	lea    edx,[eax*4]
 804acff:	8b 45 08             	mov    eax,DWORD PTR [ebp+0x8]
 804ad02:	01 c2                	add    edx,eax
 804ad04:	8b 0d 98 f0 04 08    	mov    ecx,DWORD PTR ds:0x804f098
 804ad0a:	a1 5c f0 04 08       	mov    eax,ds:0x804f05c
 804ad0f:	0f af 45 ec          	imul   eax,DWORD PTR [ebp-0x14]
 804ad13:	89 c3                	mov    ebx,eax
 804ad15:	8b 45 e4             	mov    eax,DWORD PTR [ebp-0x1c]
 804ad18:	01 d8                	add    eax,ebx
 804ad1a:	c1 e0 02             	shl    eax,0x2
 804ad1d:	01 c8                	add    eax,ecx
 804ad1f:	8b 00                	mov    eax,DWORD PTR [eax]
 804ad21:	89 02                	mov    DWORD PTR [edx],eax
 804ad23:	83 45 e4 01          	add    DWORD PTR [ebp-0x1c],0x1
 804ad27:	a1 5c f0 04 08       	mov    eax,ds:0x804f05c
 804ad2c:	39 45 e4             	cmp    DWORD PTR [ebp-0x1c],eax
 804ad2f:	7c b7                	jl     804ace8
 804ad31:	c7 45 e4 00 00 00 00 	mov    DWORD PTR [ebp-0x1c],0x0
 804ad38:	eb 3f                	jmp    804ad79
 804ad3a:	a1 60 f0 04 08       	mov    eax,ds:0x804f060
 804ad3f:	0f af 45 f0          	imul   eax,DWORD PTR [ebp-0x10]
 804ad43:	89 c2                	mov    edx,eax
 804ad45:	8b 45 e4             	mov    eax,DWORD PTR [ebp-0x1c]
 804ad48:	01 d0                	add    eax,edx
 804ad4a:	8d 14 85 00 00 00 00 	lea    edx,[eax*4]
 804ad51:	8b 45 0c             	mov    eax,DWORD PTR [ebp+0xc]
 804ad54:	01 c2                	add    edx,eax
 804ad56:	8b 0d a0 f0 04 08    	mov    ecx,DWORD PTR ds:0x804f0a0
 804ad5c:	a1 60 f0 04 08       	mov    eax,ds:0x804f060
 804ad61:	0f af 45 ec          	imul   eax,DWORD PTR [ebp-0x14]
 804ad65:	89 c3                	mov    ebx,eax
 804ad67:	8b 45 e4             	mov    eax,DWORD PTR [ebp-0x1c]
 804ad6a:	01 d8                	add    eax,ebx
 804ad6c:	c1 e0 02             	shl    eax,0x2
 804ad6f:	01 c8                	add    eax,ecx
 804ad71:	8b 00                	mov    eax,DWORD PTR [eax]
 804ad73:	89 02                	mov    DWORD PTR [edx],eax
 804ad75:	83 45 e4 01          	add    DWORD PTR [ebp-0x1c],0x1
 804ad79:	a1 60 f0 04 08       	mov    eax,ds:0x804f060
 804ad7e:	39 45 e4             	cmp    DWORD PTR [ebp-0x1c],eax
 804ad81:	7c b7                	jl     804ad3a
 804ad83:	83 45 ec 01          	add    DWORD PTR [ebp-0x14],0x1
 804ad87:	83 45 f0 01          	add    DWORD PTR [ebp-0x10],0x1
 804ad8b:	8b 45 e8             	mov    eax,DWORD PTR [ebp-0x18]
 804ad8e:	3b 45 f4             	cmp    eax,DWORD PTR [ebp-0xc]
 804ad91:	7d 0c                	jge    804ad9f
 804ad93:	8b 45 ec             	mov    eax,DWORD PTR [ebp-0x14]
 804ad96:	3b 45 f8             	cmp    eax,DWORD PTR [ebp-0x8]
 804ad99:	0f 8c f4 fd ff ff    	jl     804ab93
 804ad9f:	e9 ac 00 00 00       	jmp    804ae50
 804ada4:	c7 45 e4 00 00 00 00 	mov    DWORD PTR [ebp-0x1c],0x0
 804adab:	eb 3f                	jmp    804adec
 804adad:	a1 5c f0 04 08       	mov    eax,ds:0x804f05c
 804adb2:	0f af 45 f0          	imul   eax,DWORD PTR [ebp-0x10]
 804adb6:	89 c2                	mov    edx,eax
 804adb8:	8b 45 e4             	mov    eax,DWORD PTR [ebp-0x1c]
 804adbb:	01 d0                	add    eax,edx
 804adbd:	8d 14 85 00 00 00 00 	lea    edx,[eax*4]
 804adc4:	8b 45 08             	mov    eax,DWORD PTR [ebp+0x8]
 804adc7:	01 c2                	add    edx,eax
 804adc9:	8b 0d 94 f0 04 08    	mov    ecx,DWORD PTR ds:0x804f094
 804adcf:	a1 5c f0 04 08       	mov    eax,ds:0x804f05c
 804add4:	0f af 45 e8          	imul   eax,DWORD PTR [ebp-0x18]
 804add8:	89 c3                	mov    ebx,eax
 804adda:	8b 45 e4             	mov    eax,DWORD PTR [ebp-0x1c]
 804addd:	01 d8                	add    eax,ebx
 804addf:	c1 e0 02             	shl    eax,0x2
 804ade2:	01 c8                	add    eax,ecx
 804ade4:	8b 00                	mov    eax,DWORD PTR [eax]
 804ade6:	89 02                	mov    DWORD PTR [edx],eax
 804ade8:	83 45 e4 01          	add    DWORD PTR [ebp-0x1c],0x1
 804adec:	a1 5c f0 04 08       	mov    eax,ds:0x804f05c
 804adf1:	39 45 e4             	cmp    DWORD PTR [ebp-0x1c],eax
 804adf4:	7c b7                	jl     804adad
 804adf6:	c7 45 e4 00 00 00 00 	mov    DWORD PTR [ebp-0x1c],0x0
 804adfd:	eb 3f                	jmp    804ae3e
 804adff:	a1 60 f0 04 08       	mov    eax,ds:0x804f060
 804ae04:	0f af 45 f0          	imul   eax,DWORD PTR [ebp-0x10]
 804ae08:	89 c2                	mov    edx,eax
 804ae0a:	8b 45 e4             	mov    eax,DWORD PTR [ebp-0x1c]
 804ae0d:	01 d0                	add    eax,edx
 804ae0f:	8d 14 85 00 00 00 00 	lea    edx,[eax*4]
 804ae16:	8b 45 0c             	mov    eax,DWORD PTR [ebp+0xc]
 804ae19:	01 c2                	add    edx,eax
 804ae1b:	8b 0d 9c f0 04 08    	mov    ecx,DWORD PTR ds:0x804f09c
 804ae21:	a1 60 f0 04 08       	mov    eax,ds:0x804f060
 804ae26:	0f af 45 e8          	imul   eax,DWORD PTR [ebp-0x18]
 804ae2a:	89 c3                	mov    ebx,eax
 804ae2c:	8b 45 e4             	mov    eax,DWORD PTR [ebp-0x1c]
 804ae2f:	01 d8                	add    eax,ebx
 804ae31:	c1 e0 02             	shl    eax,0x2
 804ae34:	01 c8                	add    eax,ecx
 804ae36:	8b 00                	mov    eax,DWORD PTR [eax]
 804ae38:	89 02                	mov    DWORD PTR [edx],eax
 804ae3a:	83 45 e4 01          	add    DWORD PTR [ebp-0x1c],0x1
 804ae3e:	a1 60 f0 04 08       	mov    eax,ds:0x804f060
 804ae43:	39 45 e4             	cmp    DWORD PTR [ebp-0x1c],eax
 804ae46:	7c b7                	jl     804adff
 804ae48:	83 45 e8 01          	add    DWORD PTR [ebp-0x18],0x1
 804ae4c:	83 45 f0 01          	add    DWORD PTR [ebp-0x10],0x1
 804ae50:	8b 45 e8             	mov    eax,DWORD PTR [ebp-0x18]
 804ae53:	3b 45 f4             	cmp    eax,DWORD PTR [ebp-0xc]
 804ae56:	0f 8c 48 ff ff ff    	jl     804ada4
 804ae5c:	e9 ac 00 00 00       	jmp    804af0d
 804ae61:	c7 45 e4 00 00 00 00 	mov    DWORD PTR [ebp-0x1c],0x0
 804ae68:	eb 3f                	jmp    804aea9
 804ae6a:	a1 5c f0 04 08       	mov    eax,ds:0x804f05c
 804ae6f:	0f af 45 f0          	imul   eax,DWORD PTR [ebp-0x10]
 804ae73:	89 c2                	mov    edx,eax
 804ae75:	8b 45 e4             	mov    eax,DWORD PTR [ebp-0x1c]
 804ae78:	01 d0                	add    eax,edx
 804ae7a:	8d 14 85 00 00 00 00 	lea    edx,[eax*4]
 804ae81:	8b 45 08             	mov    eax,DWORD PTR [ebp+0x8]
 804ae84:	01 c2                	add    edx,eax
 804ae86:	8b 0d 98 f0 04 08    	mov    ecx,DWORD PTR ds:0x804f098
 804ae8c:	a1 5c f0 04 08       	mov    eax,ds:0x804f05c
 804ae91:	0f af 45 ec          	imul   eax,DWORD PTR [ebp-0x14]
 804ae95:	89 c3                	mov    ebx,eax
 804ae97:	8b 45 e4             	mov    eax,DWORD PTR [ebp-0x1c]
 804ae9a:	01 d8                	add    eax,ebx
 804ae9c:	c1 e0 02             	shl    eax,0x2
 804ae9f:	01 c8                	add    eax,ecx
 804aea1:	8b 00                	mov    eax,DWORD PTR [eax]
 804aea3:	89 02                	mov    DWORD PTR [edx],eax
 804aea5:	83 45 e4 01          	add    DWORD PTR [ebp-0x1c],0x1
 804aea9:	a1 5c f0 04 08       	mov    eax,ds:0x804f05c
 804aeae:	39 45 e4             	cmp    DWORD PTR [ebp-0x1c],eax
 804aeb1:	7c b7                	jl     804ae6a
 804aeb3:	c7 45 e4 00 00 00 00 	mov    DWORD PTR [ebp-0x1c],0x0
 804aeba:	eb 3f                	jmp    804aefb
 804aebc:	a1 60 f0 04 08       	mov    eax,ds:0x804f060
 804aec1:	0f af 45 f0          	imul   eax,DWORD PTR [ebp-0x10]
 804aec5:	89 c2                	mov    edx,eax
 804aec7:	8b 45 e4             	mov    eax,DWORD PTR [ebp-0x1c]
 804aeca:	01 d0                	add    eax,edx
 804aecc:	8d 14 85 00 00 00 00 	lea    edx,[eax*4]
 804aed3:	8b 45 0c             	mov    eax,DWORD PTR [ebp+0xc]
 804aed6:	01 c2                	add    edx,eax
 804aed8:	8b 0d a0 f0 04 08    	mov    ecx,DWORD PTR ds:0x804f0a0
 804aede:	a1 60 f0 04 08       	mov    eax,ds:0x804f060
 804aee3:	0f af 45 ec          	imul   eax,DWORD PTR [ebp-0x14]
 804aee7:	89 c3                	mov    ebx,eax
 804aee9:	8b 45 e4             	mov    eax,DWORD PTR [ebp-0x1c]
 804aeec:	01 d8                	add    eax,ebx
 804aeee:	c1 e0 02             	shl    eax,0x2
 804aef1:	01 c8                	add    eax,ecx
 804aef3:	8b 00                	mov    eax,DWORD PTR [eax]
 804aef5:	89 02                	mov    DWORD PTR [edx],eax
 804aef7:	83 45 e4 01          	add    DWORD PTR [ebp-0x1c],0x1
 804aefb:	a1 60 f0 04 08       	mov    eax,ds:0x804f060
 804af00:	39 45 e4             	cmp    DWORD PTR [ebp-0x1c],eax
 804af03:	7c b7                	jl     804aebc
 804af05:	83 45 ec 01          	add    DWORD PTR [ebp-0x14],0x1
 804af09:	83 45 f0 01          	add    DWORD PTR [ebp-0x10],0x1
 804af0d:	8b 45 ec             	mov    eax,DWORD PTR [ebp-0x14]
 804af10:	3b 45 f8             	cmp    eax,DWORD PTR [ebp-0x8]
 804af13:	0f 8c 48 ff ff ff    	jl     804ae61
 804af19:	83 c4 20             	add    esp,0x20
 804af1c:	5b                   	pop    ebx
 804af1d:	5d                   	pop    ebp
 804af1e:	c3                   	ret

0804af1f <Merge_TwoArray_TwoKey>:
 804af1f:	55                   	push   ebp
 804af20:	89 e5                	mov    ebp,esp
 804af22:	53                   	push   ebx
 804af23:	83 ec 20             	sub    esp,0x20
 804af26:	8b 45 10             	mov    eax,DWORD PTR [ebp+0x10]
 804af29:	8b 55 14             	mov    edx,DWORD PTR [ebp+0x14]
 804af2c:	29 c2                	sub    edx,eax
 804af2e:	89 d0                	mov    eax,edx
 804af30:	83 c0 01             	add    eax,0x1
 804af33:	89 45 f4             	mov    DWORD PTR [ebp-0xc],eax
 804af36:	8b 45 14             	mov    eax,DWORD PTR [ebp+0x14]
 804af39:	8b 55 18             	mov    edx,DWORD PTR [ebp+0x18]
 804af3c:	29 c2                	sub    edx,eax
 804af3e:	89 d0                	mov    eax,edx
 804af40:	89 45 f8             	mov    DWORD PTR [ebp-0x8],eax
 804af43:	c7 45 e8 00 00 00 00 	mov    DWORD PTR [ebp-0x18],0x0
 804af4a:	e9 b2 00 00 00       	jmp    804b001
 804af4f:	c7 45 e4 00 00 00 00 	mov    DWORD PTR [ebp-0x1c],0x0
 804af56:	eb 44                	jmp    804af9c
 804af58:	8b 15 94 f0 04 08    	mov    edx,DWORD PTR ds:0x804f094
 804af5e:	a1 5c f0 04 08       	mov    eax,ds:0x804f05c
 804af63:	0f af 45 e8          	imul   eax,DWORD PTR [ebp-0x18]
 804af67:	89 c1                	mov    ecx,eax
 804af69:	8b 45 e4             	mov    eax,DWORD PTR [ebp-0x1c]
 804af6c:	01 c8                	add    eax,ecx
 804af6e:	c1 e0 02             	shl    eax,0x2
 804af71:	01 c2                	add    edx,eax
 804af73:	8b 45 e8             	mov    eax,DWORD PTR [ebp-0x18]
 804af76:	8b 4d 10             	mov    ecx,DWORD PTR [ebp+0x10]
 804af79:	01 c1                	add    ecx,eax
 804af7b:	a1 5c f0 04 08       	mov    eax,ds:0x804f05c
 804af80:	0f af c8             	imul   ecx,eax
 804af83:	8b 45 e4             	mov    eax,DWORD PTR [ebp-0x1c]
 804af86:	01 c8                	add    eax,ecx
 804af88:	8d 0c 85 00 00 00 00 	lea    ecx,[eax*4]
 804af8f:	8b 45 08             	mov    eax,DWORD PTR [ebp+0x8]
 804af92:	01 c8                	add    eax,ecx
 804af94:	8b 00                	mov    eax,DWORD PTR [eax]
 804af96:	89 02                	mov    DWORD PTR [edx],eax
 804af98:	83 45 e4 01          	add    DWORD PTR [ebp-0x1c],0x1
 804af9c:	a1 5c f0 04 08       	mov    eax,ds:0x804f05c
 804afa1:	39 45 e4             	cmp    DWORD PTR [ebp-0x1c],eax
 804afa4:	7c b2                	jl     804af58
 804afa6:	c7 45 e4 00 00 00 00 	mov    DWORD PTR [ebp-0x1c],0x0
 804afad:	eb 44                	jmp    804aff3
 804afaf:	8b 15 9c f0 04 08    	mov    edx,DWORD PTR ds:0x804f09c
 804afb5:	a1 60 f0 04 08       	mov    eax,ds:0x804f060
 804afba:	0f af 45 e8          	imul   eax,DWORD PTR [ebp-0x18]
 804afbe:	89 c1                	mov    ecx,eax
 804afc0:	8b 45 e4             	mov    eax,DWORD PTR [ebp-0x1c]
 804afc3:	01 c8                	add    eax,ecx
 804afc5:	c1 e0 02             	shl    eax,0x2
 804afc8:	01 c2                	add    edx,eax
 804afca:	8b 45 e8             	mov    eax,DWORD PTR [ebp-0x18]
 804afcd:	8b 4d 10             	mov    ecx,DWORD PTR [ebp+0x10]
 804afd0:	01 c1                	add    ecx,eax
 804afd2:	a1 60 f0 04 08       	mov    eax,ds:0x804f060
 804afd7:	0f af c8             	imul   ecx,eax
 804afda:	8b 45 e4             	mov    eax,DWORD PTR [ebp-0x1c]
 804afdd:	01 c8                	add    eax,ecx
 804afdf:	8d 0c 85 00 00 00 00 	lea    ecx,[eax*4]
 804afe6:	8b 45 0c             	mov    eax,DWORD PTR [ebp+0xc]
 804afe9:	01 c8                	add    eax,ecx
 804afeb:	8b 00                	mov    eax,DWORD PTR [eax]
 804afed:	89 02                	mov    DWORD PTR [edx],eax
 804afef:	83 45 e4 01          	add    DWORD PTR [ebp-0x1c],0x1
 804aff3:	a1 60 f0 04 08       	mov    eax,ds:0x804f060
 804aff8:	39 45 e4             	cmp    DWORD PTR [ebp-0x1c],eax
 804affb:	7c b2                	jl     804afaf
 804affd:	83 45 e8 01          	add    DWORD PTR [ebp-0x18],0x1
 804b001:	8b 45 e8             	mov    eax,DWORD PTR [ebp-0x18]
 804b004:	3b 45 f4             	cmp    eax,DWORD PTR [ebp-0xc]
 804b007:	0f 8c 42 ff ff ff    	jl     804af4f
 804b00d:	c7 45 ec 00 00 00 00 	mov    DWORD PTR [ebp-0x14],0x0
 804b014:	e9 b8 00 00 00       	jmp    804b0d1
 804b019:	c7 45 e4 00 00 00 00 	mov    DWORD PTR [ebp-0x1c],0x0
 804b020:	eb 47                	jmp    804b069
 804b022:	8b 15 98 f0 04 08    	mov    edx,DWORD PTR ds:0x804f098
 804b028:	a1 5c f0 04 08       	mov    eax,ds:0x804f05c
 804b02d:	0f af 45 ec          	imul   eax,DWORD PTR [ebp-0x14]
 804b031:	89 c1                	mov    ecx,eax
 804b033:	8b 45 e4             	mov    eax,DWORD PTR [ebp-0x1c]
 804b036:	01 c8                	add    eax,ecx
 804b038:	c1 e0 02             	shl    eax,0x2
 804b03b:	01 c2                	add    edx,eax
 804b03d:	8b 45 14             	mov    eax,DWORD PTR [ebp+0x14]
 804b040:	8d 48 01             	lea    ecx,[eax+0x1]
 804b043:	8b 45 ec             	mov    eax,DWORD PTR [ebp-0x14]
 804b046:	01 c1                	add    ecx,eax
 804b048:	a1 5c f0 04 08       	mov    eax,ds:0x804f05c
 804b04d:	0f af c8             	imul   ecx,eax
 804b050:	8b 45 e4             	mov    eax,DWORD PTR [ebp-0x1c]
 804b053:	01 c8                	add    eax,ecx
 804b055:	8d 0c 85 00 00 00 00 	lea    ecx,[eax*4]
 804b05c:	8b 45 08             	mov    eax,DWORD PTR [ebp+0x8]
 804b05f:	01 c8                	add    eax,ecx
 804b061:	8b 00                	mov    eax,DWORD PTR [eax]
 804b063:	89 02                	mov    DWORD PTR [edx],eax
 804b065:	83 45 e4 01          	add    DWORD PTR [ebp-0x1c],0x1
 804b069:	a1 5c f0 04 08       	mov    eax,ds:0x804f05c
 804b06e:	39 45 e4             	cmp    DWORD PTR [ebp-0x1c],eax
 804b071:	7c af                	jl     804b022
 804b073:	c7 45 e4 00 00 00 00 	mov    DWORD PTR [ebp-0x1c],0x0
 804b07a:	eb 47                	jmp    804b0c3
 804b07c:	8b 15 a0 f0 04 08    	mov    edx,DWORD PTR ds:0x804f0a0
 804b082:	a1 60 f0 04 08       	mov    eax,ds:0x804f060
 804b087:	0f af 45 ec          	imul   eax,DWORD PTR [ebp-0x14]
 804b08b:	89 c1                	mov    ecx,eax
 804b08d:	8b 45 e4             	mov    eax,DWORD PTR [ebp-0x1c]
 804b090:	01 c8                	add    eax,ecx
 804b092:	c1 e0 02             	shl    eax,0x2
 804b095:	01 c2                	add    edx,eax
 804b097:	8b 45 14             	mov    eax,DWORD PTR [ebp+0x14]
 804b09a:	8d 48 01             	lea    ecx,[eax+0x1]
 804b09d:	8b 45 ec             	mov    eax,DWORD PTR [ebp-0x14]
 804b0a0:	01 c1                	add    ecx,eax
 804b0a2:	a1 60 f0 04 08       	mov    eax,ds:0x804f060
 804b0a7:	0f af c8             	imul   ecx,eax
 804b0aa:	8b 45 e4             	mov    eax,DWORD PTR [ebp-0x1c]
 804b0ad:	01 c8                	add    eax,ecx
 804b0af:	8d 0c 85 00 00 00 00 	lea    ecx,[eax*4]
 804b0b6:	8b 45 0c             	mov    eax,DWORD PTR [ebp+0xc]
 804b0b9:	01 c8                	add    eax,ecx
 804b0bb:	8b 00                	mov    eax,DWORD PTR [eax]
 804b0bd:	89 02                	mov    DWORD PTR [edx],eax
 804b0bf:	83 45 e4 01          	add    DWORD PTR [ebp-0x1c],0x1
 804b0c3:	a1 60 f0 04 08       	mov    eax,ds:0x804f060
 804b0c8:	39 45 e4             	cmp    DWORD PTR [ebp-0x1c],eax
 804b0cb:	7c af                	jl     804b07c
 804b0cd:	83 45 ec 01          	add    DWORD PTR [ebp-0x14],0x1
 804b0d1:	8b 45 ec             	mov    eax,DWORD PTR [ebp-0x14]
 804b0d4:	3b 45 f8             	cmp    eax,DWORD PTR [ebp-0x8]
 804b0d7:	0f 8c 3c ff ff ff    	jl     804b019
 804b0dd:	c7 45 e8 00 00 00 00 	mov    DWORD PTR [ebp-0x18],0x0
 804b0e4:	c7 45 ec 00 00 00 00 	mov    DWORD PTR [ebp-0x14],0x0
 804b0eb:	8b 45 10             	mov    eax,DWORD PTR [ebp+0x10]
 804b0ee:	89 45 f0             	mov    DWORD PTR [ebp-0x10],eax
 804b0f1:	e9 dd 02 00 00       	jmp    804b3d3
 804b0f6:	8b 15 94 f0 04 08    	mov    edx,DWORD PTR ds:0x804f094
 804b0fc:	a1 5c f0 04 08       	mov    eax,ds:0x804f05c
 804b101:	0f af 45 e8          	imul   eax,DWORD PTR [ebp-0x18]
 804b105:	89 c1                	mov    ecx,eax
 804b107:	a1 b4 f0 04 08       	mov    eax,ds:0x804f0b4
 804b10c:	01 c8                	add    eax,ecx
 804b10e:	c1 e0 02             	shl    eax,0x2
 804b111:	01 d0                	add    eax,edx
 804b113:	8b 10                	mov    edx,DWORD PTR [eax]
 804b115:	8b 0d 98 f0 04 08    	mov    ecx,DWORD PTR ds:0x804f098
 804b11b:	a1 5c f0 04 08       	mov    eax,ds:0x804f05c
 804b120:	0f af 45 ec          	imul   eax,DWORD PTR [ebp-0x14]
 804b124:	89 c3                	mov    ebx,eax
 804b126:	a1 b4 f0 04 08       	mov    eax,ds:0x804f0b4
 804b12b:	01 d8                	add    eax,ebx
 804b12d:	c1 e0 02             	shl    eax,0x2
 804b130:	01 c8                	add    eax,ecx
 804b132:	8b 00                	mov    eax,DWORD PTR [eax]
 804b134:	39 c2                	cmp    edx,eax
 804b136:	7d 0e                	jge    804b146
 804b138:	a1 a8 f0 04 08       	mov    eax,ds:0x804f0a8
 804b13d:	83 f8 01             	cmp    eax,0x1
 804b140:	0f 84 34 01 00 00    	je     804b27a
 804b146:	8b 15 94 f0 04 08    	mov    edx,DWORD PTR ds:0x804f094
 804b14c:	a1 5c f0 04 08       	mov    eax,ds:0x804f05c
 804b151:	0f af 45 e8          	imul   eax,DWORD PTR [ebp-0x18]
 804b155:	89 c1                	mov    ecx,eax
 804b157:	a1 b4 f0 04 08       	mov    eax,ds:0x804f0b4
 804b15c:	01 c8                	add    eax,ecx
 804b15e:	c1 e0 02             	shl    eax,0x2
 804b161:	01 d0                	add    eax,edx
 804b163:	8b 10                	mov    edx,DWORD PTR [eax]
 804b165:	8b 0d 98 f0 04 08    	mov    ecx,DWORD PTR ds:0x804f098
 804b16b:	a1 5c f0 04 08       	mov    eax,ds:0x804f05c
 804b170:	0f af 45 ec          	imul   eax,DWORD PTR [ebp-0x14]
 804b174:	89 c3                	mov    ebx,eax
 804b176:	a1 b4 f0 04 08       	mov    eax,ds:0x804f0b4
 804b17b:	01 d8                	add    eax,ebx
 804b17d:	c1 e0 02             	shl    eax,0x2
 804b180:	01 c8                	add    eax,ecx
 804b182:	8b 00                	mov    eax,DWORD PTR [eax]
 804b184:	39 c2                	cmp    edx,eax
 804b186:	7e 0d                	jle    804b195
 804b188:	a1 a8 f0 04 08       	mov    eax,ds:0x804f0a8
 804b18d:	85 c0                	test   eax,eax
 804b18f:	0f 84 e5 00 00 00    	je     804b27a
 804b195:	8b 15 94 f0 04 08    	mov    edx,DWORD PTR ds:0x804f094
 804b19b:	a1 5c f0 04 08       	mov    eax,ds:0x804f05c
 804b1a0:	0f af 45 e8          	imul   eax,DWORD PTR [ebp-0x18]
 804b1a4:	89 c1                	mov    ecx,eax
 804b1a6:	a1 b4 f0 04 08       	mov    eax,ds:0x804f0b4
 804b1ab:	01 c8                	add    eax,ecx
 804b1ad:	c1 e0 02             	shl    eax,0x2
 804b1b0:	01 d0                	add    eax,edx
 804b1b2:	8b 10                	mov    edx,DWORD PTR [eax]
 804b1b4:	8b 0d 98 f0 04 08    	mov    ecx,DWORD PTR ds:0x804f098
 804b1ba:	a1 5c f0 04 08       	mov    eax,ds:0x804f05c
 804b1bf:	0f af 45 ec          	imul   eax,DWORD PTR [ebp-0x14]
 804b1c3:	89 c3                	mov    ebx,eax
 804b1c5:	a1 b4 f0 04 08       	mov    eax,ds:0x804f0b4
 804b1ca:	01 d8                	add    eax,ebx
 804b1cc:	c1 e0 02             	shl    eax,0x2
 804b1cf:	01 c8                	add    eax,ecx
 804b1d1:	8b 00                	mov    eax,DWORD PTR [eax]
 804b1d3:	39 c2                	cmp    edx,eax
 804b1d5:	0f 85 4c 01 00 00    	jne    804b327
 804b1db:	8b 15 94 f0 04 08    	mov    edx,DWORD PTR ds:0x804f094
 804b1e1:	a1 5c f0 04 08       	mov    eax,ds:0x804f05c
 804b1e6:	0f af 45 e8          	imul   eax,DWORD PTR [ebp-0x18]
 804b1ea:	89 c1                	mov    ecx,eax
 804b1ec:	a1 b8 f0 04 08       	mov    eax,ds:0x804f0b8
 804b1f1:	01 c8                	add    eax,ecx
 804b1f3:	c1 e0 02             	shl    eax,0x2
 804b1f6:	01 d0                	add    eax,edx
 804b1f8:	8b 10                	mov    edx,DWORD PTR [eax]
 804b1fa:	8b 0d 98 f0 04 08    	mov    ecx,DWORD PTR ds:0x804f098
 804b200:	a1 5c f0 04 08       	mov    eax,ds:0x804f05c
 804b205:	0f af 45 ec          	imul   eax,DWORD PTR [ebp-0x14]
 804b209:	89 c3                	mov    ebx,eax
 804b20b:	a1 b8 f0 04 08       	mov    eax,ds:0x804f0b8
 804b210:	01 d8                	add    eax,ebx
 804b212:	c1 e0 02             	shl    eax,0x2
 804b215:	01 c8                	add    eax,ecx
 804b217:	8b 00                	mov    eax,DWORD PTR [eax]
 804b219:	39 c2                	cmp    edx,eax
 804b21b:	7f 0a                	jg     804b227
 804b21d:	a1 ac f0 04 08       	mov    eax,ds:0x804f0ac
 804b222:	83 f8 01             	cmp    eax,0x1
 804b225:	74 53                	je     804b27a
 804b227:	8b 15 94 f0 04 08    	mov    edx,DWORD PTR ds:0x804f094
 804b22d:	a1 5c f0 04 08       	mov    eax,ds:0x804f05c
 804b232:	0f af 45 e8          	imul   eax,DWORD PTR [ebp-0x18]
 804b236:	89 c1                	mov    ecx,eax
 804b238:	a1 b8 f0 04 08       	mov    eax,ds:0x804f0b8
 804b23d:	01 c8                	add    eax,ecx
 804b23f:	c1 e0 02             	shl    eax,0x2
 804b242:	01 d0                	add    eax,edx
 804b244:	8b 10                	mov    edx,DWORD PTR [eax]
 804b246:	8b 0d 98 f0 04 08    	mov    ecx,DWORD PTR ds:0x804f098
 804b24c:	a1 5c f0 04 08       	mov    eax,ds:0x804f05c
 804b251:	0f af 45 ec          	imul   eax,DWORD PTR [ebp-0x14]
 804b255:	89 c3                	mov    ebx,eax
 804b257:	a1 b8 f0 04 08       	mov    eax,ds:0x804f0b8
 804b25c:	01 d8                	add    eax,ebx
 804b25e:	c1 e0 02             	shl    eax,0x2
 804b261:	01 c8                	add    eax,ecx
 804b263:	8b 00                	mov    eax,DWORD PTR [eax]
 804b265:	39 c2                	cmp    edx,eax
 804b267:	0f 8c ba 00 00 00    	jl     804b327
 804b26d:	a1 ac f0 04 08       	mov    eax,ds:0x804f0ac
 804b272:	85 c0                	test   eax,eax
 804b274:	0f 85 ad 00 00 00    	jne    804b327
 804b27a:	c7 45 e4 00 00 00 00 	mov    DWORD PTR [ebp-0x1c],0x0
 804b281:	eb 3f                	jmp    804b2c2
 804b283:	a1 5c f0 04 08       	mov    eax,ds:0x804f05c
 804b288:	0f af 45 f0          	imul   eax,DWORD PTR [ebp-0x10]
 804b28c:	89 c2                	mov    edx,eax
 804b28e:	8b 45 e4             	mov    eax,DWORD PTR [ebp-0x1c]
 804b291:	01 d0                	add    eax,edx
 804b293:	8d 14 85 00 00 00 00 	lea    edx,[eax*4]
 804b29a:	8b 45 08             	mov    eax,DWORD PTR [ebp+0x8]
 804b29d:	01 c2                	add    edx,eax
 804b29f:	8b 0d 94 f0 04 08    	mov    ecx,DWORD PTR ds:0x804f094
 804b2a5:	a1 5c f0 04 08       	mov    eax,ds:0x804f05c
 804b2aa:	0f af 45 e8          	imul   eax,DWORD PTR [ebp-0x18]
 804b2ae:	89 c3                	mov    ebx,eax
 804b2b0:	8b 45 e4             	mov    eax,DWORD PTR [ebp-0x1c]
 804b2b3:	01 d8                	add    eax,ebx
 804b2b5:	c1 e0 02             	shl    eax,0x2
 804b2b8:	01 c8                	add    eax,ecx
 804b2ba:	8b 00                	mov    eax,DWORD PTR [eax]
 804b2bc:	89 02                	mov    DWORD PTR [edx],eax
 804b2be:	83 45 e4 01          	add    DWORD PTR [ebp-0x1c],0x1
 804b2c2:	a1 5c f0 04 08       	mov    eax,ds:0x804f05c
 804b2c7:	39 45 e4             	cmp    DWORD PTR [ebp-0x1c],eax
 804b2ca:	7c b7                	jl     804b283
 804b2cc:	c7 45 e4 00 00 00 00 	mov    DWORD PTR [ebp-0x1c],0x0
 804b2d3:	eb 3f                	jmp    804b314
 804b2d5:	a1 60 f0 04 08       	mov    eax,ds:0x804f060
 804b2da:	0f af 45 f0          	imul   eax,DWORD PTR [ebp-0x10]
 804b2de:	89 c2                	mov    edx,eax
 804b2e0:	8b 45 e4             	mov    eax,DWORD PTR [ebp-0x1c]
 804b2e3:	01 d0                	add    eax,edx
 804b2e5:	8d 14 85 00 00 00 00 	lea    edx,[eax*4]
 804b2ec:	8b 45 0c             	mov    eax,DWORD PTR [ebp+0xc]
 804b2ef:	01 c2                	add    edx,eax
 804b2f1:	8b 0d 9c f0 04 08    	mov    ecx,DWORD PTR ds:0x804f09c
 804b2f7:	a1 60 f0 04 08       	mov    eax,ds:0x804f060
 804b2fc:	0f af 45 e8          	imul   eax,DWORD PTR [ebp-0x18]
 804b300:	89 c3                	mov    ebx,eax
 804b302:	8b 45 e4             	mov    eax,DWORD PTR [ebp-0x1c]
 804b305:	01 d8                	add    eax,ebx
 804b307:	c1 e0 02             	shl    eax,0x2
 804b30a:	01 c8                	add    eax,ecx
 804b30c:	8b 00                	mov    eax,DWORD PTR [eax]
 804b30e:	89 02                	mov    DWORD PTR [edx],eax
 804b310:	83 45 e4 01          	add    DWORD PTR [ebp-0x1c],0x1
 804b314:	a1 60 f0 04 08       	mov    eax,ds:0x804f060
 804b319:	39 45 e4             	cmp    DWORD PTR [ebp-0x1c],eax
 804b31c:	7c b7                	jl     804b2d5
 804b31e:	83 45 e8 01          	add    DWORD PTR [ebp-0x18],0x1
 804b322:	e9 a8 00 00 00       	jmp    804b3cf
 804b327:	c7 45 e4 00 00 00 00 	mov    DWORD PTR [ebp-0x1c],0x0
 804b32e:	eb 3f                	jmp    804b36f
 804b330:	a1 5c f0 04 08       	mov    eax,ds:0x804f05c
 804b335:	0f af 45 f0          	imul   eax,DWORD PTR [ebp-0x10]
 804b339:	89 c2                	mov    edx,eax
 804b33b:	8b 45 e4             	mov    eax,DWORD PTR [ebp-0x1c]
 804b33e:	01 d0                	add    eax,edx
 804b340:	8d 14 85 00 00 00 00 	lea    edx,[eax*4]
 804b347:	8b 45 08             	mov    eax,DWORD PTR [ebp+0x8]
 804b34a:	01 c2                	add    edx,eax
 804b34c:	8b 0d 98 f0 04 08    	mov    ecx,DWORD PTR ds:0x804f098
 804b352:	a1 5c f0 04 08       	mov    eax,ds:0x804f05c
 804b357:	0f af 45 ec          	imul   eax,DWORD PTR [ebp-0x14]
 804b35b:	89 c3                	mov    ebx,eax
 804b35d:	8b 45 e4             	mov    eax,DWORD PTR [ebp-0x1c]
 804b360:	01 d8                	add    eax,ebx
 804b362:	c1 e0 02             	shl    eax,0x2
 804b365:	01 c8                	add    eax,ecx
 804b367:	8b 00                	mov    eax,DWORD PTR [eax]
 804b369:	89 02                	mov    DWORD PTR [edx],eax
 804b36b:	83 45 e4 01          	add    DWORD PTR [ebp-0x1c],0x1
 804b36f:	a1 5c f0 04 08       	mov    eax,ds:0x804f05c
 804b374:	39 45 e4             	cmp    DWORD PTR [ebp-0x1c],eax
 804b377:	7c b7                	jl     804b330
 804b379:	c7 45 e4 00 00 00 00 	mov    DWORD PTR [ebp-0x1c],0x0
 804b380:	eb 3f                	jmp    804b3c1
 804b382:	a1 60 f0 04 08       	mov    eax,ds:0x804f060
 804b387:	0f af 45 f0          	imul   eax,DWORD PTR [ebp-0x10]
 804b38b:	89 c2                	mov    edx,eax
 804b38d:	8b 45 e4             	mov    eax,DWORD PTR [ebp-0x1c]
 804b390:	01 d0                	add    eax,edx
 804b392:	8d 14 85 00 00 00 00 	lea    edx,[eax*4]
 804b399:	8b 45 0c             	mov    eax,DWORD PTR [ebp+0xc]
 804b39c:	01 c2                	add    edx,eax
 804b39e:	8b 0d a0 f0 04 08    	mov    ecx,DWORD PTR ds:0x804f0a0
 804b3a4:	a1 60 f0 04 08       	mov    eax,ds:0x804f060
 804b3a9:	0f af 45 ec          	imul   eax,DWORD PTR [ebp-0x14]
 804b3ad:	89 c3                	mov    ebx,eax
 804b3af:	8b 45 e4             	mov    eax,DWORD PTR [ebp-0x1c]
 804b3b2:	01 d8                	add    eax,ebx
 804b3b4:	c1 e0 02             	shl    eax,0x2
 804b3b7:	01 c8                	add    eax,ecx
 804b3b9:	8b 00                	mov    eax,DWORD PTR [eax]
 804b3bb:	89 02                	mov    DWORD PTR [edx],eax
 804b3bd:	83 45 e4 01          	add    DWORD PTR [ebp-0x1c],0x1
 804b3c1:	a1 60 f0 04 08       	mov    eax,ds:0x804f060
 804b3c6:	39 45 e4             	cmp    DWORD PTR [ebp-0x1c],eax
 804b3c9:	7c b7                	jl     804b382
 804b3cb:	83 45 ec 01          	add    DWORD PTR [ebp-0x14],0x1
 804b3cf:	83 45 f0 01          	add    DWORD PTR [ebp-0x10],0x1
 804b3d3:	8b 45 e8             	mov    eax,DWORD PTR [ebp-0x18]
 804b3d6:	3b 45 f4             	cmp    eax,DWORD PTR [ebp-0xc]
 804b3d9:	7d 0c                	jge    804b3e7
 804b3db:	8b 45 ec             	mov    eax,DWORD PTR [ebp-0x14]
 804b3de:	3b 45 f8             	cmp    eax,DWORD PTR [ebp-0x8]
 804b3e1:	0f 8c 0f fd ff ff    	jl     804b0f6
 804b3e7:	e9 ac 00 00 00       	jmp    804b498
 804b3ec:	c7 45 e4 00 00 00 00 	mov    DWORD PTR [ebp-0x1c],0x0
 804b3f3:	eb 3f                	jmp    804b434
 804b3f5:	a1 5c f0 04 08       	mov    eax,ds:0x804f05c
 804b3fa:	0f af 45 f0          	imul   eax,DWORD PTR [ebp-0x10]
 804b3fe:	89 c2                	mov    edx,eax
 804b400:	8b 45 e4             	mov    eax,DWORD PTR [ebp-0x1c]
 804b403:	01 d0                	add    eax,edx
 804b405:	8d 14 85 00 00 00 00 	lea    edx,[eax*4]
 804b40c:	8b 45 08             	mov    eax,DWORD PTR [ebp+0x8]
 804b40f:	01 c2                	add    edx,eax
 804b411:	8b 0d 94 f0 04 08    	mov    ecx,DWORD PTR ds:0x804f094
 804b417:	a1 5c f0 04 08       	mov    eax,ds:0x804f05c
 804b41c:	0f af 45 e8          	imul   eax,DWORD PTR [ebp-0x18]
 804b420:	89 c3                	mov    ebx,eax
 804b422:	8b 45 e4             	mov    eax,DWORD PTR [ebp-0x1c]
 804b425:	01 d8                	add    eax,ebx
 804b427:	c1 e0 02             	shl    eax,0x2
 804b42a:	01 c8                	add    eax,ecx
 804b42c:	8b 00                	mov    eax,DWORD PTR [eax]
 804b42e:	89 02                	mov    DWORD PTR [edx],eax
 804b430:	83 45 e4 01          	add    DWORD PTR [ebp-0x1c],0x1
 804b434:	a1 5c f0 04 08       	mov    eax,ds:0x804f05c
 804b439:	39 45 e4             	cmp    DWORD PTR [ebp-0x1c],eax
 804b43c:	7c b7                	jl     804b3f5
 804b43e:	c7 45 e4 00 00 00 00 	mov    DWORD PTR [ebp-0x1c],0x0
 804b445:	eb 3f                	jmp    804b486
 804b447:	a1 60 f0 04 08       	mov    eax,ds:0x804f060
 804b44c:	0f af 45 f0          	imul   eax,DWORD PTR [ebp-0x10]
 804b450:	89 c2                	mov    edx,eax
 804b452:	8b 45 e4             	mov    eax,DWORD PTR [ebp-0x1c]
 804b455:	01 d0                	add    eax,edx
 804b457:	8d 14 85 00 00 00 00 	lea    edx,[eax*4]
 804b45e:	8b 45 0c             	mov    eax,DWORD PTR [ebp+0xc]
 804b461:	01 c2                	add    edx,eax
 804b463:	8b 0d 9c f0 04 08    	mov    ecx,DWORD PTR ds:0x804f09c
 804b469:	a1 60 f0 04 08       	mov    eax,ds:0x804f060
 804b46e:	0f af 45 e8          	imul   eax,DWORD PTR [ebp-0x18]
 804b472:	89 c3                	mov    ebx,eax
 804b474:	8b 45 e4             	mov    eax,DWORD PTR [ebp-0x1c]
 804b477:	01 d8                	add    eax,ebx
 804b479:	c1 e0 02             	shl    eax,0x2
 804b47c:	01 c8                	add    eax,ecx
 804b47e:	8b 00                	mov    eax,DWORD PTR [eax]
 804b480:	89 02                	mov    DWORD PTR [edx],eax
 804b482:	83 45 e4 01          	add    DWORD PTR [ebp-0x1c],0x1
 804b486:	a1 60 f0 04 08       	mov    eax,ds:0x804f060
 804b48b:	39 45 e4             	cmp    DWORD PTR [ebp-0x1c],eax
 804b48e:	7c b7                	jl     804b447
 804b490:	83 45 e8 01          	add    DWORD PTR [ebp-0x18],0x1
 804b494:	83 45 f0 01          	add    DWORD PTR [ebp-0x10],0x1
 804b498:	8b 45 e8             	mov    eax,DWORD PTR [ebp-0x18]
 804b49b:	3b 45 f4             	cmp    eax,DWORD PTR [ebp-0xc]
 804b49e:	0f 8c 48 ff ff ff    	jl     804b3ec
 804b4a4:	e9 ac 00 00 00       	jmp    804b555
 804b4a9:	c7 45 e4 00 00 00 00 	mov    DWORD PTR [ebp-0x1c],0x0
 804b4b0:	eb 3f                	jmp    804b4f1
 804b4b2:	a1 5c f0 04 08       	mov    eax,ds:0x804f05c
 804b4b7:	0f af 45 f0          	imul   eax,DWORD PTR [ebp-0x10]
 804b4bb:	89 c2                	mov    edx,eax
 804b4bd:	8b 45 e4             	mov    eax,DWORD PTR [ebp-0x1c]
 804b4c0:	01 d0                	add    eax,edx
 804b4c2:	8d 14 85 00 00 00 00 	lea    edx,[eax*4]
 804b4c9:	8b 45 08             	mov    eax,DWORD PTR [ebp+0x8]
 804b4cc:	01 c2                	add    edx,eax
 804b4ce:	8b 0d 98 f0 04 08    	mov    ecx,DWORD PTR ds:0x804f098
 804b4d4:	a1 5c f0 04 08       	mov    eax,ds:0x804f05c
 804b4d9:	0f af 45 ec          	imul   eax,DWORD PTR [ebp-0x14]
 804b4dd:	89 c3                	mov    ebx,eax
 804b4df:	8b 45 e4             	mov    eax,DWORD PTR [ebp-0x1c]
 804b4e2:	01 d8                	add    eax,ebx
 804b4e4:	c1 e0 02             	shl    eax,0x2
 804b4e7:	01 c8                	add    eax,ecx
 804b4e9:	8b 00                	mov    eax,DWORD PTR [eax]
 804b4eb:	89 02                	mov    DWORD PTR [edx],eax
 804b4ed:	83 45 e4 01          	add    DWORD PTR [ebp-0x1c],0x1
 804b4f1:	a1 5c f0 04 08       	mov    eax,ds:0x804f05c
 804b4f6:	39 45 e4             	cmp    DWORD PTR [ebp-0x1c],eax
 804b4f9:	7c b7                	jl     804b4b2
 804b4fb:	c7 45 e4 00 00 00 00 	mov    DWORD PTR [ebp-0x1c],0x0
 804b502:	eb 3f                	jmp    804b543
 804b504:	a1 60 f0 04 08       	mov    eax,ds:0x804f060
 804b509:	0f af 45 f0          	imul   eax,DWORD PTR [ebp-0x10]
 804b50d:	89 c2                	mov    edx,eax
 804b50f:	8b 45 e4             	mov    eax,DWORD PTR [ebp-0x1c]
 804b512:	01 d0                	add    eax,edx
 804b514:	8d 14 85 00 00 00 00 	lea    edx,[eax*4]
 804b51b:	8b 45 0c             	mov    eax,DWORD PTR [ebp+0xc]
 804b51e:	01 c2                	add    edx,eax
 804b520:	8b 0d a0 f0 04 08    	mov    ecx,DWORD PTR ds:0x804f0a0
 804b526:	a1 60 f0 04 08       	mov    eax,ds:0x804f060
 804b52b:	0f af 45 ec          	imul   eax,DWORD PTR [ebp-0x14]
 804b52f:	89 c3                	mov    ebx,eax
 804b531:	8b 45 e4             	mov    eax,DWORD PTR [ebp-0x1c]
 804b534:	01 d8                	add    eax,ebx
 804b536:	c1 e0 02             	shl    eax,0x2
 804b539:	01 c8                	add    eax,ecx
 804b53b:	8b 00                	mov    eax,DWORD PTR [eax]
 804b53d:	89 02                	mov    DWORD PTR [edx],eax
 804b53f:	83 45 e4 01          	add    DWORD PTR [ebp-0x1c],0x1
 804b543:	a1 60 f0 04 08       	mov    eax,ds:0x804f060
 804b548:	39 45 e4             	cmp    DWORD PTR [ebp-0x1c],eax
 804b54b:	7c b7                	jl     804b504
 804b54d:	83 45 ec 01          	add    DWORD PTR [ebp-0x14],0x1
 804b551:	83 45 f0 01          	add    DWORD PTR [ebp-0x10],0x1
 804b555:	8b 45 ec             	mov    eax,DWORD PTR [ebp-0x14]
 804b558:	3b 45 f8             	cmp    eax,DWORD PTR [ebp-0x8]
 804b55b:	0f 8c 48 ff ff ff    	jl     804b4a9
 804b561:	83 c4 20             	add    esp,0x20
 804b564:	5b                   	pop    ebx
 804b565:	5d                   	pop    ebp
 804b566:	c3                   	ret

0804b567 <MergeSubSort_Int>:
 804b567:	55                   	push   ebp
 804b568:	89 e5                	mov    ebp,esp
 804b56a:	83 ec 28             	sub    esp,0x28
 804b56d:	8b 45 0c             	mov    eax,DWORD PTR [ebp+0xc]
 804b570:	3b 45 10             	cmp    eax,DWORD PTR [ebp+0x10]
 804b573:	7d 72                	jge    804b5e7
 804b575:	8b 45 0c             	mov    eax,DWORD PTR [ebp+0xc]
 804b578:	8b 55 10             	mov    edx,DWORD PTR [ebp+0x10]
 804b57b:	29 c2                	sub    edx,eax
 804b57d:	89 d0                	mov    eax,edx
 804b57f:	89 c2                	mov    edx,eax
 804b581:	c1 ea 1f             	shr    edx,0x1f
 804b584:	01 d0                	add    eax,edx
 804b586:	d1 f8                	sar    eax,1
 804b588:	89 c2                	mov    edx,eax
 804b58a:	8b 45 0c             	mov    eax,DWORD PTR [ebp+0xc]
 804b58d:	01 d0                	add    eax,edx
 804b58f:	89 45 f4             	mov    DWORD PTR [ebp-0xc],eax
 804b592:	8b 45 f4             	mov    eax,DWORD PTR [ebp-0xc]
 804b595:	89 44 24 08          	mov    DWORD PTR [esp+0x8],eax
 804b599:	8b 45 0c             	mov    eax,DWORD PTR [ebp+0xc]
 804b59c:	89 44 24 04          	mov    DWORD PTR [esp+0x4],eax
 804b5a0:	8b 45 08             	mov    eax,DWORD PTR [ebp+0x8]
 804b5a3:	89 04 24             	mov    DWORD PTR [esp],eax
 804b5a6:	e8 bc ff ff ff       	call   804b567
 804b5ab:	8b 45 f4             	mov    eax,DWORD PTR [ebp-0xc]
 804b5ae:	8d 50 01             	lea    edx,[eax+0x1]
 804b5b1:	8b 45 10             	mov    eax,DWORD PTR [ebp+0x10]
 804b5b4:	89 44 24 08          	mov    DWORD PTR [esp+0x8],eax
 804b5b8:	89 54 24 04          	mov    DWORD PTR [esp+0x4],edx
 804b5bc:	8b 45 08             	mov    eax,DWORD PTR [ebp+0x8]
 804b5bf:	89 04 24             	mov    DWORD PTR [esp],eax
 804b5c2:	e8 a0 ff ff ff       	call   804b567
 804b5c7:	8b 45 10             	mov    eax,DWORD PTR [ebp+0x10]
 804b5ca:	89 44 24 0c          	mov    DWORD PTR [esp+0xc],eax
 804b5ce:	8b 45 f4             	mov    eax,DWORD PTR [ebp-0xc]
 804b5d1:	89 44 24 08          	mov    DWORD PTR [esp+0x8],eax
 804b5d5:	8b 45 0c             	mov    eax,DWORD PTR [ebp+0xc]
 804b5d8:	89 44 24 04          	mov    DWORD PTR [esp+0x4],eax
 804b5dc:	8b 45 08             	mov    eax,DWORD PTR [ebp+0x8]
 804b5df:	89 04 24             	mov    DWORD PTR [esp],eax
 804b5e2:	e8 98 ea ff ff       	call   804a07f
 804b5e7:	c9                   	leave
 804b5e8:	c3                   	ret

0804b5e9 <MergeSubSort_Block>:
 804b5e9:	55                   	push   ebp
 804b5ea:	89 e5                	mov    ebp,esp
 804b5ec:	83 ec 28             	sub    esp,0x28
 804b5ef:	8b 45 0c             	mov    eax,DWORD PTR [ebp+0xc]
 804b5f2:	3b 45 10             	cmp    eax,DWORD PTR [ebp+0x10]
 804b5f5:	7d 72                	jge    804b669
 804b5f7:	8b 45 0c             	mov    eax,DWORD PTR [ebp+0xc]
 804b5fa:	8b 55 10             	mov    edx,DWORD PTR [ebp+0x10]
 804b5fd:	29 c2                	sub    edx,eax
 804b5ff:	89 d0                	mov    eax,edx
 804b601:	89 c2                	mov    edx,eax
 804b603:	c1 ea 1f             	shr    edx,0x1f
 804b606:	01 d0                	add    eax,edx
 804b608:	d1 f8                	sar    eax,1
 804b60a:	89 c2                	mov    edx,eax
 804b60c:	8b 45 0c             	mov    eax,DWORD PTR [ebp+0xc]
 804b60f:	01 d0                	add    eax,edx
 804b611:	89 45 f4             	mov    DWORD PTR [ebp-0xc],eax
 804b614:	8b 45 f4             	mov    eax,DWORD PTR [ebp-0xc]
 804b617:	89 44 24 08          	mov    DWORD PTR [esp+0x8],eax
 804b61b:	8b 45 0c             	mov    eax,DWORD PTR [ebp+0xc]
 804b61e:	89 44 24 04          	mov    DWORD PTR [esp+0x4],eax
 804b622:	8b 45 08             	mov    eax,DWORD PTR [ebp+0x8]
 804b625:	89 04 24             	mov    DWORD PTR [esp],eax
 804b628:	e8 bc ff ff ff       	call   804b5e9
 804b62d:	8b 45 f4             	mov    eax,DWORD PTR [ebp-0xc]
 804b630:	8d 50 01             	lea    edx,[eax+0x1]
 804b633:	8b 45 10             	mov    eax,DWORD PTR [ebp+0x10]
 804b636:	89 44 24 08          	mov    DWORD PTR [esp+0x8],eax
 804b63a:	89 54 24 04          	mov    DWORD PTR [esp+0x4],edx
 804b63e:	8b 45 08             	mov    eax,DWORD PTR [ebp+0x8]
 804b641:	89 04 24             	mov    DWORD PTR [esp],eax
 804b644:	e8 a0 ff ff ff       	call   804b5e9
 804b649:	8b 45 10             	mov    eax,DWORD PTR [ebp+0x10]
 804b64c:	89 44 24 0c          	mov    DWORD PTR [esp+0xc],eax
 804b650:	8b 45 f4             	mov    eax,DWORD PTR [ebp-0xc]
 804b653:	89 44 24 08          	mov    DWORD PTR [esp+0x8],eax
 804b657:	8b 45 0c             	mov    eax,DWORD PTR [ebp+0xc]
 804b65a:	89 44 24 04          	mov    DWORD PTR [esp+0x4],eax
 804b65e:	8b 45 08             	mov    eax,DWORD PTR [ebp+0x8]
 804b661:	89 04 24             	mov    DWORD PTR [esp],eax
 804b664:	e8 e8 eb ff ff       	call   804a251
 804b669:	c9                   	leave
 804b66a:	c3                   	ret

0804b66b <MergeSubSort_General>:
 804b66b:	55                   	push   ebp
 804b66c:	89 e5                	mov    ebp,esp
 804b66e:	83 ec 28             	sub    esp,0x28
 804b671:	8b 45 0c             	mov    eax,DWORD PTR [ebp+0xc]
 804b674:	3b 45 10             	cmp    eax,DWORD PTR [ebp+0x10]
 804b677:	7d 72                	jge    804b6eb
 804b679:	8b 45 0c             	mov    eax,DWORD PTR [ebp+0xc]
 804b67c:	8b 55 10             	mov    edx,DWORD PTR [ebp+0x10]
 804b67f:	29 c2                	sub    edx,eax
 804b681:	89 d0                	mov    eax,edx
 804b683:	89 c2                	mov    edx,eax
 804b685:	c1 ea 1f             	shr    edx,0x1f
 804b688:	01 d0                	add    eax,edx
 804b68a:	d1 f8                	sar    eax,1
 804b68c:	89 c2                	mov    edx,eax
 804b68e:	8b 45 0c             	mov    eax,DWORD PTR [ebp+0xc]
 804b691:	01 d0                	add    eax,edx
 804b693:	89 45 f4             	mov    DWORD PTR [ebp-0xc],eax
 804b696:	8b 45 f4             	mov    eax,DWORD PTR [ebp-0xc]
 804b699:	89 44 24 08          	mov    DWORD PTR [esp+0x8],eax
 804b69d:	8b 45 0c             	mov    eax,DWORD PTR [ebp+0xc]
 804b6a0:	89 44 24 04          	mov    DWORD PTR [esp+0x4],eax
 804b6a4:	8b 45 08             	mov    eax,DWORD PTR [ebp+0x8]
 804b6a7:	89 04 24             	mov    DWORD PTR [esp],eax
 804b6aa:	e8 bc ff ff ff       	call   804b66b
 804b6af:	8b 45 f4             	mov    eax,DWORD PTR [ebp-0xc]
 804b6b2:	8d 50 01             	lea    edx,[eax+0x1]
 804b6b5:	8b 45 10             	mov    eax,DWORD PTR [ebp+0x10]
 804b6b8:	89 44 24 08          	mov    DWORD PTR [esp+0x8],eax
 804b6bc:	89 54 24 04          	mov    DWORD PTR [esp+0x4],edx
 804b6c0:	8b 45 08             	mov    eax,DWORD PTR [ebp+0x8]
 804b6c3:	89 04 24             	mov    DWORD PTR [esp],eax
 804b6c6:	e8 a0 ff ff ff       	call   804b66b
 804b6cb:	8b 45 10             	mov    eax,DWORD PTR [ebp+0x10]
 804b6ce:	89 44 24 0c          	mov    DWORD PTR [esp+0xc],eax
 804b6d2:	8b 45 f4             	mov    eax,DWORD PTR [ebp-0xc]
 804b6d5:	89 44 24 08          	mov    DWORD PTR [esp+0x8],eax
 804b6d9:	8b 45 0c             	mov    eax,DWORD PTR [ebp+0xc]
 804b6dc:	89 44 24 04          	mov    DWORD PTR [esp+0x4],eax
 804b6e0:	8b 45 08             	mov    eax,DWORD PTR [ebp+0x8]
 804b6e3:	89 04 24             	mov    DWORD PTR [esp],eax
 804b6e6:	e8 a9 ee ff ff       	call   804a594
 804b6eb:	c9                   	leave
 804b6ec:	c3                   	ret

0804b6ed <MergeSubSort_TwoArray>:
 804b6ed:	55                   	push   ebp
 804b6ee:	89 e5                	mov    ebp,esp
 804b6f0:	83 ec 38             	sub    esp,0x38
 804b6f3:	8b 45 10             	mov    eax,DWORD PTR [ebp+0x10]
 804b6f6:	3b 45 14             	cmp    eax,DWORD PTR [ebp+0x14]
 804b6f9:	0f 8d 87 00 00 00    	jge    804b786
 804b6ff:	8b 45 10             	mov    eax,DWORD PTR [ebp+0x10]
 804b702:	8b 55 14             	mov    edx,DWORD PTR [ebp+0x14]
 804b705:	29 c2                	sub    edx,eax
 804b707:	89 d0                	mov    eax,edx
 804b709:	89 c2                	mov    edx,eax
 804b70b:	c1 ea 1f             	shr    edx,0x1f
 804b70e:	01 d0                	add    eax,edx
 804b710:	d1 f8                	sar    eax,1
 804b712:	89 c2                	mov    edx,eax
 804b714:	8b 45 10             	mov    eax,DWORD PTR [ebp+0x10]
 804b717:	01 d0                	add    eax,edx
 804b719:	89 45 f4             	mov    DWORD PTR [ebp-0xc],eax
 804b71c:	8b 45 f4             	mov    eax,DWORD PTR [ebp-0xc]
 804b71f:	89 44 24 0c          	mov    DWORD PTR [esp+0xc],eax
 804b723:	8b 45 10             	mov    eax,DWORD PTR [ebp+0x10]
 804b726:	89 44 24 08          	mov    DWORD PTR [esp+0x8],eax
 804b72a:	8b 45 0c             	mov    eax,DWORD PTR [ebp+0xc]
 804b72d:	89 44 24 04          	mov    DWORD PTR [esp+0x4],eax
 804b731:	8b 45 08             	mov    eax,DWORD PTR [ebp+0x8]
 804b734:	89 04 24             	mov    DWORD PTR [esp],eax
 804b737:	e8 b1 ff ff ff       	call   804b6ed
 804b73c:	8b 45 f4             	mov    eax,DWORD PTR [ebp-0xc]
 804b73f:	8d 50 01             	lea    edx,[eax+0x1]
 804b742:	8b 45 14             	mov    eax,DWORD PTR [ebp+0x14]
 804b745:	89 44 24 0c          	mov    DWORD PTR [esp+0xc],eax
 804b749:	89 54 24 08          	mov    DWORD PTR [esp+0x8],edx
 804b74d:	8b 45 0c             	mov    eax,DWORD PTR [ebp+0xc]
 804b750:	89 44 24 04          	mov    DWORD PTR [esp+0x4],eax
 804b754:	8b 45 08             	mov    eax,DWORD PTR [ebp+0x8]
 804b757:	89 04 24             	mov    DWORD PTR [esp],eax
 804b75a:	e8 8e ff ff ff       	call   804b6ed
 804b75f:	8b 45 14             	mov    eax,DWORD PTR [ebp+0x14]
 804b762:	89 44 24 10          	mov    DWORD PTR [esp+0x10],eax
 804b766:	8b 45 f4             	mov    eax,DWORD PTR [ebp-0xc]
 804b769:	89 44 24 0c          	mov    DWORD PTR [esp+0xc],eax
 804b76d:	8b 45 10             	mov    eax,DWORD PTR [ebp+0x10]
 804b770:	89 44 24 08          	mov    DWORD PTR [esp+0x8],eax
 804b774:	8b 45 0c             	mov    eax,DWORD PTR [ebp+0xc]
 804b777:	89 44 24 04          	mov    DWORD PTR [esp+0x4],eax
 804b77b:	8b 45 08             	mov    eax,DWORD PTR [ebp+0x8]
 804b77e:	89 04 24             	mov    DWORD PTR [esp],eax
 804b781:	e8 36 f2 ff ff       	call   804a9bc
 804b786:	c9                   	leave
 804b787:	c3                   	ret

0804b788 <MergeSubSort_TwoArray_TwoKey>:
 804b788:	55                   	push   ebp
 804b789:	89 e5                	mov    ebp,esp
 804b78b:	83 ec 38             	sub    esp,0x38
 804b78e:	8b 45 10             	mov    eax,DWORD PTR [ebp+0x10]
 804b791:	3b 45 14             	cmp    eax,DWORD PTR [ebp+0x14]
 804b794:	0f 8d 87 00 00 00    	jge    804b821
 804b79a:	8b 45 10             	mov    eax,DWORD PTR [ebp+0x10]
 804b79d:	8b 55 14             	mov    edx,DWORD PTR [ebp+0x14]
 804b7a0:	29 c2                	sub    edx,eax
 804b7a2:	89 d0                	mov    eax,edx
 804b7a4:	89 c2                	mov    edx,eax
 804b7a6:	c1 ea 1f             	shr    edx,0x1f
 804b7a9:	01 d0                	add    eax,edx
 804b7ab:	d1 f8                	sar    eax,1
 804b7ad:	89 c2                	mov    edx,eax
 804b7af:	8b 45 10             	mov    eax,DWORD PTR [ebp+0x10]
 804b7b2:	01 d0                	add    eax,edx
 804b7b4:	89 45 f4             	mov    DWORD PTR [ebp-0xc],eax
 804b7b7:	8b 45 f4             	mov    eax,DWORD PTR [ebp-0xc]
 804b7ba:	89 44 24 0c          	mov    DWORD PTR [esp+0xc],eax
 804b7be:	8b 45 10             	mov    eax,DWORD PTR [ebp+0x10]
 804b7c1:	89 44 24 08          	mov    DWORD PTR [esp+0x8],eax
 804b7c5:	8b 45 0c             	mov    eax,DWORD PTR [ebp+0xc]
 804b7c8:	89 44 24 04          	mov    DWORD PTR [esp+0x4],eax
 804b7cc:	8b 45 08             	mov    eax,DWORD PTR [ebp+0x8]
 804b7cf:	89 04 24             	mov    DWORD PTR [esp],eax
 804b7d2:	e8 b1 ff ff ff       	call   804b788
 804b7d7:	8b 45 f4             	mov    eax,DWORD PTR [ebp-0xc]
 804b7da:	8d 50 01             	lea    edx,[eax+0x1]
 804b7dd:	8b 45 14             	mov    eax,DWORD PTR [ebp+0x14]
 804b7e0:	89 44 24 0c          	mov    DWORD PTR [esp+0xc],eax
 804b7e4:	89 54 24 08          	mov    DWORD PTR [esp+0x8],edx
 804b7e8:	8b 45 0c             	mov    eax,DWORD PTR [ebp+0xc]
 804b7eb:	89 44 24 04          	mov    DWORD PTR [esp+0x4],eax
 804b7ef:	8b 45 08             	mov    eax,DWORD PTR [ebp+0x8]
 804b7f2:	89 04 24             	mov    DWORD PTR [esp],eax
 804b7f5:	e8 8e ff ff ff       	call   804b788
 804b7fa:	8b 45 14             	mov    eax,DWORD PTR [ebp+0x14]
 804b7fd:	89 44 24 10          	mov    DWORD PTR [esp+0x10],eax
 804b801:	8b 45 f4             	mov    eax,DWORD PTR [ebp-0xc]
 804b804:	89 44 24 0c          	mov    DWORD PTR [esp+0xc],eax
 804b808:	8b 45 10             	mov    eax,DWORD PTR [ebp+0x10]
 804b80b:	89 44 24 08          	mov    DWORD PTR [esp+0x8],eax
 804b80f:	8b 45 0c             	mov    eax,DWORD PTR [ebp+0xc]
 804b812:	89 44 24 04          	mov    DWORD PTR [esp+0x4],eax
 804b816:	8b 45 08             	mov    eax,DWORD PTR [ebp+0x8]
 804b819:	89 04 24             	mov    DWORD PTR [esp],eax
 804b81c:	e8 fe f6 ff ff       	call   804af1f
 804b821:	c9                   	leave
 804b822:	c3                   	ret

0804b823 <MergeSort_Int>:
 804b823:	55                   	push   ebp
 804b824:	89 e5                	mov    ebp,esp
 804b826:	83 ec 18             	sub    esp,0x18
 804b829:	8b 45 10             	mov    eax,DWORD PTR [ebp+0x10]
 804b82c:	a3 a4 f0 04 08       	mov    ds:0x804f0a4,eax
 804b831:	8b 45 0c             	mov    eax,DWORD PTR [ebp+0xc]
 804b834:	c1 e0 02             	shl    eax,0x2
 804b837:	89 04 24             	mov    DWORD PTR [esp],eax
 804b83a:	e8 21 cc ff ff       	call   8048460
 804b83f:	a3 94 f0 04 08       	mov    ds:0x804f094,eax
 804b844:	8b 45 0c             	mov    eax,DWORD PTR [ebp+0xc]
 804b847:	c1 e0 02             	shl    eax,0x2
 804b84a:	89 04 24             	mov    DWORD PTR [esp],eax
 804b84d:	e8 0e cc ff ff       	call   8048460
 804b852:	a3 98 f0 04 08       	mov    ds:0x804f098,eax
 804b857:	8b 45 0c             	mov    eax,DWORD PTR [ebp+0xc]
 804b85a:	83 e8 01             	sub    eax,0x1
 804b85d:	89 44 24 08          	mov    DWORD PTR [esp+0x8],eax
 804b861:	c7 44 24 04 00 00 00 	mov    DWORD PTR [esp+0x4],0x0
 804b868:	00 
 804b869:	8b 45 08             	mov    eax,DWORD PTR [ebp+0x8]
 804b86c:	89 04 24             	mov    DWORD PTR [esp],eax
 804b86f:	e8 f3 fc ff ff       	call   804b567
 804b874:	a1 94 f0 04 08       	mov    eax,ds:0x804f094
 804b879:	89 04 24             	mov    DWORD PTR [esp],eax
 804b87c:	e8 bf cb ff ff       	call   8048440
 804b881:	a1 98 f0 04 08       	mov    eax,ds:0x804f098
 804b886:	89 04 24             	mov    DWORD PTR [esp],eax
 804b889:	e8 b2 cb ff ff       	call   8048440
 804b88e:	c9                   	leave
 804b88f:	c3                   	ret

0804b890 <MergeSort_Block>:
 804b890:	55                   	push   ebp
 804b891:	89 e5                	mov    ebp,esp
 804b893:	83 ec 18             	sub    esp,0x18
 804b896:	8b 45 14             	mov    eax,DWORD PTR [ebp+0x14]
 804b899:	a3 a4 f0 04 08       	mov    ds:0x804f0a4,eax
 804b89e:	8b 45 10             	mov    eax,DWORD PTR [ebp+0x10]
 804b8a1:	a3 b0 f0 04 08       	mov    ds:0x804f0b0,eax
 804b8a6:	8b 45 18             	mov    eax,DWORD PTR [ebp+0x18]
 804b8a9:	a3 58 f0 04 08       	mov    ds:0x804f058,eax
 804b8ae:	8b 55 0c             	mov    edx,DWORD PTR [ebp+0xc]
 804b8b1:	8b 45 18             	mov    eax,DWORD PTR [ebp+0x18]
 804b8b4:	0f af c2             	imul   eax,edx
 804b8b7:	c1 e0 02             	shl    eax,0x2
 804b8ba:	89 04 24             	mov    DWORD PTR [esp],eax
 804b8bd:	e8 9e cb ff ff       	call   8048460
 804b8c2:	a3 94 f0 04 08       	mov    ds:0x804f094,eax
 804b8c7:	8b 55 0c             	mov    edx,DWORD PTR [ebp+0xc]
 804b8ca:	8b 45 18             	mov    eax,DWORD PTR [ebp+0x18]
 804b8cd:	0f af c2             	imul   eax,edx
 804b8d0:	c1 e0 02             	shl    eax,0x2
 804b8d3:	89 04 24             	mov    DWORD PTR [esp],eax
 804b8d6:	e8 85 cb ff ff       	call   8048460
 804b8db:	a3 98 f0 04 08       	mov    ds:0x804f098,eax
 804b8e0:	8b 45 0c             	mov    eax,DWORD PTR [ebp+0xc]
 804b8e3:	83 e8 01             	sub    eax,0x1
 804b8e6:	89 44 24 08          	mov    DWORD PTR [esp+0x8],eax
 804b8ea:	c7 44 24 04 00 00 00 	mov    DWORD PTR [esp+0x4],0x0
 804b8f1:	00 
 804b8f2:	8b 45 08             	mov    eax,DWORD PTR [ebp+0x8]
 804b8f5:	89 04 24             	mov    DWORD PTR [esp],eax
 804b8f8:	e8 ec fc ff ff       	call   804b5e9
 804b8fd:	a1 94 f0 04 08       	mov    eax,ds:0x804f094
 804b902:	89 04 24             	mov    DWORD PTR [esp],eax
 804b905:	e8 36 cb ff ff       	call   8048440
 804b90a:	a1 98 f0 04 08       	mov    eax,ds:0x804f098
 804b90f:	89 04 24             	mov    DWORD PTR [esp],eax
 804b912:	e8 29 cb ff ff       	call   8048440
 804b917:	c9                   	leave
 804b918:	c3                   	ret

0804b919 <MergeSort_General>:
 804b919:	55                   	push   ebp
 804b91a:	89 e5                	mov    ebp,esp
 804b91c:	83 ec 18             	sub    esp,0x18
 804b91f:	8b 45 18             	mov    eax,DWORD PTR [ebp+0x18]
 804b922:	a3 a8 f0 04 08       	mov    ds:0x804f0a8,eax
 804b927:	8b 45 20             	mov    eax,DWORD PTR [ebp+0x20]
 804b92a:	a3 ac f0 04 08       	mov    ds:0x804f0ac,eax
 804b92f:	8b 45 14             	mov    eax,DWORD PTR [ebp+0x14]
 804b932:	a3 b4 f0 04 08       	mov    ds:0x804f0b4,eax
 804b937:	8b 45 1c             	mov    eax,DWORD PTR [ebp+0x1c]
 804b93a:	a3 b8 f0 04 08       	mov    ds:0x804f0b8,eax
 804b93f:	8b 45 10             	mov    eax,DWORD PTR [ebp+0x10]
 804b942:	a3 58 f0 04 08       	mov    ds:0x804f058,eax
 804b947:	8b 55 0c             	mov    edx,DWORD PTR [ebp+0xc]
 804b94a:	8b 45 10             	mov    eax,DWORD PTR [ebp+0x10]
 804b94d:	0f af c2             	imul   eax,edx
 804b950:	c1 e0 02             	shl    eax,0x2
 804b953:	89 04 24             	mov    DWORD PTR [esp],eax
 804b956:	e8 05 cb ff ff       	call   8048460
 804b95b:	a3 94 f0 04 08       	mov    ds:0x804f094,eax
 804b960:	8b 55 0c             	mov    edx,DWORD PTR [ebp+0xc]
 804b963:	8b 45 10             	mov    eax,DWORD PTR [ebp+0x10]
 804b966:	0f af c2             	imul   eax,edx
 804b969:	c1 e0 02             	shl    eax,0x2
 804b96c:	89 04 24             	mov    DWORD PTR [esp],eax
 804b96f:	e8 ec ca ff ff       	call   8048460
 804b974:	a3 98 f0 04 08       	mov    ds:0x804f098,eax
 804b979:	8b 45 0c             	mov    eax,DWORD PTR [ebp+0xc]
 804b97c:	83 e8 01             	sub    eax,0x1
 804b97f:	89 44 24 08          	mov    DWORD PTR [esp+0x8],eax
 804b983:	c7 44 24 04 00 00 00 	mov    DWORD PTR [esp+0x4],0x0
 804b98a:	00 
 804b98b:	8b 45 08             	mov    eax,DWORD PTR [ebp+0x8]
 804b98e:	89 04 24             	mov    DWORD PTR [esp],eax
 804b991:	e8 d5 fc ff ff       	call   804b66b
 804b996:	a1 94 f0 04 08       	mov    eax,ds:0x804f094
 804b99b:	89 04 24             	mov    DWORD PTR [esp],eax
 804b99e:	e8 9d ca ff ff       	call   8048440
 804b9a3:	a1 98 f0 04 08       	mov    eax,ds:0x804f098
 804b9a8:	89 04 24             	mov    DWORD PTR [esp],eax
 804b9ab:	e8 90 ca ff ff       	call   8048440
 804b9b0:	c9                   	leave
 804b9b1:	c3                   	ret

0804b9b2 <MergeSort_TwoArray>:
 804b9b2:	55                   	push   ebp
 804b9b3:	89 e5                	mov    ebp,esp
 804b9b5:	83 ec 18             	sub    esp,0x18
 804b9b8:	8b 45 18             	mov    eax,DWORD PTR [ebp+0x18]
 804b9bb:	a3 a4 f0 04 08       	mov    ds:0x804f0a4,eax
 804b9c0:	8b 45 14             	mov    eax,DWORD PTR [ebp+0x14]
 804b9c3:	a3 b0 f0 04 08       	mov    ds:0x804f0b0,eax
 804b9c8:	8b 45 1c             	mov    eax,DWORD PTR [ebp+0x1c]
 804b9cb:	a3 5c f0 04 08       	mov    ds:0x804f05c,eax
 804b9d0:	8b 45 20             	mov    eax,DWORD PTR [ebp+0x20]
 804b9d3:	a3 60 f0 04 08       	mov    ds:0x804f060,eax
 804b9d8:	8b 55 10             	mov    edx,DWORD PTR [ebp+0x10]
 804b9db:	8b 45 1c             	mov    eax,DWORD PTR [ebp+0x1c]
 804b9de:	0f af c2             	imul   eax,edx
 804b9e1:	c1 e0 02             	shl    eax,0x2
 804b9e4:	89 04 24             	mov    DWORD PTR [esp],eax
 804b9e7:	e8 74 ca ff ff       	call   8048460
 804b9ec:	a3 94 f0 04 08       	mov    ds:0x804f094,eax
 804b9f1:	8b 55 10             	mov    edx,DWORD PTR [ebp+0x10]
 804b9f4:	8b 45 1c             	mov    eax,DWORD PTR [ebp+0x1c]
 804b9f7:	0f af c2             	imul   eax,edx
 804b9fa:	c1 e0 02             	shl    eax,0x2
 804b9fd:	89 04 24             	mov    DWORD PTR [esp],eax
 804ba00:	e8 5b ca ff ff       	call   8048460
 804ba05:	a3 98 f0 04 08       	mov    ds:0x804f098,eax
 804ba0a:	8b 55 10             	mov    edx,DWORD PTR [ebp+0x10]
 804ba0d:	8b 45 20             	mov    eax,DWORD PTR [ebp+0x20]
 804ba10:	0f af c2             	imul   eax,edx
 804ba13:	c1 e0 02             	shl    eax,0x2
 804ba16:	89 04 24             	mov    DWORD PTR [esp],eax
 804ba19:	e8 42 ca ff ff       	call   8048460
 804ba1e:	a3 9c f0 04 08       	mov    ds:0x804f09c,eax
 804ba23:	8b 55 10             	mov    edx,DWORD PTR [ebp+0x10]
 804ba26:	8b 45 20             	mov    eax,DWORD PTR [ebp+0x20]
 804ba29:	0f af c2             	imul   eax,edx
 804ba2c:	c1 e0 02             	shl    eax,0x2
 804ba2f:	89 04 24             	mov    DWORD PTR [esp],eax
 804ba32:	e8 29 ca ff ff       	call   8048460
 804ba37:	a3 a0 f0 04 08       	mov    ds:0x804f0a0,eax
 804ba3c:	8b 45 10             	mov    eax,DWORD PTR [ebp+0x10]
 804ba3f:	83 e8 01             	sub    eax,0x1
 804ba42:	89 44 24 0c          	mov    DWORD PTR [esp+0xc],eax
 804ba46:	c7 44 24 08 00 00 00 	mov    DWORD PTR [esp+0x8],0x0
 804ba4d:	00 
 804ba4e:	8b 45 0c             	mov    eax,DWORD PTR [ebp+0xc]
 804ba51:	89 44 24 04          	mov    DWORD PTR [esp+0x4],eax
 804ba55:	8b 45 08             	mov    eax,DWORD PTR [ebp+0x8]
 804ba58:	89 04 24             	mov    DWORD PTR [esp],eax
 804ba5b:	e8 8d fc ff ff       	call   804b6ed
 804ba60:	a1 94 f0 04 08       	mov    eax,ds:0x804f094
 804ba65:	89 04 24             	mov    DWORD PTR [esp],eax
 804ba68:	e8 d3 c9 ff ff       	call   8048440
 804ba6d:	a1 98 f0 04 08       	mov    eax,ds:0x804f098
 804ba72:	89 04 24             	mov    DWORD PTR [esp],eax
 804ba75:	e8 c6 c9 ff ff       	call   8048440
 804ba7a:	a1 9c f0 04 08       	mov    eax,ds:0x804f09c
 804ba7f:	89 04 24             	mov    DWORD PTR [esp],eax
 804ba82:	e8 b9 c9 ff ff       	call   8048440
 804ba87:	a1 a0 f0 04 08       	mov    eax,ds:0x804f0a0
 804ba8c:	89 04 24             	mov    DWORD PTR [esp],eax
 804ba8f:	e8 ac c9 ff ff       	call   8048440
 804ba94:	c9                   	leave
 804ba95:	c3                   	ret

0804ba96 <MergeSort_TwoArray_TwoKey>:
 804ba96:	55                   	push   ebp
 804ba97:	89 e5                	mov    ebp,esp
 804ba99:	83 ec 18             	sub    esp,0x18
 804ba9c:	8b 45 18             	mov    eax,DWORD PTR [ebp+0x18]
 804ba9f:	a3 a8 f0 04 08       	mov    ds:0x804f0a8,eax
 804baa4:	8b 45 20             	mov    eax,DWORD PTR [ebp+0x20]
 804baa7:	a3 ac f0 04 08       	mov    ds:0x804f0ac,eax
 804baac:	8b 45 14             	mov    eax,DWORD PTR [ebp+0x14]
 804baaf:	a3 b4 f0 04 08       	mov    ds:0x804f0b4,eax
 804bab4:	8b 45 1c             	mov    eax,DWORD PTR [ebp+0x1c]
 804bab7:	a3 b8 f0 04 08       	mov    ds:0x804f0b8,eax
 804babc:	8b 45 24             	mov    eax,DWORD PTR [ebp+0x24]
 804babf:	a3 5c f0 04 08       	mov    ds:0x804f05c,eax
 804bac4:	8b 45 28             	mov    eax,DWORD PTR [ebp+0x28]
 804bac7:	a3 60 f0 04 08       	mov    ds:0x804f060,eax
 804bacc:	8b 55 10             	mov    edx,DWORD PTR [ebp+0x10]
 804bacf:	8b 45 24             	mov    eax,DWORD PTR [ebp+0x24]
 804bad2:	0f af c2             	imul   eax,edx
 804bad5:	c1 e0 02             	shl    eax,0x2
 804bad8:	89 04 24             	mov    DWORD PTR [esp],eax
 804badb:	e8 80 c9 ff ff       	call   8048460
 804bae0:	a3 94 f0 04 08       	mov    ds:0x804f094,eax
 804bae5:	8b 55 10             	mov    edx,DWORD PTR [ebp+0x10]
 804bae8:	8b 45 24             	mov    eax,DWORD PTR [ebp+0x24]
 804baeb:	0f af c2             	imul   eax,edx
 804baee:	c1 e0 02             	shl    eax,0x2
 804baf1:	89 04 24             	mov    DWORD PTR [esp],eax
 804baf4:	e8 67 c9 ff ff       	call   8048460
 804baf9:	a3 98 f0 04 08       	mov    ds:0x804f098,eax
 804bafe:	8b 55 10             	mov    edx,DWORD PTR [ebp+0x10]
 804bb01:	8b 45 28             	mov    eax,DWORD PTR [ebp+0x28]
 804bb04:	0f af c2             	imul   eax,edx
 804bb07:	c1 e0 02             	shl    eax,0x2
 804bb0a:	89 04 24             	mov    DWORD PTR [esp],eax
 804bb0d:	e8 4e c9 ff ff       	call   8048460
 804bb12:	a3 9c f0 04 08       	mov    ds:0x804f09c,eax
 804bb17:	8b 55 10             	mov    edx,DWORD PTR [ebp+0x10]
 804bb1a:	8b 45 28             	mov    eax,DWORD PTR [ebp+0x28]
 804bb1d:	0f af c2             	imul   eax,edx
 804bb20:	c1 e0 02             	shl    eax,0x2
 804bb23:	89 04 24             	mov    DWORD PTR [esp],eax
 804bb26:	e8 35 c9 ff ff       	call   8048460
 804bb2b:	a3 a0 f0 04 08       	mov    ds:0x804f0a0,eax
 804bb30:	8b 45 10             	mov    eax,DWORD PTR [ebp+0x10]
 804bb33:	83 e8 01             	sub    eax,0x1
 804bb36:	89 44 24 0c          	mov    DWORD PTR [esp+0xc],eax
 804bb3a:	c7 44 24 08 00 00 00 	mov    DWORD PTR [esp+0x8],0x0
 804bb41:	00 
 804bb42:	8b 45 0c             	mov    eax,DWORD PTR [ebp+0xc]
 804bb45:	89 44 24 04          	mov    DWORD PTR [esp+0x4],eax
 804bb49:	8b 45 08             	mov    eax,DWORD PTR [ebp+0x8]
 804bb4c:	89 04 24             	mov    DWORD PTR [esp],eax
 804bb4f:	e8 34 fc ff ff       	call   804b788
 804bb54:	a1 94 f0 04 08       	mov    eax,ds:0x804f094
 804bb59:	89 04 24             	mov    DWORD PTR [esp],eax
 804bb5c:	e8 df c8 ff ff       	call   8048440
 804bb61:	a1 98 f0 04 08       	mov    eax,ds:0x804f098
 804bb66:	89 04 24             	mov    DWORD PTR [esp],eax
 804bb69:	e8 d2 c8 ff ff       	call   8048440
 804bb6e:	a1 9c f0 04 08       	mov    eax,ds:0x804f09c
 804bb73:	89 04 24             	mov    DWORD PTR [esp],eax
 804bb76:	e8 c5 c8 ff ff       	call   8048440
 804bb7b:	a1 a0 f0 04 08       	mov    eax,ds:0x804f0a0
 804bb80:	89 04 24             	mov    DWORD PTR [esp],eax
 804bb83:	e8 b8 c8 ff ff       	call   8048440
 804bb88:	c9                   	leave
 804bb89:	c3                   	ret

0804bb8a <oswap>:
 804bb8a:	55                   	push   ebp
 804bb8b:	89 e5                	mov    ebp,esp
 804bb8d:	56                   	push   esi
 804bb8e:	53                   	push   ebx
 804bb8f:	8b 55 08             	mov    edx,DWORD PTR [ebp+0x8]
 804bb92:	8b 75 0c             	mov    esi,DWORD PTR [ebp+0xc]
 804bb95:	8b 02                	mov    eax,DWORD PTR [edx]
 804bb97:	8b 1e                	mov    ebx,DWORD PTR [esi]
 804bb99:	89 c1                	mov    ecx,eax
 804bb9b:	83 7d 10 00          	cmp    DWORD PTR [ebp+0x10],0x0
 804bb9f:	0f 45 c3             	cmovne eax,ebx
 804bba2:	0f 45 d9             	cmovne ebx,ecx
 804bba5:	89 02                	mov    DWORD PTR [edx],eax
 804bba7:	89 1e                	mov    DWORD PTR [esi],ebx
 804bba9:	5b                   	pop    ebx
 804bbaa:	5e                   	pop    esi
 804bbab:	5d                   	pop    ebp
 804bbac:	c3                   	ret

0804bbad <checkPowerOfTwo>:
 804bbad:	55                   	push   ebp
 804bbae:	89 e5                	mov    ebp,esp
 804bbb0:	83 ec 18             	sub    esp,0x18
 804bbb3:	eb 03                	jmp    804bbb8
 804bbb5:	d1 7d 08             	sar    DWORD PTR [ebp+0x8],1
 804bbb8:	8b 45 08             	mov    eax,DWORD PTR [ebp+0x8]
 804bbbb:	83 e0 01             	and    eax,0x1
 804bbbe:	85 c0                	test   eax,eax
 804bbc0:	74 f3                	je     804bbb5
 804bbc2:	83 7d 08 01          	cmp    DWORD PTR [ebp+0x8],0x1
 804bbc6:	74 4f                	je     804bc17
 804bbc8:	a1 80 f0 04 08       	mov    eax,ds:0x804f080
 804bbcd:	89 44 24 0c          	mov    DWORD PTR [esp+0xc],eax
 804bbd1:	c7 44 24 08 46 00 00 	mov    DWORD PTR [esp+0x8],0x46
 804bbd8:	00 
 804bbd9:	c7 44 24 04 01 00 00 	mov    DWORD PTR [esp+0x4],0x1
 804bbe0:	00 
 804bbe1:	c7 04 24 fc ce 04 08 	mov    DWORD PTR [esp],0x804cefc
 804bbe8:	e8 63 c8 ff ff       	call   8048450
 804bbed:	83 7d 08 01          	cmp    DWORD PTR [ebp+0x8],0x1
 804bbf1:	74 24                	je     804bc17
 804bbf3:	c7 44 24 0c 88 cf 04 	mov    DWORD PTR [esp+0xc],0x804cf88
 804bbfa:	08 
 804bbfb:	c7 44 24 08 28 00 00 	mov    DWORD PTR [esp+0x8],0x28
 804bc02:	00 
 804bc03:	c7 44 24 04 44 cf 04 	mov    DWORD PTR [esp+0x4],0x804cf44
 804bc0a:	08 
 804bc0b:	c7 04 24 7f cf 04 08 	mov    DWORD PTR [esp],0x804cf7f
 804bc12:	e8 b9 c8 ff ff       	call   80484d0
 804bc17:	c9                   	leave
 804bc18:	c3                   	ret

0804bc19 <CompAndSwap_Int>:
 804bc19:	55                   	push   ebp
 804bc1a:	89 e5                	mov    ebp,esp
 804bc1c:	83 ec 1c             	sub    esp,0x1c
 804bc1f:	8b 45 0c             	mov    eax,DWORD PTR [ebp+0xc]
 804bc22:	8d 14 85 00 00 00 00 	lea    edx,[eax*4]
 804bc29:	8b 45 08             	mov    eax,DWORD PTR [ebp+0x8]
 804bc2c:	01 d0                	add    eax,edx
 804bc2e:	8b 10                	mov    edx,DWORD PTR [eax]
 804bc30:	8b 45 10             	mov    eax,DWORD PTR [ebp+0x10]
 804bc33:	8d 0c 85 00 00 00 00 	lea    ecx,[eax*4]
 804bc3a:	8b 45 08             	mov    eax,DWORD PTR [ebp+0x8]
 804bc3d:	01 c8                	add    eax,ecx
 804bc3f:	8b 00                	mov    eax,DWORD PTR [eax]
 804bc41:	39 c2                	cmp    edx,eax
 804bc43:	0f 9f c0             	setg   al
 804bc46:	0f b6 c0             	movzx  eax,al
 804bc49:	89 45 f8             	mov    DWORD PTR [ebp-0x8],eax
 804bc4c:	8b 45 14             	mov    eax,DWORD PTR [ebp+0x14]
 804bc4f:	3b 45 f8             	cmp    eax,DWORD PTR [ebp-0x8]
 804bc52:	0f 94 c0             	sete   al
 804bc55:	0f b6 c0             	movzx  eax,al
 804bc58:	89 45 fc             	mov    DWORD PTR [ebp-0x4],eax
 804bc5b:	8b 45 10             	mov    eax,DWORD PTR [ebp+0x10]
 804bc5e:	8d 14 85 00 00 00 00 	lea    edx,[eax*4]
 804bc65:	8b 45 08             	mov    eax,DWORD PTR [ebp+0x8]
 804bc68:	8d 0c 02             	lea    ecx,[edx+eax]
 804bc6b:	8b 45 0c             	mov    eax,DWORD PTR [ebp+0xc]
 804bc6e:	8d 14 85 00 00 00 00 	lea    edx,[eax*4]
 804bc75:	8b 45 08             	mov    eax,DWORD PTR [ebp+0x8]
 804bc78:	01 c2                	add    edx,eax
 804bc7a:	8b 45 fc             	mov    eax,DWORD PTR [ebp-0x4]
 804bc7d:	89 44 24 08          	mov    DWORD PTR [esp+0x8],eax
 804bc81:	89 4c 24 04          	mov    DWORD PTR [esp+0x4],ecx
 804bc85:	89 14 24             	mov    DWORD PTR [esp],edx
 804bc88:	e8 fd fe ff ff       	call   804bb8a
 804bc8d:	c9                   	leave
 804bc8e:	c3                   	ret

0804bc8f <CompAndSwap_Block>:
 804bc8f:	55                   	push   ebp
 804bc90:	89 e5                	mov    ebp,esp
 804bc92:	83 ec 1c             	sub    esp,0x1c
 804bc95:	a1 64 f0 04 08       	mov    eax,ds:0x804f064
 804bc9a:	0f af 45 0c          	imul   eax,DWORD PTR [ebp+0xc]
 804bc9e:	89 c2                	mov    edx,eax
 804bca0:	a1 bc f0 04 08       	mov    eax,ds:0x804f0bc
 804bca5:	01 d0                	add    eax,edx
 804bca7:	8d 14 85 00 00 00 00 	lea    edx,[eax*4]
 804bcae:	8b 45 08             	mov    eax,DWORD PTR [ebp+0x8]
 804bcb1:	01 d0                	add    eax,edx
 804bcb3:	8b 10                	mov    edx,DWORD PTR [eax]
 804bcb5:	a1 64 f0 04 08       	mov    eax,ds:0x804f064
 804bcba:	0f af 45 10          	imul   eax,DWORD PTR [ebp+0x10]
 804bcbe:	89 c1                	mov    ecx,eax
 804bcc0:	a1 bc f0 04 08       	mov    eax,ds:0x804f0bc
 804bcc5:	01 c8                	add    eax,ecx
 804bcc7:	8d 0c 85 00 00 00 00 	lea    ecx,[eax*4]
 804bcce:	8b 45 08             	mov    eax,DWORD PTR [ebp+0x8]
 804bcd1:	01 c8                	add    eax,ecx
 804bcd3:	8b 00                	mov    eax,DWORD PTR [eax]
 804bcd5:	39 c2                	cmp    edx,eax
 804bcd7:	0f 9f c0             	setg   al
 804bcda:	0f b6 c0             	movzx  eax,al
 804bcdd:	89 45 f8             	mov    DWORD PTR [ebp-0x8],eax
 804bce0:	8b 45 14             	mov    eax,DWORD PTR [ebp+0x14]
 804bce3:	3b 45 f8             	cmp    eax,DWORD PTR [ebp-0x8]
 804bce6:	0f 94 c0             	sete   al
 804bce9:	0f b6 c0             	movzx  eax,al
 804bcec:	89 45 fc             	mov    DWORD PTR [ebp-0x4],eax
 804bcef:	c7 45 f4 00 00 00 00 	mov    DWORD PTR [ebp-0xc],0x0
 804bcf6:	eb 50                	jmp    804bd48
 804bcf8:	a1 64 f0 04 08       	mov    eax,ds:0x804f064
 804bcfd:	0f af 45 10          	imul   eax,DWORD PTR [ebp+0x10]
 804bd01:	89 c2                	mov    edx,eax
 804bd03:	8b 45 f4             	mov    eax,DWORD PTR [ebp-0xc]
 804bd06:	01 d0                	add    eax,edx
 804bd08:	8d 14 85 00 00 00 00 	lea    edx,[eax*4]
 804bd0f:	8b 45 08             	mov    eax,DWORD PTR [ebp+0x8]
 804bd12:	8d 0c 02             	lea    ecx,[edx+eax]
 804bd15:	a1 64 f0 04 08       	mov    eax,ds:0x804f064
 804bd1a:	0f af 45 0c          	imul   eax,DWORD PTR [ebp+0xc]
 804bd1e:	89 c2                	mov    edx,eax
 804bd20:	8b 45 f4             	mov    eax,DWORD PTR [ebp-0xc]
 804bd23:	01 d0                	add    eax,edx
 804bd25:	8d 14 85 00 00 00 00 	lea    edx,[eax*4]
 804bd2c:	8b 45 08             	mov    eax,DWORD PTR [ebp+0x8]
 804bd2f:	01 c2                	add    edx,eax
 804bd31:	8b 45 fc             	mov    eax,DWORD PTR [ebp-0x4]
 804bd34:	89 44 24 08          	mov    DWORD PTR [esp+0x8],eax
 804bd38:	89 4c 24 04          	mov    DWORD PTR [esp+0x4],ecx
 804bd3c:	89 14 24             	mov    DWORD PTR [esp],edx
 804bd3f:	e8 46 fe ff ff       	call   804bb8a
 804bd44:	83 45 f4 01          	add    DWORD PTR [ebp-0xc],0x1
 804bd48:	a1 64 f0 04 08       	mov    eax,ds:0x804f064
 804bd4d:	39 45 f4             	cmp    DWORD PTR [ebp-0xc],eax
 804bd50:	7c a6                	jl     804bcf8
 804bd52:	c9                   	leave
 804bd53:	c3                   	ret

0804bd54 <CompAndSwap_General>:
 804bd54:	55                   	push   ebp
 804bd55:	89 e5                	mov    ebp,esp
 804bd57:	83 ec 2c             	sub    esp,0x2c
 804bd5a:	a1 64 f0 04 08       	mov    eax,ds:0x804f064
 804bd5f:	0f af 45 0c          	imul   eax,DWORD PTR [ebp+0xc]
 804bd63:	89 c2                	mov    edx,eax
 804bd65:	a1 c0 f0 04 08       	mov    eax,ds:0x804f0c0
 804bd6a:	01 d0                	add    eax,edx
 804bd6c:	8d 14 85 00 00 00 00 	lea    edx,[eax*4]
 804bd73:	8b 45 08             	mov    eax,DWORD PTR [ebp+0x8]
 804bd76:	01 d0                	add    eax,edx
 804bd78:	8b 10                	mov    edx,DWORD PTR [eax]
 804bd7a:	a1 64 f0 04 08       	mov    eax,ds:0x804f064
 804bd7f:	0f af 45 10          	imul   eax,DWORD PTR [ebp+0x10]
 804bd83:	89 c1                	mov    ecx,eax
 804bd85:	a1 c0 f0 04 08       	mov    eax,ds:0x804f0c0
 804bd8a:	01 c8                	add    eax,ecx
 804bd8c:	8d 0c 85 00 00 00 00 	lea    ecx,[eax*4]
 804bd93:	8b 45 08             	mov    eax,DWORD PTR [ebp+0x8]
 804bd96:	01 c8                	add    eax,ecx
 804bd98:	8b 00                	mov    eax,DWORD PTR [eax]
 804bd9a:	39 c2                	cmp    edx,eax
 804bd9c:	0f 94 c0             	sete   al
 804bd9f:	0f b6 c0             	movzx  eax,al
 804bda2:	89 45 f0             	mov    DWORD PTR [ebp-0x10],eax
 804bda5:	a1 64 f0 04 08       	mov    eax,ds:0x804f064
 804bdaa:	0f af 45 0c          	imul   eax,DWORD PTR [ebp+0xc]
 804bdae:	89 c2                	mov    edx,eax
 804bdb0:	a1 c0 f0 04 08       	mov    eax,ds:0x804f0c0
 804bdb5:	01 d0                	add    eax,edx
 804bdb7:	8d 14 85 00 00 00 00 	lea    edx,[eax*4]
 804bdbe:	8b 45 08             	mov    eax,DWORD PTR [ebp+0x8]
 804bdc1:	01 d0                	add    eax,edx
 804bdc3:	8b 10                	mov    edx,DWORD PTR [eax]
 804bdc5:	a1 64 f0 04 08       	mov    eax,ds:0x804f064
 804bdca:	0f af 45 10          	imul   eax,DWORD PTR [ebp+0x10]
 804bdce:	89 c1                	mov    ecx,eax
 804bdd0:	a1 c0 f0 04 08       	mov    eax,ds:0x804f0c0
 804bdd5:	01 c8                	add    eax,ecx
 804bdd7:	8d 0c 85 00 00 00 00 	lea    ecx,[eax*4]
 804bdde:	8b 45 08             	mov    eax,DWORD PTR [ebp+0x8]
 804bde1:	01 c8                	add    eax,ecx
 804bde3:	8b 00                	mov    eax,DWORD PTR [eax]
 804bde5:	39 c2                	cmp    edx,eax
 804bde7:	0f 9f c0             	setg   al
 804bdea:	0f b6 c0             	movzx  eax,al
 804bded:	89 45 f4             	mov    DWORD PTR [ebp-0xc],eax
 804bdf0:	a1 64 f0 04 08       	mov    eax,ds:0x804f064
 804bdf5:	0f af 45 0c          	imul   eax,DWORD PTR [ebp+0xc]
 804bdf9:	89 c2                	mov    edx,eax
 804bdfb:	a1 c4 f0 04 08       	mov    eax,ds:0x804f0c4
 804be00:	01 d0                	add    eax,edx
 804be02:	8d 14 85 00 00 00 00 	lea    edx,[eax*4]
 804be09:	8b 45 08             	mov    eax,DWORD PTR [ebp+0x8]
 804be0c:	01 d0                	add    eax,edx
 804be0e:	8b 10                	mov    edx,DWORD PTR [eax]
 804be10:	a1 64 f0 04 08       	mov    eax,ds:0x804f064
 804be15:	0f af 45 10          	imul   eax,DWORD PTR [ebp+0x10]
 804be19:	89 c1                	mov    ecx,eax
 804be1b:	a1 c4 f0 04 08       	mov    eax,ds:0x804f0c4
 804be20:	01 c8                	add    eax,ecx
 804be22:	8d 0c 85 00 00 00 00 	lea    ecx,[eax*4]
 804be29:	8b 45 08             	mov    eax,DWORD PTR [ebp+0x8]
 804be2c:	01 c8                	add    eax,ecx
 804be2e:	8b 00                	mov    eax,DWORD PTR [eax]
 804be30:	39 c2                	cmp    edx,eax
 804be32:	0f 9f c0             	setg   al
 804be35:	0f b6 c0             	movzx  eax,al
 804be38:	89 45 f8             	mov    DWORD PTR [ebp-0x8],eax
 804be3b:	83 7d f0 00          	cmp    DWORD PTR [ebp-0x10],0x0
 804be3f:	75 08                	jne    804be49
 804be41:	8b 45 f4             	mov    eax,DWORD PTR [ebp-0xc]
 804be44:	3b 45 14             	cmp    eax,DWORD PTR [ebp+0x14]
 804be47:	74 0e                	je     804be57
 804be49:	83 7d f0 00          	cmp    DWORD PTR [ebp-0x10],0x0
 804be4d:	74 0f                	je     804be5e
 804be4f:	8b 45 f8             	mov    eax,DWORD PTR [ebp-0x8]
 804be52:	3b 45 18             	cmp    eax,DWORD PTR [ebp+0x18]
 804be55:	75 07                	jne    804be5e
 804be57:	b8 01 00 00 00       	mov    eax,0x1
 804be5c:	eb 05                	jmp    804be63
 804be5e:	b8 00 00 00 00       	mov    eax,0x0
 804be63:	89 45 fc             	mov    DWORD PTR [ebp-0x4],eax
 804be66:	c7 45 ec 00 00 00 00 	mov    DWORD PTR [ebp-0x14],0x0
 804be6d:	eb 50                	jmp    804bebf
 804be6f:	a1 64 f0 04 08       	mov    eax,ds:0x804f064
 804be74:	0f af 45 10          	imul   eax,DWORD PTR [ebp+0x10]
 804be78:	89 c2                	mov    edx,eax
 804be7a:	8b 45 ec             	mov    eax,DWORD PTR [ebp-0x14]
 804be7d:	01 d0                	add    eax,edx
 804be7f:	8d 14 85 00 00 00 00 	lea    edx,[eax*4]
 804be86:	8b 45 08             	mov    eax,DWORD PTR [ebp+0x8]
 804be89:	8d 0c 02             	lea    ecx,[edx+eax]
 804be8c:	a1 64 f0 04 08       	mov    eax,ds:0x804f064
 804be91:	0f af 45 0c          	imul   eax,DWORD PTR [ebp+0xc]
 804be95:	89 c2                	mov    edx,eax
 804be97:	8b 45 ec             	mov    eax,DWORD PTR [ebp-0x14]
 804be9a:	01 d0                	add    eax,edx
 804be9c:	8d 14 85 00 00 00 00 	lea    edx,[eax*4]
 804bea3:	8b 45 08             	mov    eax,DWORD PTR [ebp+0x8]
 804bea6:	01 c2                	add    edx,eax
 804bea8:	8b 45 fc             	mov    eax,DWORD PTR [ebp-0x4]
 804beab:	89 44 24 08          	mov    DWORD PTR [esp+0x8],eax
 804beaf:	89 4c 24 04          	mov    DWORD PTR [esp+0x4],ecx
 804beb3:	89 14 24             	mov    DWORD PTR [esp],edx
 804beb6:	e8 cf fc ff ff       	call   804bb8a
 804bebb:	83 45 ec 01          	add    DWORD PTR [ebp-0x14],0x1
 804bebf:	a1 64 f0 04 08       	mov    eax,ds:0x804f064
 804bec4:	39 45 ec             	cmp    DWORD PTR [ebp-0x14],eax
 804bec7:	7c a6                	jl     804be6f
 804bec9:	c9                   	leave
 804beca:	c3                   	ret

0804becb <CompAndSwap_TwoArray>:
 804becb:	55                   	push   ebp
 804becc:	89 e5                	mov    ebp,esp
 804bece:	83 ec 1c             	sub    esp,0x1c
 804bed1:	a1 68 f0 04 08       	mov    eax,ds:0x804f068
 804bed6:	0f af 45 10          	imul   eax,DWORD PTR [ebp+0x10]
 804beda:	89 c2                	mov    edx,eax
 804bedc:	a1 bc f0 04 08       	mov    eax,ds:0x804f0bc
 804bee1:	01 d0                	add    eax,edx
 804bee3:	8d 14 85 00 00 00 00 	lea    edx,[eax*4]
 804beea:	8b 45 08             	mov    eax,DWORD PTR [ebp+0x8]
 804beed:	01 d0                	add    eax,edx
 804beef:	8b 10                	mov    edx,DWORD PTR [eax]
 804bef1:	a1 68 f0 04 08       	mov    eax,ds:0x804f068
 804bef6:	0f af 45 14          	imul   eax,DWORD PTR [ebp+0x14]
 804befa:	89 c1                	mov    ecx,eax
 804befc:	a1 bc f0 04 08       	mov    eax,ds:0x804f0bc
 804bf01:	01 c8                	add    eax,ecx
 804bf03:	8d 0c 85 00 00 00 00 	lea    ecx,[eax*4]
 804bf0a:	8b 45 08             	mov    eax,DWORD PTR [ebp+0x8]
 804bf0d:	01 c8                	add    eax,ecx
 804bf0f:	8b 00                	mov    eax,DWORD PTR [eax]
 804bf11:	39 c2                	cmp    edx,eax
 804bf13:	0f 9f c0             	setg   al
 804bf16:	0f b6 c0             	movzx  eax,al
 804bf19:	89 45 f8             	mov    DWORD PTR [ebp-0x8],eax
 804bf1c:	8b 45 18             	mov    eax,DWORD PTR [ebp+0x18]
 804bf1f:	3b 45 f8             	cmp    eax,DWORD PTR [ebp-0x8]
 804bf22:	0f 94 c0             	sete   al
 804bf25:	0f b6 c0             	movzx  eax,al
 804bf28:	89 45 fc             	mov    DWORD PTR [ebp-0x4],eax
 804bf2b:	c7 45 f0 00 00 00 00 	mov    DWORD PTR [ebp-0x10],0x0
 804bf32:	eb 50                	jmp    804bf84
 804bf34:	a1 68 f0 04 08       	mov    eax,ds:0x804f068
 804bf39:	0f af 45 14          	imul   eax,DWORD PTR [ebp+0x14]
 804bf3d:	89 c2                	mov    edx,eax
 804bf3f:	8b 45 f0             	mov    eax,DWORD PTR [ebp-0x10]
 804bf42:	01 d0                	add    eax,edx
 804bf44:	8d 14 85 00 00 00 00 	lea    edx,[eax*4]
 804bf4b:	8b 45 08             	mov    eax,DWORD PTR [ebp+0x8]
 804bf4e:	8d 0c 02             	lea    ecx,[edx+eax]
 804bf51:	a1 68 f0 04 08       	mov    eax,ds:0x804f068
 804bf56:	0f af 45 10          	imul   eax,DWORD PTR [ebp+0x10]
 804bf5a:	89 c2                	mov    edx,eax
 804bf5c:	8b 45 f0             	mov    eax,DWORD PTR [ebp-0x10]
 804bf5f:	01 d0                	add    eax,edx
 804bf61:	8d 14 85 00 00 00 00 	lea    edx,[eax*4]
 804bf68:	8b 45 08             	mov    eax,DWORD PTR [ebp+0x8]
 804bf6b:	01 c2                	add    edx,eax
 804bf6d:	8b 45 fc             	mov    eax,DWORD PTR [ebp-0x4]
 804bf70:	89 44 24 08          	mov    DWORD PTR [esp+0x8],eax
 804bf74:	89 4c 24 04          	mov    DWORD PTR [esp+0x4],ecx
 804bf78:	89 14 24             	mov    DWORD PTR [esp],edx
 804bf7b:	e8 0a fc ff ff       	call   804bb8a
 804bf80:	83 45 f0 01          	add    DWORD PTR [ebp-0x10],0x1
 804bf84:	a1 68 f0 04 08       	mov    eax,ds:0x804f068
 804bf89:	39 45 f0             	cmp    DWORD PTR [ebp-0x10],eax
 804bf8c:	7c a6                	jl     804bf34
 804bf8e:	c7 45 f4 00 00 00 00 	mov    DWORD PTR [ebp-0xc],0x0
 804bf95:	eb 50                	jmp    804bfe7
 804bf97:	a1 6c f0 04 08       	mov    eax,ds:0x804f06c
 804bf9c:	0f af 45 14          	imul   eax,DWORD PTR [ebp+0x14]
 804bfa0:	89 c2                	mov    edx,eax
 804bfa2:	8b 45 f4             	mov    eax,DWORD PTR [ebp-0xc]
 804bfa5:	01 d0                	add    eax,edx
 804bfa7:	8d 14 85 00 00 00 00 	lea    edx,[eax*4]
 804bfae:	8b 45 0c             	mov    eax,DWORD PTR [ebp+0xc]
 804bfb1:	8d 0c 02             	lea    ecx,[edx+eax]
 804bfb4:	a1 6c f0 04 08       	mov    eax,ds:0x804f06c
 804bfb9:	0f af 45 10          	imul   eax,DWORD PTR [ebp+0x10]
 804bfbd:	89 c2                	mov    edx,eax
 804bfbf:	8b 45 f4             	mov    eax,DWORD PTR [ebp-0xc]
 804bfc2:	01 d0                	add    eax,edx
 804bfc4:	8d 14 85 00 00 00 00 	lea    edx,[eax*4]
 804bfcb:	8b 45 0c             	mov    eax,DWORD PTR [ebp+0xc]
 804bfce:	01 c2                	add    edx,eax
 804bfd0:	8b 45 fc             	mov    eax,DWORD PTR [ebp-0x4]
 804bfd3:	89 44 24 08          	mov    DWORD PTR [esp+0x8],eax
 804bfd7:	89 4c 24 04          	mov    DWORD PTR [esp+0x4],ecx
 804bfdb:	89 14 24             	mov    DWORD PTR [esp],edx
 804bfde:	e8 a7 fb ff ff       	call   804bb8a
 804bfe3:	83 45 f4 01          	add    DWORD PTR [ebp-0xc],0x1
 804bfe7:	a1 6c f0 04 08       	mov    eax,ds:0x804f06c
 804bfec:	39 45 f4             	cmp    DWORD PTR [ebp-0xc],eax
 804bfef:	7c a6                	jl     804bf97
 804bff1:	c9                   	leave
 804bff2:	c3                   	ret

0804bff3 <CompAndSwap_TwoArray_TwoKey>:
 804bff3:	55                   	push   ebp
 804bff4:	89 e5                	mov    ebp,esp
 804bff6:	83 ec 2c             	sub    esp,0x2c
 804bff9:	a1 68 f0 04 08       	mov    eax,ds:0x804f068
 804bffe:	0f af 45 10          	imul   eax,DWORD PTR [ebp+0x10]
 804c002:	89 c2                	mov    edx,eax
 804c004:	a1 c0 f0 04 08       	mov    eax,ds:0x804f0c0
 804c009:	01 d0                	add    eax,edx
 804c00b:	8d 14 85 00 00 00 00 	lea    edx,[eax*4]
 804c012:	8b 45 08             	mov    eax,DWORD PTR [ebp+0x8]
 804c015:	01 d0                	add    eax,edx
 804c017:	8b 10                	mov    edx,DWORD PTR [eax]
 804c019:	a1 68 f0 04 08       	mov    eax,ds:0x804f068
 804c01e:	0f af 45 14          	imul   eax,DWORD PTR [ebp+0x14]
 804c022:	89 c1                	mov    ecx,eax
 804c024:	a1 c0 f0 04 08       	mov    eax,ds:0x804f0c0
 804c029:	01 c8                	add    eax,ecx
 804c02b:	8d 0c 85 00 00 00 00 	lea    ecx,[eax*4]
 804c032:	8b 45 08             	mov    eax,DWORD PTR [ebp+0x8]
 804c035:	01 c8                	add    eax,ecx
 804c037:	8b 00                	mov    eax,DWORD PTR [eax]
 804c039:	39 c2                	cmp    edx,eax
 804c03b:	0f 94 c0             	sete   al
 804c03e:	0f b6 c0             	movzx  eax,al
 804c041:	89 45 f0             	mov    DWORD PTR [ebp-0x10],eax
 804c044:	a1 68 f0 04 08       	mov    eax,ds:0x804f068
 804c049:	0f af 45 10          	imul   eax,DWORD PTR [ebp+0x10]
 804c04d:	89 c2                	mov    edx,eax
 804c04f:	a1 c0 f0 04 08       	mov    eax,ds:0x804f0c0
 804c054:	01 d0                	add    eax,edx
 804c056:	8d 14 85 00 00 00 00 	lea    edx,[eax*4]
 804c05d:	8b 45 08             	mov    eax,DWORD PTR [ebp+0x8]
 804c060:	01 d0                	add    eax,edx
 804c062:	8b 10                	mov    edx,DWORD PTR [eax]
 804c064:	a1 68 f0 04 08       	mov    eax,ds:0x804f068
 804c069:	0f af 45 14          	imul   eax,DWORD PTR [ebp+0x14]
 804c06d:	89 c1                	mov    ecx,eax
 804c06f:	a1 c0 f0 04 08       	mov    eax,ds:0x804f0c0
 804c074:	01 c8                	add    eax,ecx
 804c076:	8d 0c 85 00 00 00 00 	lea    ecx,[eax*4]
 804c07d:	8b 45 08             	mov    eax,DWORD PTR [ebp+0x8]
 804c080:	01 c8                	add    eax,ecx
 804c082:	8b 00                	mov    eax,DWORD PTR [eax]
 804c084:	39 c2                	cmp    edx,eax
 804c086:	0f 9f c0             	setg   al
 804c089:	0f b6 c0             	movzx  eax,al
 804c08c:	89 45 f4             	mov    DWORD PTR [ebp-0xc],eax
 804c08f:	a1 68 f0 04 08       	mov    eax,ds:0x804f068
 804c094:	0f af 45 10          	imul   eax,DWORD PTR [ebp+0x10]
 804c098:	89 c2                	mov    edx,eax
 804c09a:	a1 c4 f0 04 08       	mov    eax,ds:0x804f0c4
 804c09f:	01 d0                	add    eax,edx
 804c0a1:	8d 14 85 00 00 00 00 	lea    edx,[eax*4]
 804c0a8:	8b 45 08             	mov    eax,DWORD PTR [ebp+0x8]
 804c0ab:	01 d0                	add    eax,edx
